

Microchip MPLAB XC8 Assembler V2.32 build 20210201212658 
                                                                                               Mon Aug 02 08:55:50 2021

Microchip MPLAB XC8 C Compiler v2.32 (Free license) build 20210201212658 Og1 
     1                           	processor	16F15376
     2                           	pagewidth 120
     3                           	opt	flic
     4                           	psect	idataBANK0,global,class=CODE,delta=2,noexec
     5                           	psect	stringtext1,global,class=STRCODE,delta=2,noexec
     6                           	psect	stringtext2,global,class=STRCODE,delta=2,noexec
     7                           	psect	stringtext3,global,class=STRCODE,delta=2,noexec
     8                           	psect	cinit,global,class=CODE,merge=1,delta=2
     9                           	psect	dataBANK0,global,class=BANK0,space=1,delta=1,noexec
    10                           	psect	cstackCOMMON,global,class=COMMON,space=1,delta=1,noexec
    11                           	psect	maintext,global,class=CODE,merge=1,split=1,delta=2
    12                           	psect	text1,local,class=CODE,merge=1,delta=2
    13                           	psect	text2,local,class=CODE,merge=1,delta=2
    14                           	psect	text3,local,class=CODE,merge=1,delta=2
    15                           	psect	text4,local,class=CODE,merge=1,delta=2
    16                           	psect	text5,local,class=CODE,merge=1,delta=2
    17                           	psect	text6,local,class=CODE,merge=1,delta=2
    18                           	psect	text7,local,class=CODE,merge=1,delta=2
    19                           	psect	text8,local,class=CODE,merge=1,delta=2
    20                           	psect	text9,local,class=CODE,merge=1,delta=2
    21                           	psect	text10,local,class=CODE,merge=1,delta=2
    22                           	psect	text11,local,class=CODE,merge=1,delta=2
    23                           	psect	text12,local,class=CODE,merge=1,delta=2
    24                           	psect	text13,local,class=CODE,merge=1,delta=2
    25                           	psect	text14,local,class=CODE,merge=1,delta=2
    26                           	psect	config,global,abs,ovrld,class=CONFIG,space=4,delta=2,noexec
    27                           	dabs	1,0x7E,2
    28  0000                     
    29                           ; Version 2.30
    30                           ; Generated 15/09/2020 GMT
    31                           ; 
    32                           ; Copyright © 2020, Microchip Technology Inc. and its subsidiaries ("Microchip")
    33                           ; All rights reserved.
    34                           ; 
    35                           ; This software is developed by Microchip Technology Inc. and its subsidiaries ("Microch
      +                          ip").
    36                           ; 
    37                           ; Redistribution and use in source and binary forms, with or without modification, are
    38                           ; permitted provided that the following conditions are met:
    39                           ; 
    40                           ;     1. Redistributions of source code must retain the above copyright notice, this lis
      +                          t of
    41                           ;        conditions and the following disclaimer.
    42                           ; 
    43                           ;     2. Redistributions in binary form must reproduce the above copyright notice, this 
      +                          list
    44                           ;        of conditions and the following disclaimer in the documentation and/or other
    45                           ;        materials provided with the distribution. Publication is not required when
    46                           ;        this file is used in an embedded application.
    47                           ; 
    48                           ;     3. Microchip's name may not be used to endorse or promote products derived from th
      +                          is
    49                           ;        software without specific prior written permission.
    50                           ; 
    51                           ; THIS SOFTWARE IS PROVIDED BY MICROCHIP "AS IS" AND ANY EXPRESS OR IMPLIED WARRANTIES,
    52                           ; INCLUDING, BUT NOT LIMITED TO, THE IMPLIED WARRANTIES OF MERCHANTABILITY AND FITNESS F
      +                          OR
    53                           ; PURPOSE ARE DISCLAIMED.  IN NO EVENT SHALL MICROCHIP BE LIABLE FOR ANY DIRECT, INDIREC
      +                          T,
    54                           ; INCIDENTAL, SPECIAL, EXEMPLARY, OR CONSEQUENTIAL DAMAGES (INCLUDING BUT NOT LIMITED TO
    55                           ; PROCUREMENT OF SUBSTITUTE GOODS OR SERVICES; LOSS OF USE, DATA OR PROFITS; OR BUSINESS
    56                           ; INTERRUPTION) HOWSOEVER CAUSED AND ON ANY THEORY OF LIABILITY, WHETHER IN CONTRACT, ST
      +                          RICT
    57                           ; LIABILITY, OR TORT (INCLUDING NEGLIGENCE OR OTHERWISE) ARISING IN ANY WAY OUT OF THE U
      +                          SE OF
    58                           ; THIS SOFTWARE, EVEN IF ADVISED OF THE POSSIBILITY OF SUCH DAMAGE.
    59                           ; 
    60                           ; 
    61                           ; Code-generator required, PIC16F15376 Definitions
    62                           ; 
    63                           ; SFR Addresses
    64  0000                     	;# 
    65  0001                     	;# 
    66  0002                     	;# 
    67  0003                     	;# 
    68  0004                     	;# 
    69  0005                     	;# 
    70  0006                     	;# 
    71  0007                     	;# 
    72  0008                     	;# 
    73  0009                     	;# 
    74  000A                     	;# 
    75  000B                     	;# 
    76  000C                     	;# 
    77  000D                     	;# 
    78  000E                     	;# 
    79  000F                     	;# 
    80  0010                     	;# 
    81  0012                     	;# 
    82  0013                     	;# 
    83  0014                     	;# 
    84  0015                     	;# 
    85  0016                     	;# 
    86  0018                     	;# 
    87  0019                     	;# 
    88  001A                     	;# 
    89  001B                     	;# 
    90  001C                     	;# 
    91  009B                     	;# 
    92  009B                     	;# 
    93  009C                     	;# 
    94  009D                     	;# 
    95  009E                     	;# 
    96  009F                     	;# 
    97  0119                     	;# 
    98  0119                     	;# 
    99  0119                     	;# 
   100  011A                     	;# 
   101  011A                     	;# 
   102  011A                     	;# 
   103  011B                     	;# 
   104  011B                     	;# 
   105  011B                     	;# 
   106  011B                     	;# 
   107  011B                     	;# 
   108  011C                     	;# 
   109  011C                     	;# 
   110  011C                     	;# 
   111  011D                     	;# 
   112  011D                     	;# 
   113  011D                     	;# 
   114  011E                     	;# 
   115  011E                     	;# 
   116  011E                     	;# 
   117  011F                     	;# 
   118  011F                     	;# 
   119  011F                     	;# 
   120  011F                     	;# 
   121  011F                     	;# 
   122  018C                     	;# 
   123  018D                     	;# 
   124  018E                     	;# 
   125  018F                     	;# 
   126  0190                     	;# 
   127  0191                     	;# 
   128  0192                     	;# 
   129  0196                     	;# 
   130  0197                     	;# 
   131  0198                     	;# 
   132  0199                     	;# 
   133  019A                     	;# 
   134  019B                     	;# 
   135  019C                     	;# 
   136  020C                     	;# 
   137  020C                     	;# 
   138  020D                     	;# 
   139  020E                     	;# 
   140  020F                     	;# 
   141  020F                     	;# 
   142  0210                     	;# 
   143  0210                     	;# 
   144  0211                     	;# 
   145  0211                     	;# 
   146  028C                     	;# 
   147  028C                     	;# 
   148  028D                     	;# 
   149  028D                     	;# 
   150  028E                     	;# 
   151  028F                     	;# 
   152  0290                     	;# 
   153  0291                     	;# 
   154  030C                     	;# 
   155  030C                     	;# 
   156  030D                     	;# 
   157  030E                     	;# 
   158  030F                     	;# 
   159  0310                     	;# 
   160  0310                     	;# 
   161  0311                     	;# 
   162  0312                     	;# 
   163  0313                     	;# 
   164  0314                     	;# 
   165  0314                     	;# 
   166  0315                     	;# 
   167  0316                     	;# 
   168  0318                     	;# 
   169  0318                     	;# 
   170  0319                     	;# 
   171  031A                     	;# 
   172  031C                     	;# 
   173  031C                     	;# 
   174  031D                     	;# 
   175  031E                     	;# 
   176  038C                     	;# 
   177  038C                     	;# 
   178  038D                     	;# 
   179  038E                     	;# 
   180  058C                     	;# 
   181  058C                     	;# 
   182  058D                     	;# 
   183  058E                     	;# 
   184  058F                     	;# 
   185  058F                     	;# 
   186  0590                     	;# 
   187  0591                     	;# 
   188  0592                     	;# 
   189  0593                     	;# 
   190  059C                     	;# 
   191  059C                     	;# 
   192  059D                     	;# 
   193  059D                     	;# 
   194  059E                     	;# 
   195  059F                     	;# 
   196  060C                     	;# 
   197  060D                     	;# 
   198  060E                     	;# 
   199  060F                     	;# 
   200  0610                     	;# 
   201  0611                     	;# 
   202  0612                     	;# 
   203  0613                     	;# 
   204  0614                     	;# 
   205  070C                     	;# 
   206  070D                     	;# 
   207  070E                     	;# 
   208  070F                     	;# 
   209  0710                     	;# 
   210  0711                     	;# 
   211  0712                     	;# 
   212  0713                     	;# 
   213  0716                     	;# 
   214  0717                     	;# 
   215  0718                     	;# 
   216  0719                     	;# 
   217  071A                     	;# 
   218  071B                     	;# 
   219  071C                     	;# 
   220  071D                     	;# 
   221  0796                     	;# 
   222  0797                     	;# 
   223  0798                     	;# 
   224  0799                     	;# 
   225  079A                     	;# 
   226  079B                     	;# 
   227  080C                     	;# 
   228  080D                     	;# 
   229  080E                     	;# 
   230  080F                     	;# 
   231  0810                     	;# 
   232  0811                     	;# 
   233  0812                     	;# 
   234  0813                     	;# 
   235  0814                     	;# 
   236  081A                     	;# 
   237  081A                     	;# 
   238  081B                     	;# 
   239  081C                     	;# 
   240  081C                     	;# 
   241  081D                     	;# 
   242  081E                     	;# 
   243  081F                     	;# 
   244  088C                     	;# 
   245  088D                     	;# 
   246  088E                     	;# 
   247  088F                     	;# 
   248  0890                     	;# 
   249  0891                     	;# 
   250  0892                     	;# 
   251  0893                     	;# 
   252  0895                     	;# 
   253  0896                     	;# 
   254  090C                     	;# 
   255  090E                     	;# 
   256  090F                     	;# 
   257  091F                     	;# 
   258  098F                     	;# 
   259  098F                     	;# 
   260  0990                     	;# 
   261  0991                     	;# 
   262  0992                     	;# 
   263  0993                     	;# 
   264  0994                     	;# 
   265  0995                     	;# 
   266  0996                     	;# 
   267  0997                     	;# 
   268  0A19                     	;# 
   269  0A19                     	;# 
   270  0A1A                     	;# 
   271  0A1A                     	;# 
   272  0A1B                     	;# 
   273  0A1B                     	;# 
   274  0A1B                     	;# 
   275  0A1C                     	;# 
   276  0A1C                     	;# 
   277  0A1D                     	;# 
   278  0A1D                     	;# 
   279  0A1E                     	;# 
   280  0A1E                     	;# 
   281  0A1F                     	;# 
   282  0A1F                     	;# 
   283  0A1F                     	;# 
   284  1E0F                     	;# 
   285  1E10                     	;# 
   286  1E11                     	;# 
   287  1E12                     	;# 
   288  1E13                     	;# 
   289  1E14                     	;# 
   290  1E15                     	;# 
   291  1E16                     	;# 
   292  1E17                     	;# 
   293  1E18                     	;# 
   294  1E19                     	;# 
   295  1E1A                     	;# 
   296  1E1B                     	;# 
   297  1E1C                     	;# 
   298  1E1D                     	;# 
   299  1E1E                     	;# 
   300  1E1F                     	;# 
   301  1E20                     	;# 
   302  1E21                     	;# 
   303  1E22                     	;# 
   304  1E23                     	;# 
   305  1E24                     	;# 
   306  1E25                     	;# 
   307  1E26                     	;# 
   308  1E27                     	;# 
   309  1E28                     	;# 
   310  1E29                     	;# 
   311  1E2A                     	;# 
   312  1E2B                     	;# 
   313  1E2C                     	;# 
   314  1E2D                     	;# 
   315  1E2E                     	;# 
   316  1E2F                     	;# 
   317  1E30                     	;# 
   318  1E31                     	;# 
   319  1E32                     	;# 
   320  1E33                     	;# 
   321  1E34                     	;# 
   322  1E35                     	;# 
   323  1E36                     	;# 
   324  1E37                     	;# 
   325  1E8F                     	;# 
   326  1E90                     	;# 
   327  1E91                     	;# 
   328  1E92                     	;# 
   329  1E93                     	;# 
   330  1E9C                     	;# 
   331  1EA1                     	;# 
   332  1EA2                     	;# 
   333  1EB1                     	;# 
   334  1EBB                     	;# 
   335  1EBC                     	;# 
   336  1EBD                     	;# 
   337  1EBE                     	;# 
   338  1EC3                     	;# 
   339  1EC5                     	;# 
   340  1EC6                     	;# 
   341  1EC7                     	;# 
   342  1EC8                     	;# 
   343  1EC9                     	;# 
   344  1ECA                     	;# 
   345  1ECB                     	;# 
   346  1ECC                     	;# 
   347  1ECD                     	;# 
   348  1ECE                     	;# 
   349  1F10                     	;# 
   350  1F11                     	;# 
   351  1F12                     	;# 
   352  1F13                     	;# 
   353  1F14                     	;# 
   354  1F15                     	;# 
   355  1F16                     	;# 
   356  1F17                     	;# 
   357  1F18                     	;# 
   358  1F19                     	;# 
   359  1F1A                     	;# 
   360  1F1B                     	;# 
   361  1F1C                     	;# 
   362  1F1D                     	;# 
   363  1F1E                     	;# 
   364  1F1F                     	;# 
   365  1F20                     	;# 
   366  1F21                     	;# 
   367  1F22                     	;# 
   368  1F23                     	;# 
   369  1F24                     	;# 
   370  1F25                     	;# 
   371  1F26                     	;# 
   372  1F27                     	;# 
   373  1F28                     	;# 
   374  1F29                     	;# 
   375  1F2A                     	;# 
   376  1F2B                     	;# 
   377  1F2C                     	;# 
   378  1F2D                     	;# 
   379  1F2E                     	;# 
   380  1F2F                     	;# 
   381  1F30                     	;# 
   382  1F31                     	;# 
   383  1F32                     	;# 
   384  1F38                     	;# 
   385  1F39                     	;# 
   386  1F3A                     	;# 
   387  1F3B                     	;# 
   388  1F3C                     	;# 
   389  1F3D                     	;# 
   390  1F3E                     	;# 
   391  1F3F                     	;# 
   392  1F43                     	;# 
   393  1F44                     	;# 
   394  1F45                     	;# 
   395  1F46                     	;# 
   396  1F47                     	;# 
   397  1F48                     	;# 
   398  1F49                     	;# 
   399  1F4A                     	;# 
   400  1F4E                     	;# 
   401  1F4F                     	;# 
   402  1F50                     	;# 
   403  1F51                     	;# 
   404  1F52                     	;# 
   405  1F53                     	;# 
   406  1F54                     	;# 
   407  1F55                     	;# 
   408  1F59                     	;# 
   409  1F5A                     	;# 
   410  1F5B                     	;# 
   411  1F5C                     	;# 
   412  1F5D                     	;# 
   413  1F64                     	;# 
   414  1F65                     	;# 
   415  1F66                     	;# 
   416  1F67                     	;# 
   417  1F68                     	;# 
   418  1F69                     	;# 
   419  1F6A                     	;# 
   420  1F6B                     	;# 
   421  1FE4                     	;# 
   422  1FE5                     	;# 
   423  1FE6                     	;# 
   424  1FE7                     	;# 
   425  1FE8                     	;# 
   426  1FE8                     	;# 
   427  1FE9                     	;# 
   428  1FEA                     	;# 
   429  1FEB                     	;# 
   430  1FED                     	;# 
   431  1FEE                     	;# 
   432  1FEF                     	;# 
   433  0000                     	;# 
   434  0001                     	;# 
   435  0002                     	;# 
   436  0003                     	;# 
   437  0004                     	;# 
   438  0005                     	;# 
   439  0006                     	;# 
   440  0007                     	;# 
   441  0008                     	;# 
   442  0009                     	;# 
   443  000A                     	;# 
   444  000B                     	;# 
   445  000C                     	;# 
   446  000D                     	;# 
   447  000E                     	;# 
   448  000F                     	;# 
   449  0010                     	;# 
   450  0012                     	;# 
   451  0013                     	;# 
   452  0014                     	;# 
   453  0015                     	;# 
   454  0016                     	;# 
   455  0018                     	;# 
   456  0019                     	;# 
   457  001A                     	;# 
   458  001B                     	;# 
   459  001C                     	;# 
   460  009B                     	;# 
   461  009B                     	;# 
   462  009C                     	;# 
   463  009D                     	;# 
   464  009E                     	;# 
   465  009F                     	;# 
   466  0119                     	;# 
   467  0119                     	;# 
   468  0119                     	;# 
   469  011A                     	;# 
   470  011A                     	;# 
   471  011A                     	;# 
   472  011B                     	;# 
   473  011B                     	;# 
   474  011B                     	;# 
   475  011B                     	;# 
   476  011B                     	;# 
   477  011C                     	;# 
   478  011C                     	;# 
   479  011C                     	;# 
   480  011D                     	;# 
   481  011D                     	;# 
   482  011D                     	;# 
   483  011E                     	;# 
   484  011E                     	;# 
   485  011E                     	;# 
   486  011F                     	;# 
   487  011F                     	;# 
   488  011F                     	;# 
   489  011F                     	;# 
   490  011F                     	;# 
   491  018C                     	;# 
   492  018D                     	;# 
   493  018E                     	;# 
   494  018F                     	;# 
   495  0190                     	;# 
   496  0191                     	;# 
   497  0192                     	;# 
   498  0196                     	;# 
   499  0197                     	;# 
   500  0198                     	;# 
   501  0199                     	;# 
   502  019A                     	;# 
   503  019B                     	;# 
   504  019C                     	;# 
   505  020C                     	;# 
   506  020C                     	;# 
   507  020D                     	;# 
   508  020E                     	;# 
   509  020F                     	;# 
   510  020F                     	;# 
   511  0210                     	;# 
   512  0210                     	;# 
   513  0211                     	;# 
   514  0211                     	;# 
   515  028C                     	;# 
   516  028C                     	;# 
   517  028D                     	;# 
   518  028D                     	;# 
   519  028E                     	;# 
   520  028F                     	;# 
   521  0290                     	;# 
   522  0291                     	;# 
   523  030C                     	;# 
   524  030C                     	;# 
   525  030D                     	;# 
   526  030E                     	;# 
   527  030F                     	;# 
   528  0310                     	;# 
   529  0310                     	;# 
   530  0311                     	;# 
   531  0312                     	;# 
   532  0313                     	;# 
   533  0314                     	;# 
   534  0314                     	;# 
   535  0315                     	;# 
   536  0316                     	;# 
   537  0318                     	;# 
   538  0318                     	;# 
   539  0319                     	;# 
   540  031A                     	;# 
   541  031C                     	;# 
   542  031C                     	;# 
   543  031D                     	;# 
   544  031E                     	;# 
   545  038C                     	;# 
   546  038C                     	;# 
   547  038D                     	;# 
   548  038E                     	;# 
   549  058C                     	;# 
   550  058C                     	;# 
   551  058D                     	;# 
   552  058E                     	;# 
   553  058F                     	;# 
   554  058F                     	;# 
   555  0590                     	;# 
   556  0591                     	;# 
   557  0592                     	;# 
   558  0593                     	;# 
   559  059C                     	;# 
   560  059C                     	;# 
   561  059D                     	;# 
   562  059D                     	;# 
   563  059E                     	;# 
   564  059F                     	;# 
   565  060C                     	;# 
   566  060D                     	;# 
   567  060E                     	;# 
   568  060F                     	;# 
   569  0610                     	;# 
   570  0611                     	;# 
   571  0612                     	;# 
   572  0613                     	;# 
   573  0614                     	;# 
   574  070C                     	;# 
   575  070D                     	;# 
   576  070E                     	;# 
   577  070F                     	;# 
   578  0710                     	;# 
   579  0711                     	;# 
   580  0712                     	;# 
   581  0713                     	;# 
   582  0716                     	;# 
   583  0717                     	;# 
   584  0718                     	;# 
   585  0719                     	;# 
   586  071A                     	;# 
   587  071B                     	;# 
   588  071C                     	;# 
   589  071D                     	;# 
   590  0796                     	;# 
   591  0797                     	;# 
   592  0798                     	;# 
   593  0799                     	;# 
   594  079A                     	;# 
   595  079B                     	;# 
   596  080C                     	;# 
   597  080D                     	;# 
   598  080E                     	;# 
   599  080F                     	;# 
   600  0810                     	;# 
   601  0811                     	;# 
   602  0812                     	;# 
   603  0813                     	;# 
   604  0814                     	;# 
   605  081A                     	;# 
   606  081A                     	;# 
   607  081B                     	;# 
   608  081C                     	;# 
   609  081C                     	;# 
   610  081D                     	;# 
   611  081E                     	;# 
   612  081F                     	;# 
   613  088C                     	;# 
   614  088D                     	;# 
   615  088E                     	;# 
   616  088F                     	;# 
   617  0890                     	;# 
   618  0891                     	;# 
   619  0892                     	;# 
   620  0893                     	;# 
   621  0895                     	;# 
   622  0896                     	;# 
   623  090C                     	;# 
   624  090E                     	;# 
   625  090F                     	;# 
   626  091F                     	;# 
   627  098F                     	;# 
   628  098F                     	;# 
   629  0990                     	;# 
   630  0991                     	;# 
   631  0992                     	;# 
   632  0993                     	;# 
   633  0994                     	;# 
   634  0995                     	;# 
   635  0996                     	;# 
   636  0997                     	;# 
   637  0A19                     	;# 
   638  0A19                     	;# 
   639  0A1A                     	;# 
   640  0A1A                     	;# 
   641  0A1B                     	;# 
   642  0A1B                     	;# 
   643  0A1B                     	;# 
   644  0A1C                     	;# 
   645  0A1C                     	;# 
   646  0A1D                     	;# 
   647  0A1D                     	;# 
   648  0A1E                     	;# 
   649  0A1E                     	;# 
   650  0A1F                     	;# 
   651  0A1F                     	;# 
   652  0A1F                     	;# 
   653  1E0F                     	;# 
   654  1E10                     	;# 
   655  1E11                     	;# 
   656  1E12                     	;# 
   657  1E13                     	;# 
   658  1E14                     	;# 
   659  1E15                     	;# 
   660  1E16                     	;# 
   661  1E17                     	;# 
   662  1E18                     	;# 
   663  1E19                     	;# 
   664  1E1A                     	;# 
   665  1E1B                     	;# 
   666  1E1C                     	;# 
   667  1E1D                     	;# 
   668  1E1E                     	;# 
   669  1E1F                     	;# 
   670  1E20                     	;# 
   671  1E21                     	;# 
   672  1E22                     	;# 
   673  1E23                     	;# 
   674  1E24                     	;# 
   675  1E25                     	;# 
   676  1E26                     	;# 
   677  1E27                     	;# 
   678  1E28                     	;# 
   679  1E29                     	;# 
   680  1E2A                     	;# 
   681  1E2B                     	;# 
   682  1E2C                     	;# 
   683  1E2D                     	;# 
   684  1E2E                     	;# 
   685  1E2F                     	;# 
   686  1E30                     	;# 
   687  1E31                     	;# 
   688  1E32                     	;# 
   689  1E33                     	;# 
   690  1E34                     	;# 
   691  1E35                     	;# 
   692  1E36                     	;# 
   693  1E37                     	;# 
   694  1E8F                     	;# 
   695  1E90                     	;# 
   696  1E91                     	;# 
   697  1E92                     	;# 
   698  1E93                     	;# 
   699  1E9C                     	;# 
   700  1EA1                     	;# 
   701  1EA2                     	;# 
   702  1EB1                     	;# 
   703  1EBB                     	;# 
   704  1EBC                     	;# 
   705  1EBD                     	;# 
   706  1EBE                     	;# 
   707  1EC3                     	;# 
   708  1EC5                     	;# 
   709  1EC6                     	;# 
   710  1EC7                     	;# 
   711  1EC8                     	;# 
   712  1EC9                     	;# 
   713  1ECA                     	;# 
   714  1ECB                     	;# 
   715  1ECC                     	;# 
   716  1ECD                     	;# 
   717  1ECE                     	;# 
   718  1F10                     	;# 
   719  1F11                     	;# 
   720  1F12                     	;# 
   721  1F13                     	;# 
   722  1F14                     	;# 
   723  1F15                     	;# 
   724  1F16                     	;# 
   725  1F17                     	;# 
   726  1F18                     	;# 
   727  1F19                     	;# 
   728  1F1A                     	;# 
   729  1F1B                     	;# 
   730  1F1C                     	;# 
   731  1F1D                     	;# 
   732  1F1E                     	;# 
   733  1F1F                     	;# 
   734  1F20                     	;# 
   735  1F21                     	;# 
   736  1F22                     	;# 
   737  1F23                     	;# 
   738  1F24                     	;# 
   739  1F25                     	;# 
   740  1F26                     	;# 
   741  1F27                     	;# 
   742  1F28                     	;# 
   743  1F29                     	;# 
   744  1F2A                     	;# 
   745  1F2B                     	;# 
   746  1F2C                     	;# 
   747  1F2D                     	;# 
   748  1F2E                     	;# 
   749  1F2F                     	;# 
   750  1F30                     	;# 
   751  1F31                     	;# 
   752  1F32                     	;# 
   753  1F38                     	;# 
   754  1F39                     	;# 
   755  1F3A                     	;# 
   756  1F3B                     	;# 
   757  1F3C                     	;# 
   758  1F3D                     	;# 
   759  1F3E                     	;# 
   760  1F3F                     	;# 
   761  1F43                     	;# 
   762  1F44                     	;# 
   763  1F45                     	;# 
   764  1F46                     	;# 
   765  1F47                     	;# 
   766  1F48                     	;# 
   767  1F49                     	;# 
   768  1F4A                     	;# 
   769  1F4E                     	;# 
   770  1F4F                     	;# 
   771  1F50                     	;# 
   772  1F51                     	;# 
   773  1F52                     	;# 
   774  1F53                     	;# 
   775  1F54                     	;# 
   776  1F55                     	;# 
   777  1F59                     	;# 
   778  1F5A                     	;# 
   779  1F5B                     	;# 
   780  1F5C                     	;# 
   781  1F5D                     	;# 
   782  1F64                     	;# 
   783  1F65                     	;# 
   784  1F66                     	;# 
   785  1F67                     	;# 
   786  1F68                     	;# 
   787  1F69                     	;# 
   788  1F6A                     	;# 
   789  1F6B                     	;# 
   790  1FE4                     	;# 
   791  1FE5                     	;# 
   792  1FE6                     	;# 
   793  1FE7                     	;# 
   794  1FE8                     	;# 
   795  1FE8                     	;# 
   796  1FE9                     	;# 
   797  1FEA                     	;# 
   798  1FEB                     	;# 
   799  1FED                     	;# 
   800  1FEE                     	;# 
   801  1FEF                     	;# 
   802  0000                     	;# 
   803  0001                     	;# 
   804  0002                     	;# 
   805  0003                     	;# 
   806  0004                     	;# 
   807  0005                     	;# 
   808  0006                     	;# 
   809  0007                     	;# 
   810  0008                     	;# 
   811  0009                     	;# 
   812  000A                     	;# 
   813  000B                     	;# 
   814  000C                     	;# 
   815  000D                     	;# 
   816  000E                     	;# 
   817  000F                     	;# 
   818  0010                     	;# 
   819  0012                     	;# 
   820  0013                     	;# 
   821  0014                     	;# 
   822  0015                     	;# 
   823  0016                     	;# 
   824  0018                     	;# 
   825  0019                     	;# 
   826  001A                     	;# 
   827  001B                     	;# 
   828  001C                     	;# 
   829  009B                     	;# 
   830  009B                     	;# 
   831  009C                     	;# 
   832  009D                     	;# 
   833  009E                     	;# 
   834  009F                     	;# 
   835  0119                     	;# 
   836  0119                     	;# 
   837  0119                     	;# 
   838  011A                     	;# 
   839  011A                     	;# 
   840  011A                     	;# 
   841  011B                     	;# 
   842  011B                     	;# 
   843  011B                     	;# 
   844  011B                     	;# 
   845  011B                     	;# 
   846  011C                     	;# 
   847  011C                     	;# 
   848  011C                     	;# 
   849  011D                     	;# 
   850  011D                     	;# 
   851  011D                     	;# 
   852  011E                     	;# 
   853  011E                     	;# 
   854  011E                     	;# 
   855  011F                     	;# 
   856  011F                     	;# 
   857  011F                     	;# 
   858  011F                     	;# 
   859  011F                     	;# 
   860  018C                     	;# 
   861  018D                     	;# 
   862  018E                     	;# 
   863  018F                     	;# 
   864  0190                     	;# 
   865  0191                     	;# 
   866  0192                     	;# 
   867  0196                     	;# 
   868  0197                     	;# 
   869  0198                     	;# 
   870  0199                     	;# 
   871  019A                     	;# 
   872  019B                     	;# 
   873  019C                     	;# 
   874  020C                     	;# 
   875  020C                     	;# 
   876  020D                     	;# 
   877  020E                     	;# 
   878  020F                     	;# 
   879  020F                     	;# 
   880  0210                     	;# 
   881  0210                     	;# 
   882  0211                     	;# 
   883  0211                     	;# 
   884  028C                     	;# 
   885  028C                     	;# 
   886  028D                     	;# 
   887  028D                     	;# 
   888  028E                     	;# 
   889  028F                     	;# 
   890  0290                     	;# 
   891  0291                     	;# 
   892  030C                     	;# 
   893  030C                     	;# 
   894  030D                     	;# 
   895  030E                     	;# 
   896  030F                     	;# 
   897  0310                     	;# 
   898  0310                     	;# 
   899  0311                     	;# 
   900  0312                     	;# 
   901  0313                     	;# 
   902  0314                     	;# 
   903  0314                     	;# 
   904  0315                     	;# 
   905  0316                     	;# 
   906  0318                     	;# 
   907  0318                     	;# 
   908  0319                     	;# 
   909  031A                     	;# 
   910  031C                     	;# 
   911  031C                     	;# 
   912  031D                     	;# 
   913  031E                     	;# 
   914  038C                     	;# 
   915  038C                     	;# 
   916  038D                     	;# 
   917  038E                     	;# 
   918  058C                     	;# 
   919  058C                     	;# 
   920  058D                     	;# 
   921  058E                     	;# 
   922  058F                     	;# 
   923  058F                     	;# 
   924  0590                     	;# 
   925  0591                     	;# 
   926  0592                     	;# 
   927  0593                     	;# 
   928  059C                     	;# 
   929  059C                     	;# 
   930  059D                     	;# 
   931  059D                     	;# 
   932  059E                     	;# 
   933  059F                     	;# 
   934  060C                     	;# 
   935  060D                     	;# 
   936  060E                     	;# 
   937  060F                     	;# 
   938  0610                     	;# 
   939  0611                     	;# 
   940  0612                     	;# 
   941  0613                     	;# 
   942  0614                     	;# 
   943  070C                     	;# 
   944  070D                     	;# 
   945  070E                     	;# 
   946  070F                     	;# 
   947  0710                     	;# 
   948  0711                     	;# 
   949  0712                     	;# 
   950  0713                     	;# 
   951  0716                     	;# 
   952  0717                     	;# 
   953  0718                     	;# 
   954  0719                     	;# 
   955  071A                     	;# 
   956  071B                     	;# 
   957  071C                     	;# 
   958  071D                     	;# 
   959  0796                     	;# 
   960  0797                     	;# 
   961  0798                     	;# 
   962  0799                     	;# 
   963  079A                     	;# 
   964  079B                     	;# 
   965  080C                     	;# 
   966  080D                     	;# 
   967  080E                     	;# 
   968  080F                     	;# 
   969  0810                     	;# 
   970  0811                     	;# 
   971  0812                     	;# 
   972  0813                     	;# 
   973  0814                     	;# 
   974  081A                     	;# 
   975  081A                     	;# 
   976  081B                     	;# 
   977  081C                     	;# 
   978  081C                     	;# 
   979  081D                     	;# 
   980  081E                     	;# 
   981  081F                     	;# 
   982  088C                     	;# 
   983  088D                     	;# 
   984  088E                     	;# 
   985  088F                     	;# 
   986  0890                     	;# 
   987  0891                     	;# 
   988  0892                     	;# 
   989  0893                     	;# 
   990  0895                     	;# 
   991  0896                     	;# 
   992  090C                     	;# 
   993  090E                     	;# 
   994  090F                     	;# 
   995  091F                     	;# 
   996  098F                     	;# 
   997  098F                     	;# 
   998  0990                     	;# 
   999  0991                     	;# 
  1000  0992                     	;# 
  1001  0993                     	;# 
  1002  0994                     	;# 
  1003  0995                     	;# 
  1004  0996                     	;# 
  1005  0997                     	;# 
  1006  0A19                     	;# 
  1007  0A19                     	;# 
  1008  0A1A                     	;# 
  1009  0A1A                     	;# 
  1010  0A1B                     	;# 
  1011  0A1B                     	;# 
  1012  0A1B                     	;# 
  1013  0A1C                     	;# 
  1014  0A1C                     	;# 
  1015  0A1D                     	;# 
  1016  0A1D                     	;# 
  1017  0A1E                     	;# 
  1018  0A1E                     	;# 
  1019  0A1F                     	;# 
  1020  0A1F                     	;# 
  1021  0A1F                     	;# 
  1022  1E0F                     	;# 
  1023  1E10                     	;# 
  1024  1E11                     	;# 
  1025  1E12                     	;# 
  1026  1E13                     	;# 
  1027  1E14                     	;# 
  1028  1E15                     	;# 
  1029  1E16                     	;# 
  1030  1E17                     	;# 
  1031  1E18                     	;# 
  1032  1E19                     	;# 
  1033  1E1A                     	;# 
  1034  1E1B                     	;# 
  1035  1E1C                     	;# 
  1036  1E1D                     	;# 
  1037  1E1E                     	;# 
  1038  1E1F                     	;# 
  1039  1E20                     	;# 
  1040  1E21                     	;# 
  1041  1E22                     	;# 
  1042  1E23                     	;# 
  1043  1E24                     	;# 
  1044  1E25                     	;# 
  1045  1E26                     	;# 
  1046  1E27                     	;# 
  1047  1E28                     	;# 
  1048  1E29                     	;# 
  1049  1E2A                     	;# 
  1050  1E2B                     	;# 
  1051  1E2C                     	;# 
  1052  1E2D                     	;# 
  1053  1E2E                     	;# 
  1054  1E2F                     	;# 
  1055  1E30                     	;# 
  1056  1E31                     	;# 
  1057  1E32                     	;# 
  1058  1E33                     	;# 
  1059  1E34                     	;# 
  1060  1E35                     	;# 
  1061  1E36                     	;# 
  1062  1E37                     	;# 
  1063  1E8F                     	;# 
  1064  1E90                     	;# 
  1065  1E91                     	;# 
  1066  1E92                     	;# 
  1067  1E93                     	;# 
  1068  1E9C                     	;# 
  1069  1EA1                     	;# 
  1070  1EA2                     	;# 
  1071  1EB1                     	;# 
  1072  1EBB                     	;# 
  1073  1EBC                     	;# 
  1074  1EBD                     	;# 
  1075  1EBE                     	;# 
  1076  1EC3                     	;# 
  1077  1EC5                     	;# 
  1078  1EC6                     	;# 
  1079  1EC7                     	;# 
  1080  1EC8                     	;# 
  1081  1EC9                     	;# 
  1082  1ECA                     	;# 
  1083  1ECB                     	;# 
  1084  1ECC                     	;# 
  1085  1ECD                     	;# 
  1086  1ECE                     	;# 
  1087  1F10                     	;# 
  1088  1F11                     	;# 
  1089  1F12                     	;# 
  1090  1F13                     	;# 
  1091  1F14                     	;# 
  1092  1F15                     	;# 
  1093  1F16                     	;# 
  1094  1F17                     	;# 
  1095  1F18                     	;# 
  1096  1F19                     	;# 
  1097  1F1A                     	;# 
  1098  1F1B                     	;# 
  1099  1F1C                     	;# 
  1100  1F1D                     	;# 
  1101  1F1E                     	;# 
  1102  1F1F                     	;# 
  1103  1F20                     	;# 
  1104  1F21                     	;# 
  1105  1F22                     	;# 
  1106  1F23                     	;# 
  1107  1F24                     	;# 
  1108  1F25                     	;# 
  1109  1F26                     	;# 
  1110  1F27                     	;# 
  1111  1F28                     	;# 
  1112  1F29                     	;# 
  1113  1F2A                     	;# 
  1114  1F2B                     	;# 
  1115  1F2C                     	;# 
  1116  1F2D                     	;# 
  1117  1F2E                     	;# 
  1118  1F2F                     	;# 
  1119  1F30                     	;# 
  1120  1F31                     	;# 
  1121  1F32                     	;# 
  1122  1F38                     	;# 
  1123  1F39                     	;# 
  1124  1F3A                     	;# 
  1125  1F3B                     	;# 
  1126  1F3C                     	;# 
  1127  1F3D                     	;# 
  1128  1F3E                     	;# 
  1129  1F3F                     	;# 
  1130  1F43                     	;# 
  1131  1F44                     	;# 
  1132  1F45                     	;# 
  1133  1F46                     	;# 
  1134  1F47                     	;# 
  1135  1F48                     	;# 
  1136  1F49                     	;# 
  1137  1F4A                     	;# 
  1138  1F4E                     	;# 
  1139  1F4F                     	;# 
  1140  1F50                     	;# 
  1141  1F51                     	;# 
  1142  1F52                     	;# 
  1143  1F53                     	;# 
  1144  1F54                     	;# 
  1145  1F55                     	;# 
  1146  1F59                     	;# 
  1147  1F5A                     	;# 
  1148  1F5B                     	;# 
  1149  1F5C                     	;# 
  1150  1F5D                     	;# 
  1151  1F64                     	;# 
  1152  1F65                     	;# 
  1153  1F66                     	;# 
  1154  1F67                     	;# 
  1155  1F68                     	;# 
  1156  1F69                     	;# 
  1157  1F6A                     	;# 
  1158  1F6B                     	;# 
  1159  1FE4                     	;# 
  1160  1FE5                     	;# 
  1161  1FE6                     	;# 
  1162  1FE7                     	;# 
  1163  1FE8                     	;# 
  1164  1FE8                     	;# 
  1165  1FE9                     	;# 
  1166  1FEA                     	;# 
  1167  1FEB                     	;# 
  1168  1FED                     	;# 
  1169  1FEE                     	;# 
  1170  1FEF                     	;# 
  1171  0000                     	;# 
  1172  0001                     	;# 
  1173  0002                     	;# 
  1174  0003                     	;# 
  1175  0004                     	;# 
  1176  0005                     	;# 
  1177  0006                     	;# 
  1178  0007                     	;# 
  1179  0008                     	;# 
  1180  0009                     	;# 
  1181  000A                     	;# 
  1182  000B                     	;# 
  1183  000C                     	;# 
  1184  000D                     	;# 
  1185  000E                     	;# 
  1186  000F                     	;# 
  1187  0010                     	;# 
  1188  0012                     	;# 
  1189  0013                     	;# 
  1190  0014                     	;# 
  1191  0015                     	;# 
  1192  0016                     	;# 
  1193  0018                     	;# 
  1194  0019                     	;# 
  1195  001A                     	;# 
  1196  001B                     	;# 
  1197  001C                     	;# 
  1198  009B                     	;# 
  1199  009B                     	;# 
  1200  009C                     	;# 
  1201  009D                     	;# 
  1202  009E                     	;# 
  1203  009F                     	;# 
  1204  0119                     	;# 
  1205  0119                     	;# 
  1206  0119                     	;# 
  1207  011A                     	;# 
  1208  011A                     	;# 
  1209  011A                     	;# 
  1210  011B                     	;# 
  1211  011B                     	;# 
  1212  011B                     	;# 
  1213  011B                     	;# 
  1214  011B                     	;# 
  1215  011C                     	;# 
  1216  011C                     	;# 
  1217  011C                     	;# 
  1218  011D                     	;# 
  1219  011D                     	;# 
  1220  011D                     	;# 
  1221  011E                     	;# 
  1222  011E                     	;# 
  1223  011E                     	;# 
  1224  011F                     	;# 
  1225  011F                     	;# 
  1226  011F                     	;# 
  1227  011F                     	;# 
  1228  011F                     	;# 
  1229  018C                     	;# 
  1230  018D                     	;# 
  1231  018E                     	;# 
  1232  018F                     	;# 
  1233  0190                     	;# 
  1234  0191                     	;# 
  1235  0192                     	;# 
  1236  0196                     	;# 
  1237  0197                     	;# 
  1238  0198                     	;# 
  1239  0199                     	;# 
  1240  019A                     	;# 
  1241  019B                     	;# 
  1242  019C                     	;# 
  1243  020C                     	;# 
  1244  020C                     	;# 
  1245  020D                     	;# 
  1246  020E                     	;# 
  1247  020F                     	;# 
  1248  020F                     	;# 
  1249  0210                     	;# 
  1250  0210                     	;# 
  1251  0211                     	;# 
  1252  0211                     	;# 
  1253  028C                     	;# 
  1254  028C                     	;# 
  1255  028D                     	;# 
  1256  028D                     	;# 
  1257  028E                     	;# 
  1258  028F                     	;# 
  1259  0290                     	;# 
  1260  0291                     	;# 
  1261  030C                     	;# 
  1262  030C                     	;# 
  1263  030D                     	;# 
  1264  030E                     	;# 
  1265  030F                     	;# 
  1266  0310                     	;# 
  1267  0310                     	;# 
  1268  0311                     	;# 
  1269  0312                     	;# 
  1270  0313                     	;# 
  1271  0314                     	;# 
  1272  0314                     	;# 
  1273  0315                     	;# 
  1274  0316                     	;# 
  1275  0318                     	;# 
  1276  0318                     	;# 
  1277  0319                     	;# 
  1278  031A                     	;# 
  1279  031C                     	;# 
  1280  031C                     	;# 
  1281  031D                     	;# 
  1282  031E                     	;# 
  1283  038C                     	;# 
  1284  038C                     	;# 
  1285  038D                     	;# 
  1286  038E                     	;# 
  1287  058C                     	;# 
  1288  058C                     	;# 
  1289  058D                     	;# 
  1290  058E                     	;# 
  1291  058F                     	;# 
  1292  058F                     	;# 
  1293  0590                     	;# 
  1294  0591                     	;# 
  1295  0592                     	;# 
  1296  0593                     	;# 
  1297  059C                     	;# 
  1298  059C                     	;# 
  1299  059D                     	;# 
  1300  059D                     	;# 
  1301  059E                     	;# 
  1302  059F                     	;# 
  1303  060C                     	;# 
  1304  060D                     	;# 
  1305  060E                     	;# 
  1306  060F                     	;# 
  1307  0610                     	;# 
  1308  0611                     	;# 
  1309  0612                     	;# 
  1310  0613                     	;# 
  1311  0614                     	;# 
  1312  070C                     	;# 
  1313  070D                     	;# 
  1314  070E                     	;# 
  1315  070F                     	;# 
  1316  0710                     	;# 
  1317  0711                     	;# 
  1318  0712                     	;# 
  1319  0713                     	;# 
  1320  0716                     	;# 
  1321  0717                     	;# 
  1322  0718                     	;# 
  1323  0719                     	;# 
  1324  071A                     	;# 
  1325  071B                     	;# 
  1326  071C                     	;# 
  1327  071D                     	;# 
  1328  0796                     	;# 
  1329  0797                     	;# 
  1330  0798                     	;# 
  1331  0799                     	;# 
  1332  079A                     	;# 
  1333  079B                     	;# 
  1334  080C                     	;# 
  1335  080D                     	;# 
  1336  080E                     	;# 
  1337  080F                     	;# 
  1338  0810                     	;# 
  1339  0811                     	;# 
  1340  0812                     	;# 
  1341  0813                     	;# 
  1342  0814                     	;# 
  1343  081A                     	;# 
  1344  081A                     	;# 
  1345  081B                     	;# 
  1346  081C                     	;# 
  1347  081C                     	;# 
  1348  081D                     	;# 
  1349  081E                     	;# 
  1350  081F                     	;# 
  1351  088C                     	;# 
  1352  088D                     	;# 
  1353  088E                     	;# 
  1354  088F                     	;# 
  1355  0890                     	;# 
  1356  0891                     	;# 
  1357  0892                     	;# 
  1358  0893                     	;# 
  1359  0895                     	;# 
  1360  0896                     	;# 
  1361  090C                     	;# 
  1362  090E                     	;# 
  1363  090F                     	;# 
  1364  091F                     	;# 
  1365  098F                     	;# 
  1366  098F                     	;# 
  1367  0990                     	;# 
  1368  0991                     	;# 
  1369  0992                     	;# 
  1370  0993                     	;# 
  1371  0994                     	;# 
  1372  0995                     	;# 
  1373  0996                     	;# 
  1374  0997                     	;# 
  1375  0A19                     	;# 
  1376  0A19                     	;# 
  1377  0A1A                     	;# 
  1378  0A1A                     	;# 
  1379  0A1B                     	;# 
  1380  0A1B                     	;# 
  1381  0A1B                     	;# 
  1382  0A1C                     	;# 
  1383  0A1C                     	;# 
  1384  0A1D                     	;# 
  1385  0A1D                     	;# 
  1386  0A1E                     	;# 
  1387  0A1E                     	;# 
  1388  0A1F                     	;# 
  1389  0A1F                     	;# 
  1390  0A1F                     	;# 
  1391  1E0F                     	;# 
  1392  1E10                     	;# 
  1393  1E11                     	;# 
  1394  1E12                     	;# 
  1395  1E13                     	;# 
  1396  1E14                     	;# 
  1397  1E15                     	;# 
  1398  1E16                     	;# 
  1399  1E17                     	;# 
  1400  1E18                     	;# 
  1401  1E19                     	;# 
  1402  1E1A                     	;# 
  1403  1E1B                     	;# 
  1404  1E1C                     	;# 
  1405  1E1D                     	;# 
  1406  1E1E                     	;# 
  1407  1E1F                     	;# 
  1408  1E20                     	;# 
  1409  1E21                     	;# 
  1410  1E22                     	;# 
  1411  1E23                     	;# 
  1412  1E24                     	;# 
  1413  1E25                     	;# 
  1414  1E26                     	;# 
  1415  1E27                     	;# 
  1416  1E28                     	;# 
  1417  1E29                     	;# 
  1418  1E2A                     	;# 
  1419  1E2B                     	;# 
  1420  1E2C                     	;# 
  1421  1E2D                     	;# 
  1422  1E2E                     	;# 
  1423  1E2F                     	;# 
  1424  1E30                     	;# 
  1425  1E31                     	;# 
  1426  1E32                     	;# 
  1427  1E33                     	;# 
  1428  1E34                     	;# 
  1429  1E35                     	;# 
  1430  1E36                     	;# 
  1431  1E37                     	;# 
  1432  1E8F                     	;# 
  1433  1E90                     	;# 
  1434  1E91                     	;# 
  1435  1E92                     	;# 
  1436  1E93                     	;# 
  1437  1E9C                     	;# 
  1438  1EA1                     	;# 
  1439  1EA2                     	;# 
  1440  1EB1                     	;# 
  1441  1EBB                     	;# 
  1442  1EBC                     	;# 
  1443  1EBD                     	;# 
  1444  1EBE                     	;# 
  1445  1EC3                     	;# 
  1446  1EC5                     	;# 
  1447  1EC6                     	;# 
  1448  1EC7                     	;# 
  1449  1EC8                     	;# 
  1450  1EC9                     	;# 
  1451  1ECA                     	;# 
  1452  1ECB                     	;# 
  1453  1ECC                     	;# 
  1454  1ECD                     	;# 
  1455  1ECE                     	;# 
  1456  1F10                     	;# 
  1457  1F11                     	;# 
  1458  1F12                     	;# 
  1459  1F13                     	;# 
  1460  1F14                     	;# 
  1461  1F15                     	;# 
  1462  1F16                     	;# 
  1463  1F17                     	;# 
  1464  1F18                     	;# 
  1465  1F19                     	;# 
  1466  1F1A                     	;# 
  1467  1F1B                     	;# 
  1468  1F1C                     	;# 
  1469  1F1D                     	;# 
  1470  1F1E                     	;# 
  1471  1F1F                     	;# 
  1472  1F20                     	;# 
  1473  1F21                     	;# 
  1474  1F22                     	;# 
  1475  1F23                     	;# 
  1476  1F24                     	;# 
  1477  1F25                     	;# 
  1478  1F26                     	;# 
  1479  1F27                     	;# 
  1480  1F28                     	;# 
  1481  1F29                     	;# 
  1482  1F2A                     	;# 
  1483  1F2B                     	;# 
  1484  1F2C                     	;# 
  1485  1F2D                     	;# 
  1486  1F2E                     	;# 
  1487  1F2F                     	;# 
  1488  1F30                     	;# 
  1489  1F31                     	;# 
  1490  1F32                     	;# 
  1491  1F38                     	;# 
  1492  1F39                     	;# 
  1493  1F3A                     	;# 
  1494  1F3B                     	;# 
  1495  1F3C                     	;# 
  1496  1F3D                     	;# 
  1497  1F3E                     	;# 
  1498  1F3F                     	;# 
  1499  1F43                     	;# 
  1500  1F44                     	;# 
  1501  1F45                     	;# 
  1502  1F46                     	;# 
  1503  1F47                     	;# 
  1504  1F48                     	;# 
  1505  1F49                     	;# 
  1506  1F4A                     	;# 
  1507  1F4E                     	;# 
  1508  1F4F                     	;# 
  1509  1F50                     	;# 
  1510  1F51                     	;# 
  1511  1F52                     	;# 
  1512  1F53                     	;# 
  1513  1F54                     	;# 
  1514  1F55                     	;# 
  1515  1F59                     	;# 
  1516  1F5A                     	;# 
  1517  1F5B                     	;# 
  1518  1F5C                     	;# 
  1519  1F5D                     	;# 
  1520  1F64                     	;# 
  1521  1F65                     	;# 
  1522  1F66                     	;# 
  1523  1F67                     	;# 
  1524  1F68                     	;# 
  1525  1F69                     	;# 
  1526  1F6A                     	;# 
  1527  1F6B                     	;# 
  1528  1FE4                     	;# 
  1529  1FE5                     	;# 
  1530  1FE6                     	;# 
  1531  1FE7                     	;# 
  1532  1FE8                     	;# 
  1533  1FE8                     	;# 
  1534  1FE9                     	;# 
  1535  1FEA                     	;# 
  1536  1FEB                     	;# 
  1537  1FED                     	;# 
  1538  1FEE                     	;# 
  1539  1FEF                     	;# 
  1540  0000                     	;# 
  1541  0001                     	;# 
  1542  0002                     	;# 
  1543  0003                     	;# 
  1544  0004                     	;# 
  1545  0005                     	;# 
  1546  0006                     	;# 
  1547  0007                     	;# 
  1548  0008                     	;# 
  1549  0009                     	;# 
  1550  000A                     	;# 
  1551  000B                     	;# 
  1552  000C                     	;# 
  1553  000D                     	;# 
  1554  000E                     	;# 
  1555  000F                     	;# 
  1556  0010                     	;# 
  1557  0012                     	;# 
  1558  0013                     	;# 
  1559  0014                     	;# 
  1560  0015                     	;# 
  1561  0016                     	;# 
  1562  0018                     	;# 
  1563  0019                     	;# 
  1564  001A                     	;# 
  1565  001B                     	;# 
  1566  001C                     	;# 
  1567  009B                     	;# 
  1568  009B                     	;# 
  1569  009C                     	;# 
  1570  009D                     	;# 
  1571  009E                     	;# 
  1572  009F                     	;# 
  1573  0119                     	;# 
  1574  0119                     	;# 
  1575  0119                     	;# 
  1576  011A                     	;# 
  1577  011A                     	;# 
  1578  011A                     	;# 
  1579  011B                     	;# 
  1580  011B                     	;# 
  1581  011B                     	;# 
  1582  011B                     	;# 
  1583  011B                     	;# 
  1584  011C                     	;# 
  1585  011C                     	;# 
  1586  011C                     	;# 
  1587  011D                     	;# 
  1588  011D                     	;# 
  1589  011D                     	;# 
  1590  011E                     	;# 
  1591  011E                     	;# 
  1592  011E                     	;# 
  1593  011F                     	;# 
  1594  011F                     	;# 
  1595  011F                     	;# 
  1596  011F                     	;# 
  1597  011F                     	;# 
  1598  018C                     	;# 
  1599  018D                     	;# 
  1600  018E                     	;# 
  1601  018F                     	;# 
  1602  0190                     	;# 
  1603  0191                     	;# 
  1604  0192                     	;# 
  1605  0196                     	;# 
  1606  0197                     	;# 
  1607  0198                     	;# 
  1608  0199                     	;# 
  1609  019A                     	;# 
  1610  019B                     	;# 
  1611  019C                     	;# 
  1612  020C                     	;# 
  1613  020C                     	;# 
  1614  020D                     	;# 
  1615  020E                     	;# 
  1616  020F                     	;# 
  1617  020F                     	;# 
  1618  0210                     	;# 
  1619  0210                     	;# 
  1620  0211                     	;# 
  1621  0211                     	;# 
  1622  028C                     	;# 
  1623  028C                     	;# 
  1624  028D                     	;# 
  1625  028D                     	;# 
  1626  028E                     	;# 
  1627  028F                     	;# 
  1628  0290                     	;# 
  1629  0291                     	;# 
  1630  030C                     	;# 
  1631  030C                     	;# 
  1632  030D                     	;# 
  1633  030E                     	;# 
  1634  030F                     	;# 
  1635  0310                     	;# 
  1636  0310                     	;# 
  1637  0311                     	;# 
  1638  0312                     	;# 
  1639  0313                     	;# 
  1640  0314                     	;# 
  1641  0314                     	;# 
  1642  0315                     	;# 
  1643  0316                     	;# 
  1644  0318                     	;# 
  1645  0318                     	;# 
  1646  0319                     	;# 
  1647  031A                     	;# 
  1648  031C                     	;# 
  1649  031C                     	;# 
  1650  031D                     	;# 
  1651  031E                     	;# 
  1652  038C                     	;# 
  1653  038C                     	;# 
  1654  038D                     	;# 
  1655  038E                     	;# 
  1656  058C                     	;# 
  1657  058C                     	;# 
  1658  058D                     	;# 
  1659  058E                     	;# 
  1660  058F                     	;# 
  1661  058F                     	;# 
  1662  0590                     	;# 
  1663  0591                     	;# 
  1664  0592                     	;# 
  1665  0593                     	;# 
  1666  059C                     	;# 
  1667  059C                     	;# 
  1668  059D                     	;# 
  1669  059D                     	;# 
  1670  059E                     	;# 
  1671  059F                     	;# 
  1672  060C                     	;# 
  1673  060D                     	;# 
  1674  060E                     	;# 
  1675  060F                     	;# 
  1676  0610                     	;# 
  1677  0611                     	;# 
  1678  0612                     	;# 
  1679  0613                     	;# 
  1680  0614                     	;# 
  1681  070C                     	;# 
  1682  070D                     	;# 
  1683  070E                     	;# 
  1684  070F                     	;# 
  1685  0710                     	;# 
  1686  0711                     	;# 
  1687  0712                     	;# 
  1688  0713                     	;# 
  1689  0716                     	;# 
  1690  0717                     	;# 
  1691  0718                     	;# 
  1692  0719                     	;# 
  1693  071A                     	;# 
  1694  071B                     	;# 
  1695  071C                     	;# 
  1696  071D                     	;# 
  1697  0796                     	;# 
  1698  0797                     	;# 
  1699  0798                     	;# 
  1700  0799                     	;# 
  1701  079A                     	;# 
  1702  079B                     	;# 
  1703  080C                     	;# 
  1704  080D                     	;# 
  1705  080E                     	;# 
  1706  080F                     	;# 
  1707  0810                     	;# 
  1708  0811                     	;# 
  1709  0812                     	;# 
  1710  0813                     	;# 
  1711  0814                     	;# 
  1712  081A                     	;# 
  1713  081A                     	;# 
  1714  081B                     	;# 
  1715  081C                     	;# 
  1716  081C                     	;# 
  1717  081D                     	;# 
  1718  081E                     	;# 
  1719  081F                     	;# 
  1720  088C                     	;# 
  1721  088D                     	;# 
  1722  088E                     	;# 
  1723  088F                     	;# 
  1724  0890                     	;# 
  1725  0891                     	;# 
  1726  0892                     	;# 
  1727  0893                     	;# 
  1728  0895                     	;# 
  1729  0896                     	;# 
  1730  090C                     	;# 
  1731  090E                     	;# 
  1732  090F                     	;# 
  1733  091F                     	;# 
  1734  098F                     	;# 
  1735  098F                     	;# 
  1736  0990                     	;# 
  1737  0991                     	;# 
  1738  0992                     	;# 
  1739  0993                     	;# 
  1740  0994                     	;# 
  1741  0995                     	;# 
  1742  0996                     	;# 
  1743  0997                     	;# 
  1744  0A19                     	;# 
  1745  0A19                     	;# 
  1746  0A1A                     	;# 
  1747  0A1A                     	;# 
  1748  0A1B                     	;# 
  1749  0A1B                     	;# 
  1750  0A1B                     	;# 
  1751  0A1C                     	;# 
  1752  0A1C                     	;# 
  1753  0A1D                     	;# 
  1754  0A1D                     	;# 
  1755  0A1E                     	;# 
  1756  0A1E                     	;# 
  1757  0A1F                     	;# 
  1758  0A1F                     	;# 
  1759  0A1F                     	;# 
  1760  1E0F                     	;# 
  1761  1E10                     	;# 
  1762  1E11                     	;# 
  1763  1E12                     	;# 
  1764  1E13                     	;# 
  1765  1E14                     	;# 
  1766  1E15                     	;# 
  1767  1E16                     	;# 
  1768  1E17                     	;# 
  1769  1E18                     	;# 
  1770  1E19                     	;# 
  1771  1E1A                     	;# 
  1772  1E1B                     	;# 
  1773  1E1C                     	;# 
  1774  1E1D                     	;# 
  1775  1E1E                     	;# 
  1776  1E1F                     	;# 
  1777  1E20                     	;# 
  1778  1E21                     	;# 
  1779  1E22                     	;# 
  1780  1E23                     	;# 
  1781  1E24                     	;# 
  1782  1E25                     	;# 
  1783  1E26                     	;# 
  1784  1E27                     	;# 
  1785  1E28                     	;# 
  1786  1E29                     	;# 
  1787  1E2A                     	;# 
  1788  1E2B                     	;# 
  1789  1E2C                     	;# 
  1790  1E2D                     	;# 
  1791  1E2E                     	;# 
  1792  1E2F                     	;# 
  1793  1E30                     	;# 
  1794  1E31                     	;# 
  1795  1E32                     	;# 
  1796  1E33                     	;# 
  1797  1E34                     	;# 
  1798  1E35                     	;# 
  1799  1E36                     	;# 
  1800  1E37                     	;# 
  1801  1E8F                     	;# 
  1802  1E90                     	;# 
  1803  1E91                     	;# 
  1804  1E92                     	;# 
  1805  1E93                     	;# 
  1806  1E9C                     	;# 
  1807  1EA1                     	;# 
  1808  1EA2                     	;# 
  1809  1EB1                     	;# 
  1810  1EBB                     	;# 
  1811  1EBC                     	;# 
  1812  1EBD                     	;# 
  1813  1EBE                     	;# 
  1814  1EC3                     	;# 
  1815  1EC5                     	;# 
  1816  1EC6                     	;# 
  1817  1EC7                     	;# 
  1818  1EC8                     	;# 
  1819  1EC9                     	;# 
  1820  1ECA                     	;# 
  1821  1ECB                     	;# 
  1822  1ECC                     	;# 
  1823  1ECD                     	;# 
  1824  1ECE                     	;# 
  1825  1F10                     	;# 
  1826  1F11                     	;# 
  1827  1F12                     	;# 
  1828  1F13                     	;# 
  1829  1F14                     	;# 
  1830  1F15                     	;# 
  1831  1F16                     	;# 
  1832  1F17                     	;# 
  1833  1F18                     	;# 
  1834  1F19                     	;# 
  1835  1F1A                     	;# 
  1836  1F1B                     	;# 
  1837  1F1C                     	;# 
  1838  1F1D                     	;# 
  1839  1F1E                     	;# 
  1840  1F1F                     	;# 
  1841  1F20                     	;# 
  1842  1F21                     	;# 
  1843  1F22                     	;# 
  1844  1F23                     	;# 
  1845  1F24                     	;# 
  1846  1F25                     	;# 
  1847  1F26                     	;# 
  1848  1F27                     	;# 
  1849  1F28                     	;# 
  1850  1F29                     	;# 
  1851  1F2A                     	;# 
  1852  1F2B                     	;# 
  1853  1F2C                     	;# 
  1854  1F2D                     	;# 
  1855  1F2E                     	;# 
  1856  1F2F                     	;# 
  1857  1F30                     	;# 
  1858  1F31                     	;# 
  1859  1F32                     	;# 
  1860  1F38                     	;# 
  1861  1F39                     	;# 
  1862  1F3A                     	;# 
  1863  1F3B                     	;# 
  1864  1F3C                     	;# 
  1865  1F3D                     	;# 
  1866  1F3E                     	;# 
  1867  1F3F                     	;# 
  1868  1F43                     	;# 
  1869  1F44                     	;# 
  1870  1F45                     	;# 
  1871  1F46                     	;# 
  1872  1F47                     	;# 
  1873  1F48                     	;# 
  1874  1F49                     	;# 
  1875  1F4A                     	;# 
  1876  1F4E                     	;# 
  1877  1F4F                     	;# 
  1878  1F50                     	;# 
  1879  1F51                     	;# 
  1880  1F52                     	;# 
  1881  1F53                     	;# 
  1882  1F54                     	;# 
  1883  1F55                     	;# 
  1884  1F59                     	;# 
  1885  1F5A                     	;# 
  1886  1F5B                     	;# 
  1887  1F5C                     	;# 
  1888  1F5D                     	;# 
  1889  1F64                     	;# 
  1890  1F65                     	;# 
  1891  1F66                     	;# 
  1892  1F67                     	;# 
  1893  1F68                     	;# 
  1894  1F69                     	;# 
  1895  1F6A                     	;# 
  1896  1F6B                     	;# 
  1897  1FE4                     	;# 
  1898  1FE5                     	;# 
  1899  1FE6                     	;# 
  1900  1FE7                     	;# 
  1901  1FE8                     	;# 
  1902  1FE8                     	;# 
  1903  1FE9                     	;# 
  1904  1FEA                     	;# 
  1905  1FEB                     	;# 
  1906  1FED                     	;# 
  1907  1FEE                     	;# 
  1908  1FEF                     	;# 
  1909  0000                     	;# 
  1910  0001                     	;# 
  1911  0002                     	;# 
  1912  0003                     	;# 
  1913  0004                     	;# 
  1914  0005                     	;# 
  1915  0006                     	;# 
  1916  0007                     	;# 
  1917  0008                     	;# 
  1918  0009                     	;# 
  1919  000A                     	;# 
  1920  000B                     	;# 
  1921  000C                     	;# 
  1922  000D                     	;# 
  1923  000E                     	;# 
  1924  000F                     	;# 
  1925  0010                     	;# 
  1926  0012                     	;# 
  1927  0013                     	;# 
  1928  0014                     	;# 
  1929  0015                     	;# 
  1930  0016                     	;# 
  1931  0018                     	;# 
  1932  0019                     	;# 
  1933  001A                     	;# 
  1934  001B                     	;# 
  1935  001C                     	;# 
  1936  009B                     	;# 
  1937  009B                     	;# 
  1938  009C                     	;# 
  1939  009D                     	;# 
  1940  009E                     	;# 
  1941  009F                     	;# 
  1942  0119                     	;# 
  1943  0119                     	;# 
  1944  0119                     	;# 
  1945  011A                     	;# 
  1946  011A                     	;# 
  1947  011A                     	;# 
  1948  011B                     	;# 
  1949  011B                     	;# 
  1950  011B                     	;# 
  1951  011B                     	;# 
  1952  011B                     	;# 
  1953  011C                     	;# 
  1954  011C                     	;# 
  1955  011C                     	;# 
  1956  011D                     	;# 
  1957  011D                     	;# 
  1958  011D                     	;# 
  1959  011E                     	;# 
  1960  011E                     	;# 
  1961  011E                     	;# 
  1962  011F                     	;# 
  1963  011F                     	;# 
  1964  011F                     	;# 
  1965  011F                     	;# 
  1966  011F                     	;# 
  1967  018C                     	;# 
  1968  018D                     	;# 
  1969  018E                     	;# 
  1970  018F                     	;# 
  1971  0190                     	;# 
  1972  0191                     	;# 
  1973  0192                     	;# 
  1974  0196                     	;# 
  1975  0197                     	;# 
  1976  0198                     	;# 
  1977  0199                     	;# 
  1978  019A                     	;# 
  1979  019B                     	;# 
  1980  019C                     	;# 
  1981  020C                     	;# 
  1982  020C                     	;# 
  1983  020D                     	;# 
  1984  020E                     	;# 
  1985  020F                     	;# 
  1986  020F                     	;# 
  1987  0210                     	;# 
  1988  0210                     	;# 
  1989  0211                     	;# 
  1990  0211                     	;# 
  1991  028C                     	;# 
  1992  028C                     	;# 
  1993  028D                     	;# 
  1994  028D                     	;# 
  1995  028E                     	;# 
  1996  028F                     	;# 
  1997  0290                     	;# 
  1998  0291                     	;# 
  1999  030C                     	;# 
  2000  030C                     	;# 
  2001  030D                     	;# 
  2002  030E                     	;# 
  2003  030F                     	;# 
  2004  0310                     	;# 
  2005  0310                     	;# 
  2006  0311                     	;# 
  2007  0312                     	;# 
  2008  0313                     	;# 
  2009  0314                     	;# 
  2010  0314                     	;# 
  2011  0315                     	;# 
  2012  0316                     	;# 
  2013  0318                     	;# 
  2014  0318                     	;# 
  2015  0319                     	;# 
  2016  031A                     	;# 
  2017  031C                     	;# 
  2018  031C                     	;# 
  2019  031D                     	;# 
  2020  031E                     	;# 
  2021  038C                     	;# 
  2022  038C                     	;# 
  2023  038D                     	;# 
  2024  038E                     	;# 
  2025  058C                     	;# 
  2026  058C                     	;# 
  2027  058D                     	;# 
  2028  058E                     	;# 
  2029  058F                     	;# 
  2030  058F                     	;# 
  2031  0590                     	;# 
  2032  0591                     	;# 
  2033  0592                     	;# 
  2034  0593                     	;# 
  2035  059C                     	;# 
  2036  059C                     	;# 
  2037  059D                     	;# 
  2038  059D                     	;# 
  2039  059E                     	;# 
  2040  059F                     	;# 
  2041  060C                     	;# 
  2042  060D                     	;# 
  2043  060E                     	;# 
  2044  060F                     	;# 
  2045  0610                     	;# 
  2046  0611                     	;# 
  2047  0612                     	;# 
  2048  0613                     	;# 
  2049  0614                     	;# 
  2050  070C                     	;# 
  2051  070D                     	;# 
  2052  070E                     	;# 
  2053  070F                     	;# 
  2054  0710                     	;# 
  2055  0711                     	;# 
  2056  0712                     	;# 
  2057  0713                     	;# 
  2058  0716                     	;# 
  2059  0717                     	;# 
  2060  0718                     	;# 
  2061  0719                     	;# 
  2062  071A                     	;# 
  2063  071B                     	;# 
  2064  071C                     	;# 
  2065  071D                     	;# 
  2066  0796                     	;# 
  2067  0797                     	;# 
  2068  0798                     	;# 
  2069  0799                     	;# 
  2070  079A                     	;# 
  2071  079B                     	;# 
  2072  080C                     	;# 
  2073  080D                     	;# 
  2074  080E                     	;# 
  2075  080F                     	;# 
  2076  0810                     	;# 
  2077  0811                     	;# 
  2078  0812                     	;# 
  2079  0813                     	;# 
  2080  0814                     	;# 
  2081  081A                     	;# 
  2082  081A                     	;# 
  2083  081B                     	;# 
  2084  081C                     	;# 
  2085  081C                     	;# 
  2086  081D                     	;# 
  2087  081E                     	;# 
  2088  081F                     	;# 
  2089  088C                     	;# 
  2090  088D                     	;# 
  2091  088E                     	;# 
  2092  088F                     	;# 
  2093  0890                     	;# 
  2094  0891                     	;# 
  2095  0892                     	;# 
  2096  0893                     	;# 
  2097  0895                     	;# 
  2098  0896                     	;# 
  2099  090C                     	;# 
  2100  090E                     	;# 
  2101  090F                     	;# 
  2102  091F                     	;# 
  2103  098F                     	;# 
  2104  098F                     	;# 
  2105  0990                     	;# 
  2106  0991                     	;# 
  2107  0992                     	;# 
  2108  0993                     	;# 
  2109  0994                     	;# 
  2110  0995                     	;# 
  2111  0996                     	;# 
  2112  0997                     	;# 
  2113  0A19                     	;# 
  2114  0A19                     	;# 
  2115  0A1A                     	;# 
  2116  0A1A                     	;# 
  2117  0A1B                     	;# 
  2118  0A1B                     	;# 
  2119  0A1B                     	;# 
  2120  0A1C                     	;# 
  2121  0A1C                     	;# 
  2122  0A1D                     	;# 
  2123  0A1D                     	;# 
  2124  0A1E                     	;# 
  2125  0A1E                     	;# 
  2126  0A1F                     	;# 
  2127  0A1F                     	;# 
  2128  0A1F                     	;# 
  2129  1E0F                     	;# 
  2130  1E10                     	;# 
  2131  1E11                     	;# 
  2132  1E12                     	;# 
  2133  1E13                     	;# 
  2134  1E14                     	;# 
  2135  1E15                     	;# 
  2136  1E16                     	;# 
  2137  1E17                     	;# 
  2138  1E18                     	;# 
  2139  1E19                     	;# 
  2140  1E1A                     	;# 
  2141  1E1B                     	;# 
  2142  1E1C                     	;# 
  2143  1E1D                     	;# 
  2144  1E1E                     	;# 
  2145  1E1F                     	;# 
  2146  1E20                     	;# 
  2147  1E21                     	;# 
  2148  1E22                     	;# 
  2149  1E23                     	;# 
  2150  1E24                     	;# 
  2151  1E25                     	;# 
  2152  1E26                     	;# 
  2153  1E27                     	;# 
  2154  1E28                     	;# 
  2155  1E29                     	;# 
  2156  1E2A                     	;# 
  2157  1E2B                     	;# 
  2158  1E2C                     	;# 
  2159  1E2D                     	;# 
  2160  1E2E                     	;# 
  2161  1E2F                     	;# 
  2162  1E30                     	;# 
  2163  1E31                     	;# 
  2164  1E32                     	;# 
  2165  1E33                     	;# 
  2166  1E34                     	;# 
  2167  1E35                     	;# 
  2168  1E36                     	;# 
  2169  1E37                     	;# 
  2170  1E8F                     	;# 
  2171  1E90                     	;# 
  2172  1E91                     	;# 
  2173  1E92                     	;# 
  2174  1E93                     	;# 
  2175  1E9C                     	;# 
  2176  1EA1                     	;# 
  2177  1EA2                     	;# 
  2178  1EB1                     	;# 
  2179  1EBB                     	;# 
  2180  1EBC                     	;# 
  2181  1EBD                     	;# 
  2182  1EBE                     	;# 
  2183  1EC3                     	;# 
  2184  1EC5                     	;# 
  2185  1EC6                     	;# 
  2186  1EC7                     	;# 
  2187  1EC8                     	;# 
  2188  1EC9                     	;# 
  2189  1ECA                     	;# 
  2190  1ECB                     	;# 
  2191  1ECC                     	;# 
  2192  1ECD                     	;# 
  2193  1ECE                     	;# 
  2194  1F10                     	;# 
  2195  1F11                     	;# 
  2196  1F12                     	;# 
  2197  1F13                     	;# 
  2198  1F14                     	;# 
  2199  1F15                     	;# 
  2200  1F16                     	;# 
  2201  1F17                     	;# 
  2202  1F18                     	;# 
  2203  1F19                     	;# 
  2204  1F1A                     	;# 
  2205  1F1B                     	;# 
  2206  1F1C                     	;# 
  2207  1F1D                     	;# 
  2208  1F1E                     	;# 
  2209  1F1F                     	;# 
  2210  1F20                     	;# 
  2211  1F21                     	;# 
  2212  1F22                     	;# 
  2213  1F23                     	;# 
  2214  1F24                     	;# 
  2215  1F25                     	;# 
  2216  1F26                     	;# 
  2217  1F27                     	;# 
  2218  1F28                     	;# 
  2219  1F29                     	;# 
  2220  1F2A                     	;# 
  2221  1F2B                     	;# 
  2222  1F2C                     	;# 
  2223  1F2D                     	;# 
  2224  1F2E                     	;# 
  2225  1F2F                     	;# 
  2226  1F30                     	;# 
  2227  1F31                     	;# 
  2228  1F32                     	;# 
  2229  1F38                     	;# 
  2230  1F39                     	;# 
  2231  1F3A                     	;# 
  2232  1F3B                     	;# 
  2233  1F3C                     	;# 
  2234  1F3D                     	;# 
  2235  1F3E                     	;# 
  2236  1F3F                     	;# 
  2237  1F43                     	;# 
  2238  1F44                     	;# 
  2239  1F45                     	;# 
  2240  1F46                     	;# 
  2241  1F47                     	;# 
  2242  1F48                     	;# 
  2243  1F49                     	;# 
  2244  1F4A                     	;# 
  2245  1F4E                     	;# 
  2246  1F4F                     	;# 
  2247  1F50                     	;# 
  2248  1F51                     	;# 
  2249  1F52                     	;# 
  2250  1F53                     	;# 
  2251  1F54                     	;# 
  2252  1F55                     	;# 
  2253  1F59                     	;# 
  2254  1F5A                     	;# 
  2255  1F5B                     	;# 
  2256  1F5C                     	;# 
  2257  1F5D                     	;# 
  2258  1F64                     	;# 
  2259  1F65                     	;# 
  2260  1F66                     	;# 
  2261  1F67                     	;# 
  2262  1F68                     	;# 
  2263  1F69                     	;# 
  2264  1F6A                     	;# 
  2265  1F6B                     	;# 
  2266  1FE4                     	;# 
  2267  1FE5                     	;# 
  2268  1FE6                     	;# 
  2269  1FE7                     	;# 
  2270  1FE8                     	;# 
  2271  1FE8                     	;# 
  2272  1FE9                     	;# 
  2273  1FEA                     	;# 
  2274  1FEB                     	;# 
  2275  1FED                     	;# 
  2276  1FEE                     	;# 
  2277  1FEF                     	;# 
  2278                           
  2279                           	psect	idataBANK0
  2280  061F                     __pidataBANK0:
  2281                           
  2282                           ;initializer for _MaxRow
  2283  061F  3408               	retlw	8
  2284                           
  2285                           ;initializer for _MaxLine
  2286  0620  3402               	retlw	2
  2287                           
  2288                           	psect	stringtext1
  2289  0800                     __pstringtext1:
  2290  0800                     _DDRAM_Start_Address:
  2291  0800  3480               	retlw	128
  2292  0801  34C0               	retlw	192
  2293  0802  3490               	retlw	144
  2294  0803  34D0               	retlw	208
  2295  0804                     __end_of_DDRAM_Start_Address:
  2296  001C                     _LATEbits	set	28
  2297  0018                     _LATAbits	set	24
  2298  0015                     _TRISD	set	21
  2299  0014                     _TRISC	set	20
  2300  0013                     _TRISB	set	19
  2301  0012                     _TRISA	set	18
  2302  0016                     _TRISE	set	22
  2303  001A                     _LATC	set	26
  2304  0019                     _LATB	set	25
  2305  0018                     _LATA	set	24
  2306  001B                     _LATD	set	27
  2307  001C                     _LATE	set	28
  2308  028D                     _PR2	set	653
  2309  028C                     _TMR2	set	652
  2310  028E                     _T2CONbits	set	654
  2311  0291                     _T2RSTbits	set	657
  2312  028F                     _T2HLTbits	set	655
  2313  028E                     _T2CON	set	654
  2314  028C                     _T2TMR	set	652
  2315  028D                     _T2PR	set	653
  2316  0291                     _T2RST	set	657
  2317  028F                     _T2HLT	set	655
  2318  0290                     _T2CLKCON	set	656
  2319  030E                     _CCP1CONbits	set	782
  2320  030C                     _CCPR1L	set	780
  2321  030D                     _CCPR1H	set	781
  2322  030E                     _CCP1CON	set	782
  2323  0710                     _PIR4bits	set	1808
  2324  079B                     _PMD5	set	1947
  2325  079A                     _PMD4	set	1946
  2326  0799                     _PMD3	set	1945
  2327  0798                     _PMD2	set	1944
  2328  0797                     _PMD1	set	1943
  2329  0796                     _PMD0	set	1942
  2330  0892                     _OSCTUNE	set	2194
  2331  0890                     _OSCSTAT	set	2192
  2332  0893                     _OSCFRQ	set	2195
  2333  0891                     _OSCEN	set	2193
  2334  088F                     _OSCCON3	set	2191
  2335  088D                     _OSCCON1	set	2189
  2336  1F20                     _RC0PPS	set	7968
  2337  1F68                     _INLVLE	set	8040
  2338  1F5D                     _INLVLD	set	8029
  2339  1F52                     _INLVLC	set	8018
  2340  1F47                     _INLVLB	set	8007
  2341  1F3C                     _INLVLA	set	7996
  2342  1F67                     _SLRCONE	set	8039
  2343  1F5C                     _SLRCOND	set	8028
  2344  1F51                     _SLRCONC	set	8017
  2345  1F46                     _SLRCONB	set	8006
  2346  1F3B                     _SLRCONA	set	7995
  2347  1F5B                     _ODCOND	set	8027
  2348  1F50                     _ODCONC	set	8016
  2349  1F45                     _ODCONB	set	8005
  2350  1F3A                     _ODCONA	set	7994
  2351  1F66                     _ODCONE	set	8038
  2352  1F4F                     _WPUC	set	8015
  2353  1F39                     _WPUA	set	7993
  2354  1F44                     _WPUB	set	8004
  2355  1F65                     _WPUE	set	8037
  2356  1F5A                     _WPUD	set	8026
  2357  1F38                     _ANSELA	set	7992
  2358  1F64                     _ANSELE	set	8036
  2359  1F43                     _ANSELB	set	8003
  2360  1F4E                     _ANSELC	set	8014
  2361  1F59                     _ANSELD	set	8025
  2362  0804                     STR_2:
  2363  0804  3420               	retlw	32	;' '
  2364  0805  3420               	retlw	32	;' '
  2365  0806  3420               	retlw	32	;' '
  2366  0807  3420               	retlw	32	;' '
  2367  0808  3420               	retlw	32	;' '
  2368  0809  3420               	retlw	32	;' '
  2369  080A  3420               	retlw	32	;' '
  2370  080B  3420               	retlw	32	;' '
  2371  080C  3420               	retlw	32	;' '
  2372  080D  3420               	retlw	32	;' '
  2373  080E  3420               	retlw	32	;' '
  2374  080F  3420               	retlw	32	;' '
  2375  0810  3420               	retlw	32	;' '
  2376  0811  3420               	retlw	32	;' '
  2377  0812  3420               	retlw	32	;' '
  2378  0813  3420               	retlw	32	;' '
  2379  0814  3400               	retlw	0
  2380                           
  2381                           	psect	stringtext2
  2382  0815                     __pstringtext2:
  2383  0815                     STR_1:
  2384  0815  3448               	retlw	72	;'H'
  2385  0816  346F               	retlw	111	;'o'
  2386  0817  3461               	retlw	97	;'a'
  2387  0818  346E               	retlw	110	;'n'
  2388  0819  3467               	retlw	103	;'g'
  2389  081A  3420               	retlw	32	;' '
  2390  081B  3454               	retlw	84	;'T'
  2391  081C  346F               	retlw	111	;'o'
  2392  081D  3461               	retlw	97	;'a'
  2393  081E  346E               	retlw	110	;'n'
  2394  081F  3400               	retlw	0
  2395                           
  2396                           	psect	stringtext3
  2397  0000                     __pstringtext3:
  2398                           
  2399                           	psect	cinit
  2400  07F5                     start_initialization:	
  2401                           ; #config settings
  2402                           
  2403  07F5                     __initialization:
  2404                           
  2405                           ; Initialize objects allocated to BANK0
  2406  07F5  3186  261F  3187   	fcall	__pidataBANK0	;fetch initializer
  2407  07F8  00A0               	movwf	__pdataBANK0& (0+127)
  2408  07F9  3186  2620  3187   	fcall	__pidataBANK0+1	;fetch initializer
  2409  07FC  00A1               	movwf	(__pdataBANK0+1)& (0+127)
  2410  07FD                     end_of_initialization:	
  2411                           ;End of C runtime variable initialization code
  2412                           
  2413  07FD                     __end_of__initialization:
  2414  07FD  0140               	movlb	0
  2415  07FE  3186  2E74         	ljmp	_main	;jump to C main() function
  2416                           
  2417                           	psect	dataBANK0
  2418  0020                     __pdataBANK0:
  2419  0020                     _MaxRow:
  2420  0020                     	ds	1
  2421  0021                     _MaxLine:
  2422  0021                     	ds	1
  2423                           
  2424                           	psect	cstackCOMMON
  2425  0070                     __pcstackCOMMON:
  2426  0070                     ?_PMD_Initialize:
  2427  0070                     ??_PMD_Initialize:	
  2428                           ; 1 bytes @ 0x0
  2429                           
  2430  0070                     ?_PIN_MANAGER_Initialize:	
  2431                           ; 1 bytes @ 0x0
  2432                           
  2433  0070                     ??_PIN_MANAGER_Initialize:	
  2434                           ; 1 bytes @ 0x0
  2435                           
  2436  0070                     ?_OSCILLATOR_Initialize:	
  2437                           ; 1 bytes @ 0x0
  2438                           
  2439  0070                     ??_OSCILLATOR_Initialize:	
  2440                           ; 1 bytes @ 0x0
  2441                           
  2442  0070                     ?_PWM1_Initialize:	
  2443                           ; 1 bytes @ 0x0
  2444                           
  2445  0070                     ??_PWM1_Initialize:	
  2446                           ; 1 bytes @ 0x0
  2447                           
  2448  0070                     ?_TMR2_Initialize:	
  2449                           ; 1 bytes @ 0x0
  2450                           
  2451  0070                     ??_TMR2_Initialize:	
  2452                           ; 1 bytes @ 0x0
  2453                           
  2454  0070                     ?_TextLCD_Init:	
  2455                           ; 1 bytes @ 0x0
  2456                           
  2457  0070                     ?_SYSTEM_Initialize:	
  2458                           ; 1 bytes @ 0x0
  2459                           
  2460  0070                     ??_SYSTEM_Initialize:	
  2461                           ; 1 bytes @ 0x0
  2462                           
  2463  0070                     ?_main:	
  2464                           ; 1 bytes @ 0x0
  2465                           
  2466  0070                     ?_TextLCD_4Bits_Write:	
  2467                           ; 1 bytes @ 0x0
  2468                           
  2469  0070                     ??_TextLCD_4Bits_Write:	
  2470                           ; 1 bytes @ 0x0
  2471                           
  2472  0070                     ?_TextLCD_Enable:	
  2473                           ; 1 bytes @ 0x0
  2474                           
  2475  0070                     ??_TextLCD_Enable:	
  2476                           ; 1 bytes @ 0x0
  2477                           
  2478  0070                     ?_TextLCD_Put:	
  2479                           ; 1 bytes @ 0x0
  2480                           
  2481  0070                     ?_TextLCD_CMD:	
  2482                           ; 1 bytes @ 0x0
  2483                           
  2484  0070                     ?_TextLCD_PutChar:	
  2485                           ; 1 bytes @ 0x0
  2486                           
  2487  0070                     TextLCD_4Bits_Write@nib:	
  2488                           ; 1 bytes @ 0x0
  2489                           
  2490                           
  2491                           ; 1 bytes @ 0x0
  2492  0070                     	ds	1
  2493  0071                     ??_TextLCD_Put:
  2494                           
  2495                           ; 1 bytes @ 0x1
  2496  0071                     	ds	1
  2497  0072                     TextLCD_Put@b:
  2498                           
  2499                           ; 1 bytes @ 0x2
  2500  0072                     	ds	1
  2501  0073                     ??_TextLCD_CMD:
  2502  0073                     ??_TextLCD_PutChar:	
  2503                           ; 1 bytes @ 0x3
  2504                           
  2505  0073                     TextLCD_CMD@cmd:	
  2506                           ; 1 bytes @ 0x3
  2507                           
  2508  0073                     TextLCD_PutChar@data:	
  2509                           ; 1 bytes @ 0x3
  2510                           
  2511                           
  2512                           ; 1 bytes @ 0x3
  2513  0073                     	ds	1
  2514  0074                     ??_TextLCD_Init:
  2515  0074                     ?_TextLCD_SetCursor:	
  2516                           ; 1 bytes @ 0x4
  2517                           
  2518  0074                     TextLCD_SetCursor@idx:	
  2519                           ; 1 bytes @ 0x4
  2520                           
  2521                           
  2522                           ; 1 bytes @ 0x4
  2523  0074                     	ds	1
  2524  0075                     ??_TextLCD_SetCursor:
  2525                           
  2526                           ; 1 bytes @ 0x5
  2527  0075                     	ds	1
  2528  0076                     TextLCD_SetCursor@address:
  2529  0076                     TextLCD_Init@TextLcdType:	
  2530                           ; 1 bytes @ 0x6
  2531                           
  2532                           
  2533                           ; 1 bytes @ 0x6
  2534  0076                     	ds	1
  2535  0077                     TextLCD_SetCursor@line:
  2536                           
  2537                           ; 1 bytes @ 0x7
  2538  0077                     	ds	1
  2539  0078                     ?_TextLCD_Puts:
  2540  0078                     TextLCD_Puts@idx:	
  2541                           ; 1 bytes @ 0x8
  2542                           
  2543                           
  2544                           ; 1 bytes @ 0x8
  2545  0078                     	ds	1
  2546  0079                     TextLCD_Puts@data:
  2547                           
  2548                           ; 2 bytes @ 0x9
  2549  0079                     	ds	2
  2550  007B                     TextLCD_Puts@length_or_type:
  2551                           
  2552                           ; 1 bytes @ 0xB
  2553  007B                     	ds	1
  2554  007C                     ??_TextLCD_Puts:
  2555                           
  2556                           ; 1 bytes @ 0xC
  2557  007C                     	ds	1
  2558  007D                     TextLCD_Puts@line:
  2559                           
  2560                           ; 1 bytes @ 0xD
  2561  007D                     	ds	1
  2562  007E                     ??_main:
  2563                           
  2564                           	psect	maintext
  2565  0674                     __pmaintext:	
  2566                           ; 1 bytes @ 0xE
  2567 ;;
  2568 ;;Main: autosize = 0, tempsize = 0, incstack = 0, save=0
  2569 ;;
  2570 ;; *************** function _main *****************
  2571 ;; Defined at:
  2572 ;;		line 8 in file "main.c"
  2573 ;; Parameters:    Size  Location     Type
  2574 ;;		None
  2575 ;; Auto vars:     Size  Location     Type
  2576 ;;		None
  2577 ;; Return value:  Size  Location     Type
  2578 ;;                  1    wreg      void 
  2579 ;; Registers used:
  2580 ;;		wreg, fsr0l, fsr0h, status,2, status,0, pclath, cstack
  2581 ;; Tracked objects:
  2582 ;;		On entry : B3F/0
  2583 ;;		On exit  : 0/0
  2584 ;;		Unchanged: 0/0
  2585 ;; Data sizes:     COMMON   BANK0   BANK1   BANK2   BANK3   BANK4   BANK5   BANK6   BANK7   BANK8   BANK9  BANK10  BANK1
      +1  BANK12  BANK13  BANK14  BANK15  BANK16  BANK17  BANK18  BANK19  BANK20  BANK21  BANK22  BANK23  BANK24  BANK25
  2586 ;;      Params:         0       0       0       0       0       0       0       0       0       0       0       0       
      +0       0       0       0       0       0       0       0       0       0       0       0       0       0       0
  2587 ;;      Locals:         0       0       0       0       0       0       0       0       0       0       0       0       
      +0       0       0       0       0       0       0       0       0       0       0       0       0       0       0
  2588 ;;      Temps:          0       0       0       0       0       0       0       0       0       0       0       0       
      +0       0       0       0       0       0       0       0       0       0       0       0       0       0       0
  2589 ;;      Totals:         0       0       0       0       0       0       0       0       0       0       0       0       
      +0       0       0       0       0       0       0       0       0       0       0       0       0       0       0
  2590 ;;Total ram usage:        0 bytes
  2591 ;; Hardware stack levels required when called: 5
  2592 ;; This function calls:
  2593 ;;		_SYSTEM_Initialize
  2594 ;;		_TextLCD_Init
  2595 ;;		_TextLCD_Puts
  2596 ;; This function is called by:
  2597 ;;		Startup code after reset
  2598 ;; This function uses a non-reentrant model
  2599 ;;
  2600                           
  2601                           
  2602                           ;psect for function _main
  2603  0674                     _main:
  2604  0674                     l1277:	
  2605                           ;incstack = 0
  2606                           ; Regs used in _main: [wreg-fsr0h+status,2+status,0+pclath+cstack]
  2607                           
  2608                           
  2609                           ;main.c: 11:     SYSTEM_Initialize();
  2610  0674  3186  2664  3186   	fcall	_SYSTEM_Initialize
  2611  0677                     l1279:
  2612                           
  2613                           ;main.c: 27:     TextLCD_Init(TEXTLCD1602);
  2614  0677  3002               	movlw	2
  2615  0678  3187  2765  3186   	fcall	_TextLCD_Init
  2616  067B                     l1281:
  2617                           
  2618                           ;main.c: 28:     TextLCD_Puts(1,1,"Hoang Toan",0);
  2619  067B  01F8               	clrf	TextLCD_Puts@idx
  2620  067C  0AF8               	incf	TextLCD_Puts@idx,f
  2621  067D  3015               	movlw	low (STR_1| (0+32768))
  2622  067E  00F9               	movwf	TextLCD_Puts@data
  2623  067F  3088               	movlw	high (STR_1| (0+32768))
  2624  0680  00FA               	movwf	TextLCD_Puts@data+1
  2625  0681  01FB               	clrf	TextLCD_Puts@length_or_type
  2626  0682  3001               	movlw	1
  2627  0683  3186  26F0  3186   	fcall	_TextLCD_Puts
  2628  0686                     l218:	
  2629                           ;main.c: 29:     while (1)
  2630                           
  2631  0686                     l219:	
  2632                           ;main.c: 30:     {;main.c: 32:     }
  2633                           
  2634  0686  2E86               	goto	l218
  2635  0687  3180  2802         	ljmp	start
  2636  0689                     __end_of_main:
  2637                           
  2638                           	psect	text1
  2639  06F0                     __ptext1:	
  2640 ;; *************** function _TextLCD_Puts *****************
  2641 ;; Defined at:
  2642 ;;		line 79 in file "../../../Training/b1/Lib/TEXTLCD.c"
  2643 ;; Parameters:    Size  Location     Type
  2644 ;;  line            1    wreg     unsigned char 
  2645 ;;  idx             1    8[COMMON] unsigned char 
  2646 ;;  data            2    9[COMMON] PTR const unsigned char 
  2647 ;;		 -> STR_2(17), STR_1(11), 
  2648 ;;  length_or_ty    1   11[COMMON] unsigned char 
  2649 ;; Auto vars:     Size  Location     Type
  2650 ;;  line            1   13[COMMON] unsigned char 
  2651 ;; Return value:  Size  Location     Type
  2652 ;;                  1    wreg      void 
  2653 ;; Registers used:
  2654 ;;		wreg, fsr0l, fsr0h, status,2, status,0, pclath, cstack
  2655 ;; Tracked objects:
  2656 ;;		On entry : 0/0
  2657 ;;		On exit  : 0/0
  2658 ;;		Unchanged: 0/0
  2659 ;; Data sizes:     COMMON   BANK0   BANK1   BANK2   BANK3   BANK4   BANK5   BANK6   BANK7   BANK8   BANK9  BANK10  BANK1
      +1  BANK12  BANK13  BANK14  BANK15  BANK16  BANK17  BANK18  BANK19  BANK20  BANK21  BANK22  BANK23  BANK24  BANK25
  2660 ;;      Params:         4       0       0       0       0       0       0       0       0       0       0       0       
      +0       0       0       0       0       0       0       0       0       0       0       0       0       0       0
  2661 ;;      Locals:         1       0       0       0       0       0       0       0       0       0       0       0       
      +0       0       0       0       0       0       0       0       0       0       0       0       0       0       0
  2662 ;;      Temps:          1       0       0       0       0       0       0       0       0       0       0       0       
      +0       0       0       0       0       0       0       0       0       0       0       0       0       0       0
  2663 ;;      Totals:         6       0       0       0       0       0       0       0       0       0       0       0       
      +0       0       0       0       0       0       0       0       0       0       0       0       0       0       0
  2664 ;;Total ram usage:        6 bytes
  2665 ;; Hardware stack levels used: 1
  2666 ;; Hardware stack levels required when called: 4
  2667 ;; This function calls:
  2668 ;;		_TextLCD_PutChar
  2669 ;;		_TextLCD_SetCursor
  2670 ;; This function is called by:
  2671 ;;		_main
  2672 ;;		_TextLCD_ClearLine
  2673 ;; This function uses a non-reentrant model
  2674 ;;
  2675                           
  2676                           
  2677                           ;psect for function _TextLCD_Puts
  2678  06F0                     _TextLCD_Puts:
  2679                           
  2680                           ;incstack = 0
  2681                           ; Regs used in _TextLCD_Puts: [wreg-fsr0h+status,2+status,0+pclath+cstack]
  2682                           ;TextLCD_Puts@line stored from wreg
  2683  06F0  00FD               	movwf	TextLCD_Puts@line
  2684  06F1                     l1257:
  2685                           
  2686                           ;../../../Training/b1/Lib/TEXTLCD.c: 79:        void TextLCD_Puts(uint8_t line, uint8_t 
      +                          idx, const char *data, uint8_t length_or_type);../../../Training/b1/Lib/TEXTLCD.c: 80: {
      +                          ;../../../Training/b1/Lib/TEXTLCD.c: 81:     TextLCD_SetCursor(line, idx);
  2687  06F1  0878               	movf	TextLCD_Puts@idx,w
  2688  06F2  00FC               	movwf	??_TextLCD_Puts
  2689  06F3  087C               	movf	??_TextLCD_Puts,w
  2690  06F4  00F4               	movwf	TextLCD_SetCursor@idx
  2691  06F5  087D               	movf	TextLCD_Puts@line,w
  2692  06F6  3186  26C5  3186   	fcall	_TextLCD_SetCursor
  2693  06F9                     l1259:
  2694                           
  2695                           ;../../../Training/b1/Lib/TEXTLCD.c: 83:     if(length_or_type==0)
  2696  06F9  087B               	movf	TextLCD_Puts@length_or_type,w
  2697  06FA  1D03               	btfss	3,2
  2698  06FB  2EFD               	goto	u281
  2699  06FC  2EFE               	goto	u280
  2700  06FD                     u281:
  2701  06FD  2F23               	goto	l1275
  2702  06FE                     u280:
  2703  06FE  2F0B               	goto	l1267
  2704  06FF                     l1263:
  2705                           
  2706                           ;../../../Training/b1/Lib/TEXTLCD.c: 85:             TextLCD_PutChar(*data++);
  2707  06FF  0879               	movf	TextLCD_Puts@data,w
  2708  0700  0084               	movwf	4
  2709  0701  087A               	movf	TextLCD_Puts@data+1,w
  2710  0702  0085               	movwf	5
  2711  0703  0800               	movf	0,w	;code access
  2712  0704  3186  2637  3186   	fcall	_TextLCD_PutChar
  2713  0707                     l1265:
  2714  0707  3001               	movlw	1
  2715  0708  07F9               	addwf	TextLCD_Puts@data,f
  2716  0709  3000               	movlw	0
  2717  070A  3DFA               	addwfc	TextLCD_Puts@data+1,f
  2718  070B                     l1267:
  2719                           
  2720                           ;../../../Training/b1/Lib/TEXTLCD.c: 84:         while(*data!=0)
  2721  070B  0879               	movf	TextLCD_Puts@data,w
  2722  070C  0084               	movwf	4
  2723  070D  087A               	movf	TextLCD_Puts@data+1,w
  2724  070E  0085               	movwf	5
  2725  070F  0012               	moviw fsr0++
  2726  0710  1D03               	btfss	3,2
  2727  0711  2F13               	goto	u291
  2728  0712  2F14               	goto	u290
  2729  0713                     u291:
  2730  0713  2EFF               	goto	l1263
  2731  0714                     u290:
  2732  0714  2F28               	goto	l296
  2733  0715                     l1269:
  2734                           
  2735                           ;../../../Training/b1/Lib/TEXTLCD.c: 89:         {;../../../Training/b1/Lib/TEXTLCD.c: 9
      +                          0:             TextLCD_PutChar(*data++);
  2736  0715  0879               	movf	TextLCD_Puts@data,w
  2737  0716  0084               	movwf	4
  2738  0717  087A               	movf	TextLCD_Puts@data+1,w
  2739  0718  0085               	movwf	5
  2740  0719  0800               	movf	0,w	;code access
  2741  071A  3186  2637  3186   	fcall	_TextLCD_PutChar
  2742  071D                     l1271:
  2743  071D  3001               	movlw	1
  2744  071E  07F9               	addwf	TextLCD_Puts@data,f
  2745  071F  3000               	movlw	0
  2746  0720  3DFA               	addwfc	TextLCD_Puts@data+1,f
  2747  0721                     l1273:
  2748                           
  2749                           ;../../../Training/b1/Lib/TEXTLCD.c: 91:             length_or_type--;
  2750  0721  3001               	movlw	1
  2751  0722  02FB               	subwf	TextLCD_Puts@length_or_type,f
  2752  0723                     l1275:
  2753                           
  2754                           ;../../../Training/b1/Lib/TEXTLCD.c: 88:         while(length_or_type>0)
  2755  0723  087B               	movf	TextLCD_Puts@length_or_type,w
  2756  0724  1D03               	btfss	3,2
  2757  0725  2F27               	goto	u301
  2758  0726  2F28               	goto	u300
  2759  0727                     u301:
  2760  0727  2F15               	goto	l1269
  2761  0728                     u300:
  2762  0728                     l296:
  2763  0728  0008               	return
  2764  0729                     __end_of_TextLCD_Puts:
  2765                           
  2766                           	psect	text2
  2767  06C5                     __ptext2:	
  2768 ;; *************** function _TextLCD_SetCursor *****************
  2769 ;; Defined at:
  2770 ;;		line 64 in file "../../../Training/b1/Lib/TEXTLCD.c"
  2771 ;; Parameters:    Size  Location     Type
  2772 ;;  line            1    wreg     unsigned char 
  2773 ;;  idx             1    4[COMMON] unsigned char 
  2774 ;; Auto vars:     Size  Location     Type
  2775 ;;  line            1    7[COMMON] unsigned char 
  2776 ;;  address         1    6[COMMON] unsigned char 
  2777 ;; Return value:  Size  Location     Type
  2778 ;;                  1    wreg      void 
  2779 ;; Registers used:
  2780 ;;		wreg, fsr0l, fsr0h, status,2, status,0, pclath, cstack
  2781 ;; Tracked objects:
  2782 ;;		On entry : 0/0
  2783 ;;		On exit  : 0/0
  2784 ;;		Unchanged: 0/0
  2785 ;; Data sizes:     COMMON   BANK0   BANK1   BANK2   BANK3   BANK4   BANK5   BANK6   BANK7   BANK8   BANK9  BANK10  BANK1
      +1  BANK12  BANK13  BANK14  BANK15  BANK16  BANK17  BANK18  BANK19  BANK20  BANK21  BANK22  BANK23  BANK24  BANK25
  2786 ;;      Params:         1       0       0       0       0       0       0       0       0       0       0       0       
      +0       0       0       0       0       0       0       0       0       0       0       0       0       0       0
  2787 ;;      Locals:         2       0       0       0       0       0       0       0       0       0       0       0       
      +0       0       0       0       0       0       0       0       0       0       0       0       0       0       0
  2788 ;;      Temps:          1       0       0       0       0       0       0       0       0       0       0       0       
      +0       0       0       0       0       0       0       0       0       0       0       0       0       0       0
  2789 ;;      Totals:         4       0       0       0       0       0       0       0       0       0       0       0       
      +0       0       0       0       0       0       0       0       0       0       0       0       0       0       0
  2790 ;;Total ram usage:        4 bytes
  2791 ;; Hardware stack levels used: 1
  2792 ;; Hardware stack levels required when called: 3
  2793 ;; This function calls:
  2794 ;;		_TextLCD_CMD
  2795 ;; This function is called by:
  2796 ;;		_TextLCD_Puts
  2797 ;;		_TextLCD_Three_Number_Int
  2798 ;; This function uses a non-reentrant model
  2799 ;;
  2800                           
  2801                           
  2802                           ;psect for function _TextLCD_SetCursor
  2803  06C5                     _TextLCD_SetCursor:
  2804                           
  2805                           ;incstack = 0
  2806                           ; Regs used in _TextLCD_SetCursor: [wreg-fsr0h+status,2+status,0+pclath+cstack]
  2807                           ;TextLCD_SetCursor@line stored from wreg
  2808  06C5  00F7               	movwf	TextLCD_SetCursor@line
  2809  06C6                     l1209:
  2810                           
  2811                           ;../../../Training/b1/Lib/TEXTLCD.c: 64:        void TextLCD_SetCursor(uint8_t line, uin
      +                          t8_t idx);../../../Training/b1/Lib/TEXTLCD.c: 65: {;../../../Training/b1/Lib/TEXTLCD.c: 
      +                          66:     uint8_t address;;../../../Training/b1/Lib/TEXTLCD.c: 68:     if(line>MaxLine)
  2812  06C6  0877               	movf	TextLCD_SetCursor@line,w
  2813  06C7  0140               	movlb	0	; select bank0
  2814  06C8  0221               	subwf	_MaxLine,w
  2815  06C9  1803               	skipnc
  2816  06CA  2ECC               	goto	u261
  2817  06CB  2ECD               	goto	u260
  2818  06CC                     u261:
  2819  06CC  2ED1               	goto	l283
  2820  06CD                     u260:
  2821  06CD                     l1211:
  2822                           
  2823                           ;../../../Training/b1/Lib/TEXTLCD.c: 69:         line=MaxLine;
  2824  06CD  0821               	movf	_MaxLine,w
  2825  06CE  00F5               	movwf	??_TextLCD_SetCursor
  2826  06CF  0875               	movf	??_TextLCD_SetCursor,w
  2827  06D0  00F7               	movwf	TextLCD_SetCursor@line
  2828  06D1                     l283:
  2829                           
  2830                           ;../../../Training/b1/Lib/TEXTLCD.c: 71:     if(idx>MaxRow)
  2831  06D1  0874               	movf	TextLCD_SetCursor@idx,w
  2832  06D2  0220               	subwf	_MaxRow,w
  2833  06D3  1803               	skipnc
  2834  06D4  2ED6               	goto	u271
  2835  06D5  2ED7               	goto	u270
  2836  06D6                     u271:
  2837  06D6  2EDB               	goto	l1215
  2838  06D7                     u270:
  2839  06D7                     l1213:
  2840                           
  2841                           ;../../../Training/b1/Lib/TEXTLCD.c: 72:         idx=MaxRow;
  2842  06D7  0820               	movf	_MaxRow,w
  2843  06D8  00F5               	movwf	??_TextLCD_SetCursor
  2844  06D9  0875               	movf	??_TextLCD_SetCursor,w
  2845  06DA  00F4               	movwf	TextLCD_SetCursor@idx
  2846  06DB                     l1215:
  2847                           
  2848                           ;../../../Training/b1/Lib/TEXTLCD.c: 74:     address=DDRAM_Start_Address[line]+idx;
  2849  06DB  0877               	movf	TextLCD_SetCursor@line,w
  2850  06DC  3E00               	addlw	low (_DDRAM_Start_Address| (0+32768))
  2851  06DD  0084               	movwf	4
  2852  06DE  3088               	movlw	high (_DDRAM_Start_Address| (0+32768))
  2853  06DF  1803               	skipnc
  2854  06E0  3E01               	addlw	1
  2855  06E1  0085               	movwf	5
  2856  06E2  0800               	movf	0,w	;code access
  2857  06E3  0774               	addwf	TextLCD_SetCursor@idx,w
  2858  06E4  00F5               	movwf	??_TextLCD_SetCursor
  2859  06E5  0875               	movf	??_TextLCD_SetCursor,w
  2860  06E6  00F6               	movwf	TextLCD_SetCursor@address
  2861  06E7                     l1217:
  2862                           
  2863                           ;../../../Training/b1/Lib/TEXTLCD.c: 75:     TextLCD_CMD(address);
  2864  06E7  0876               	movf	TextLCD_SetCursor@address,w
  2865  06E8  3186  262F  3186   	fcall	_TextLCD_CMD
  2866  06EB                     l1219:
  2867                           
  2868                           ;../../../Training/b1/Lib/TEXTLCD.c: 76:     _delay((unsigned long)((1)*(4000000/4000.0)
      +                          ));
  2869  06EB  30C8               	movlw	200
  2870  06EC                     u387:
  2871  06EC  3200               	nop2
  2872  06ED  0B89               	decfsz	9,f
  2873  06EE  2EEC               	goto	u387
  2874  06EF                     l285:
  2875  06EF  0008               	return
  2876  06F0                     __end_of_TextLCD_SetCursor:
  2877                           
  2878                           	psect	text3
  2879  0637                     __ptext3:	
  2880 ;; *************** function _TextLCD_PutChar *****************
  2881 ;; Defined at:
  2882 ;;		line 58 in file "../../../Training/b1/Lib/TEXTLCD.c"
  2883 ;; Parameters:    Size  Location     Type
  2884 ;;  data            1    wreg     unsigned char 
  2885 ;; Auto vars:     Size  Location     Type
  2886 ;;  data            1    3[COMMON] unsigned char 
  2887 ;; Return value:  Size  Location     Type
  2888 ;;                  1    wreg      void 
  2889 ;; Registers used:
  2890 ;;		wreg, status,2, status,0, pclath, cstack
  2891 ;; Tracked objects:
  2892 ;;		On entry : 0/0
  2893 ;;		On exit  : 0/0
  2894 ;;		Unchanged: 0/0
  2895 ;; Data sizes:     COMMON   BANK0   BANK1   BANK2   BANK3   BANK4   BANK5   BANK6   BANK7   BANK8   BANK9  BANK10  BANK1
      +1  BANK12  BANK13  BANK14  BANK15  BANK16  BANK17  BANK18  BANK19  BANK20  BANK21  BANK22  BANK23  BANK24  BANK25
  2896 ;;      Params:         0       0       0       0       0       0       0       0       0       0       0       0       
      +0       0       0       0       0       0       0       0       0       0       0       0       0       0       0
  2897 ;;      Locals:         1       0       0       0       0       0       0       0       0       0       0       0       
      +0       0       0       0       0       0       0       0       0       0       0       0       0       0       0
  2898 ;;      Temps:          0       0       0       0       0       0       0       0       0       0       0       0       
      +0       0       0       0       0       0       0       0       0       0       0       0       0       0       0
  2899 ;;      Totals:         1       0       0       0       0       0       0       0       0       0       0       0       
      +0       0       0       0       0       0       0       0       0       0       0       0       0       0       0
  2900 ;;Total ram usage:        1 bytes
  2901 ;; Hardware stack levels used: 1
  2902 ;; Hardware stack levels required when called: 2
  2903 ;; This function calls:
  2904 ;;		_TextLCD_Put
  2905 ;; This function is called by:
  2906 ;;		_TextLCD_Puts
  2907 ;;		_TextLCD_Three_Number_Int
  2908 ;; This function uses a non-reentrant model
  2909 ;;
  2910                           
  2911                           
  2912                           ;psect for function _TextLCD_PutChar
  2913  0637                     _TextLCD_PutChar:
  2914                           
  2915                           ;incstack = 0
  2916                           ; Regs used in _TextLCD_PutChar: [wreg+status,2+status,0+pclath+cstack]
  2917                           ;TextLCD_PutChar@data stored from wreg
  2918  0637  00F3               	movwf	TextLCD_PutChar@data
  2919  0638                     l278:	
  2920                           ;../../../Training/b1/Lib/TEXTLCD.c: 58:        void TextLCD_PutChar(char data);../../..
      +                          /Training/b1/Lib/TEXTLCD.c: 59: {;../../../Training/b1/Lib/TEXTLCD.c: 60:     do { LATEb
      +                          its.LATE2 = 1; } while(0);
  2921                           
  2922  0638  0140               	movlb	0	; select bank0
  2923  0639  151C               	bsf	28,2	;volatile
  2924  063A                     l1207:
  2925                           
  2926                           ;../../../Training/b1/Lib/TEXTLCD.c: 61:     TextLCD_Put(data);
  2927  063A  0873               	movf	TextLCD_PutChar@data,w
  2928  063B  3186  2689  3186   	fcall	_TextLCD_Put
  2929  063E                     l280:
  2930  063E  0008               	return
  2931  063F                     __end_of_TextLCD_PutChar:
  2932                           
  2933                           	psect	text4
  2934  0765                     __ptext4:	
  2935 ;; *************** function _TextLCD_Init *****************
  2936 ;; Defined at:
  2937 ;;		line 179 in file "../../../Training/b1/Lib/TEXTLCD.c"
  2938 ;; Parameters:    Size  Location     Type
  2939 ;;  TextLcdType     1    wreg     enum E36
  2940 ;; Auto vars:     Size  Location     Type
  2941 ;;  TextLcdType     1    6[COMMON] enum E36
  2942 ;; Return value:  Size  Location     Type
  2943 ;;                  1    wreg      _Bool 
  2944 ;; Registers used:
  2945 ;;		wreg, fsr0l, fsr0h, status,2, status,0, pclath, cstack
  2946 ;; Tracked objects:
  2947 ;;		On entry : 0/0
  2948 ;;		On exit  : 0/0
  2949 ;;		Unchanged: 0/0
  2950 ;; Data sizes:     COMMON   BANK0   BANK1   BANK2   BANK3   BANK4   BANK5   BANK6   BANK7   BANK8   BANK9  BANK10  BANK1
      +1  BANK12  BANK13  BANK14  BANK15  BANK16  BANK17  BANK18  BANK19  BANK20  BANK21  BANK22  BANK23  BANK24  BANK25
  2951 ;;      Params:         0       0       0       0       0       0       0       0       0       0       0       0       
      +0       0       0       0       0       0       0       0       0       0       0       0       0       0       0
  2952 ;;      Locals:         1       0       0       0       0       0       0       0       0       0       0       0       
      +0       0       0       0       0       0       0       0       0       0       0       0       0       0       0
  2953 ;;      Temps:          2       0       0       0       0       0       0       0       0       0       0       0       
      +0       0       0       0       0       0       0       0       0       0       0       0       0       0       0
  2954 ;;      Totals:         3       0       0       0       0       0       0       0       0       0       0       0       
      +0       0       0       0       0       0       0       0       0       0       0       0       0       0       0
  2955 ;;Total ram usage:        3 bytes
  2956 ;; Hardware stack levels used: 1
  2957 ;; Hardware stack levels required when called: 3
  2958 ;; This function calls:
  2959 ;;		_TextLCD_4Bits_Write
  2960 ;;		_TextLCD_CMD
  2961 ;;		_TextLCD_Enable
  2962 ;; This function is called by:
  2963 ;;		_main
  2964 ;; This function uses a non-reentrant model
  2965 ;;
  2966                           
  2967                           
  2968                           ;psect for function _TextLCD_Init
  2969  0765                     _TextLCD_Init:
  2970                           
  2971                           ;incstack = 0
  2972                           ; Regs used in _TextLCD_Init: [wreg-fsr0h+status,2+status,0+pclath+cstack]
  2973                           ;TextLCD_Init@TextLcdType stored from wreg
  2974  0765  00F6               	movwf	TextLCD_Init@TextLcdType
  2975  0766                     l1221:
  2976                           
  2977                           ;../../../Training/b1/Lib/TEXTLCD.c: 179:        _Bool TextLCD_Init(textlcd_t TextLcdTyp
      +                          e);../../../Training/b1/Lib/TEXTLCD.c: 180: {;../../../Training/b1/Lib/TEXTLCD.c: 181:  
      +                             switch(TextLcdType)
  2978  0766  2F99               	goto	l1237
  2979  0767                     l1223:
  2980                           
  2981                           ;../../../Training/b1/Lib/TEXTLCD.c: 184:             MaxLine=2;
  2982  0767  3002               	movlw	2
  2983  0768  00F4               	movwf	??_TextLCD_Init
  2984  0769  0874               	movf	??_TextLCD_Init,w
  2985  076A  0140               	movlb	0	; select bank0
  2986  076B  00A1               	movwf	_MaxLine
  2987                           
  2988                           ;../../../Training/b1/Lib/TEXTLCD.c: 185:             MaxRow=8;
  2989  076C  3008               	movlw	8
  2990  076D  00F4               	movwf	??_TextLCD_Init
  2991  076E  0874               	movf	??_TextLCD_Init,w
  2992  076F  00A0               	movwf	_MaxRow
  2993                           
  2994                           ;../../../Training/b1/Lib/TEXTLCD.c: 186:             break;
  2995  0770  2FB5               	goto	l330
  2996  0771                     l1227:
  2997                           
  2998                           ;../../../Training/b1/Lib/TEXTLCD.c: 194:             MaxLine=2;
  2999  0771  3002               	movlw	2
  3000  0772  00F4               	movwf	??_TextLCD_Init
  3001  0773  0874               	movf	??_TextLCD_Init,w
  3002  0774  0140               	movlb	0	; select bank0
  3003  0775  00A1               	movwf	_MaxLine
  3004                           
  3005                           ;../../../Training/b1/Lib/TEXTLCD.c: 195:             MaxRow=16;
  3006  0776  3010               	movlw	16
  3007  0777  00F4               	movwf	??_TextLCD_Init
  3008  0778  0874               	movf	??_TextLCD_Init,w
  3009  0779  00A0               	movwf	_MaxRow
  3010                           
  3011                           ;../../../Training/b1/Lib/TEXTLCD.c: 196:             break;
  3012  077A  2FB5               	goto	l330
  3013  077B                     l1229:
  3014                           
  3015                           ;../../../Training/b1/Lib/TEXTLCD.c: 199:             MaxLine=4;
  3016  077B  3004               	movlw	4
  3017  077C  00F4               	movwf	??_TextLCD_Init
  3018  077D  0874               	movf	??_TextLCD_Init,w
  3019  077E  0140               	movlb	0	; select bank0
  3020  077F  00A1               	movwf	_MaxLine
  3021                           
  3022                           ;../../../Training/b1/Lib/TEXTLCD.c: 200:             MaxRow=16;
  3023  0780  3010               	movlw	16
  3024  0781  00F4               	movwf	??_TextLCD_Init
  3025  0782  0874               	movf	??_TextLCD_Init,w
  3026  0783  00A0               	movwf	_MaxRow
  3027                           
  3028                           ;../../../Training/b1/Lib/TEXTLCD.c: 201:             break;
  3029  0784  2FB5               	goto	l330
  3030  0785                     l1231:
  3031                           
  3032                           ;../../../Training/b1/Lib/TEXTLCD.c: 204:             MaxLine=2;
  3033  0785  3002               	movlw	2
  3034  0786  00F4               	movwf	??_TextLCD_Init
  3035  0787  0874               	movf	??_TextLCD_Init,w
  3036  0788  0140               	movlb	0	; select bank0
  3037  0789  00A1               	movwf	_MaxLine
  3038                           
  3039                           ;../../../Training/b1/Lib/TEXTLCD.c: 205:             MaxRow=20;
  3040  078A  3014               	movlw	20
  3041  078B  00F4               	movwf	??_TextLCD_Init
  3042  078C  0874               	movf	??_TextLCD_Init,w
  3043  078D  00A0               	movwf	_MaxRow
  3044                           
  3045                           ;../../../Training/b1/Lib/TEXTLCD.c: 206:             break;
  3046  078E  2FB5               	goto	l330
  3047  078F                     l1233:
  3048                           
  3049                           ;../../../Training/b1/Lib/TEXTLCD.c: 209:             MaxLine=4;
  3050  078F  3004               	movlw	4
  3051  0790  00F4               	movwf	??_TextLCD_Init
  3052  0791  0874               	movf	??_TextLCD_Init,w
  3053  0792  0140               	movlb	0	; select bank0
  3054  0793  00A1               	movwf	_MaxLine
  3055                           
  3056                           ;../../../Training/b1/Lib/TEXTLCD.c: 210:             MaxRow=20;
  3057  0794  3014               	movlw	20
  3058  0795  00F4               	movwf	??_TextLCD_Init
  3059  0796  0874               	movf	??_TextLCD_Init,w
  3060  0797  00A0               	movwf	_MaxRow
  3061                           
  3062                           ;../../../Training/b1/Lib/TEXTLCD.c: 211:             break;
  3063  0798  2FB5               	goto	l330
  3064  0799                     l1237:
  3065  0799  0876               	movf	TextLCD_Init@TextLcdType,w
  3066  079A  00F4               	movwf	??_TextLCD_Init
  3067  079B  01F5               	clrf	??_TextLCD_Init+1
  3068                           
  3069                           ; Switch on 2 bytes has been partitioned into a top level switch of size 1, and 1 sub-sw
      +                          itches
  3070                           ; Switch size 1, requested type "simple"
  3071                           ; Number of cases is 1, Range of values is 0 to 0
  3072                           ; switch strategies available:
  3073                           ; Name         Instructions Cycles
  3074                           ; simple_byte            4     3 (average)
  3075                           ; direct_byte            8     6 (fixed)
  3076                           ; jumptable            260     6 (fixed)
  3077                           ;	Chosen strategy is simple_byte
  3078  079C  0875               	movf	??_TextLCD_Init+1,w
  3079  079D  3A00               	xorlw	0	; case 0
  3080  079E  1903               	skipnz
  3081  079F  2FA1               	goto	l1389
  3082  07A0  2FF4               	goto	l329
  3083  07A1                     l1389:
  3084                           
  3085                           ; Switch size 1, requested type "simple"
  3086                           ; Number of cases is 6, Range of values is 0 to 5
  3087                           ; switch strategies available:
  3088                           ; Name         Instructions Cycles
  3089                           ; direct_byte           18     6 (fixed)
  3090                           ; simple_byte           19    10 (average)
  3091                           ; jumptable            260     6 (fixed)
  3092                           ;	Chosen strategy is simple_byte
  3093  07A1  0874               	movf	??_TextLCD_Init,w
  3094  07A2  3A00               	xorlw	0	; case 0
  3095  07A3  1903               	skipnz
  3096  07A4  2F67               	goto	l1223
  3097  07A5  3A01               	xorlw	1	; case 1
  3098  07A6  1903               	skipnz
  3099  07A7  2F67               	goto	l1223
  3100  07A8  3A03               	xorlw	3	; case 2
  3101  07A9  1903               	skipnz
  3102  07AA  2F71               	goto	l1227
  3103  07AB  3A01               	xorlw	1	; case 3
  3104  07AC  1903               	skipnz
  3105  07AD  2F7B               	goto	l1229
  3106  07AE  3A07               	xorlw	7	; case 4
  3107  07AF  1903               	skipnz
  3108  07B0  2F85               	goto	l1231
  3109  07B1  3A01               	xorlw	1	; case 5
  3110  07B2  1903               	skipnz
  3111  07B3  2F8F               	goto	l1233
  3112  07B4  2FF4               	goto	l329
  3113  07B5                     l330:	
  3114                           ;../../../Training/b1/Lib/TEXTLCD.c: 217:     do { LATEbits.LATE2 = 0; } while(0);
  3115                           
  3116  07B5  111C               	bcf	28,2	;volatile
  3117  07B6                     l1239:
  3118                           
  3119                           ;../../../Training/b1/Lib/TEXTLCD.c: 218:     _delay((unsigned long)((40)*(4000000/4000.
      +                          0)));
  3120  07B6  3034               	movlw	52
  3121  07B7  00F4               	movwf	??_TextLCD_Init
  3122  07B8  30F2               	movlw	242
  3123  07B9                     u397:
  3124  07B9  0B89               	decfsz	9,f
  3125  07BA  2FB9               	goto	u397
  3126  07BB  0BF4               	decfsz	??_TextLCD_Init,f
  3127  07BC  2FB9               	goto	u397
  3128  07BD                     l1241:
  3129                           
  3130                           ;../../../Training/b1/Lib/TEXTLCD.c: 219:     TextLCD_4Bits_Write(0x03);
  3131  07BD  3003               	movlw	3
  3132  07BE  3186  269F  3187   	fcall	_TextLCD_4Bits_Write
  3133  07C1                     l1243:
  3134                           
  3135                           ;../../../Training/b1/Lib/TEXTLCD.c: 220:     TextLCD_Enable();
  3136  07C1  3186  2649  3187   	fcall	_TextLCD_Enable
  3137                           
  3138                           ;../../../Training/b1/Lib/TEXTLCD.c: 221:     _delay((unsigned long)((5)*(4000000/4000.0
      +                          )));
  3139  07C4  3007               	movlw	7
  3140  07C5  00F4               	movwf	??_TextLCD_Init
  3141  07C6  307D               	movlw	125
  3142  07C7                     u407:
  3143  07C7  0B89               	decfsz	9,f
  3144  07C8  2FC7               	goto	u407
  3145  07C9  0BF4               	decfsz	??_TextLCD_Init,f
  3146  07CA  2FC7               	goto	u407
  3147  07CB  0000               	nop
  3148  07CC                     l1245:
  3149                           
  3150                           ;../../../Training/b1/Lib/TEXTLCD.c: 222:     TextLCD_Enable();
  3151  07CC  3186  2649  3187   	fcall	_TextLCD_Enable
  3152  07CF                     l1247:
  3153                           
  3154                           ;../../../Training/b1/Lib/TEXTLCD.c: 223:     _delay((unsigned long)((1)*(4000000/4000.0
      +                          )));
  3155  07CF  30C8               	movlw	200
  3156  07D0                     u417:
  3157  07D0  3200               	nop2
  3158  07D1  0B89               	decfsz	9,f
  3159  07D2  2FD0               	goto	u417
  3160                           
  3161                           ;../../../Training/b1/Lib/TEXTLCD.c: 224:     TextLCD_Enable();
  3162  07D3  3186  2649  3187   	fcall	_TextLCD_Enable
  3163                           
  3164                           ;../../../Training/b1/Lib/TEXTLCD.c: 225:     TextLCD_4Bits_Write(0x02);
  3165  07D6  3002               	movlw	2
  3166  07D7  3186  269F  3187   	fcall	_TextLCD_4Bits_Write
  3167                           
  3168                           ;../../../Training/b1/Lib/TEXTLCD.c: 226:     TextLCD_Enable();
  3169  07DA  3186  2649  3187   	fcall	_TextLCD_Enable
  3170                           
  3171                           ;../../../Training/b1/Lib/TEXTLCD.c: 227:     TextLCD_CMD(0x28);
  3172  07DD  3028               	movlw	40
  3173  07DE  3186  262F  3187   	fcall	_TextLCD_CMD
  3174                           
  3175                           ;../../../Training/b1/Lib/TEXTLCD.c: 228:     TextLCD_CMD(0x0c);
  3176  07E1  300C               	movlw	12
  3177  07E2  3186  262F  3187   	fcall	_TextLCD_CMD
  3178                           
  3179                           ;../../../Training/b1/Lib/TEXTLCD.c: 229:     TextLCD_CMD(0x06);
  3180  07E5  3006               	movlw	6
  3181  07E6  3186  262F  3187   	fcall	_TextLCD_CMD
  3182                           
  3183                           ;../../../Training/b1/Lib/TEXTLCD.c: 230:     TextLCD_CMD(0x01);
  3184  07E9  3001               	movlw	1
  3185  07EA  3186  262F  3187   	fcall	_TextLCD_CMD
  3186  07ED                     l1249:
  3187                           
  3188                           ;../../../Training/b1/Lib/TEXTLCD.c: 231:     _delay((unsigned long)((100)*(4000000/4000
      +                          .0)));
  3189  07ED  3082               	movlw	130
  3190  07EE  00F4               	movwf	??_TextLCD_Init
  3191  07EF  30DE               	movlw	222
  3192  07F0                     u427:
  3193  07F0  0B89               	decfsz	9,f
  3194  07F1  2FF0               	goto	u427
  3195  07F2  0BF4               	decfsz	??_TextLCD_Init,f
  3196  07F3  2FF0               	goto	u427
  3197  07F4                     l329:
  3198  07F4  0008               	return
  3199  07F5                     __end_of_TextLCD_Init:
  3200                           
  3201                           	psect	text5
  3202  062F                     __ptext5:	
  3203 ;; *************** function _TextLCD_CMD *****************
  3204 ;; Defined at:
  3205 ;;		line 52 in file "../../../Training/b1/Lib/TEXTLCD.c"
  3206 ;; Parameters:    Size  Location     Type
  3207 ;;  cmd             1    wreg     unsigned char 
  3208 ;; Auto vars:     Size  Location     Type
  3209 ;;  cmd             1    3[COMMON] unsigned char 
  3210 ;; Return value:  Size  Location     Type
  3211 ;;                  1    wreg      void 
  3212 ;; Registers used:
  3213 ;;		wreg, status,2, status,0, pclath, cstack
  3214 ;; Tracked objects:
  3215 ;;		On entry : 0/0
  3216 ;;		On exit  : 0/0
  3217 ;;		Unchanged: 0/0
  3218 ;; Data sizes:     COMMON   BANK0   BANK1   BANK2   BANK3   BANK4   BANK5   BANK6   BANK7   BANK8   BANK9  BANK10  BANK1
      +1  BANK12  BANK13  BANK14  BANK15  BANK16  BANK17  BANK18  BANK19  BANK20  BANK21  BANK22  BANK23  BANK24  BANK25
  3219 ;;      Params:         0       0       0       0       0       0       0       0       0       0       0       0       
      +0       0       0       0       0       0       0       0       0       0       0       0       0       0       0
  3220 ;;      Locals:         1       0       0       0       0       0       0       0       0       0       0       0       
      +0       0       0       0       0       0       0       0       0       0       0       0       0       0       0
  3221 ;;      Temps:          0       0       0       0       0       0       0       0       0       0       0       0       
      +0       0       0       0       0       0       0       0       0       0       0       0       0       0       0
  3222 ;;      Totals:         1       0       0       0       0       0       0       0       0       0       0       0       
      +0       0       0       0       0       0       0       0       0       0       0       0       0       0       0
  3223 ;;Total ram usage:        1 bytes
  3224 ;; Hardware stack levels used: 1
  3225 ;; Hardware stack levels required when called: 2
  3226 ;; This function calls:
  3227 ;;		_TextLCD_Put
  3228 ;; This function is called by:
  3229 ;;		_TextLCD_SetCursor
  3230 ;;		_TextLCD_Init
  3231 ;;		_TextLCD_Clear
  3232 ;; This function uses a non-reentrant model
  3233 ;;
  3234                           
  3235                           
  3236                           ;psect for function _TextLCD_CMD
  3237  062F                     _TextLCD_CMD:
  3238                           
  3239                           ;incstack = 0
  3240                           ; Regs used in _TextLCD_CMD: [wreg+status,2+status,0+pclath+cstack]
  3241                           ;TextLCD_CMD@cmd stored from wreg
  3242  062F  00F3               	movwf	TextLCD_CMD@cmd
  3243  0630                     l273:	
  3244                           ;../../../Training/b1/Lib/TEXTLCD.c: 52: static void TextLCD_CMD(char cmd);../../../Trai
      +                          ning/b1/Lib/TEXTLCD.c: 53: {;../../../Training/b1/Lib/TEXTLCD.c: 54:     do { LATEbits.L
      +                          ATE2 = 0; } while(0);
  3245                           
  3246  0630  0140               	movlb	0	; select bank0
  3247  0631  111C               	bcf	28,2	;volatile
  3248  0632                     l1205:
  3249                           
  3250                           ;../../../Training/b1/Lib/TEXTLCD.c: 55:  TextLCD_Put(cmd);
  3251  0632  0873               	movf	TextLCD_CMD@cmd,w
  3252  0633  3186  2689  3186   	fcall	_TextLCD_Put
  3253  0636                     l275:
  3254  0636  0008               	return
  3255  0637                     __end_of_TextLCD_CMD:
  3256                           
  3257                           	psect	text6
  3258  0689                     __ptext6:	
  3259 ;; *************** function _TextLCD_Put *****************
  3260 ;; Defined at:
  3261 ;;		line 45 in file "../../../Training/b1/Lib/TEXTLCD.c"
  3262 ;; Parameters:    Size  Location     Type
  3263 ;;  b               1    wreg     unsigned char 
  3264 ;; Auto vars:     Size  Location     Type
  3265 ;;  b               1    2[COMMON] unsigned char 
  3266 ;; Return value:  Size  Location     Type
  3267 ;;                  1    wreg      void 
  3268 ;; Registers used:
  3269 ;;		wreg, status,2, status,0, pclath, cstack
  3270 ;; Tracked objects:
  3271 ;;		On entry : 0/0
  3272 ;;		On exit  : 0/0
  3273 ;;		Unchanged: 0/0
  3274 ;; Data sizes:     COMMON   BANK0   BANK1   BANK2   BANK3   BANK4   BANK5   BANK6   BANK7   BANK8   BANK9  BANK10  BANK1
      +1  BANK12  BANK13  BANK14  BANK15  BANK16  BANK17  BANK18  BANK19  BANK20  BANK21  BANK22  BANK23  BANK24  BANK25
  3275 ;;      Params:         0       0       0       0       0       0       0       0       0       0       0       0       
      +0       0       0       0       0       0       0       0       0       0       0       0       0       0       0
  3276 ;;      Locals:         1       0       0       0       0       0       0       0       0       0       0       0       
      +0       0       0       0       0       0       0       0       0       0       0       0       0       0       0
  3277 ;;      Temps:          1       0       0       0       0       0       0       0       0       0       0       0       
      +0       0       0       0       0       0       0       0       0       0       0       0       0       0       0
  3278 ;;      Totals:         2       0       0       0       0       0       0       0       0       0       0       0       
      +0       0       0       0       0       0       0       0       0       0       0       0       0       0       0
  3279 ;;Total ram usage:        2 bytes
  3280 ;; Hardware stack levels used: 1
  3281 ;; Hardware stack levels required when called: 1
  3282 ;; This function calls:
  3283 ;;		_TextLCD_4Bits_Write
  3284 ;;		_TextLCD_Enable
  3285 ;; This function is called by:
  3286 ;;		_TextLCD_CMD
  3287 ;;		_TextLCD_PutChar
  3288 ;; This function uses a non-reentrant model
  3289 ;;
  3290                           
  3291                           
  3292                           ;psect for function _TextLCD_Put
  3293  0689                     _TextLCD_Put:
  3294                           
  3295                           ;incstack = 0
  3296                           ; Regs used in _TextLCD_Put: [wreg+status,2+status,0+pclath+cstack]
  3297                           ;TextLCD_Put@b stored from wreg
  3298  0689  00F2               	movwf	TextLCD_Put@b
  3299  068A                     l1203:
  3300                           
  3301                           ;../../../Training/b1/Lib/TEXTLCD.c: 46:     TextLCD_4Bits_Write(b>>4);
  3302  068A  0872               	movf	TextLCD_Put@b,w
  3303  068B  00F1               	movwf	??_TextLCD_Put
  3304  068C  3004               	movlw	4
  3305  068D                     u255:
  3306  068D  36F1               	lsrf	??_TextLCD_Put,f
  3307  068E  0B89               	decfsz	9,f
  3308  068F  2E8D               	goto	u255
  3309  0690  0871               	movf	??_TextLCD_Put,w
  3310  0691  3186  269F  3186   	fcall	_TextLCD_4Bits_Write
  3311                           
  3312                           ;../../../Training/b1/Lib/TEXTLCD.c: 47:  TextLCD_Enable();
  3313  0694  3186  2649  3186   	fcall	_TextLCD_Enable
  3314                           
  3315                           ;../../../Training/b1/Lib/TEXTLCD.c: 48:  TextLCD_4Bits_Write(b);
  3316  0697  0872               	movf	TextLCD_Put@b,w
  3317  0698  3186  269F  3186   	fcall	_TextLCD_4Bits_Write
  3318                           
  3319                           ;../../../Training/b1/Lib/TEXTLCD.c: 49:  TextLCD_Enable();
  3320  069B  3186  2649  3186   	fcall	_TextLCD_Enable
  3321  069E                     l270:
  3322  069E  0008               	return
  3323  069F                     __end_of_TextLCD_Put:
  3324                           
  3325                           	psect	text7
  3326  0649                     __ptext7:	
  3327 ;; *************** function _TextLCD_Enable *****************
  3328 ;; Defined at:
  3329 ;;		line 37 in file "../../../Training/b1/Lib/TEXTLCD.c"
  3330 ;; Parameters:    Size  Location     Type
  3331 ;;		None
  3332 ;; Auto vars:     Size  Location     Type
  3333 ;;		None
  3334 ;; Return value:  Size  Location     Type
  3335 ;;                  1    wreg      void 
  3336 ;; Registers used:
  3337 ;;		wreg
  3338 ;; Tracked objects:
  3339 ;;		On entry : 0/0
  3340 ;;		On exit  : 0/0
  3341 ;;		Unchanged: 0/0
  3342 ;; Data sizes:     COMMON   BANK0   BANK1   BANK2   BANK3   BANK4   BANK5   BANK6   BANK7   BANK8   BANK9  BANK10  BANK1
      +1  BANK12  BANK13  BANK14  BANK15  BANK16  BANK17  BANK18  BANK19  BANK20  BANK21  BANK22  BANK23  BANK24  BANK25
  3343 ;;      Params:         0       0       0       0       0       0       0       0       0       0       0       0       
      +0       0       0       0       0       0       0       0       0       0       0       0       0       0       0
  3344 ;;      Locals:         0       0       0       0       0       0       0       0       0       0       0       0       
      +0       0       0       0       0       0       0       0       0       0       0       0       0       0       0
  3345 ;;      Temps:          0       0       0       0       0       0       0       0       0       0       0       0       
      +0       0       0       0       0       0       0       0       0       0       0       0       0       0       0
  3346 ;;      Totals:         0       0       0       0       0       0       0       0       0       0       0       0       
      +0       0       0       0       0       0       0       0       0       0       0       0       0       0       0
  3347 ;;Total ram usage:        0 bytes
  3348 ;; Hardware stack levels used: 1
  3349 ;; This function calls:
  3350 ;;		Nothing
  3351 ;; This function is called by:
  3352 ;;		_TextLCD_Put
  3353 ;;		_TextLCD_Init
  3354 ;; This function uses a non-reentrant model
  3355 ;;
  3356                           
  3357                           
  3358                           ;psect for function _TextLCD_Enable
  3359  0649                     _TextLCD_Enable:
  3360  0649                     l263:	
  3361                           ;incstack = 0
  3362                           ; Regs used in _TextLCD_Enable: [wreg]
  3363                           ;../../../Training/b1/Lib/TEXTLCD.c: 39:     do { LATEbits.LATE1 = 1; } while(0);
  3364                           
  3365  0649  0140               	movlb	0	; select bank0
  3366  064A  149C               	bsf	28,1	;volatile
  3367  064B                     l1199:
  3368                           
  3369                           ;../../../Training/b1/Lib/TEXTLCD.c: 40:     _delay((unsigned long)((1)*(4000000/4000.0)
      +                          ));
  3370  064B  30C8               	movlw	200
  3371  064C                     u437:
  3372  064C  3200               	nop2
  3373  064D  0B89               	decfsz	9,f
  3374  064E  2E4C               	goto	u437
  3375  064F                     l1201:
  3376  064F  0140               	movlb	0	; select bank0
  3377  0650  109C               	bcf	28,1	;volatile
  3378  0651                     l266:
  3379                           
  3380                           ;../../../Training/b1/Lib/TEXTLCD.c: 42:     _delay((unsigned long)((1)*(4000000/4000.0)
      +                          ));
  3381  0651  30C8               	movlw	200
  3382  0652                     u447:
  3383  0652  3200               	nop2
  3384  0653  0B89               	decfsz	9,f
  3385  0654  2E52               	goto	u447
  3386  0655                     l267:
  3387  0655  0008               	return
  3388  0656                     __end_of_TextLCD_Enable:
  3389                           
  3390                           	psect	text8
  3391  069F                     __ptext8:	
  3392 ;; *************** function _TextLCD_4Bits_Write *****************
  3393 ;; Defined at:
  3394 ;;		line 11 in file "../../../Training/b1/Lib/TEXTLCD.c"
  3395 ;; Parameters:    Size  Location     Type
  3396 ;;  nib             1    wreg     unsigned char 
  3397 ;; Auto vars:     Size  Location     Type
  3398 ;;  nib             1    0[COMMON] unsigned char 
  3399 ;; Return value:  Size  Location     Type
  3400 ;;                  1    wreg      void 
  3401 ;; Registers used:
  3402 ;;		wreg
  3403 ;; Tracked objects:
  3404 ;;		On entry : 0/0
  3405 ;;		On exit  : 0/0
  3406 ;;		Unchanged: 0/0
  3407 ;; Data sizes:     COMMON   BANK0   BANK1   BANK2   BANK3   BANK4   BANK5   BANK6   BANK7   BANK8   BANK9  BANK10  BANK1
      +1  BANK12  BANK13  BANK14  BANK15  BANK16  BANK17  BANK18  BANK19  BANK20  BANK21  BANK22  BANK23  BANK24  BANK25
  3408 ;;      Params:         0       0       0       0       0       0       0       0       0       0       0       0       
      +0       0       0       0       0       0       0       0       0       0       0       0       0       0       0
  3409 ;;      Locals:         1       0       0       0       0       0       0       0       0       0       0       0       
      +0       0       0       0       0       0       0       0       0       0       0       0       0       0       0
  3410 ;;      Temps:          0       0       0       0       0       0       0       0       0       0       0       0       
      +0       0       0       0       0       0       0       0       0       0       0       0       0       0       0
  3411 ;;      Totals:         1       0       0       0       0       0       0       0       0       0       0       0       
      +0       0       0       0       0       0       0       0       0       0       0       0       0       0       0
  3412 ;;Total ram usage:        1 bytes
  3413 ;; Hardware stack levels used: 1
  3414 ;; This function calls:
  3415 ;;		Nothing
  3416 ;; This function is called by:
  3417 ;;		_TextLCD_Put
  3418 ;;		_TextLCD_Init
  3419 ;; This function uses a non-reentrant model
  3420 ;;
  3421                           
  3422                           
  3423                           ;psect for function _TextLCD_4Bits_Write
  3424  069F                     _TextLCD_4Bits_Write:
  3425                           
  3426                           ;incstack = 0
  3427                           ; Regs used in _TextLCD_4Bits_Write: [wreg]
  3428                           ;TextLCD_4Bits_Write@nib stored from wreg
  3429  069F  00F0               	movwf	TextLCD_4Bits_Write@nib
  3430  06A0                     l1191:
  3431                           
  3432                           ;../../../Training/b1/Lib/TEXTLCD.c: 11: static void TextLCD_4Bits_Write(char nib);../..
      +                          /../Training/b1/Lib/TEXTLCD.c: 12: {;../../../Training/b1/Lib/TEXTLCD.c: 13:     if(nib&
      +                          1)
  3433  06A0  1C70               	btfss	TextLCD_4Bits_Write@nib,0
  3434  06A1  2EA3               	goto	u211
  3435  06A2  2EA4               	goto	u210
  3436  06A3                     u211:
  3437  06A3  2EA7               	goto	l240
  3438  06A4                     u210:
  3439  06A4                     l237:	
  3440                           ;../../../Training/b1/Lib/TEXTLCD.c: 14:         do { LATAbits.LATA4 = 1; } while(0);
  3441                           
  3442  06A4  0140               	movlb	0	; select bank0
  3443  06A5  1618               	bsf	24,4	;volatile
  3444  06A6  2EA9               	goto	l1193
  3445  06A7                     l240:	
  3446                           ;../../../Training/b1/Lib/TEXTLCD.c: 16:         do { LATAbits.LATA4 = 0; } while(0);
  3447                           
  3448  06A7  0140               	movlb	0	; select bank0
  3449  06A8  1218               	bcf	24,4	;volatile
  3450  06A9                     l1193:
  3451                           
  3452                           ;../../../Training/b1/Lib/TEXTLCD.c: 17:     nib>>=1;
  3453  06A9  1003               	clrc
  3454  06AA  0CF0               	rrf	TextLCD_4Bits_Write@nib,f
  3455                           
  3456                           ;../../../Training/b1/Lib/TEXTLCD.c: 19:     if(nib&1)
  3457  06AB  1C70               	btfss	TextLCD_4Bits_Write@nib,0
  3458  06AC  2EAE               	goto	u221
  3459  06AD  2EAF               	goto	u220
  3460  06AE                     u221:
  3461  06AE  2EB1               	goto	l246
  3462  06AF                     u220:
  3463  06AF                     l243:	
  3464                           ;../../../Training/b1/Lib/TEXTLCD.c: 20:         do { LATAbits.LATA3 = 1; } while(0);
  3465                           
  3466  06AF  1598               	bsf	24,3	;volatile
  3467  06B0  2EB2               	goto	l1195
  3468  06B1                     l246:	
  3469                           ;../../../Training/b1/Lib/TEXTLCD.c: 22:         do { LATAbits.LATA3 = 0; } while(0);
  3470                           
  3471  06B1  1198               	bcf	24,3	;volatile
  3472  06B2                     l1195:
  3473                           
  3474                           ;../../../Training/b1/Lib/TEXTLCD.c: 23:     nib>>=1;
  3475  06B2  1003               	clrc
  3476  06B3  0CF0               	rrf	TextLCD_4Bits_Write@nib,f
  3477                           
  3478                           ;../../../Training/b1/Lib/TEXTLCD.c: 25:     if(nib&1)
  3479  06B4  1C70               	btfss	TextLCD_4Bits_Write@nib,0
  3480  06B5  2EB7               	goto	u231
  3481  06B6  2EB8               	goto	u230
  3482  06B7                     u231:
  3483  06B7  2EBA               	goto	l252
  3484  06B8                     u230:
  3485  06B8                     l249:	
  3486                           ;../../../Training/b1/Lib/TEXTLCD.c: 26:         do { LATAbits.LATA1 = 1; } while(0);
  3487                           
  3488  06B8  1498               	bsf	24,1	;volatile
  3489  06B9  2EBB               	goto	l1197
  3490  06BA                     l252:	
  3491                           ;../../../Training/b1/Lib/TEXTLCD.c: 28:         do { LATAbits.LATA1 = 0; } while(0);
  3492                           
  3493  06BA  1098               	bcf	24,1	;volatile
  3494  06BB                     l1197:
  3495                           
  3496                           ;../../../Training/b1/Lib/TEXTLCD.c: 29:     nib>>=1;
  3497  06BB  1003               	clrc
  3498  06BC  0CF0               	rrf	TextLCD_4Bits_Write@nib,f
  3499                           
  3500                           ;../../../Training/b1/Lib/TEXTLCD.c: 31:     if(nib&1)
  3501  06BD  1C70               	btfss	TextLCD_4Bits_Write@nib,0
  3502  06BE  2EC0               	goto	u241
  3503  06BF  2EC1               	goto	u240
  3504  06C0                     u241:
  3505  06C0  2EC3               	goto	l258
  3506  06C1                     u240:
  3507  06C1                     l255:	
  3508                           ;../../../Training/b1/Lib/TEXTLCD.c: 32:         do { LATAbits.LATA0 = 1; } while(0);
  3509                           
  3510  06C1  1418               	bsf	24,0	;volatile
  3511  06C2  2EC4               	goto	l260
  3512  06C3                     l258:	
  3513                           ;../../../Training/b1/Lib/TEXTLCD.c: 34:         do { LATAbits.LATA0 = 0; } while(0);
  3514                           
  3515  06C3  1018               	bcf	24,0	;volatile
  3516  06C4                     l260:
  3517  06C4  0008               	return
  3518  06C5                     __end_of_TextLCD_4Bits_Write:
  3519                           
  3520                           	psect	text9
  3521  0664                     __ptext9:	
  3522 ;; *************** function _SYSTEM_Initialize *****************
  3523 ;; Defined at:
  3524 ;;		line 50 in file "mcc_generated_files/mcc.c"
  3525 ;; Parameters:    Size  Location     Type
  3526 ;;		None
  3527 ;; Auto vars:     Size  Location     Type
  3528 ;;		None
  3529 ;; Return value:  Size  Location     Type
  3530 ;;                  1    wreg      void 
  3531 ;; Registers used:
  3532 ;;		wreg, status,2, status,0, pclath, cstack
  3533 ;; Tracked objects:
  3534 ;;		On entry : 0/0
  3535 ;;		On exit  : 0/0
  3536 ;;		Unchanged: 0/0
  3537 ;; Data sizes:     COMMON   BANK0   BANK1   BANK2   BANK3   BANK4   BANK5   BANK6   BANK7   BANK8   BANK9  BANK10  BANK1
      +1  BANK12  BANK13  BANK14  BANK15  BANK16  BANK17  BANK18  BANK19  BANK20  BANK21  BANK22  BANK23  BANK24  BANK25
  3538 ;;      Params:         0       0       0       0       0       0       0       0       0       0       0       0       
      +0       0       0       0       0       0       0       0       0       0       0       0       0       0       0
  3539 ;;      Locals:         0       0       0       0       0       0       0       0       0       0       0       0       
      +0       0       0       0       0       0       0       0       0       0       0       0       0       0       0
  3540 ;;      Temps:          0       0       0       0       0       0       0       0       0       0       0       0       
      +0       0       0       0       0       0       0       0       0       0       0       0       0       0       0
  3541 ;;      Totals:         0       0       0       0       0       0       0       0       0       0       0       0       
      +0       0       0       0       0       0       0       0       0       0       0       0       0       0       0
  3542 ;;Total ram usage:        0 bytes
  3543 ;; Hardware stack levels used: 1
  3544 ;; Hardware stack levels required when called: 1
  3545 ;; This function calls:
  3546 ;;		_OSCILLATOR_Initialize
  3547 ;;		_PIN_MANAGER_Initialize
  3548 ;;		_PMD_Initialize
  3549 ;;		_PWM1_Initialize
  3550 ;;		_TMR2_Initialize
  3551 ;; This function is called by:
  3552 ;;		_main
  3553 ;; This function uses a non-reentrant model
  3554 ;;
  3555                           
  3556                           
  3557                           ;psect for function _SYSTEM_Initialize
  3558  0664                     _SYSTEM_Initialize:
  3559  0664                     l961:	
  3560                           ;incstack = 0
  3561                           ; Regs used in _SYSTEM_Initialize: [wreg+status,2+status,0+pclath+cstack]
  3562                           
  3563                           
  3564                           ;mcc_generated_files/mcc.c: 52:     PMD_Initialize();
  3565  0664  3186  2627  3186   	fcall	_PMD_Initialize
  3566  0667                     l963:
  3567                           
  3568                           ;mcc_generated_files/mcc.c: 53:     PIN_MANAGER_Initialize();
  3569  0667  3187  2729  3186   	fcall	_PIN_MANAGER_Initialize
  3570  066A                     l965:
  3571                           
  3572                           ;mcc_generated_files/mcc.c: 54:     OSCILLATOR_Initialize();
  3573  066A  3186  263F  3186   	fcall	_OSCILLATOR_Initialize
  3574  066D                     l967:
  3575                           
  3576                           ;mcc_generated_files/mcc.c: 55:     PWM1_Initialize();
  3577  066D  3186  2621  3186   	fcall	_PWM1_Initialize
  3578  0670                     l969:
  3579                           
  3580                           ;mcc_generated_files/mcc.c: 56:     TMR2_Initialize();
  3581  0670  3186  2656  3186   	fcall	_TMR2_Initialize
  3582  0673                     l37:
  3583  0673  0008               	return
  3584  0674                     __end_of_SYSTEM_Initialize:
  3585                           
  3586                           	psect	text10
  3587  0656                     __ptext10:	
  3588 ;; *************** function _TMR2_Initialize *****************
  3589 ;; Defined at:
  3590 ;;		line 62 in file "mcc_generated_files/tmr2.c"
  3591 ;; Parameters:    Size  Location     Type
  3592 ;;		None
  3593 ;; Auto vars:     Size  Location     Type
  3594 ;;		None
  3595 ;; Return value:  Size  Location     Type
  3596 ;;                  1    wreg      void 
  3597 ;; Registers used:
  3598 ;;		wreg, status,2
  3599 ;; Tracked objects:
  3600 ;;		On entry : 0/0
  3601 ;;		On exit  : 0/0
  3602 ;;		Unchanged: 0/0
  3603 ;; Data sizes:     COMMON   BANK0   BANK1   BANK2   BANK3   BANK4   BANK5   BANK6   BANK7   BANK8   BANK9  BANK10  BANK1
      +1  BANK12  BANK13  BANK14  BANK15  BANK16  BANK17  BANK18  BANK19  BANK20  BANK21  BANK22  BANK23  BANK24  BANK25
  3604 ;;      Params:         0       0       0       0       0       0       0       0       0       0       0       0       
      +0       0       0       0       0       0       0       0       0       0       0       0       0       0       0
  3605 ;;      Locals:         0       0       0       0       0       0       0       0       0       0       0       0       
      +0       0       0       0       0       0       0       0       0       0       0       0       0       0       0
  3606 ;;      Temps:          0       0       0       0       0       0       0       0       0       0       0       0       
      +0       0       0       0       0       0       0       0       0       0       0       0       0       0       0
  3607 ;;      Totals:         0       0       0       0       0       0       0       0       0       0       0       0       
      +0       0       0       0       0       0       0       0       0       0       0       0       0       0       0
  3608 ;;Total ram usage:        0 bytes
  3609 ;; Hardware stack levels used: 1
  3610 ;; This function calls:
  3611 ;;		Nothing
  3612 ;; This function is called by:
  3613 ;;		_SYSTEM_Initialize
  3614 ;; This function uses a non-reentrant model
  3615 ;;
  3616                           
  3617                           
  3618                           ;psect for function _TMR2_Initialize
  3619  0656                     _TMR2_Initialize:
  3620  0656                     l935:	
  3621                           ;incstack = 0
  3622                           ; Regs used in _TMR2_Initialize: [wreg+status,2]
  3623                           
  3624                           
  3625                           ;mcc_generated_files/tmr2.c: 67:     T2CLKCON = 0x03;
  3626  0656  3003               	movlw	3
  3627  0657  0145               	movlb	5	; select bank5
  3628  0658  0090               	movwf	16	;volatile
  3629  0659                     l937:
  3630                           
  3631                           ;mcc_generated_files/tmr2.c: 70:     T2HLT = 0x00;
  3632  0659  018F               	clrf	15	;volatile
  3633  065A                     l939:
  3634                           
  3635                           ;mcc_generated_files/tmr2.c: 73:     T2RST = 0x00;
  3636  065A  0191               	clrf	17	;volatile
  3637                           
  3638                           ;mcc_generated_files/tmr2.c: 76:     T2PR = 0xFF;
  3639  065B  30FF               	movlw	255
  3640  065C  008D               	movwf	13	;volatile
  3641  065D                     l941:
  3642                           
  3643                           ;mcc_generated_files/tmr2.c: 79:     T2TMR = 0x00;
  3644  065D  018C               	clrf	12	;volatile
  3645  065E                     l943:
  3646                           
  3647                           ;mcc_generated_files/tmr2.c: 82:     PIR4bits.TMR2IF = 0;
  3648  065E  014E               	movlb	14	; select bank14
  3649  065F  1090               	bcf	16,1	;volatile
  3650  0660                     l945:
  3651                           
  3652                           ;mcc_generated_files/tmr2.c: 85:     T2CON = 0x80;
  3653  0660  3080               	movlw	128
  3654  0661  0145               	movlb	5	; select bank5
  3655  0662  008E               	movwf	14	;volatile
  3656  0663                     l167:
  3657  0663  0008               	return
  3658  0664                     __end_of_TMR2_Initialize:
  3659                           
  3660                           	psect	text11
  3661  0621                     __ptext11:	
  3662 ;; *************** function _PWM1_Initialize *****************
  3663 ;; Defined at:
  3664 ;;		line 64 in file "mcc_generated_files/pwm1.c"
  3665 ;; Parameters:    Size  Location     Type
  3666 ;;		None
  3667 ;; Auto vars:     Size  Location     Type
  3668 ;;		None
  3669 ;; Return value:  Size  Location     Type
  3670 ;;                  1    wreg      void 
  3671 ;; Registers used:
  3672 ;;		wreg, status,2
  3673 ;; Tracked objects:
  3674 ;;		On entry : 0/0
  3675 ;;		On exit  : 0/0
  3676 ;;		Unchanged: 0/0
  3677 ;; Data sizes:     COMMON   BANK0   BANK1   BANK2   BANK3   BANK4   BANK5   BANK6   BANK7   BANK8   BANK9  BANK10  BANK1
      +1  BANK12  BANK13  BANK14  BANK15  BANK16  BANK17  BANK18  BANK19  BANK20  BANK21  BANK22  BANK23  BANK24  BANK25
  3678 ;;      Params:         0       0       0       0       0       0       0       0       0       0       0       0       
      +0       0       0       0       0       0       0       0       0       0       0       0       0       0       0
  3679 ;;      Locals:         0       0       0       0       0       0       0       0       0       0       0       0       
      +0       0       0       0       0       0       0       0       0       0       0       0       0       0       0
  3680 ;;      Temps:          0       0       0       0       0       0       0       0       0       0       0       0       
      +0       0       0       0       0       0       0       0       0       0       0       0       0       0       0
  3681 ;;      Totals:         0       0       0       0       0       0       0       0       0       0       0       0       
      +0       0       0       0       0       0       0       0       0       0       0       0       0       0       0
  3682 ;;Total ram usage:        0 bytes
  3683 ;; Hardware stack levels used: 1
  3684 ;; This function calls:
  3685 ;;		Nothing
  3686 ;; This function is called by:
  3687 ;;		_SYSTEM_Initialize
  3688 ;; This function uses a non-reentrant model
  3689 ;;
  3690                           
  3691                           
  3692                           ;psect for function _PWM1_Initialize
  3693  0621                     _PWM1_Initialize:
  3694  0621                     l929:	
  3695                           ;incstack = 0
  3696                           ; Regs used in _PWM1_Initialize: [wreg+status,2]
  3697                           
  3698                           
  3699                           ;mcc_generated_files/pwm1.c: 69:  CCP1CON = 0x8F;
  3700  0621  308F               	movlw	143
  3701  0622  0146               	movlb	6	; select bank6
  3702  0623  008E               	movwf	14	;volatile
  3703  0624                     l931:
  3704                           
  3705                           ;mcc_generated_files/pwm1.c: 72:  CCPR1H = 0x00;
  3706  0624  018D               	clrf	13	;volatile
  3707  0625                     l933:
  3708                           
  3709                           ;mcc_generated_files/pwm1.c: 75:  CCPR1L = 0x00;
  3710  0625  018C               	clrf	12	;volatile
  3711  0626                     l132:
  3712  0626  0008               	return
  3713  0627                     __end_of_PWM1_Initialize:
  3714                           
  3715                           	psect	text12
  3716  0627                     __ptext12:	
  3717 ;; *************** function _PMD_Initialize *****************
  3718 ;; Defined at:
  3719 ;;		line 75 in file "mcc_generated_files/mcc.c"
  3720 ;; Parameters:    Size  Location     Type
  3721 ;;		None
  3722 ;; Auto vars:     Size  Location     Type
  3723 ;;		None
  3724 ;; Return value:  Size  Location     Type
  3725 ;;                  1    wreg      void 
  3726 ;; Registers used:
  3727 ;;		status,2
  3728 ;; Tracked objects:
  3729 ;;		On entry : 0/0
  3730 ;;		On exit  : 0/0
  3731 ;;		Unchanged: 0/0
  3732 ;; Data sizes:     COMMON   BANK0   BANK1   BANK2   BANK3   BANK4   BANK5   BANK6   BANK7   BANK8   BANK9  BANK10  BANK1
      +1  BANK12  BANK13  BANK14  BANK15  BANK16  BANK17  BANK18  BANK19  BANK20  BANK21  BANK22  BANK23  BANK24  BANK25
  3733 ;;      Params:         0       0       0       0       0       0       0       0       0       0       0       0       
      +0       0       0       0       0       0       0       0       0       0       0       0       0       0       0
  3734 ;;      Locals:         0       0       0       0       0       0       0       0       0       0       0       0       
      +0       0       0       0       0       0       0       0       0       0       0       0       0       0       0
  3735 ;;      Temps:          0       0       0       0       0       0       0       0       0       0       0       0       
      +0       0       0       0       0       0       0       0       0       0       0       0       0       0       0
  3736 ;;      Totals:         0       0       0       0       0       0       0       0       0       0       0       0       
      +0       0       0       0       0       0       0       0       0       0       0       0       0       0       0
  3737 ;;Total ram usage:        0 bytes
  3738 ;; Hardware stack levels used: 1
  3739 ;; This function calls:
  3740 ;;		Nothing
  3741 ;; This function is called by:
  3742 ;;		_SYSTEM_Initialize
  3743 ;; This function uses a non-reentrant model
  3744 ;;
  3745                           
  3746                           
  3747                           ;psect for function _PMD_Initialize
  3748  0627                     _PMD_Initialize:
  3749  0627                     l873:	
  3750                           ;incstack = 0
  3751                           ; Regs used in _PMD_Initialize: [status,2]
  3752                           
  3753                           
  3754                           ;mcc_generated_files/mcc.c: 78:     PMD0 = 0x00;
  3755  0627  014F               	movlb	15	; select bank15
  3756  0628  0196               	clrf	22	;volatile
  3757                           
  3758                           ;mcc_generated_files/mcc.c: 80:     PMD1 = 0x00;
  3759  0629  0197               	clrf	23	;volatile
  3760                           
  3761                           ;mcc_generated_files/mcc.c: 82:     PMD2 = 0x00;
  3762  062A  0198               	clrf	24	;volatile
  3763                           
  3764                           ;mcc_generated_files/mcc.c: 84:     PMD3 = 0x00;
  3765  062B  0199               	clrf	25	;volatile
  3766                           
  3767                           ;mcc_generated_files/mcc.c: 86:     PMD4 = 0x00;
  3768  062C  019A               	clrf	26	;volatile
  3769                           
  3770                           ;mcc_generated_files/mcc.c: 88:     PMD5 = 0x00;
  3771  062D  019B               	clrf	27	;volatile
  3772  062E                     l43:
  3773  062E  0008               	return
  3774  062F                     __end_of_PMD_Initialize:
  3775                           
  3776                           	psect	text13
  3777  0729                     __ptext13:	
  3778 ;; *************** function _PIN_MANAGER_Initialize *****************
  3779 ;; Defined at:
  3780 ;;		line 55 in file "mcc_generated_files/pin_manager.c"
  3781 ;; Parameters:    Size  Location     Type
  3782 ;;		None
  3783 ;; Auto vars:     Size  Location     Type
  3784 ;;		None
  3785 ;; Return value:  Size  Location     Type
  3786 ;;                  1    wreg      void 
  3787 ;; Registers used:
  3788 ;;		wreg, status,2
  3789 ;; Tracked objects:
  3790 ;;		On entry : 0/0
  3791 ;;		On exit  : 0/0
  3792 ;;		Unchanged: 0/0
  3793 ;; Data sizes:     COMMON   BANK0   BANK1   BANK2   BANK3   BANK4   BANK5   BANK6   BANK7   BANK8   BANK9  BANK10  BANK1
      +1  BANK12  BANK13  BANK14  BANK15  BANK16  BANK17  BANK18  BANK19  BANK20  BANK21  BANK22  BANK23  BANK24  BANK25
  3794 ;;      Params:         0       0       0       0       0       0       0       0       0       0       0       0       
      +0       0       0       0       0       0       0       0       0       0       0       0       0       0       0
  3795 ;;      Locals:         0       0       0       0       0       0       0       0       0       0       0       0       
      +0       0       0       0       0       0       0       0       0       0       0       0       0       0       0
  3796 ;;      Temps:          0       0       0       0       0       0       0       0       0       0       0       0       
      +0       0       0       0       0       0       0       0       0       0       0       0       0       0       0
  3797 ;;      Totals:         0       0       0       0       0       0       0       0       0       0       0       0       
      +0       0       0       0       0       0       0       0       0       0       0       0       0       0       0
  3798 ;;Total ram usage:        0 bytes
  3799 ;; Hardware stack levels used: 1
  3800 ;; This function calls:
  3801 ;;		Nothing
  3802 ;; This function is called by:
  3803 ;;		_SYSTEM_Initialize
  3804 ;; This function uses a non-reentrant model
  3805 ;;
  3806                           
  3807                           
  3808                           ;psect for function _PIN_MANAGER_Initialize
  3809  0729                     _PIN_MANAGER_Initialize:
  3810  0729                     l875:	
  3811                           ;incstack = 0
  3812                           ; Regs used in _PIN_MANAGER_Initialize: [wreg+status,2]
  3813                           
  3814                           
  3815                           ;mcc_generated_files/pin_manager.c: 60:     LATE = 0x00;
  3816  0729  0140               	movlb	0	; select bank0
  3817  072A  019C               	clrf	28	;volatile
  3818                           
  3819                           ;mcc_generated_files/pin_manager.c: 61:     LATD = 0x00;
  3820  072B  019B               	clrf	27	;volatile
  3821                           
  3822                           ;mcc_generated_files/pin_manager.c: 62:     LATA = 0x00;
  3823  072C  0198               	clrf	24	;volatile
  3824                           
  3825                           ;mcc_generated_files/pin_manager.c: 63:     LATB = 0x00;
  3826  072D  0199               	clrf	25	;volatile
  3827                           
  3828                           ;mcc_generated_files/pin_manager.c: 64:     LATC = 0x00;
  3829  072E  019A               	clrf	26	;volatile
  3830  072F                     l877:
  3831                           
  3832                           ;mcc_generated_files/pin_manager.c: 69:     TRISE = 0x09;
  3833  072F  3009               	movlw	9
  3834  0730  0096               	movwf	22	;volatile
  3835  0731                     l879:
  3836                           
  3837                           ;mcc_generated_files/pin_manager.c: 70:     TRISA = 0xE4;
  3838  0731  30E4               	movlw	228
  3839  0732  0092               	movwf	18	;volatile
  3840  0733                     l881:
  3841                           
  3842                           ;mcc_generated_files/pin_manager.c: 71:     TRISB = 0xFF;
  3843  0733  30FF               	movlw	255
  3844  0734  0093               	movwf	19	;volatile
  3845  0735                     l883:
  3846                           
  3847                           ;mcc_generated_files/pin_manager.c: 72:     TRISC = 0xFE;
  3848  0735  30FE               	movlw	254
  3849  0736  0094               	movwf	20	;volatile
  3850  0737                     l885:
  3851                           
  3852                           ;mcc_generated_files/pin_manager.c: 73:     TRISD = 0xFF;
  3853  0737  30FF               	movlw	255
  3854  0738  0095               	movwf	21	;volatile
  3855  0739                     l887:
  3856                           
  3857                           ;mcc_generated_files/pin_manager.c: 78:     ANSELD = 0xFF;
  3858  0739  30FF               	movlw	255
  3859  073A  017E               	movlb	62	; select bank62
  3860  073B  00D9               	movwf	89	;volatile
  3861  073C                     l889:
  3862                           
  3863                           ;mcc_generated_files/pin_manager.c: 79:     ANSELC = 0xFE;
  3864  073C  30FE               	movlw	254
  3865  073D  00CE               	movwf	78	;volatile
  3866  073E                     l891:
  3867                           
  3868                           ;mcc_generated_files/pin_manager.c: 80:     ANSELB = 0xFF;
  3869  073E  30FF               	movlw	255
  3870  073F  00C3               	movwf	67	;volatile
  3871  0740                     l893:
  3872                           
  3873                           ;mcc_generated_files/pin_manager.c: 81:     ANSELE = 0x01;
  3874  0740  3001               	movlw	1
  3875  0741  00E4               	movwf	100	;volatile
  3876  0742                     l895:
  3877                           
  3878                           ;mcc_generated_files/pin_manager.c: 82:     ANSELA = 0xE4;
  3879  0742  30E4               	movlw	228
  3880  0743  00B8               	movwf	56	;volatile
  3881                           
  3882                           ;mcc_generated_files/pin_manager.c: 87:     WPUD = 0x00;
  3883  0744  01DA               	clrf	90	;volatile
  3884                           
  3885                           ;mcc_generated_files/pin_manager.c: 88:     WPUE = 0x00;
  3886  0745  01E5               	clrf	101	;volatile
  3887                           
  3888                           ;mcc_generated_files/pin_manager.c: 89:     WPUB = 0x00;
  3889  0746  01C4               	clrf	68	;volatile
  3890                           
  3891                           ;mcc_generated_files/pin_manager.c: 90:     WPUA = 0x00;
  3892  0747  01B9               	clrf	57	;volatile
  3893                           
  3894                           ;mcc_generated_files/pin_manager.c: 91:     WPUC = 0x00;
  3895  0748  01CF               	clrf	79	;volatile
  3896                           
  3897                           ;mcc_generated_files/pin_manager.c: 96:     ODCONE = 0x00;
  3898  0749  01E6               	clrf	102	;volatile
  3899                           
  3900                           ;mcc_generated_files/pin_manager.c: 97:     ODCONA = 0x00;
  3901  074A  01BA               	clrf	58	;volatile
  3902                           
  3903                           ;mcc_generated_files/pin_manager.c: 98:     ODCONB = 0x00;
  3904  074B  01C5               	clrf	69	;volatile
  3905                           
  3906                           ;mcc_generated_files/pin_manager.c: 99:     ODCONC = 0x00;
  3907  074C  01D0               	clrf	80	;volatile
  3908                           
  3909                           ;mcc_generated_files/pin_manager.c: 100:     ODCOND = 0x00;
  3910  074D  01DB               	clrf	91	;volatile
  3911  074E                     l897:
  3912                           
  3913                           ;mcc_generated_files/pin_manager.c: 105:     SLRCONA = 0xFF;
  3914  074E  30FF               	movlw	255
  3915  074F  00BB               	movwf	59	;volatile
  3916  0750                     l899:
  3917                           
  3918                           ;mcc_generated_files/pin_manager.c: 106:     SLRCONB = 0xFF;
  3919  0750  30FF               	movlw	255
  3920  0751  00C6               	movwf	70	;volatile
  3921  0752                     l901:
  3922                           
  3923                           ;mcc_generated_files/pin_manager.c: 107:     SLRCONC = 0xFF;
  3924  0752  30FF               	movlw	255
  3925  0753  00D1               	movwf	81	;volatile
  3926  0754                     l903:
  3927                           
  3928                           ;mcc_generated_files/pin_manager.c: 108:     SLRCOND = 0xFF;
  3929  0754  30FF               	movlw	255
  3930  0755  00DC               	movwf	92	;volatile
  3931  0756                     l905:
  3932                           
  3933                           ;mcc_generated_files/pin_manager.c: 109:     SLRCONE = 0x07;
  3934  0756  3007               	movlw	7
  3935  0757  00E7               	movwf	103	;volatile
  3936  0758                     l907:
  3937                           
  3938                           ;mcc_generated_files/pin_manager.c: 114:     INLVLA = 0xFF;
  3939  0758  30FF               	movlw	255
  3940  0759  00BC               	movwf	60	;volatile
  3941  075A                     l909:
  3942                           
  3943                           ;mcc_generated_files/pin_manager.c: 115:     INLVLB = 0xFF;
  3944  075A  30FF               	movlw	255
  3945  075B  00C7               	movwf	71	;volatile
  3946  075C                     l911:
  3947                           
  3948                           ;mcc_generated_files/pin_manager.c: 116:     INLVLC = 0xFF;
  3949  075C  30FF               	movlw	255
  3950  075D  00D2               	movwf	82	;volatile
  3951  075E                     l913:
  3952                           
  3953                           ;mcc_generated_files/pin_manager.c: 117:     INLVLD = 0xFF;
  3954  075E  30FF               	movlw	255
  3955  075F  00DD               	movwf	93	;volatile
  3956  0760                     l915:
  3957                           
  3958                           ;mcc_generated_files/pin_manager.c: 118:     INLVLE = 0x0F;
  3959  0760  300F               	movlw	15
  3960  0761  00E8               	movwf	104	;volatile
  3961  0762                     l917:
  3962                           
  3963                           ;mcc_generated_files/pin_manager.c: 127:     RC0PPS = 0x09;
  3964  0762  3009               	movlw	9
  3965  0763  00A0               	movwf	32	;volatile
  3966  0764                     l118:
  3967  0764  0008               	return
  3968  0765                     __end_of_PIN_MANAGER_Initialize:
  3969                           
  3970                           	psect	text14
  3971  063F                     __ptext14:	
  3972 ;; *************** function _OSCILLATOR_Initialize *****************
  3973 ;; Defined at:
  3974 ;;		line 59 in file "mcc_generated_files/mcc.c"
  3975 ;; Parameters:    Size  Location     Type
  3976 ;;		None
  3977 ;; Auto vars:     Size  Location     Type
  3978 ;;		None
  3979 ;; Return value:  Size  Location     Type
  3980 ;;                  1    wreg      void 
  3981 ;; Registers used:
  3982 ;;		wreg, status,2
  3983 ;; Tracked objects:
  3984 ;;		On entry : 0/0
  3985 ;;		On exit  : 0/0
  3986 ;;		Unchanged: 0/0
  3987 ;; Data sizes:     COMMON   BANK0   BANK1   BANK2   BANK3   BANK4   BANK5   BANK6   BANK7   BANK8   BANK9  BANK10  BANK1
      +1  BANK12  BANK13  BANK14  BANK15  BANK16  BANK17  BANK18  BANK19  BANK20  BANK21  BANK22  BANK23  BANK24  BANK25
  3988 ;;      Params:         0       0       0       0       0       0       0       0       0       0       0       0       
      +0       0       0       0       0       0       0       0       0       0       0       0       0       0       0
  3989 ;;      Locals:         0       0       0       0       0       0       0       0       0       0       0       0       
      +0       0       0       0       0       0       0       0       0       0       0       0       0       0       0
  3990 ;;      Temps:          0       0       0       0       0       0       0       0       0       0       0       0       
      +0       0       0       0       0       0       0       0       0       0       0       0       0       0       0
  3991 ;;      Totals:         0       0       0       0       0       0       0       0       0       0       0       0       
      +0       0       0       0       0       0       0       0       0       0       0       0       0       0       0
  3992 ;;Total ram usage:        0 bytes
  3993 ;; Hardware stack levels used: 1
  3994 ;; This function calls:
  3995 ;;		Nothing
  3996 ;; This function is called by:
  3997 ;;		_SYSTEM_Initialize
  3998 ;; This function uses a non-reentrant model
  3999 ;;
  4000                           
  4001                           
  4002                           ;psect for function _OSCILLATOR_Initialize
  4003  063F                     _OSCILLATOR_Initialize:
  4004  063F                     l919:	
  4005                           ;incstack = 0
  4006                           ; Regs used in _OSCILLATOR_Initialize: [wreg+status,2]
  4007                           
  4008                           
  4009                           ;mcc_generated_files/mcc.c: 62:     OSCCON1 = 0x60;
  4010  063F  3060               	movlw	96
  4011  0640  0151               	movlb	17	; select bank17
  4012  0641  008D               	movwf	13	;volatile
  4013  0642                     l921:
  4014                           
  4015                           ;mcc_generated_files/mcc.c: 64:     OSCCON3 = 0x00;
  4016  0642  018F               	clrf	15	;volatile
  4017  0643                     l923:
  4018                           
  4019                           ;mcc_generated_files/mcc.c: 66:     OSCEN = 0x00;
  4020  0643  0191               	clrf	17	;volatile
  4021                           
  4022                           ;mcc_generated_files/mcc.c: 68:     OSCFRQ = 0x02;
  4023  0644  3002               	movlw	2
  4024  0645  0093               	movwf	19	;volatile
  4025  0646                     l925:
  4026                           
  4027                           ;mcc_generated_files/mcc.c: 70:     OSCSTAT = 0x00;
  4028  0646  0190               	clrf	16	;volatile
  4029  0647                     l927:
  4030                           
  4031                           ;mcc_generated_files/mcc.c: 72:     OSCTUNE = 0x00;
  4032  0647  0192               	clrf	18	;volatile
  4033  0648                     l40:
  4034  0648  0008               	return
  4035  0649                     __end_of_OSCILLATOR_Initialize:
  4036  007E                     btemp	set	126	;btemp
  4037  007E                     wtemp0	set	126
  4038                           
  4039                           	psect	config
  4040                           
  4041                           ;Config register CONFIG1 @ 0x8007
  4042                           ;	External Oscillator mode selection bits
  4043                           ;	FEXTOSC = OFF, Oscillator not enabled
  4044                           ;	Power-up default value for COSC bits
  4045                           ;	RSTOSC = HFINT1, HFINTOSC (1MHz)
  4046                           ;	Clock Out Enable bit
  4047                           ;	CLKOUTEN = OFF, CLKOUT function is disabled; i/o or oscillator function on OSC2
  4048                           ;	Clock Switch Enable bit
  4049                           ;	CSWEN = ON, Writing to NOSC and NDIV is allowed
  4050                           ;	Fail-Safe Clock Monitor Enable bit
  4051                           ;	FCMEN = ON, FSCM timer enabled
  4052  8007                     	org	32775
  4053  8007  3FEC               	dw	16364
  4054                           
  4055                           ;Config register CONFIG2 @ 0x8008
  4056                           ;	Master Clear Enable bit
  4057                           ;	MCLRE = ON, MCLR pin is Master Clear function
  4058                           ;	Power-up Timer Enable bit
  4059                           ;	PWRTE = OFF, PWRT disabled
  4060                           ;	Low-Power BOR enable bit
  4061                           ;	LPBOREN = OFF, ULPBOR disabled
  4062                           ;	Brown-out reset enable bits
  4063                           ;	BOREN = ON, Brown-out Reset Enabled, SBOREN bit is ignored
  4064                           ;	Brown-out Reset Voltage Selection
  4065                           ;	BORV = LO, Brown-out Reset Voltage (VBOR) set to 1.9V on LF, and 2.45V on F Devices
  4066                           ;	Zero-cross detect disable
  4067                           ;	ZCD = OFF, Zero-cross detect circuit is disabled at POR.
  4068                           ;	Peripheral Pin Select one-way control
  4069                           ;	PPS1WAY = ON, The PPSLOCK bit can be cleared and set only once in software
  4070                           ;	Stack Overflow/Underflow Reset Enable bit
  4071                           ;	STVREN = ON, Stack Overflow or Underflow will cause a reset
  4072  8008                     	org	32776
  4073  8008  3FFF               	dw	16383
  4074                           
  4075                           ;Config register CONFIG3 @ 0x8009
  4076                           ;	WDT Period Select bits
  4077                           ;	WDTCPS = WDTCPS_31, Divider ratio 1:65536; software control of WDTPS
  4078                           ;	WDT operating mode
  4079                           ;	WDTE = OFF, WDT Disabled, SWDTEN is ignored
  4080                           ;	WDT Window Select bits
  4081                           ;	WDTCWS = WDTCWS_7, window always open (100%); software control; keyed access not requi
      +                          red
  4082                           ;	WDT input clock selector
  4083                           ;	WDTCCS = SC, Software Control
  4084  8009                     	org	32777
  4085  8009  3F9F               	dw	16287
  4086                           
  4087                           ;Config register CONFIG4 @ 0x800A
  4088                           ;	Boot Block Size Selection bits
  4089                           ;	BBSIZE = BB512, 512 words boot block size
  4090                           ;	Boot Block Enable bit
  4091                           ;	BBEN = OFF, Boot Block disabled
  4092                           ;	SAF Enable bit
  4093                           ;	SAFEN = OFF, SAF disabled
  4094                           ;	Application Block Write Protection bit
  4095                           ;	WRTAPP = OFF, Application Block not write protected
  4096                           ;	Boot Block Write Protection bit
  4097                           ;	WRTB = OFF, Boot Block not write protected
  4098                           ;	Configuration Register Write Protection bit
  4099                           ;	WRTC = OFF, Configuration Register not write protected
  4100                           ;	Storage Area Flash Write Protection bit
  4101                           ;	WRTSAF = OFF, SAF not write protected
  4102                           ;	Low Voltage Programming Enable bit
  4103                           ;	LVP = ON, Low Voltage programming enabled. MCLR/Vpp pin function is MCLR.
  4104  800A                     	org	32778
  4105  800A  3FFF               	dw	16383
  4106                           
  4107                           ;Config register CONFIG5 @ 0x800B
  4108                           ;	UserNVM Program memory code protection bit
  4109                           ;	CP = OFF, UserNVM code protection disabled
  4110  800B                     	org	32779
  4111  800B  3FFF               	dw	16383

Data Sizes:
    Strings     28
    Constant    4
    Data        2
    BSS         0
    Persistent  32
    Stack       0

Auto Spaces:
    Space          Size  Autos    Used
    COMMON           14     14      14
    BANK0            80      0       2
    BANK1            80      0       0
    BANK2            80      0       0
    BANK3            80      0       0
    BANK4            80      0       0
    BANK5            80      0       0
    BANK6            80      0       0
    BANK7            80      0       0
    BANK8            80      0       0
    BANK9            80      0       0
    BANK10           80      0       0
    BANK11           80      0       0
    BANK12           80      0       0
    BANK13           80      0       0
    BANK14           80      0       0
    BANK15           80      0       0
    BANK16           80      0       0
    BANK17           80      0       0
    BANK18           80      0       0
    BANK19           80      0       0
    BANK20           80      0       0
    BANK21           80      0       0
    BANK22           80      0       0
    BANK23           80      0       0
    BANK24           80      0       0
    BANK25           32      0       0

Pointer List with Targets:

    TextLCD_Puts@data	PTR const unsigned char  size(2) Largest target is 17
		 -> STR_2(CODE[17]), STR_1(CODE[11]), 


Critical Paths under _main in COMMON

    _main->_TextLCD_Puts
    _TextLCD_Puts->_TextLCD_SetCursor
    _TextLCD_SetCursor->_TextLCD_CMD
    _TextLCD_PutChar->_TextLCD_Put
    _TextLCD_Init->_TextLCD_CMD
    _TextLCD_CMD->_TextLCD_Put
    _TextLCD_Put->_TextLCD_4Bits_Write

Critical Paths under _main in BANK0

    None.

Critical Paths under _main in BANK1

    None.

Critical Paths under _main in BANK2

    None.

Critical Paths under _main in BANK3

    None.

Critical Paths under _main in BANK4

    None.

Critical Paths under _main in BANK5

    None.

Critical Paths under _main in BANK6

    None.

Critical Paths under _main in BANK7

    None.

Critical Paths under _main in BANK8

    None.

Critical Paths under _main in BANK9

    None.

Critical Paths under _main in BANK10

    None.

Critical Paths under _main in BANK11

    None.

Critical Paths under _main in BANK12

    None.

Critical Paths under _main in BANK13

    None.

Critical Paths under _main in BANK14

    None.

Critical Paths under _main in BANK15

    None.

Critical Paths under _main in BANK16

    None.

Critical Paths under _main in BANK17

    None.

Critical Paths under _main in BANK18

    None.

Critical Paths under _main in BANK19

    None.

Critical Paths under _main in BANK20

    None.

Critical Paths under _main in BANK21

    None.

Critical Paths under _main in BANK22

    None.

Critical Paths under _main in BANK23

    None.

Critical Paths under _main in BANK24

    None.

Critical Paths under _main in BANK25

    None.

Call Graph Tables:

 ---------------------------------------------------------------------------------
 (Depth) Function   	        Calls       Base Space   Used Autos Params    Refs
 ---------------------------------------------------------------------------------
 (0) _main                                                 0     0      0    2830
                  _SYSTEM_Initialize
                       _TextLCD_Init
                       _TextLCD_Puts
 ---------------------------------------------------------------------------------
 (1) _TextLCD_Puts                                         6     2      4    2560
                                              8 COMMON     6     2      4
                    _TextLCD_PutChar
                  _TextLCD_SetCursor
 ---------------------------------------------------------------------------------
 (2) _TextLCD_SetCursor                                    4     3      1    1790
                                              4 COMMON     4     3      1
                        _TextLCD_CMD
 ---------------------------------------------------------------------------------
 (2) _TextLCD_PutChar                                      1     1      0     157
                                              3 COMMON     1     1      0
                        _TextLCD_Put
 ---------------------------------------------------------------------------------
 (1) _TextLCD_Init                                         3     3      0     270
                                              4 COMMON     3     3      0
                _TextLCD_4Bits_Write
                        _TextLCD_CMD
                     _TextLCD_Enable
 ---------------------------------------------------------------------------------
 (3) _TextLCD_CMD                                          1     1      0     157
                                              3 COMMON     1     1      0
                        _TextLCD_Put
 ---------------------------------------------------------------------------------
 (4) _TextLCD_Put                                          2     2      0     135
                                              1 COMMON     2     2      0
                _TextLCD_4Bits_Write
                     _TextLCD_Enable
 ---------------------------------------------------------------------------------
 (5) _TextLCD_Enable                                       0     0      0       0
 ---------------------------------------------------------------------------------
 (5) _TextLCD_4Bits_Write                                  1     1      0      91
                                              0 COMMON     1     1      0
 ---------------------------------------------------------------------------------
 (1) _SYSTEM_Initialize                                    0     0      0       0
              _OSCILLATOR_Initialize
             _PIN_MANAGER_Initialize
                     _PMD_Initialize
                    _PWM1_Initialize
                    _TMR2_Initialize
 ---------------------------------------------------------------------------------
 (2) _TMR2_Initialize                                      0     0      0       0
 ---------------------------------------------------------------------------------
 (2) _PWM1_Initialize                                      0     0      0       0
 ---------------------------------------------------------------------------------
 (2) _PMD_Initialize                                       0     0      0       0
 ---------------------------------------------------------------------------------
 (2) _PIN_MANAGER_Initialize                               0     0      0       0
 ---------------------------------------------------------------------------------
 (2) _OSCILLATOR_Initialize                                0     0      0       0
 ---------------------------------------------------------------------------------
 Estimated maximum stack depth 5
 ---------------------------------------------------------------------------------

 Call Graph Graphs:

 _main (ROOT)
   _SYSTEM_Initialize
     _OSCILLATOR_Initialize
     _PIN_MANAGER_Initialize
     _PMD_Initialize
     _PWM1_Initialize
     _TMR2_Initialize
   _TextLCD_Init
     _TextLCD_4Bits_Write
     _TextLCD_CMD
       _TextLCD_Put
         _TextLCD_4Bits_Write
         _TextLCD_Enable
     _TextLCD_Enable
   _TextLCD_Puts
     _TextLCD_PutChar
       _TextLCD_Put
     _TextLCD_SetCursor
       _TextLCD_CMD

 Address spaces:
Name               Size   Autos  Total    Cost      Usage
BIGRAM             7F0      0       0       0        0.0%
NULL                 0      0       0       0        0.0%
CODE                 0      0       0       0        0.0%
BITCOMMON            E      0       0       1        0.0%
BITSFR0              0      0       0       1        0.0%
SFR0                 0      0       0       1        0.0%
COMMON               E      E       E       2      100.0%
BITSFR1              0      0       0       2        0.0%
SFR1                 0      0       0       2        0.0%
BITSFR2              0      0       0       3        0.0%
SFR2                 0      0       0       3        0.0%
STACK                0      0       0       3        0.0%
BITBANK0            50      0       0       4        0.0%
BITSFR3              0      0       0       4        0.0%
SFR3                 0      0       0       4        0.0%
BANK0               50      0       2       5        2.5%
BITSFR4              0      0       0       5        0.0%
SFR4                 0      0       0       5        0.0%
BITBANK1            50      0       0       6        0.0%
BITSFR5              0      0       0       6        0.0%
SFR5                 0      0       0       6        0.0%
BANK1               50      0       0       7        0.0%
BITSFR6              0      0       0       7        0.0%
SFR6                 0      0       0       7        0.0%
BITSFR7              0      0       0       8        0.0%
SFR7                 0      0       0       8        0.0%
ABS                  0      0      10       8        0.0%
BITBANK2            50      0       0       9        0.0%
BITSFR8              0      0       0       9        0.0%
SFR8                 0      0       0       9        0.0%
BANK2               50      0       0      10        0.0%
BITSFR9              0      0       0      10        0.0%
SFR9                 0      0       0      10        0.0%
BITBANK3            50      0       0      11        0.0%
BITSFR10             0      0       0      11        0.0%
SFR10                0      0       0      11        0.0%
BANK3               50      0       0      12        0.0%
BITSFR11             0      0       0      12        0.0%
SFR11                0      0       0      12        0.0%
BITBANK4            50      0       0      13        0.0%
BITSFR12             0      0       0      13        0.0%
SFR12                0      0       0      13        0.0%
BANK4               50      0       0      14        0.0%
BITSFR13             0      0       0      14        0.0%
SFR13                0      0       0      14        0.0%
BITBANK5            50      0       0      15        0.0%
BITSFR14             0      0       0      15        0.0%
SFR14                0      0       0      15        0.0%
BANK5               50      0       0      16        0.0%
BITSFR15             0      0       0      16        0.0%
SFR15                0      0       0      16        0.0%
BITBANK6            50      0       0      17        0.0%
BITSFR16             0      0       0      17        0.0%
SFR16                0      0       0      17        0.0%
BANK6               50      0       0      18        0.0%
BITSFR17             0      0       0      18        0.0%
SFR17                0      0       0      18        0.0%
BITBANK7            50      0       0      19        0.0%
BITSFR18             0      0       0      19        0.0%
SFR18                0      0       0      19        0.0%
BANK7               50      0       0      20        0.0%
BITSFR19             0      0       0      20        0.0%
SFR19                0      0       0      20        0.0%
BITBANK8            50      0       0      21        0.0%
BITSFR20             0      0       0      21        0.0%
SFR20                0      0       0      21        0.0%
BANK8               50      0       0      22        0.0%
BITSFR21             0      0       0      22        0.0%
SFR21                0      0       0      22        0.0%
BITBANK9            50      0       0      23        0.0%
BITSFR22             0      0       0      23        0.0%
SFR22                0      0       0      23        0.0%
BANK9               50      0       0      24        0.0%
BITSFR23             0      0       0      24        0.0%
SFR23                0      0       0      24        0.0%
BITBANK10           50      0       0      25        0.0%
BITSFR24             0      0       0      25        0.0%
SFR24                0      0       0      25        0.0%
BANK10              50      0       0      26        0.0%
BITSFR25             0      0       0      26        0.0%
SFR25                0      0       0      26        0.0%
BITBANK11           50      0       0      27        0.0%
BITSFR26             0      0       0      27        0.0%
SFR26                0      0       0      27        0.0%
BANK11              50      0       0      28        0.0%
BITSFR27             0      0       0      28        0.0%
SFR27                0      0       0      28        0.0%
BITBANK12           50      0       0      29        0.0%
BITSFR28             0      0       0      29        0.0%
SFR28                0      0       0      29        0.0%
BANK12              50      0       0      30        0.0%
BITSFR29             0      0       0      30        0.0%
SFR29                0      0       0      30        0.0%
BITBANK13           50      0       0      31        0.0%
BITSFR30             0      0       0      31        0.0%
SFR30                0      0       0      31        0.0%
BANK13              50      0       0      32        0.0%
BITSFR31             0      0       0      32        0.0%
SFR31                0      0       0      32        0.0%
BITBANK14           50      0       0      33        0.0%
BITSFR32             0      0       0      33        0.0%
SFR32                0      0       0      33        0.0%
BANK14              50      0       0      34        0.0%
BITSFR33             0      0       0      34        0.0%
SFR33                0      0       0      34        0.0%
BITBANK15           50      0       0      35        0.0%
BITSFR34             0      0       0      35        0.0%
SFR34                0      0       0      35        0.0%
BANK15              50      0       0      36        0.0%
BITSFR35             0      0       0      36        0.0%
SFR35                0      0       0      36        0.0%
BITBANK16           50      0       0      37        0.0%
BITSFR36             0      0       0      37        0.0%
SFR36                0      0       0      37        0.0%
BANK16              50      0       0      38        0.0%
BITSFR37             0      0       0      38        0.0%
SFR37                0      0       0      38        0.0%
BITBANK17           50      0       0      39        0.0%
BITSFR38             0      0       0      39        0.0%
SFR38                0      0       0      39        0.0%
BANK17              50      0       0      40        0.0%
BITSFR39             0      0       0      40        0.0%
SFR39                0      0       0      40        0.0%
BITBANK18           50      0       0      41        0.0%
BITSFR40             0      0       0      41        0.0%
SFR40                0      0       0      41        0.0%
BANK18              50      0       0      42        0.0%
BITSFR41             0      0       0      42        0.0%
SFR41                0      0       0      42        0.0%
BITBANK19           50      0       0      43        0.0%
BITSFR42             0      0       0      43        0.0%
SFR42                0      0       0      43        0.0%
BANK19              50      0       0      44        0.0%
BITSFR43             0      0       0      44        0.0%
SFR43                0      0       0      44        0.0%
BITBANK20           50      0       0      45        0.0%
BITSFR44             0      0       0      45        0.0%
SFR44                0      0       0      45        0.0%
BANK20              50      0       0      46        0.0%
BITSFR45             0      0       0      46        0.0%
SFR45                0      0       0      46        0.0%
BITBANK21           50      0       0      47        0.0%
BITSFR46             0      0       0      47        0.0%
SFR46                0      0       0      47        0.0%
BANK21              50      0       0      48        0.0%
BITSFR47             0      0       0      48        0.0%
SFR47                0      0       0      48        0.0%
BITBANK22           50      0       0      49        0.0%
BITSFR48             0      0       0      49        0.0%
SFR48                0      0       0      49        0.0%
BANK22              50      0       0      50        0.0%
BITSFR49             0      0       0      50        0.0%
SFR49                0      0       0      50        0.0%
BITBANK23           50      0       0      51        0.0%
BITSFR50             0      0       0      51        0.0%
SFR50                0      0       0      51        0.0%
BANK23              50      0       0      52        0.0%
BITSFR51             0      0       0      52        0.0%
SFR51                0      0       0      52        0.0%
BITBANK24           50      0       0      53        0.0%
BITSFR52             0      0       0      53        0.0%
SFR52                0      0       0      53        0.0%
BANK24              50      0       0      54        0.0%
BITSFR53             0      0       0      54        0.0%
SFR53                0      0       0      54        0.0%
BITBANK25           20      0       0      55        0.0%
BITSFR54             0      0       0      55        0.0%
SFR54                0      0       0      55        0.0%
BANK25              20      0       0      56        0.0%
BITSFR55             0      0       0      56        0.0%
SFR55                0      0       0      56        0.0%
BITSFR56             0      0       0      57        0.0%
SFR56                0      0       0      57        0.0%
DATA                 0      0      10      57        0.0%
BITSFR57             0      0       0      58        0.0%
SFR57                0      0       0      58        0.0%
BITSFR58             0      0       0      59        0.0%
SFR58                0      0       0      59        0.0%
BITSFR59             0      0       0      60        0.0%
SFR59                0      0       0      60        0.0%
BITSFR60             0      0       0      61        0.0%
SFR60                0      0       0      61        0.0%
BITSFR61             0      0       0      62        0.0%
SFR61                0      0       0      62        0.0%
BITSFR62             0      0       0      63        0.0%
SFR62                0      0       0      63        0.0%
BITSFR63             0      0       0      64        0.0%
SFR63                0      0       0      64        0.0%


Microchip Technology PIC Macro Assembler V2.32 build 20210201212658 
Symbol Table                                                                                   Mon Aug 02 08:55:50 2021

                             l40 0648                               l43 062E                               l37 0673  
                            l132 0626                              l118 0764                              l240 06A7  
                            l330 07B5                              l218 0686                              l243 06AF  
                            l219 0686                              l260 06C4                              l252 06BA  
                            l237 06A4                              l246 06B1                              l270 069E  
                            l167 0663                              l255 06C1                              l263 0649  
                            l280 063E                              l249 06B8                              l273 0630  
                            l329 07F4                              l258 06C3                              l266 0651  
                            l267 0655                              l275 0636                              l283 06D1  
                            l285 06EF                              l278 0638                              l296 0728  
                            l901 0752                              l911 075C                              l903 0754  
                            l921 0642                              l913 075E                              l905 0756  
                            l923 0643                              l915 0760                              l907 0758  
                            l931 0624                              l925 0646                              l917 0762  
                            l909 075A                              l933 0625                              l941 065D  
                            l927 0647                              l919 063F                              l943 065E  
                            l935 0656                              l881 0733                              l873 0627  
                            l929 0621                              l945 0660                              l937 0659  
                            l961 0664                              l891 073E                              l883 0735  
                            l875 0729                              l939 065A                              l963 0667  
                            l893 0740                              l885 0737                              l877 072F  
                            l965 066A                              l895 0742                              l887 0739  
                            l879 0731                              l967 066D                              l897 074E  
                            l889 073C                              l969 0670                              l899 0750  
                            u210 06A4                              u211 06A3                              u220 06AF  
                            u300 0728                              u221 06AE                              u301 0727  
                            u230 06B8                              u231 06B7                              u240 06C1  
                            u241 06C0                              u260 06CD                              u261 06CC  
                            u270 06D7                              _PR2 028D                              u255 068D  
                            u407 07C7                              u271 06D6                              u280 06FE  
                            u417 07D0                              u281 06FD                              u290 0714  
                            u427 07F0                              u291 0713                              u437 064C  
                            u447 0652                              u387 06EC                              u397 07B9  
        __size_of_PMD_Initialize 0008                  _TMR2_Initialize 0656                              wreg 0009  
        __size_of_TextLCD_Enable 000D                             l1201 064F                             l1203 068A  
                           l1211 06CD                             l1205 0632                             l1221 0766  
                           l1213 06D7                             l1231 0785                             l1223 0767  
                           l1207 063A                             l1215 06DB                             l1241 07BD  
                           l1233 078F                             l1217 06E7                             l1209 06C6  
                           l1243 07C1                             l1227 0771                             l1219 06EB  
                           l1245 07CC                             l1229 077B                             l1237 0799  
                           l1191 06A0                             l1247 07CF                             l1239 07B6  
                           l1271 071D                             l1263 06FF                             l1193 06A9  
                           l1249 07ED                             l1273 0721                             l1265 0707  
                           l1257 06F1                             l1281 067B                             l1195 06B2  
                           l1267 070B                             l1275 0723                             l1259 06F9  
                           l1197 06BB                             l1269 0715                             l1277 0674  
                           l1199 064B                             l1279 0677                             l1389 07A1  
                           STR_1 0815                             STR_2 0804          __end_of_PWM1_Initialize 0627  
                           _LATA 0018                             _LATB 0019                             _LATC 001A  
                           _LATD 001B                             _LATE 001C                             _T2PR 028D  
                           _PMD0 0796                             _PMD1 0797                             _PMD2 0798  
                           _PMD3 0799                             _PMD4 079A                             _PMD5 079B  
                           _TMR2 028C                             _WPUA 1F39                             _WPUB 1F44  
                           _WPUC 1F4F                             _WPUD 1F5A                             _WPUE 1F65  
                           _main 0674                  TextLCD_Puts@idx 0078                             fsr0h 0005  
                           indf0 0000                             fsr0l 0004                             btemp 007E  
                           start 0002   __size_of_OSCILLATOR_Initialize 000A    __end_of_OSCILLATOR_Initialize 0649  
                          ?_main 0070         __size_of_TextLCD_PutChar 0008                            _T2CON 028E  
                          _T2HLT 028F                            _T2TMR 028C                            _T2RST 0291  
                          _OSCEN 0891                            _TRISA 0012                            _TRISB 0013  
                          _TRISC 0014                            _TRISD 0015                            _TRISE 0016  
               TextLCD_Puts@data 0079                 TextLCD_Puts@line 007D       __size_of_TextLCD_SetCursor 002B  
                          status 0003                            wtemp0 007E                  __initialization 07F5  
        TextLCD_Init@TextLcdType 0076                     __end_of_main 0689          __end_of_TMR2_Initialize 0664  
                         ??_main 007E              _DDRAM_Start_Address 0800                           _CCPR1H 030D  
                         _CCPR1L 030C                           _ANSELA 1F38                           _ANSELB 1F43  
                         _ANSELC 1F4E                           _ANSELD 1F59                           _ANSELE 1F64  
                         _RC0PPS 1F20                 ?_PWM1_Initialize 0070                           _ODCONA 1F3A  
                         _ODCONB 1F45                           _ODCONC 1F50                           _ODCOND 1F5B  
                         _ODCONE 1F66                           _INLVLA 1F3C                           _INLVLB 1F47  
                         _INLVLC 1F52                           _INLVLD 1F5D                           _INLVLE 1F68  
                         _OSCFRQ 0893                           _MaxRow 0020                    ??_TextLCD_CMD 0073  
                  ??_TextLCD_Put 0071       TextLCD_Puts@length_or_type 007B             TextLCD_SetCursor@idx 0074  
                 _PMD_Initialize 0627                   _TextLCD_Enable 0649                ??_TextLCD_PutChar 0073  
              _SYSTEM_Initialize 0664          __end_of__initialization 07FD               ?_SYSTEM_Initialize 0070  
                 __pcstackCOMMON 0070                     __pidataBANK0 061F              ??_SYSTEM_Initialize 0070  
               ?_TMR2_Initialize 0070           __end_of_PMD_Initialize 062F              __end_of_TextLCD_CMD 0637  
            __end_of_TextLCD_Put 069F      __end_of_TextLCD_4Bits_Write 06C5           __end_of_TextLCD_Enable 0656  
       TextLCD_SetCursor@address 0076        __end_of_SYSTEM_Initialize 0674           TextLCD_4Bits_Write@nib 0070  
                     __pmaintext 0674                    ?_TextLCD_Init 0070                    ?_TextLCD_Puts 0078  
                        _CCP1CON 030E                  ?_PMD_Initialize 0070                  ?_TextLCD_Enable 0070  
                        _OSCCON1 088D                          _OSCCON3 088F                          _OSCSTAT 0890  
                        _OSCTUNE 0892                          _SLRCONA 1F3B                          _SLRCONB 1F46  
                        _SLRCONC 1F51                          _SLRCOND 1F5C                          _SLRCONE 1F67  
                        _MaxLine 0021                      _TextLCD_CMD 062F                   ??_TextLCD_Init 0074  
                    _TextLCD_Put 0689                   ??_TextLCD_Puts 007C            TextLCD_SetCursor@line 0077  
                        __ptext1 06F0                          __ptext2 06C5                          __ptext3 0637  
                        __ptext4 0765                          __ptext5 062F                          __ptext6 0689  
                        __ptext7 0649                          __ptext8 069F                          __ptext9 0664  
          _OSCILLATOR_Initialize 063F                        _T2CONbits 028E         ??_PIN_MANAGER_Initialize 0070  
                      _T2HLTbits 028F       __size_of_SYSTEM_Initialize 0010             end_of_initialization 07FD  
                      _T2RSTbits 0291                  _TextLCD_PutChar 0637                      _CCP1CONbits 030E  
       __size_of_PWM1_Initialize 0006           ?_OSCILLATOR_Initialize 0070              start_initialization 07F5  
__size_of_PIN_MANAGER_Initialize 003C      __end_of_DDRAM_Start_Address 0804             __end_of_TextLCD_Init 07F5  
           __end_of_TextLCD_Puts 0729          __end_of_TextLCD_PutChar 063F                 ??_PMD_Initialize 0070  
                    __pdataBANK0 0020                 ??_TextLCD_Enable 0070                        ___latbits 0003  
       __size_of_TMR2_Initialize 000E     __size_of_TextLCD_4Bits_Write 0026           _PIN_MANAGER_Initialize 0729  
                   ?_TextLCD_CMD 0070                     ?_TextLCD_Put 0070                ??_PWM1_Initialize 0070  
                       _T2CLKCON 0290              TextLCD_PutChar@data 0073                         _LATAbits 0018  
                       _LATEbits 001C                         _PIR4bits 0710                 ?_TextLCD_PutChar 0070  
                   TextLCD_Put@b 0072            __size_of_TextLCD_Init 0090            __size_of_TextLCD_Puts 0039  
              ??_TMR2_Initialize 0070          ??_OSCILLATOR_Initialize 0070                     _TextLCD_Init 0765  
                   _TextLCD_Puts 06F0                         __ptext10 0656                         __ptext11 0621  
                       __ptext12 0627                         __ptext13 0729                         __ptext14 063F  
                  __size_of_main 0015              _TextLCD_4Bits_Write 069F             __size_of_TextLCD_CMD 0008  
           __size_of_TextLCD_Put 0016             ?_TextLCD_4Bits_Write 0070                _TextLCD_SetCursor 06C5  
        ?_PIN_MANAGER_Initialize 0070               ?_TextLCD_SetCursor 0074                  _PWM1_Initialize 0621  
            ??_TextLCD_SetCursor 0075                    __pstringtext1 0800                    __pstringtext2 0815  
                  __pstringtext3 0000            ??_TextLCD_4Bits_Write 0070        __end_of_TextLCD_SetCursor 06F0  
                 TextLCD_CMD@cmd 0073   __end_of_PIN_MANAGER_Initialize 0765  
