Archive member included because of file (symbol)

d:/program files/microchip/xc32/v2.50/bin/bin/../../lib/gcc/pic32mx/4.8.3/../../../../pic32mx/lib/micromips\libsupc++.a(class_type_info.o)
                              build/default/production/main.o (vtable for __cxxabiv1::__class_type_info)
d:/program files/microchip/xc32/v2.50/bin/bin/../../lib/gcc/pic32mx/4.8.3/../../../../pic32mx/lib/micromips\libsupc++.a(del_op.o)
                              build/default/production/main.o (operator delete(void*))
d:/program files/microchip/xc32/v2.50/bin/bin/../../lib/gcc/pic32mx/4.8.3/../../../../pic32mx/lib/micromips\libsupc++.a(eh_alloc.o)
                              build/default/production/main.o (__cxa_allocate_exception)
d:/program files/microchip/xc32/v2.50/bin/bin/../../lib/gcc/pic32mx/4.8.3/../../../../pic32mx/lib/micromips\libsupc++.a(eh_catch.o)
                              build/default/production/main.o (__cxa_begin_catch)
d:/program files/microchip/xc32/v2.50/bin/bin/../../lib/gcc/pic32mx/4.8.3/../../../../pic32mx/lib/micromips\libsupc++.a(eh_exception.o)
                              build/default/production/main.o (std::exception::~exception())
d:/program files/microchip/xc32/v2.50/bin/bin/../../lib/gcc/pic32mx/4.8.3/../../../../pic32mx/lib/micromips\libsupc++.a(eh_globals.o)
                              d:/program files/microchip/xc32/v2.50/bin/bin/../../lib/gcc/pic32mx/4.8.3/../../../../pic32mx/lib/micromips\libsupc++.a(eh_catch.o) (__cxa_get_globals_fast)
d:/program files/microchip/xc32/v2.50/bin/bin/../../lib/gcc/pic32mx/4.8.3/../../../../pic32mx/lib/micromips\libsupc++.a(eh_personality.o)
                              build/default/production/main.o (__gxx_personality_sj0)
d:/program files/microchip/xc32/v2.50/bin/bin/../../lib/gcc/pic32mx/4.8.3/../../../../pic32mx/lib/micromips\libsupc++.a(eh_terminate.o)
                              d:/program files/microchip/xc32/v2.50/bin/bin/../../lib/gcc/pic32mx/4.8.3/../../../../pic32mx/lib/micromips\libsupc++.a(eh_personality.o) (__cxxabiv1::__terminate(void (*)()))
d:/program files/microchip/xc32/v2.50/bin/bin/../../lib/gcc/pic32mx/4.8.3/../../../../pic32mx/lib/micromips\libsupc++.a(eh_throw.o)
                              build/default/production/main.o (__cxa_throw)
d:/program files/microchip/xc32/v2.50/bin/bin/../../lib/gcc/pic32mx/4.8.3/../../../../pic32mx/lib/micromips\libsupc++.a(eh_unex_handler.o)
                              d:/program files/microchip/xc32/v2.50/bin/bin/../../lib/gcc/pic32mx/4.8.3/../../../../pic32mx/lib/micromips\libsupc++.a(eh_terminate.o) (__cxxabiv1::__unexpected_handler)
d:/program files/microchip/xc32/v2.50/bin/bin/../../lib/gcc/pic32mx/4.8.3/../../../../pic32mx/lib/micromips\libsupc++.a(new_op.o)
                              build/default/production/main.o (operator new(unsigned long))
d:/program files/microchip/xc32/v2.50/bin/bin/../../lib/gcc/pic32mx/4.8.3/../../../../pic32mx/lib/micromips\libsupc++.a(si_class_type_info.o)
                              build/default/production/main.o (vtable for __cxxabiv1::__si_class_type_info)
d:/program files/microchip/xc32/v2.50/bin/bin/../../lib/gcc/pic32mx/4.8.3/../../../../pic32mx/lib/micromips\libsupc++.a(tinfo.o)
                              d:/program files/microchip/xc32/v2.50/bin/bin/../../lib/gcc/pic32mx/4.8.3/../../../../pic32mx/lib/micromips\libsupc++.a(class_type_info.o) (std::type_info::~type_info())
d:/program files/microchip/xc32/v2.50/bin/bin/../../lib/gcc/pic32mx/4.8.3/../../../../pic32mx/lib/micromips\libsupc++.a(pure.o)
                              build/default/production/main.o (__cxa_pure_virtual)
d:/program files/microchip/xc32/v2.50/bin/bin/../../lib/gcc/pic32mx/4.8.3/../../../../pic32mx/lib/micromips\libsupc++.a(eh_call.o)
                              d:/program files/microchip/xc32/v2.50/bin/bin/../../lib/gcc/pic32mx/4.8.3/../../../../pic32mx/lib/micromips\libsupc++.a(eh_personality.o) (__cxa_call_terminate)
d:/program files/microchip/xc32/v2.50/bin/bin/../../lib/gcc/pic32mx/4.8.3/../../../../pic32mx/lib/micromips\libsupc++.a(eh_term_handler.o)
                              d:/program files/microchip/xc32/v2.50/bin/bin/../../lib/gcc/pic32mx/4.8.3/../../../../pic32mx/lib/micromips\libsupc++.a(eh_terminate.o) (__cxxabiv1::__terminate_handler)
d:/program files/microchip/xc32/v2.50/bin/bin/../../lib/gcc/pic32mx/4.8.3/../../../../pic32mx/lib/micromips\libsupc++.a(new_handler.o)
                              d:/program files/microchip/xc32/v2.50/bin/bin/../../lib/gcc/pic32mx/4.8.3/../../../../pic32mx/lib/micromips\libsupc++.a(new_op.o) (__new_handler)
d:/program files/microchip/xc32/v2.50/bin/bin/../../lib/gcc/pic32mx/4.8.3/micromips\libgcc.a(unwind-sjlj.o)
                              build/default/production/main.o (_Unwind_SjLj_Register)
d:/program files/microchip/xc32/v2.50/bin/bin/../../lib/gcc/pic32mx/4.8.3/../../../../pic32mx/lib/micromips\libpic32.a(memcpy.o)
                              build/default/production/main.o (memcpy)
d:/program files/microchip/xc32/v2.50/bin/bin/../../lib/gcc/pic32mx/4.8.3/../../../../pic32mx/lib/micromips\libpic32.a(memset.o)
                              d:/program files/microchip/xc32/v2.50/bin/bin/../../lib/gcc/pic32mx/4.8.3/../../../../pic32mx/lib/micromips\libsupc++.a(eh_alloc.o) (memset)
d:/program files/microchip/xc32/v2.50/bin/bin/../../lib/gcc/pic32mx/4.8.3/../../../../pic32mx/lib/micromips\libpic32.a(strcmp.o)
                              d:/program files/microchip/xc32/v2.50/bin/bin/../../lib/gcc/pic32mx/4.8.3/../../../../pic32mx/lib/micromips\libsupc++.a(class_type_info.o) (strcmp)
d:/program files/microchip/xc32/v2.50/bin/bin/../../lib/gcc/pic32mx/4.8.3/../../../../pic32mx/lib/micromips\libpic32.a(strlen.o)
                              build/default/production/main.o (strlen)
d:/program files/microchip/xc32/v2.50/bin/bin/../../lib/gcc/pic32mx/4.8.3/../../../../pic32mx/lib/micromips\libpic32.a(default-bootstrap-exception-handler.o)
                              C:\Users\hoang\AppData\Local\Temp\ccMoW1mQ.o (_bootstrap_exception_handler)
d:/program files/microchip/xc32/v2.50/bin/bin/../../lib/gcc/pic32mx/4.8.3/../../../../pic32mx/lib/micromips\libpic32.a(default-on-reset.o)
                              C:\Users\hoang\AppData\Local\Temp\ccMoW1mQ.o (_on_reset)
d:/program files/microchip/xc32/v2.50/bin/bin/../../lib/gcc/pic32mx/4.8.3/../../../../pic32mx/lib/micromips\libpic32.a(default-on-bootstrap.o)
                              C:\Users\hoang\AppData\Local\Temp\ccMoW1mQ.o (_on_bootstrap)
d:/program files/microchip/xc32/v2.50/bin/bin/../../lib/gcc/pic32mx/4.8.3/../../../../pic32mx/lib/micromips\libpic32.a(default-nmi-handler.o)
                              C:\Users\hoang\AppData\Local\Temp\ccMoW1mQ.o (_nmi_handler)
d:/program files/microchip/xc32/v2.50/bin/bin/../../lib/gcc/pic32mx/4.8.3/../../../../pic32mx/lib/micromips\libpic32.a(pic32_data_init.o)
                              C:\Users\hoang\AppData\Local\Temp\ccMoW1mQ.o (__pic32_data_init)
d:/program files/microchip/xc32/v2.50/bin/bin/../../lib/gcc/pic32mx/4.8.3/../../../../pic32mx/lib/micromips\libpic32.a(general-exception.o)
                              C:\Users\hoang\AppData\Local\Temp\ccMoW1mQ.o (_general_exception_context)
d:/program files/microchip/xc32/v2.50/bin/bin/../../lib/gcc/pic32mx/4.8.3/../../../../pic32mx/lib/micromips\libpic32.a(vector0.o)
                              C:\Users\hoang\AppData\Local\Temp\ccFXkMDy.o (__vector_dispatch_0)
d:/program files/microchip/xc32/v2.50/bin/bin/../../lib/gcc/pic32mx/4.8.3/../../../../pic32mx/lib/micromips\libpic32.a(vector1.o)
                              C:\Users\hoang\AppData\Local\Temp\ccFXkMDy.o (__vector_dispatch_1)
d:/program files/microchip/xc32/v2.50/bin/bin/../../lib/gcc/pic32mx/4.8.3/../../../../pic32mx/lib/micromips\libpic32.a(vector2.o)
                              C:\Users\hoang\AppData\Local\Temp\ccFXkMDy.o (__vector_dispatch_2)
d:/program files/microchip/xc32/v2.50/bin/bin/../../lib/gcc/pic32mx/4.8.3/../../../../pic32mx/lib/micromips\libpic32.a(vector3.o)
                              C:\Users\hoang\AppData\Local\Temp\ccFXkMDy.o (__vector_dispatch_3)
d:/program files/microchip/xc32/v2.50/bin/bin/../../lib/gcc/pic32mx/4.8.3/../../../../pic32mx/lib/micromips\libpic32.a(vector4.o)
                              C:\Users\hoang\AppData\Local\Temp\ccFXkMDy.o (__vector_dispatch_4)
d:/program files/microchip/xc32/v2.50/bin/bin/../../lib/gcc/pic32mx/4.8.3/../../../../pic32mx/lib/micromips\libpic32.a(vector5.o)
                              C:\Users\hoang\AppData\Local\Temp\ccFXkMDy.o (__vector_dispatch_5)
d:/program files/microchip/xc32/v2.50/bin/bin/../../lib/gcc/pic32mx/4.8.3/../../../../pic32mx/lib/micromips\libpic32.a(vector6.o)
                              C:\Users\hoang\AppData\Local\Temp\ccFXkMDy.o (__vector_dispatch_6)
d:/program files/microchip/xc32/v2.50/bin/bin/../../lib/gcc/pic32mx/4.8.3/../../../../pic32mx/lib/micromips\libpic32.a(vector7.o)
                              C:\Users\hoang\AppData\Local\Temp\ccFXkMDy.o (__vector_dispatch_7)
d:/program files/microchip/xc32/v2.50/bin/bin/../../lib/gcc/pic32mx/4.8.3/../../../../pic32mx/lib/micromips\libpic32.a(vector8.o)
                              C:\Users\hoang\AppData\Local\Temp\ccFXkMDy.o (__vector_dispatch_8)
d:/program files/microchip/xc32/v2.50/bin/bin/../../lib/gcc/pic32mx/4.8.3/../../../../pic32mx/lib/micromips\libpic32.a(vector9.o)
                              C:\Users\hoang\AppData\Local\Temp\ccFXkMDy.o (__vector_dispatch_9)
d:/program files/microchip/xc32/v2.50/bin/bin/../../lib/gcc/pic32mx/4.8.3/../../../../pic32mx/lib/micromips\libpic32.a(vector10.o)
                              C:\Users\hoang\AppData\Local\Temp\ccFXkMDy.o (__vector_dispatch_10)
d:/program files/microchip/xc32/v2.50/bin/bin/../../lib/gcc/pic32mx/4.8.3/../../../../pic32mx/lib/micromips\libpic32.a(vector11.o)
                              C:\Users\hoang\AppData\Local\Temp\ccFXkMDy.o (__vector_dispatch_11)
d:/program files/microchip/xc32/v2.50/bin/bin/../../lib/gcc/pic32mx/4.8.3/../../../../pic32mx/lib/micromips\libpic32.a(vector12.o)
                              C:\Users\hoang\AppData\Local\Temp\ccFXkMDy.o (__vector_dispatch_12)
d:/program files/microchip/xc32/v2.50/bin/bin/../../lib/gcc/pic32mx/4.8.3/../../../../pic32mx/lib/micromips\libpic32.a(vector13.o)
                              C:\Users\hoang\AppData\Local\Temp\ccFXkMDy.o (__vector_dispatch_13)
d:/program files/microchip/xc32/v2.50/bin/bin/../../lib/gcc/pic32mx/4.8.3/../../../../pic32mx/lib/micromips\libpic32.a(vector14.o)
                              C:\Users\hoang\AppData\Local\Temp\ccFXkMDy.o (__vector_dispatch_14)
d:/program files/microchip/xc32/v2.50/bin/bin/../../lib/gcc/pic32mx/4.8.3/../../../../pic32mx/lib/micromips\libpic32.a(vector15.o)
                              C:\Users\hoang\AppData\Local\Temp\ccFXkMDy.o (__vector_dispatch_15)
d:/program files/microchip/xc32/v2.50/bin/bin/../../lib/gcc/pic32mx/4.8.3/../../../../pic32mx/lib/micromips\libpic32.a(vector16.o)
                              C:\Users\hoang\AppData\Local\Temp\ccFXkMDy.o (__vector_dispatch_16)
d:/program files/microchip/xc32/v2.50/bin/bin/../../lib/gcc/pic32mx/4.8.3/../../../../pic32mx/lib/micromips\libpic32.a(vector17.o)
                              C:\Users\hoang\AppData\Local\Temp\ccFXkMDy.o (__vector_dispatch_17)
d:/program files/microchip/xc32/v2.50/bin/bin/../../lib/gcc/pic32mx/4.8.3/../../../../pic32mx/lib/micromips\libpic32.a(vector18.o)
                              C:\Users\hoang\AppData\Local\Temp\ccFXkMDy.o (__vector_dispatch_18)
d:/program files/microchip/xc32/v2.50/bin/bin/../../lib/gcc/pic32mx/4.8.3/../../../../pic32mx/lib/micromips\libpic32.a(vector19.o)
                              C:\Users\hoang\AppData\Local\Temp\ccFXkMDy.o (__vector_dispatch_19)
d:/program files/microchip/xc32/v2.50/bin/bin/../../lib/gcc/pic32mx/4.8.3/../../../../pic32mx/lib/micromips\libpic32.a(vector20.o)
                              C:\Users\hoang\AppData\Local\Temp\ccFXkMDy.o (__vector_dispatch_20)
d:/program files/microchip/xc32/v2.50/bin/bin/../../lib/gcc/pic32mx/4.8.3/../../../../pic32mx/lib/micromips\libpic32.a(vector21.o)
                              C:\Users\hoang\AppData\Local\Temp\ccFXkMDy.o (__vector_dispatch_21)
d:/program files/microchip/xc32/v2.50/bin/bin/../../lib/gcc/pic32mx/4.8.3/../../../../pic32mx/lib/micromips\libpic32.a(vector22.o)
                              C:\Users\hoang\AppData\Local\Temp\ccFXkMDy.o (__vector_dispatch_22)
d:/program files/microchip/xc32/v2.50/bin/bin/../../lib/gcc/pic32mx/4.8.3/../../../../pic32mx/lib/micromips\libpic32.a(vector23.o)
                              C:\Users\hoang\AppData\Local\Temp\ccFXkMDy.o (__vector_dispatch_23)
d:/program files/microchip/xc32/v2.50/bin/bin/../../lib/gcc/pic32mx/4.8.3/../../../../pic32mx/lib/micromips\libpic32.a(vector24.o)
                              C:\Users\hoang\AppData\Local\Temp\ccFXkMDy.o (__vector_dispatch_24)
d:/program files/microchip/xc32/v2.50/bin/bin/../../lib/gcc/pic32mx/4.8.3/../../../../pic32mx/lib/micromips\libpic32.a(vector25.o)
                              C:\Users\hoang\AppData\Local\Temp\ccFXkMDy.o (__vector_dispatch_25)
d:/program files/microchip/xc32/v2.50/bin/bin/../../lib/gcc/pic32mx/4.8.3/../../../../pic32mx/lib/micromips\libpic32.a(vector26.o)
                              C:\Users\hoang\AppData\Local\Temp\ccFXkMDy.o (__vector_dispatch_26)
d:/program files/microchip/xc32/v2.50/bin/bin/../../lib/gcc/pic32mx/4.8.3/../../../../pic32mx/lib/micromips\libpic32.a(vector27.o)
                              C:\Users\hoang\AppData\Local\Temp\ccFXkMDy.o (__vector_dispatch_27)
d:/program files/microchip/xc32/v2.50/bin/bin/../../lib/gcc/pic32mx/4.8.3/../../../../pic32mx/lib/micromips\libpic32.a(vector28.o)
                              C:\Users\hoang\AppData\Local\Temp\ccFXkMDy.o (__vector_dispatch_28)
d:/program files/microchip/xc32/v2.50/bin/bin/../../lib/gcc/pic32mx/4.8.3/../../../../pic32mx/lib/micromips\libpic32.a(vector29.o)
                              C:\Users\hoang\AppData\Local\Temp\ccFXkMDy.o (__vector_dispatch_29)
d:/program files/microchip/xc32/v2.50/bin/bin/../../lib/gcc/pic32mx/4.8.3/../../../../pic32mx/lib/micromips\libpic32.a(vector30.o)
                              C:\Users\hoang\AppData\Local\Temp\ccFXkMDy.o (__vector_dispatch_30)
d:/program files/microchip/xc32/v2.50/bin/bin/../../lib/gcc/pic32mx/4.8.3/../../../../pic32mx/lib/micromips\libpic32.a(vector31.o)
                              C:\Users\hoang\AppData\Local\Temp\ccFXkMDy.o (__vector_dispatch_31)
d:/program files/microchip/xc32/v2.50/bin/bin/../../lib/gcc/pic32mx/4.8.3/../../../../pic32mx/lib/micromips\libpic32.a(vector32.o)
                              C:\Users\hoang\AppData\Local\Temp\ccFXkMDy.o (__vector_dispatch_32)
d:/program files/microchip/xc32/v2.50/bin/bin/../../lib/gcc/pic32mx/4.8.3/../../../../pic32mx/lib/micromips\libpic32.a(vector33.o)
                              C:\Users\hoang\AppData\Local\Temp\ccFXkMDy.o (__vector_dispatch_33)
d:/program files/microchip/xc32/v2.50/bin/bin/../../lib/gcc/pic32mx/4.8.3/../../../../pic32mx/lib/micromips\libpic32.a(vector34.o)
                              C:\Users\hoang\AppData\Local\Temp\ccFXkMDy.o (__vector_dispatch_34)
d:/program files/microchip/xc32/v2.50/bin/bin/../../lib/gcc/pic32mx/4.8.3/../../../../pic32mx/lib/micromips\libpic32.a(vector35.o)
                              C:\Users\hoang\AppData\Local\Temp\ccFXkMDy.o (__vector_dispatch_35)
d:/program files/microchip/xc32/v2.50/bin/bin/../../lib/gcc/pic32mx/4.8.3/../../../../pic32mx/lib/micromips\libpic32.a(vector36.o)
                              C:\Users\hoang\AppData\Local\Temp\ccFXkMDy.o (__vector_dispatch_36)
d:/program files/microchip/xc32/v2.50/bin/bin/../../lib/gcc/pic32mx/4.8.3/../../../../pic32mx/lib/micromips\libpic32.a(vector37.o)
                              C:\Users\hoang\AppData\Local\Temp\ccFXkMDy.o (__vector_dispatch_37)
d:/program files/microchip/xc32/v2.50/bin/bin/../../lib/gcc/pic32mx/4.8.3/../../../../pic32mx/lib/micromips\libpic32.a(vector38.o)
                              C:\Users\hoang\AppData\Local\Temp\ccFXkMDy.o (__vector_dispatch_38)
d:/program files/microchip/xc32/v2.50/bin/bin/../../lib/gcc/pic32mx/4.8.3/../../../../pic32mx/lib/micromips\libpic32.a(vector39.o)
                              C:\Users\hoang\AppData\Local\Temp\ccFXkMDy.o (__vector_dispatch_39)
d:/program files/microchip/xc32/v2.50/bin/bin/../../lib/gcc/pic32mx/4.8.3/../../../../pic32mx/lib/micromips\libpic32.a(vector40.o)
                              C:\Users\hoang\AppData\Local\Temp\ccFXkMDy.o (__vector_dispatch_40)
d:/program files/microchip/xc32/v2.50/bin/bin/../../lib/gcc/pic32mx/4.8.3/../../../../pic32mx/lib/micromips\libpic32.a(vector41.o)
                              C:\Users\hoang\AppData\Local\Temp\ccFXkMDy.o (__vector_dispatch_41)
d:/program files/microchip/xc32/v2.50/bin/bin/../../lib/gcc/pic32mx/4.8.3/../../../../pic32mx/lib/micromips\libpic32.a(vector42.o)
                              C:\Users\hoang\AppData\Local\Temp\ccFXkMDy.o (__vector_dispatch_42)
d:/program files/microchip/xc32/v2.50/bin/bin/../../lib/gcc/pic32mx/4.8.3/../../../../pic32mx/lib/micromips\libpic32.a(vector43.o)
                              C:\Users\hoang\AppData\Local\Temp\ccFXkMDy.o (__vector_dispatch_43)
d:/program files/microchip/xc32/v2.50/bin/bin/../../lib/gcc/pic32mx/4.8.3/../../../../pic32mx/lib/micromips\libpic32.a(vector44.o)
                              C:\Users\hoang\AppData\Local\Temp\ccFXkMDy.o (__vector_dispatch_44)
d:/program files/microchip/xc32/v2.50/bin/bin/../../lib/gcc/pic32mx/4.8.3/../../../../pic32mx/lib/micromips\libpic32.a(vector45.o)
                              C:\Users\hoang\AppData\Local\Temp\ccFXkMDy.o (__vector_dispatch_45)
d:/program files/microchip/xc32/v2.50/bin/bin/../../lib/gcc/pic32mx/4.8.3/../../../../pic32mx/lib/micromips\libpic32.a(vector46.o)
                              C:\Users\hoang\AppData\Local\Temp\ccFXkMDy.o (__vector_dispatch_46)
d:/program files/microchip/xc32/v2.50/bin/bin/../../lib/gcc/pic32mx/4.8.3/../../../../pic32mx/lib/micromips\libpic32.a(vector47.o)
                              C:\Users\hoang\AppData\Local\Temp\ccFXkMDy.o (__vector_dispatch_47)
d:/program files/microchip/xc32/v2.50/bin/bin/../../lib/gcc/pic32mx/4.8.3/../../../../pic32mx/lib/micromips\libpic32.a(vector48.o)
                              C:\Users\hoang\AppData\Local\Temp\ccFXkMDy.o (__vector_dispatch_48)
d:/program files/microchip/xc32/v2.50/bin/bin/../../lib/gcc/pic32mx/4.8.3/../../../../pic32mx/lib/micromips\libpic32.a(vector49.o)
                              C:\Users\hoang\AppData\Local\Temp\ccFXkMDy.o (__vector_dispatch_49)
d:/program files/microchip/xc32/v2.50/bin/bin/../../lib/gcc/pic32mx/4.8.3/../../../../pic32mx/lib/micromips\libpic32.a(vector50.o)
                              C:\Users\hoang\AppData\Local\Temp\ccFXkMDy.o (__vector_dispatch_50)
d:/program files/microchip/xc32/v2.50/bin/bin/../../lib/gcc/pic32mx/4.8.3/../../../../pic32mx/lib/micromips\libpic32.a(vector51.o)
                              C:\Users\hoang\AppData\Local\Temp\ccFXkMDy.o (__vector_dispatch_51)
d:/program files/microchip/xc32/v2.50/bin/bin/../../lib/gcc/pic32mx/4.8.3/../../../../pic32mx/lib/micromips\libpic32.a(vector52.o)
                              C:\Users\hoang\AppData\Local\Temp\ccFXkMDy.o (__vector_dispatch_52)
d:/program files/microchip/xc32/v2.50/bin/bin/../../lib/gcc/pic32mx/4.8.3/../../../../pic32mx/lib/micromips\libpic32.a(vector53.o)
                              C:\Users\hoang\AppData\Local\Temp\ccFXkMDy.o (__vector_dispatch_53)
d:/program files/microchip/xc32/v2.50/bin/bin/../../lib/gcc/pic32mx/4.8.3/../../../../pic32mx/lib/micromips\libpic32.a(vector54.o)
                              C:\Users\hoang\AppData\Local\Temp\ccFXkMDy.o (__vector_dispatch_54)
d:/program files/microchip/xc32/v2.50/bin/bin/../../lib/gcc/pic32mx/4.8.3/../../../../pic32mx/lib/micromips\libpic32.a(vector55.o)
                              C:\Users\hoang\AppData\Local\Temp\ccFXkMDy.o (__vector_dispatch_55)
d:/program files/microchip/xc32/v2.50/bin/bin/../../lib/gcc/pic32mx/4.8.3/../../../../pic32mx/lib/micromips\libpic32.a(vector56.o)
                              C:\Users\hoang\AppData\Local\Temp\ccFXkMDy.o (__vector_dispatch_56)
d:/program files/microchip/xc32/v2.50/bin/bin/../../lib/gcc/pic32mx/4.8.3/../../../../pic32mx/lib/micromips\libpic32.a(vector57.o)
                              C:\Users\hoang\AppData\Local\Temp\ccFXkMDy.o (__vector_dispatch_57)
d:/program files/microchip/xc32/v2.50/bin/bin/../../lib/gcc/pic32mx/4.8.3/../../../../pic32mx/lib/micromips\libpic32.a(vector58.o)
                              C:\Users\hoang\AppData\Local\Temp\ccFXkMDy.o (__vector_dispatch_58)
d:/program files/microchip/xc32/v2.50/bin/bin/../../lib/gcc/pic32mx/4.8.3/../../../../pic32mx/lib/micromips\libpic32.a(vector59.o)
                              C:\Users\hoang\AppData\Local\Temp\ccFXkMDy.o (__vector_dispatch_59)
d:/program files/microchip/xc32/v2.50/bin/bin/../../lib/gcc/pic32mx/4.8.3/../../../../pic32mx/lib/micromips\libpic32.a(vector60.o)
                              C:\Users\hoang\AppData\Local\Temp\ccFXkMDy.o (__vector_dispatch_60)
d:/program files/microchip/xc32/v2.50/bin/bin/../../lib/gcc/pic32mx/4.8.3/../../../../pic32mx/lib/micromips\libpic32.a(vector61.o)
                              C:\Users\hoang\AppData\Local\Temp\ccFXkMDy.o (__vector_dispatch_61)
d:/program files/microchip/xc32/v2.50/bin/bin/../../lib/gcc/pic32mx/4.8.3/../../../../pic32mx/lib/micromips\libpic32.a(vector62.o)
                              C:\Users\hoang\AppData\Local\Temp\ccFXkMDy.o (__vector_dispatch_62)
d:/program files/microchip/xc32/v2.50/bin/bin/../../lib/gcc/pic32mx/4.8.3/../../../../pic32mx/lib/micromips\libpic32.a(vector63.o)
                              C:\Users\hoang\AppData\Local\Temp\ccFXkMDy.o (__vector_dispatch_63)
d:/program files/microchip/xc32/v2.50/bin/bin/../../lib/gcc/pic32mx/4.8.3/../../../../pic32mx/lib/micromips\libpic32.a(vector64.o)
                              C:\Users\hoang\AppData\Local\Temp\ccFXkMDy.o (__vector_dispatch_64)
d:/program files/microchip/xc32/v2.50/bin/bin/../../lib/gcc/pic32mx/4.8.3/../../../../pic32mx/lib/micromips\libpic32.a(vector65.o)
                              C:\Users\hoang\AppData\Local\Temp\ccFXkMDy.o (__vector_dispatch_65)
d:/program files/microchip/xc32/v2.50/bin/bin/../../lib/gcc/pic32mx/4.8.3/../../../../pic32mx/lib/micromips\libpic32.a(vector66.o)
                              C:\Users\hoang\AppData\Local\Temp\ccFXkMDy.o (__vector_dispatch_66)
d:/program files/microchip/xc32/v2.50/bin/bin/../../lib/gcc/pic32mx/4.8.3/../../../../pic32mx/lib/micromips\libpic32.a(vector67.o)
                              C:\Users\hoang\AppData\Local\Temp\ccFXkMDy.o (__vector_dispatch_67)
d:/program files/microchip/xc32/v2.50/bin/bin/../../lib/gcc/pic32mx/4.8.3/../../../../pic32mx/lib/micromips\libpic32.a(vector68.o)
                              C:\Users\hoang\AppData\Local\Temp\ccFXkMDy.o (__vector_dispatch_68)
d:/program files/microchip/xc32/v2.50/bin/bin/../../lib/gcc/pic32mx/4.8.3/../../../../pic32mx/lib/micromips\libpic32.a(vector69.o)
                              C:\Users\hoang\AppData\Local\Temp\ccFXkMDy.o (__vector_dispatch_69)
d:/program files/microchip/xc32/v2.50/bin/bin/../../lib/gcc/pic32mx/4.8.3/../../../../pic32mx/lib/micromips\libpic32.a(vector70.o)
                              C:\Users\hoang\AppData\Local\Temp\ccFXkMDy.o (__vector_dispatch_70)
d:/program files/microchip/xc32/v2.50/bin/bin/../../lib/gcc/pic32mx/4.8.3/../../../../pic32mx/lib/micromips\libpic32.a(vector71.o)
                              C:\Users\hoang\AppData\Local\Temp\ccFXkMDy.o (__vector_dispatch_71)
d:/program files/microchip/xc32/v2.50/bin/bin/../../lib/gcc/pic32mx/4.8.3/../../../../pic32mx/lib/micromips\libpic32.a(vector72.o)
                              C:\Users\hoang\AppData\Local\Temp\ccFXkMDy.o (__vector_dispatch_72)
d:/program files/microchip/xc32/v2.50/bin/bin/../../lib/gcc/pic32mx/4.8.3/../../../../pic32mx/lib/micromips\libpic32.a(vector73.o)
                              C:\Users\hoang\AppData\Local\Temp\ccFXkMDy.o (__vector_dispatch_73)
d:/program files/microchip/xc32/v2.50/bin/bin/../../lib/gcc/pic32mx/4.8.3/../../../../pic32mx/lib/micromips\libpic32.a(vector74.o)
                              C:\Users\hoang\AppData\Local\Temp\ccFXkMDy.o (__vector_dispatch_74)
d:/program files/microchip/xc32/v2.50/bin/bin/../../lib/gcc/pic32mx/4.8.3/../../../../pic32mx/lib/micromips\libpic32.a(vector75.o)
                              C:\Users\hoang\AppData\Local\Temp\ccFXkMDy.o (__vector_dispatch_75)
d:/program files/microchip/xc32/v2.50/bin/bin/../../lib/gcc/pic32mx/4.8.3/../../../../pic32mx/lib/micromips\libpic32.a(vector76.o)
                              C:\Users\hoang\AppData\Local\Temp\ccFXkMDy.o (__vector_dispatch_76)
d:/program files/microchip/xc32/v2.50/bin/bin/../../lib/gcc/pic32mx/4.8.3/../../../../pic32mx/lib/micromips\libpic32.a(vector77.o)
                              C:\Users\hoang\AppData\Local\Temp\ccFXkMDy.o (__vector_dispatch_77)
d:/program files/microchip/xc32/v2.50/bin/bin/../../lib/gcc/pic32mx/4.8.3/../../../../pic32mx/lib/micromips\libpic32.a(vector78.o)
                              C:\Users\hoang\AppData\Local\Temp\ccFXkMDy.o (__vector_dispatch_78)
d:/program files/microchip/xc32/v2.50/bin/bin/../../lib/gcc/pic32mx/4.8.3/../../../../pic32mx/lib/micromips\libpic32.a(vector79.o)
                              C:\Users\hoang\AppData\Local\Temp\ccFXkMDy.o (__vector_dispatch_79)
d:/program files/microchip/xc32/v2.50/bin/bin/../../lib/gcc/pic32mx/4.8.3/../../../../pic32mx/lib/micromips\libpic32.a(vector80.o)
                              C:\Users\hoang\AppData\Local\Temp\ccFXkMDy.o (__vector_dispatch_80)
d:/program files/microchip/xc32/v2.50/bin/bin/../../lib/gcc/pic32mx/4.8.3/../../../../pic32mx/lib/micromips\libpic32.a(vector81.o)
                              C:\Users\hoang\AppData\Local\Temp\ccFXkMDy.o (__vector_dispatch_81)
d:/program files/microchip/xc32/v2.50/bin/bin/../../lib/gcc/pic32mx/4.8.3/../../../../pic32mx/lib/micromips\libpic32.a(vector82.o)
                              C:\Users\hoang\AppData\Local\Temp\ccFXkMDy.o (__vector_dispatch_82)
d:/program files/microchip/xc32/v2.50/bin/bin/../../lib/gcc/pic32mx/4.8.3/../../../../pic32mx/lib/micromips\libpic32.a(vector83.o)
                              C:\Users\hoang\AppData\Local\Temp\ccFXkMDy.o (__vector_dispatch_83)
d:/program files/microchip/xc32/v2.50/bin/bin/../../lib/gcc/pic32mx/4.8.3/../../../../pic32mx/lib/micromips\libpic32.a(vector84.o)
                              C:\Users\hoang\AppData\Local\Temp\ccFXkMDy.o (__vector_dispatch_84)
d:/program files/microchip/xc32/v2.50/bin/bin/../../lib/gcc/pic32mx/4.8.3/../../../../pic32mx/lib/micromips\libpic32.a(vector85.o)
                              C:\Users\hoang\AppData\Local\Temp\ccFXkMDy.o (__vector_dispatch_85)
d:/program files/microchip/xc32/v2.50/bin/bin/../../lib/gcc/pic32mx/4.8.3/../../../../pic32mx/lib/micromips\libpic32.a(vector86.o)
                              C:\Users\hoang\AppData\Local\Temp\ccFXkMDy.o (__vector_dispatch_86)
d:/program files/microchip/xc32/v2.50/bin/bin/../../lib/gcc/pic32mx/4.8.3/../../../../pic32mx/lib/micromips\libpic32.a(vector87.o)
                              C:\Users\hoang\AppData\Local\Temp\ccFXkMDy.o (__vector_dispatch_87)
d:/program files/microchip/xc32/v2.50/bin/bin/../../lib/gcc/pic32mx/4.8.3/../../../../pic32mx/lib/micromips\libpic32.a(vector88.o)
                              C:\Users\hoang\AppData\Local\Temp\ccFXkMDy.o (__vector_dispatch_88)
d:/program files/microchip/xc32/v2.50/bin/bin/../../lib/gcc/pic32mx/4.8.3/../../../../pic32mx/lib/micromips\libpic32.a(vector89.o)
                              C:\Users\hoang\AppData\Local\Temp\ccFXkMDy.o (__vector_dispatch_89)
d:/program files/microchip/xc32/v2.50/bin/bin/../../lib/gcc/pic32mx/4.8.3/../../../../pic32mx/lib/micromips\libpic32.a(vector90.o)
                              C:\Users\hoang\AppData\Local\Temp\ccFXkMDy.o (__vector_dispatch_90)
d:/program files/microchip/xc32/v2.50/bin/bin/../../lib/gcc/pic32mx/4.8.3/../../../../pic32mx/lib/micromips\libpic32.a(vector91.o)
                              C:\Users\hoang\AppData\Local\Temp\ccFXkMDy.o (__vector_dispatch_91)
d:/program files/microchip/xc32/v2.50/bin/bin/../../lib/gcc/pic32mx/4.8.3/../../../../pic32mx/lib/micromips\libpic32.a(vector92.o)
                              C:\Users\hoang\AppData\Local\Temp\ccFXkMDy.o (__vector_dispatch_92)
d:/program files/microchip/xc32/v2.50/bin/bin/../../lib/gcc/pic32mx/4.8.3/../../../../pic32mx/lib/micromips\libpic32.a(vector93.o)
                              C:\Users\hoang\AppData\Local\Temp\ccFXkMDy.o (__vector_dispatch_93)
d:/program files/microchip/xc32/v2.50/bin/bin/../../lib/gcc/pic32mx/4.8.3/../../../../pic32mx/lib/micromips\libpic32.a(vector94.o)
                              C:\Users\hoang\AppData\Local\Temp\ccFXkMDy.o (__vector_dispatch_94)
d:/program files/microchip/xc32/v2.50/bin/bin/../../lib/gcc/pic32mx/4.8.3/../../../../pic32mx/lib/micromips\libpic32.a(vector95.o)
                              C:\Users\hoang\AppData\Local\Temp\ccFXkMDy.o (__vector_dispatch_95)
d:/program files/microchip/xc32/v2.50/bin/bin/../../lib/gcc/pic32mx/4.8.3/../../../../pic32mx/lib/micromips\libpic32.a(vector96.o)
                              C:\Users\hoang\AppData\Local\Temp\ccFXkMDy.o (__vector_dispatch_96)
d:/program files/microchip/xc32/v2.50/bin/bin/../../lib/gcc/pic32mx/4.8.3/../../../../pic32mx/lib/micromips\libpic32.a(vector97.o)
                              C:\Users\hoang\AppData\Local\Temp\ccFXkMDy.o (__vector_dispatch_97)
d:/program files/microchip/xc32/v2.50/bin/bin/../../lib/gcc/pic32mx/4.8.3/../../../../pic32mx/lib/micromips\libpic32.a(vector98.o)
                              C:\Users\hoang\AppData\Local\Temp\ccFXkMDy.o (__vector_dispatch_98)
d:/program files/microchip/xc32/v2.50/bin/bin/../../lib/gcc/pic32mx/4.8.3/../../../../pic32mx/lib/micromips\libpic32.a(vector99.o)
                              C:\Users\hoang\AppData\Local\Temp\ccFXkMDy.o (__vector_dispatch_99)
d:/program files/microchip/xc32/v2.50/bin/bin/../../lib/gcc/pic32mx/4.8.3/../../../../pic32mx/lib/micromips\libpic32.a(vector100.o)
                              C:\Users\hoang\AppData\Local\Temp\ccFXkMDy.o (__vector_dispatch_100)
d:/program files/microchip/xc32/v2.50/bin/bin/../../lib/gcc/pic32mx/4.8.3/../../../../pic32mx/lib/micromips\libpic32.a(vector101.o)
                              C:\Users\hoang\AppData\Local\Temp\ccFXkMDy.o (__vector_dispatch_101)
d:/program files/microchip/xc32/v2.50/bin/bin/../../lib/gcc/pic32mx/4.8.3/../../../../pic32mx/lib/micromips\libpic32.a(default-general-exception-handler.o)
                              d:/program files/microchip/xc32/v2.50/bin/bin/../../lib/gcc/pic32mx/4.8.3/../../../../pic32mx/lib/micromips\libpic32.a(general-exception.o) (_general_exception_handler)
d:/program files/microchip/xc32/v2.50/bin/bin/../../lib/gcc/pic32mx/4.8.3/../../../../pic32mx/lib/micromips\libpic32.a(defaultinterrupt.o)
                              d:/program files/microchip/xc32/v2.50/bin/bin/../../lib/gcc/pic32mx/4.8.3/../../../../pic32mx/lib/micromips\libpic32.a(vector0.o) (_DefaultInterrupt)
d:/program files/microchip/xc32/v2.50/bin/bin/../../lib/gcc/pic32mx/4.8.3/../../../../pic32mx/lib/micromips\libxcpp.a(iostream.o)
                              build/default/production/main.o (std::cout)
d:/program files/microchip/xc32/v2.50/bin/bin/../../lib/gcc/pic32mx/4.8.3/../../../../pic32mx/lib/micromips\libxcpp.a(xthrow.o)
                              build/default/production/main.o (std::_Xout_of_range(char const*))
d:/program files/microchip/xc32/v2.50/bin/bin/../../lib/gcc/pic32mx/4.8.3/../../../../pic32mx/lib/micromips\libxcpp.a(wiostrea.o)
                              build/default/production/main.o (std::_Winit::~_Winit())
d:/program files/microchip/xc32/v2.50/bin/bin/../../lib/gcc/pic32mx/4.8.3/../../../../pic32mx/lib/micromips\libxcpp.a(locale0.o)
                              d:/program files/microchip/xc32/v2.50/bin/bin/../../lib/gcc/pic32mx/4.8.3/../../../../pic32mx/lib/micromips\libxcpp.a(iostream.o) (std::locale::_Init())
d:/program files/microchip/xc32/v2.50/bin/bin/../../lib/gcc/pic32mx/4.8.3/../../../../pic32mx/lib/micromips\libxcpp.a(abort.o)
                              d:/program files/microchip/xc32/v2.50/bin/bin/../../lib/gcc/pic32mx/4.8.3/../../../../pic32mx/lib/micromips\libsupc++.a(eh_personality.o) (abort)
d:/program files/microchip/xc32/v2.50/bin/bin/../../lib/gcc/pic32mx/4.8.3/../../../../pic32mx/lib/micromips\libxcpp.a(abs.o)
                              d:/program files/microchip/xc32/v2.50/bin/bin/../../lib/gcc/pic32mx/4.8.3/../../../../pic32mx/lib/micromips\libsupc++.a(eh_personality.o) (abs)
d:/program files/microchip/xc32/v2.50/bin/bin/../../lib/gcc/pic32mx/4.8.3/../../../../pic32mx/lib/micromips\libxcpp.a(asctime.o)
                              d:/program files/microchip/xc32/v2.50/bin/bin/../../lib/gcc/pic32mx/4.8.3/../../../../pic32mx/lib/micromips\libxcpp.a(locale0.o) (_Getptimes)
d:/program files/microchip/xc32/v2.50/bin/bin/../../lib/gcc/pic32mx/4.8.3/../../../../pic32mx/lib/micromips\libxcpp.a(exit.o)
                              d:/program files/microchip/xc32/v2.50/bin/bin/../../lib/gcc/pic32mx/4.8.3/../../../../pic32mx/lib/micromips\libxcpp.a(abort.o) (exit)
d:/program files/microchip/xc32/v2.50/bin/bin/../../lib/gcc/pic32mx/4.8.3/../../../../pic32mx/lib/micromips\libxcpp.a(fclose.o)
                              d:/program files/microchip/xc32/v2.50/bin/bin/../../lib/gcc/pic32mx/4.8.3/../../../../pic32mx/lib/micromips\libxcpp.a(iostream.o) (fclose)
d:/program files/microchip/xc32/v2.50/bin/bin/../../lib/gcc/pic32mx/4.8.3/../../../../pic32mx/lib/micromips\libxcpp.a(fflush.o)
                              d:/program files/microchip/xc32/v2.50/bin/bin/../../lib/gcc/pic32mx/4.8.3/../../../../pic32mx/lib/micromips\libxcpp.a(iostream.o) (fflush)
d:/program files/microchip/xc32/v2.50/bin/bin/../../lib/gcc/pic32mx/4.8.3/../../../../pic32mx/lib/micromips\libxcpp.a(fgetc.o)
                              d:/program files/microchip/xc32/v2.50/bin/bin/../../lib/gcc/pic32mx/4.8.3/../../../../pic32mx/lib/micromips\libxcpp.a(iostream.o) (fgetc)
d:/program files/microchip/xc32/v2.50/bin/bin/../../lib/gcc/pic32mx/4.8.3/../../../../pic32mx/lib/micromips\libxcpp.a(fgetpos.o)
                              d:/program files/microchip/xc32/v2.50/bin/bin/../../lib/gcc/pic32mx/4.8.3/../../../../pic32mx/lib/micromips\libxcpp.a(iostream.o) (fgetpos)
d:/program files/microchip/xc32/v2.50/bin/bin/../../lib/gcc/pic32mx/4.8.3/../../../../pic32mx/lib/micromips\libxcpp.a(fgetwc.o)
                              d:/program files/microchip/xc32/v2.50/bin/bin/../../lib/gcc/pic32mx/4.8.3/../../../../pic32mx/lib/micromips\libxcpp.a(wiostrea.o) (fgetwc)
d:/program files/microchip/xc32/v2.50/bin/bin/../../lib/gcc/pic32mx/4.8.3/../../../../pic32mx/lib/micromips\libxcpp.a(fputc.o)
                              d:/program files/microchip/xc32/v2.50/bin/bin/../../lib/gcc/pic32mx/4.8.3/../../../../pic32mx/lib/micromips\libxcpp.a(iostream.o) (fputc)
d:/program files/microchip/xc32/v2.50/bin/bin/../../lib/gcc/pic32mx/4.8.3/../../../../pic32mx/lib/micromips\libxcpp.a(fputwc.o)
                              d:/program files/microchip/xc32/v2.50/bin/bin/../../lib/gcc/pic32mx/4.8.3/../../../../pic32mx/lib/micromips\libxcpp.a(wiostrea.o) (fputwc)
d:/program files/microchip/xc32/v2.50/bin/bin/../../lib/gcc/pic32mx/4.8.3/../../../../pic32mx/lib/micromips\libxcpp.a(free.o)
                              d:/program files/microchip/xc32/v2.50/bin/bin/../../lib/gcc/pic32mx/4.8.3/../../../../pic32mx/lib/micromips\libsupc++.a(del_op.o) (free)
d:/program files/microchip/xc32/v2.50/bin/bin/../../lib/gcc/pic32mx/4.8.3/../../../../pic32mx/lib/micromips\libxcpp.a(fseek.o)
                              d:/program files/microchip/xc32/v2.50/bin/bin/../../lib/gcc/pic32mx/4.8.3/../../../../pic32mx/lib/micromips\libxcpp.a(iostream.o) (fseek)
d:/program files/microchip/xc32/v2.50/bin/bin/../../lib/gcc/pic32mx/4.8.3/../../../../pic32mx/lib/micromips\libxcpp.a(fsetpos.o)
                              d:/program files/microchip/xc32/v2.50/bin/bin/../../lib/gcc/pic32mx/4.8.3/../../../../pic32mx/lib/micromips\libxcpp.a(iostream.o) (fsetpos)
d:/program files/microchip/xc32/v2.50/bin/bin/../../lib/gcc/pic32mx/4.8.3/../../../../pic32mx/lib/micromips\libxcpp.a(fwrite.o)
                              d:/program files/microchip/xc32/v2.50/bin/bin/../../lib/gcc/pic32mx/4.8.3/../../../../pic32mx/lib/micromips\libxcpp.a(iostream.o) (fwrite)
d:/program files/microchip/xc32/v2.50/bin/bin/../../lib/gcc/pic32mx/4.8.3/../../../../pic32mx/lib/micromips\libxcpp.a(malloc.o)
                              d:/program files/microchip/xc32/v2.50/bin/bin/../../lib/gcc/pic32mx/4.8.3/../../../../pic32mx/lib/micromips\libsupc++.a(eh_alloc.o) (malloc)
d:/program files/microchip/xc32/v2.50/bin/bin/../../lib/gcc/pic32mx/4.8.3/../../../../pic32mx/lib/micromips\libxcpp.a(memchr.o)
                              d:/program files/microchip/xc32/v2.50/bin/bin/../../lib/gcc/pic32mx/4.8.3/../../../../pic32mx/lib/micromips\libxcpp.a(fwrite.o) (memchr)
d:/program files/microchip/xc32/v2.50/bin/bin/../../lib/gcc/pic32mx/4.8.3/../../../../pic32mx/lib/micromips\libxcpp.a(memmove.o)
                              build/default/production/main.o (memmove)
d:/program files/microchip/xc32/v2.50/bin/bin/../../lib/gcc/pic32mx/4.8.3/../../../../pic32mx/lib/micromips\libxcpp.a(raise.o)
                              d:/program files/microchip/xc32/v2.50/bin/bin/../../lib/gcc/pic32mx/4.8.3/../../../../pic32mx/lib/micromips\libxcpp.a(abort.o) (raise)
d:/program files/microchip/xc32/v2.50/bin/bin/../../lib/gcc/pic32mx/4.8.3/../../../../pic32mx/lib/micromips\libxcpp.a(remove.o)
                              d:/program files/microchip/xc32/v2.50/bin/bin/../../lib/gcc/pic32mx/4.8.3/../../../../pic32mx/lib/micromips\libxcpp.a(fclose.o) (remove)
d:/program files/microchip/xc32/v2.50/bin/bin/../../lib/gcc/pic32mx/4.8.3/../../../../pic32mx/lib/micromips\libxcpp.a(setlocal.o)
                              d:/program files/microchip/xc32/v2.50/bin/bin/../../lib/gcc/pic32mx/4.8.3/../../../../pic32mx/lib/micromips\libxcpp.a(locale0.o) (setlocale)
d:/program files/microchip/xc32/v2.50/bin/bin/../../lib/gcc/pic32mx/4.8.3/../../../../pic32mx/lib/micromips\libxcpp.a(setvbuf.o)
                              d:/program files/microchip/xc32/v2.50/bin/bin/../../lib/gcc/pic32mx/4.8.3/../../../../pic32mx/lib/micromips\libxcpp.a(iostream.o) (setvbuf)
d:/program files/microchip/xc32/v2.50/bin/bin/../../lib/gcc/pic32mx/4.8.3/../../../../pic32mx/lib/micromips\libxcpp.a(strcpy.o)
                              d:/program files/microchip/xc32/v2.50/bin/bin/../../lib/gcc/pic32mx/4.8.3/../../../../pic32mx/lib/micromips\libxcpp.a(setlocal.o) (strcpy)
d:/program files/microchip/xc32/v2.50/bin/bin/../../lib/gcc/pic32mx/4.8.3/../../../../pic32mx/lib/micromips\libxcpp.a(ungetc.o)
                              d:/program files/microchip/xc32/v2.50/bin/bin/../../lib/gcc/pic32mx/4.8.3/../../../../pic32mx/lib/micromips\libxcpp.a(iostream.o) (ungetc)
d:/program files/microchip/xc32/v2.50/bin/bin/../../lib/gcc/pic32mx/4.8.3/../../../../pic32mx/lib/micromips\libxcpp.a(ungetwc.o)
                              d:/program files/microchip/xc32/v2.50/bin/bin/../../lib/gcc/pic32mx/4.8.3/../../../../pic32mx/lib/micromips\libxcpp.a(wiostrea.o) (ungetwc)
d:/program files/microchip/xc32/v2.50/bin/bin/../../lib/gcc/pic32mx/4.8.3/../../../../pic32mx/lib/micromips\libxcpp.a(wmemcpy.o)
                              d:/program files/microchip/xc32/v2.50/bin/bin/../../lib/gcc/pic32mx/4.8.3/../../../../pic32mx/lib/micromips\libxcpp.a(wiostrea.o) (wmemcpy)
d:/program files/microchip/xc32/v2.50/bin/bin/../../lib/gcc/pic32mx/4.8.3/../../../../pic32mx/lib/micromips\libxcpp.a(xatexit.o)
                              d:/program files/microchip/xc32/v2.50/bin/bin/../../lib/gcc/pic32mx/4.8.3/../../../../pic32mx/lib/micromips\libxcpp.a(locale0.o) (_Atexit)
d:/program files/microchip/xc32/v2.50/bin/bin/../../lib/gcc/pic32mx/4.8.3/../../../../pic32mx/lib/micromips\libxcpp.a(xcostate.o)
                              d:/program files/microchip/xc32/v2.50/bin/bin/../../lib/gcc/pic32mx/4.8.3/../../../../pic32mx/lib/micromips\libxcpp.a(setlocal.o) (_Getpcostate)
d:/program files/microchip/xc32/v2.50/bin/bin/../../lib/gcc/pic32mx/4.8.3/../../../../pic32mx/lib/micromips\libxcpp.a(xctype.o)
                              d:/program files/microchip/xc32/v2.50/bin/bin/../../lib/gcc/pic32mx/4.8.3/../../../../pic32mx/lib/micromips\libxcpp.a(iostream.o) (_Ctype)
d:/program files/microchip/xc32/v2.50/bin/bin/../../lib/gcc/pic32mx/4.8.3/../../../../pic32mx/lib/micromips\libxcpp.a(xdefloc.o)
                              d:/program files/microchip/xc32/v2.50/bin/bin/../../lib/gcc/pic32mx/4.8.3/../../../../pic32mx/lib/micromips\libxcpp.a(setlocal.o) (_Defloc)
d:/program files/microchip/xc32/v2.50/bin/bin/../../lib/gcc/pic32mx/4.8.3/../../../../pic32mx/lib/micromips\libxcpp.a(xexit.o)
                              d:/program files/microchip/xc32/v2.50/bin/bin/../../lib/gcc/pic32mx/4.8.3/../../../../pic32mx/lib/micromips\libxcpp.a(exit.o) (_Exit)
d:/program files/microchip/xc32/v2.50/bin/bin/../../lib/gcc/pic32mx/4.8.3/../../../../pic32mx/lib/micromips\libxcpp.a(xfgpos.o)
                              d:/program files/microchip/xc32/v2.50/bin/bin/../../lib/gcc/pic32mx/4.8.3/../../../../pic32mx/lib/micromips\libxcpp.a(fgetpos.o) (_Fgpos)
d:/program files/microchip/xc32/v2.50/bin/bin/../../lib/gcc/pic32mx/4.8.3/../../../../pic32mx/lib/micromips\libxcpp.a(xfiles.o)
                              d:/program files/microchip/xc32/v2.50/bin/bin/../../lib/gcc/pic32mx/4.8.3/../../../../pic32mx/lib/micromips\libxcpp.a(iostream.o) (_Stderr)
d:/program files/microchip/xc32/v2.50/bin/bin/../../lib/gcc/pic32mx/4.8.3/../../../../pic32mx/lib/micromips\libxcpp.a(xfofind.o)
                              d:/program files/microchip/xc32/v2.50/bin/bin/../../lib/gcc/pic32mx/4.8.3/../../../../pic32mx/lib/micromips\libxcpp.a(fclose.o) (_Fofree)
d:/program files/microchip/xc32/v2.50/bin/bin/../../lib/gcc/pic32mx/4.8.3/../../../../pic32mx/lib/micromips\libxcpp.a(xfrprep.o)
                              d:/program files/microchip/xc32/v2.50/bin/bin/../../lib/gcc/pic32mx/4.8.3/../../../../pic32mx/lib/micromips\libxcpp.a(fgetc.o) (_Frprep)
d:/program files/microchip/xc32/v2.50/bin/bin/../../lib/gcc/pic32mx/4.8.3/../../../../pic32mx/lib/micromips\libxcpp.a(xfspos.o)
                              d:/program files/microchip/xc32/v2.50/bin/bin/../../lib/gcc/pic32mx/4.8.3/../../../../pic32mx/lib/micromips\libxcpp.a(fseek.o) (_Fspos)
d:/program files/microchip/xc32/v2.50/bin/bin/../../lib/gcc/pic32mx/4.8.3/../../../../pic32mx/lib/micromips\libxcpp.a(xfwprep.o)
                              d:/program files/microchip/xc32/v2.50/bin/bin/../../lib/gcc/pic32mx/4.8.3/../../../../pic32mx/lib/micromips\libxcpp.a(fputc.o) (_Fwprep)
d:/program files/microchip/xc32/v2.50/bin/bin/../../lib/gcc/pic32mx/4.8.3/../../../../pic32mx/lib/micromips\libxcpp.a(xgetglob.o)
                              d:/program files/microchip/xc32/v2.50/bin/bin/../../lib/gcc/pic32mx/4.8.3/../../../../pic32mx/lib/micromips\libxcpp.a(locale0.o) (_Getgloballocale)
d:/program files/microchip/xc32/v2.50/bin/bin/../../lib/gcc/pic32mx/4.8.3/../../../../pic32mx/lib/micromips\libxcpp.a(xgetloc.o)
                              d:/program files/microchip/xc32/v2.50/bin/bin/../../lib/gcc/pic32mx/4.8.3/../../../../pic32mx/lib/micromips\libxcpp.a(setlocal.o) (_Getloc)
d:/program files/microchip/xc32/v2.50/bin/bin/../../lib/gcc/pic32mx/4.8.3/../../../../pic32mx/lib/micromips\libxcpp.a(xgetmem.o)
                              d:/program files/microchip/xc32/v2.50/bin/bin/../../lib/gcc/pic32mx/4.8.3/../../../../pic32mx/lib/micromips\libxcpp.a(malloc.o) (_Getmem)
d:/program files/microchip/xc32/v2.50/bin/bin/../../lib/gcc/pic32mx/4.8.3/../../../../pic32mx/lib/micromips\libxcpp.a(xmbtowc.o)
                              d:/program files/microchip/xc32/v2.50/bin/bin/../../lib/gcc/pic32mx/4.8.3/../../../../pic32mx/lib/micromips\libxcpp.a(wiostrea.o) (_Mbtowcx)
d:/program files/microchip/xc32/v2.50/bin/bin/../../lib/gcc/pic32mx/4.8.3/../../../../pic32mx/lib/micromips\libxcpp.a(xsetloc.o)
                              d:/program files/microchip/xc32/v2.50/bin/bin/../../lib/gcc/pic32mx/4.8.3/../../../../pic32mx/lib/micromips\libxcpp.a(setlocal.o) (_Setloc)
d:/program files/microchip/xc32/v2.50/bin/bin/../../lib/gcc/pic32mx/4.8.3/../../../../pic32mx/lib/micromips\libxcpp.a(xstate.o)
                              d:/program files/microchip/xc32/v2.50/bin/bin/../../lib/gcc/pic32mx/4.8.3/../../../../pic32mx/lib/micromips\libxcpp.a(wiostrea.o) (_Getmbcurmax)
d:/program files/microchip/xc32/v2.50/bin/bin/../../lib/gcc/pic32mx/4.8.3/../../../../pic32mx/lib/micromips\libxcpp.a(xstrftim.o)
                              d:/program files/microchip/xc32/v2.50/bin/bin/../../lib/gcc/pic32mx/4.8.3/../../../../pic32mx/lib/micromips\libxcpp.a(asctime.o) (_CStrftime)
d:/program files/microchip/xc32/v2.50/bin/bin/../../lib/gcc/pic32mx/4.8.3/../../../../pic32mx/lib/micromips\libxcpp.a(xtolotab.o)
                              d:/program files/microchip/xc32/v2.50/bin/bin/../../lib/gcc/pic32mx/4.8.3/../../../../pic32mx/lib/micromips\libxcpp.a(xsetloc.o) (_Tls_setup__Tolotab)
d:/program files/microchip/xc32/v2.50/bin/bin/../../lib/gcc/pic32mx/4.8.3/../../../../pic32mx/lib/micromips\libxcpp.a(xtouptab.o)
                              d:/program files/microchip/xc32/v2.50/bin/bin/../../lib/gcc/pic32mx/4.8.3/../../../../pic32mx/lib/micromips\libxcpp.a(xsetloc.o) (_Tls_setup__Touptab)
d:/program files/microchip/xc32/v2.50/bin/bin/../../lib/gcc/pic32mx/4.8.3/../../../../pic32mx/lib/micromips\libxcpp.a(xwcostate.o)
                              d:/program files/microchip/xc32/v2.50/bin/bin/../../lib/gcc/pic32mx/4.8.3/../../../../pic32mx/lib/micromips\libxcpp.a(setlocal.o) (_Getpwcostate)
d:/program files/microchip/xc32/v2.50/bin/bin/../../lib/gcc/pic32mx/4.8.3/../../../../pic32mx/lib/micromips\libxcpp.a(xwcstate.o)
                              d:/program files/microchip/xc32/v2.50/bin/bin/../../lib/gcc/pic32mx/4.8.3/../../../../pic32mx/lib/micromips\libxcpp.a(wiostrea.o) (_Getpwcstate)
d:/program files/microchip/xc32/v2.50/bin/bin/../../lib/gcc/pic32mx/4.8.3/../../../../pic32mx/lib/micromips\libxcpp.a(xwctomb.o)
                              d:/program files/microchip/xc32/v2.50/bin/bin/../../lib/gcc/pic32mx/4.8.3/../../../../pic32mx/lib/micromips\libxcpp.a(wiostrea.o) (_Wctombx)
d:/program files/microchip/xc32/v2.50/bin/bin/../../lib/gcc/pic32mx/4.8.3/../../../../pic32mx/lib/micromips\libxcpp.a(xwctrtab.o)
                              d:/program files/microchip/xc32/v2.50/bin/bin/../../lib/gcc/pic32mx/4.8.3/../../../../pic32mx/lib/micromips\libxcpp.a(setlocal.o) (_Getpwctrtab)
d:/program files/microchip/xc32/v2.50/bin/bin/../../lib/gcc/pic32mx/4.8.3/../../../../pic32mx/lib/micromips\libxcpp.a(xwctytab.o)
                              d:/program files/microchip/xc32/v2.50/bin/bin/../../lib/gcc/pic32mx/4.8.3/../../../../pic32mx/lib/micromips\libxcpp.a(setlocal.o) (_Getpwctytab)
d:/program files/microchip/xc32/v2.50/bin/bin/../../lib/gcc/pic32mx/4.8.3/../../../../pic32mx/lib/micromips\libxcpp.a(xwfrprep.o)
                              d:/program files/microchip/xc32/v2.50/bin/bin/../../lib/gcc/pic32mx/4.8.3/../../../../pic32mx/lib/micromips\libxcpp.a(fgetwc.o) (_WFrprep)
d:/program files/microchip/xc32/v2.50/bin/bin/../../lib/gcc/pic32mx/4.8.3/../../../../pic32mx/lib/micromips\libxcpp.a(xwfwprep.o)
                              d:/program files/microchip/xc32/v2.50/bin/bin/../../lib/gcc/pic32mx/4.8.3/../../../../pic32mx/lib/micromips\libxcpp.a(fputwc.o) (_WFwprep)
d:/program files/microchip/xc32/v2.50/bin/bin/../../lib/gcc/pic32mx/4.8.3/../../../../pic32mx/lib/micromips\libxcpp.a(syserror.o)
                              build/default/production/main.o (std::iostream_category())
d:/program files/microchip/xc32/v2.50/bin/bin/../../lib/gcc/pic32mx/4.8.3/../../../../pic32mx/lib/micromips\libxcpp.a(delaop.o)
                              d:/program files/microchip/xc32/v2.50/bin/bin/../../lib/gcc/pic32mx/4.8.3/../../../../pic32mx/lib/micromips\libxcpp.a(iostream.o) (operator delete[](void*))
d:/program files/microchip/xc32/v2.50/bin/bin/../../lib/gcc/pic32mx/4.8.3/../../../../pic32mx/lib/micromips\libxcpp.a(ios.o)
                              d:/program files/microchip/xc32/v2.50/bin/bin/../../lib/gcc/pic32mx/4.8.3/../../../../pic32mx/lib/micromips\libxcpp.a(iostream.o) (std::ios_base::~ios_base())
d:/program files/microchip/xc32/v2.50/bin/bin/../../lib/gcc/pic32mx/4.8.3/../../../../pic32mx/lib/micromips\libxcpp.a(delop3.o)
                              d:/program files/microchip/xc32/v2.50/bin/bin/../../lib/gcc/pic32mx/4.8.3/../../../../pic32mx/lib/micromips\libxcpp.a(iostream.o) (operator delete(void*, void*))
d:/program files/microchip/xc32/v2.50/bin/bin/../../lib/gcc/pic32mx/4.8.3/../../../../pic32mx/lib/micromips\libxcpp.a(errno.o)
                              d:/program files/microchip/xc32/v2.50/bin/bin/../../lib/gcc/pic32mx/4.8.3/../../../../pic32mx/lib/micromips\libxcpp.a(fclose.o) (_Errno)
d:/program files/microchip/xc32/v2.50/bin/bin/../../lib/gcc/pic32mx/4.8.3/../../../../pic32mx/lib/micromips\libxcpp.a(getenv.o)
                              d:/program files/microchip/xc32/v2.50/bin/bin/../../lib/gcc/pic32mx/4.8.3/../../../../pic32mx/lib/micromips\libxcpp.a(xdefloc.o) (getenv)
d:/program files/microchip/xc32/v2.50/bin/bin/../../lib/gcc/pic32mx/4.8.3/../../../../pic32mx/lib/micromips\libxcpp.a(localeco.o)
                              d:/program files/microchip/xc32/v2.50/bin/bin/../../lib/gcc/pic32mx/4.8.3/../../../../pic32mx/lib/micromips\libxcpp.a(setlocal.o) (localeconv)
d:/program files/microchip/xc32/v2.50/bin/bin/../../lib/gcc/pic32mx/4.8.3/../../../../pic32mx/lib/micromips\libxcpp.a(memcmp.o)
                              d:/program files/microchip/xc32/v2.50/bin/bin/../../lib/gcc/pic32mx/4.8.3/../../../../pic32mx/lib/micromips\libxcpp.a(xgetloc.o) (memcmp)
d:/program files/microchip/xc32/v2.50/bin/bin/../../lib/gcc/pic32mx/4.8.3/../../../../pic32mx/lib/micromips\libxcpp.a(strcspn.o)
                              d:/program files/microchip/xc32/v2.50/bin/bin/../../lib/gcc/pic32mx/4.8.3/../../../../pic32mx/lib/micromips\libxcpp.a(xgetloc.o) (strcspn)
d:/program files/microchip/xc32/v2.50/bin/bin/../../lib/gcc/pic32mx/4.8.3/../../../../pic32mx/lib/micromips\libxcpp.a(strerror.o)
                              d:/program files/microchip/xc32/v2.50/bin/bin/../../lib/gcc/pic32mx/4.8.3/../../../../pic32mx/lib/micromips\libxcpp.a(syserror.o) (strerror)
d:/program files/microchip/xc32/v2.50/bin/bin/../../lib/gcc/pic32mx/4.8.3/../../../../pic32mx/lib/micromips\libxcpp.a(xfindloc.o)
                              d:/program files/microchip/xc32/v2.50/bin/bin/../../lib/gcc/pic32mx/4.8.3/../../../../pic32mx/lib/micromips\libxcpp.a(xgetloc.o) (_Findloc)
d:/program files/microchip/xc32/v2.50/bin/bin/../../lib/gcc/pic32mx/4.8.3/../../../../pic32mx/lib/micromips\libxcpp.a(xfreeloc.o)
                              d:/program files/microchip/xc32/v2.50/bin/bin/../../lib/gcc/pic32mx/4.8.3/../../../../pic32mx/lib/micromips\libxcpp.a(xgetloc.o) (_Freeloc)
d:/program files/microchip/xc32/v2.50/bin/bin/../../lib/gcc/pic32mx/4.8.3/../../../../pic32mx/lib/micromips\libxcpp.a(xgentime.o)
                              d:/program files/microchip/xc32/v2.50/bin/bin/../../lib/gcc/pic32mx/4.8.3/../../../../pic32mx/lib/micromips\libxcpp.a(xstrftim.o) (_Gentime)
d:/program files/microchip/xc32/v2.50/bin/bin/../../lib/gcc/pic32mx/4.8.3/../../../../pic32mx/lib/micromips\libxcpp.a(xgettime.o)
                              d:/program files/microchip/xc32/v2.50/bin/bin/../../lib/gcc/pic32mx/4.8.3/../../../../pic32mx/lib/micromips\libxcpp.a(xgentime.o) (_Gettime)
d:/program files/microchip/xc32/v2.50/bin/bin/../../lib/gcc/pic32mx/4.8.3/../../../../pic32mx/lib/micromips\libxcpp.a(xgetzone.o)
                              d:/program files/microchip/xc32/v2.50/bin/bin/../../lib/gcc/pic32mx/4.8.3/../../../../pic32mx/lib/micromips\libxcpp.a(xgentime.o) (_Getzone)
d:/program files/microchip/xc32/v2.50/bin/bin/../../lib/gcc/pic32mx/4.8.3/../../../../pic32mx/lib/micromips\libxcpp.a(xloctab.o)
                              d:/program files/microchip/xc32/v2.50/bin/bin/../../lib/gcc/pic32mx/4.8.3/../../../../pic32mx/lib/micromips\libxcpp.a(xfreeloc.o) (_Loctab)
d:/program files/microchip/xc32/v2.50/bin/bin/../../lib/gcc/pic32mx/4.8.3/../../../../pic32mx/lib/micromips\libxcpp.a(xmakeloc.o)
                              d:/program files/microchip/xc32/v2.50/bin/bin/../../lib/gcc/pic32mx/4.8.3/../../../../pic32mx/lib/micromips\libxcpp.a(xfindloc.o) (_Makeloc)
d:/program files/microchip/xc32/v2.50/bin/bin/../../lib/gcc/pic32mx/4.8.3/../../../../pic32mx/lib/micromips\libxcpp.a(xmakesta.o)
                              d:/program files/microchip/xc32/v2.50/bin/bin/../../lib/gcc/pic32mx/4.8.3/../../../../pic32mx/lib/micromips\libxcpp.a(xmakeloc.o) (_Makestab)
d:/program files/microchip/xc32/v2.50/bin/bin/../../lib/gcc/pic32mx/4.8.3/../../../../pic32mx/lib/micromips\libxcpp.a(xmakewct.o)
                              d:/program files/microchip/xc32/v2.50/bin/bin/../../lib/gcc/pic32mx/4.8.3/../../../../pic32mx/lib/micromips\libxcpp.a(xmakeloc.o) (_Makewct)
d:/program files/microchip/xc32/v2.50/bin/bin/../../lib/gcc/pic32mx/4.8.3/../../../../pic32mx/lib/micromips\libxcpp.a(xreadloc.o)
                              d:/program files/microchip/xc32/v2.50/bin/bin/../../lib/gcc/pic32mx/4.8.3/../../../../pic32mx/lib/micromips\libxcpp.a(xfindloc.o) (_Readloc)
d:/program files/microchip/xc32/v2.50/bin/bin/../../lib/gcc/pic32mx/4.8.3/../../../../pic32mx/lib/micromips\libxcpp.a(xstrerro.o)
                              d:/program files/microchip/xc32/v2.50/bin/bin/../../lib/gcc/pic32mx/4.8.3/../../../../pic32mx/lib/micromips\libxcpp.a(strerror.o) (_Strerror)
d:/program files/microchip/xc32/v2.50/bin/bin/../../lib/gcc/pic32mx/4.8.3/../../../../pic32mx/lib/micromips\libxcpp.a(fgets.o)
                              d:/program files/microchip/xc32/v2.50/bin/bin/../../lib/gcc/pic32mx/4.8.3/../../../../pic32mx/lib/micromips\libxcpp.a(xreadloc.o) (fgets)
d:/program files/microchip/xc32/v2.50/bin/bin/../../lib/gcc/pic32mx/4.8.3/../../../../pic32mx/lib/micromips\libxcpp.a(fopen.o)
                              d:/program files/microchip/xc32/v2.50/bin/bin/../../lib/gcc/pic32mx/4.8.3/../../../../pic32mx/lib/micromips\libxcpp.a(xfindloc.o) (fopen)
d:/program files/microchip/xc32/v2.50/bin/bin/../../lib/gcc/pic32mx/4.8.3/../../../../pic32mx/lib/micromips\libxcpp.a(fputs.o)
                              d:/program files/microchip/xc32/v2.50/bin/bin/../../lib/gcc/pic32mx/4.8.3/../../../../pic32mx/lib/micromips\libxcpp.a(xfindloc.o) (fputs)
d:/program files/microchip/xc32/v2.50/bin/bin/../../lib/gcc/pic32mx/4.8.3/../../../../pic32mx/lib/micromips\libxcpp.a(realloc.o)
                              d:/program files/microchip/xc32/v2.50/bin/bin/../../lib/gcc/pic32mx/4.8.3/../../../../pic32mx/lib/micromips\libxcpp.a(xmakewct.o) (realloc)
d:/program files/microchip/xc32/v2.50/bin/bin/../../lib/gcc/pic32mx/4.8.3/../../../../pic32mx/lib/micromips\libxcpp.a(strchr.o)
                              d:/program files/microchip/xc32/v2.50/bin/bin/../../lib/gcc/pic32mx/4.8.3/../../../../pic32mx/lib/micromips\libxcpp.a(xgentime.o) (strchr)
d:/program files/microchip/xc32/v2.50/bin/bin/../../lib/gcc/pic32mx/4.8.3/../../../../pic32mx/lib/micromips\libxcpp.a(strncmp.o)
                              d:/program files/microchip/xc32/v2.50/bin/bin/../../lib/gcc/pic32mx/4.8.3/../../../../pic32mx/lib/micromips\libxcpp.a(xreadloc.o) (strncmp)
d:/program files/microchip/xc32/v2.50/bin/bin/../../lib/gcc/pic32mx/4.8.3/../../../../pic32mx/lib/micromips\libxcpp.a(strrchr.o)
                              d:/program files/microchip/xc32/v2.50/bin/bin/../../lib/gcc/pic32mx/4.8.3/../../../../pic32mx/lib/micromips\libxcpp.a(xmakeloc.o) (strrchr)
d:/program files/microchip/xc32/v2.50/bin/bin/../../lib/gcc/pic32mx/4.8.3/../../../../pic32mx/lib/micromips\libxcpp.a(strspn.o)
                              d:/program files/microchip/xc32/v2.50/bin/bin/../../lib/gcc/pic32mx/4.8.3/../../../../pic32mx/lib/micromips\libxcpp.a(xfindloc.o) (strspn)
d:/program files/microchip/xc32/v2.50/bin/bin/../../lib/gcc/pic32mx/4.8.3/../../../../pic32mx/lib/micromips\libxcpp.a(strtol.o)
                              d:/program files/microchip/xc32/v2.50/bin/bin/../../lib/gcc/pic32mx/4.8.3/../../../../pic32mx/lib/micromips\libxcpp.a(xgentime.o) (strtol)
d:/program files/microchip/xc32/v2.50/bin/bin/../../lib/gcc/pic32mx/4.8.3/../../../../pic32mx/lib/micromips\libxcpp.a(xfoprep.o)
                              d:/program files/microchip/xc32/v2.50/bin/bin/../../lib/gcc/pic32mx/4.8.3/../../../../pic32mx/lib/micromips\libxcpp.a(fopen.o) (_Foprep)
d:/program files/microchip/xc32/v2.50/bin/bin/../../lib/gcc/pic32mx/4.8.3/../../../../pic32mx/lib/micromips\libxcpp.a(xlocterm.o)
                              d:/program files/microchip/xc32/v2.50/bin/bin/../../lib/gcc/pic32mx/4.8.3/../../../../pic32mx/lib/micromips\libxcpp.a(xmakeloc.o) (_Locvar)
d:/program files/microchip/xc32/v2.50/bin/bin/../../lib/gcc/pic32mx/4.8.3/../../../../pic32mx/lib/micromips\libxcpp.a(xstol.o)
                              d:/program files/microchip/xc32/v2.50/bin/bin/../../lib/gcc/pic32mx/4.8.3/../../../../pic32mx/lib/micromips\libxcpp.a(strtol.o) (_Stolx)
d:/program files/microchip/xc32/v2.50/bin/bin/../../lib/gcc/pic32mx/4.8.3/../../../../pic32mx/lib/micromips\libxcpp.a(xstoul.o)
                              d:/program files/microchip/xc32/v2.50/bin/bin/../../lib/gcc/pic32mx/4.8.3/../../../../pic32mx/lib/micromips\libxcpp.a(xstol.o) (_Stoulx)
d:/program files/microchip/xc32/v2.50/bin/bin/../../lib/gcc/pic32mx/4.8.3/../../../../pic32mx/lib/micromips\libxcpp.a(xfopen.o)
                              d:/program files/microchip/xc32/v2.50/bin/bin/../../lib/gcc/pic32mx/4.8.3/../../../../pic32mx/lib/micromips\libxcpp.a(xfoprep.o) (_Fopen)
d:/program files/microchip/xc32/v2.50/bin/bin/../../lib/gcc/pic32mx/4.8.3/../../../../pic32mx/lib/micromips\libsupc++.a(vmi_class_type_info.o)
                              d:/program files/microchip/xc32/v2.50/bin/bin/../../lib/gcc/pic32mx/4.8.3/../../../../pic32mx/lib/micromips\libxcpp.a(iostream.o) (vtable for __cxxabiv1::__vmi_class_type_info)
d:/program files/microchip/xc32/v2.50/bin/bin/../../lib/gcc/pic32mx/4.8.3/../../../../pic32mx/lib/micromips\libpic32.a(sbrk.o)
                              d:/program files/microchip/xc32/v2.50/bin/bin/../../lib/gcc/pic32mx/4.8.3/../../../../pic32mx/lib/micromips\libxcpp.a(xgetmem.o) (sbrk)
d:/program files/microchip/xc32/v2.50/bin/bin/../../lib/gcc/pic32mx/4.8.3/../../../../pic32mx/lib/micromips\libpic32.a(_exit.o)
                              d:/program files/microchip/xc32/v2.50/bin/bin/../../lib/gcc/pic32mx/4.8.3/../../../../pic32mx/lib/micromips\libxcpp.a(xexit.o) (_exit)
d:/program files/microchip/xc32/v2.50/bin/bin/../../lib/gcc/pic32mx/4.8.3/../../../../pic32mx/lib/micromips\libpic32.a(isatty.o)
                              d:/program files/microchip/xc32/v2.50/bin/bin/../../lib/gcc/pic32mx/4.8.3/../../../../pic32mx/lib/micromips\libxcpp.a(xfrprep.o) (isatty)
d:/program files/microchip/xc32/v2.50/bin/bin/../../lib/gcc/pic32mx/4.8.3/../../../../pic32mx/lib/micromips\libpic32.a(read.o)
                              d:/program files/microchip/xc32/v2.50/bin/bin/../../lib/gcc/pic32mx/4.8.3/../../../../pic32mx/lib/micromips\libxcpp.a(xfrprep.o) (read)
d:/program files/microchip/xc32/v2.50/bin/bin/../../lib/gcc/pic32mx/4.8.3/../../../../pic32mx/lib/micromips\libpic32.a(write.o)
                              d:/program files/microchip/xc32/v2.50/bin/bin/../../lib/gcc/pic32mx/4.8.3/../../../../pic32mx/lib/micromips\libxcpp.a(fflush.o) (write)
d:/program files/microchip/xc32/v2.50/bin/bin/../../lib/gcc/pic32mx/4.8.3/../../../../pic32mx/lib/micromips\libpic32.a(lseek.o)
                              d:/program files/microchip/xc32/v2.50/bin/bin/../../lib/gcc/pic32mx/4.8.3/../../../../pic32mx/lib/micromips\libxcpp.a(xfgpos.o) (lseek)
d:/program files/microchip/xc32/v2.50/bin/bin/../../lib/gcc/pic32mx/4.8.3/../../../../pic32mx/lib/micromips\libpic32.a(close.o)
                              d:/program files/microchip/xc32/v2.50/bin/bin/../../lib/gcc/pic32mx/4.8.3/../../../../pic32mx/lib/micromips\libxcpp.a(fclose.o) (close)
d:/program files/microchip/xc32/v2.50/bin/bin/../../lib/gcc/pic32mx/4.8.3/../../../../pic32mx/lib/micromips\libpic32.a(open.o)
                              d:/program files/microchip/xc32/v2.50/bin/bin/../../lib/gcc/pic32mx/4.8.3/../../../../pic32mx/lib/micromips\libxcpp.a(xfopen.o) (open)
d:/program files/microchip/xc32/v2.50/bin/bin/../../lib/gcc/pic32mx/4.8.3/../../../../pic32mx/lib/micromips\libpic32.a(unlink.o)
                              d:/program files/microchip/xc32/v2.50/bin/bin/../../lib/gcc/pic32mx/4.8.3/../../../../pic32mx/lib/micromips\libxcpp.a(remove.o) (unlink)
d:/program files/microchip/xc32/v2.50/bin/bin/../../lib/gcc/pic32mx/4.8.3/../../../../pic32mx/lib/micromips\libpic32.a(kill.o)
                              d:/program files/microchip/xc32/v2.50/bin/bin/../../lib/gcc/pic32mx/4.8.3/../../../../pic32mx/lib/micromips\libxcpp.a(raise.o) (kill)
d:/program files/microchip/xc32/v2.50/bin/bin/../../lib/gcc/pic32mx/4.8.3/../../../../pic32mx/lib/micromips\libpic32.a(getpid.o)
                              d:/program files/microchip/xc32/v2.50/bin/bin/../../lib/gcc/pic32mx/4.8.3/../../../../pic32mx/lib/micromips\libxcpp.a(raise.o) (getpid)
d:/program files/microchip/xc32/v2.50/bin/bin/../../lib/gcc/pic32mx/4.8.3/../../../../pic32mx/lib/micromips\libpic32.a(xc32_uart.o)
                              d:/program files/microchip/xc32/v2.50/bin/bin/../../lib/gcc/pic32mx/4.8.3/../../../../pic32mx/lib/micromips\libpic32.a(read.o) (__XC_UART)
d:/program files/microchip/xc32/v2.50/bin/bin/../../lib/gcc/pic32mx/4.8.3/../../../../pic32mx/lib/micromips\libpic32.a(errno.o)
                              d:/program files/microchip/xc32/v2.50/bin/bin/../../lib/gcc/pic32mx/4.8.3/../../../../pic32mx/lib/micromips\libpic32.a(sbrk.o) (errno)
d:/program files/microchip/xc32/v2.50/bin/bin/../../lib/gcc/pic32mx/4.8.3/../../../../pic32mx/lib/micromips\libpic32.a(rmdir.o)
                              d:/program files/microchip/xc32/v2.50/bin/bin/../../lib/gcc/pic32mx/4.8.3/../../../../pic32mx/lib/micromips\libxcpp.a(remove.o) (rmdir)
d:/program files/microchip/xc32/v2.50/bin/bin/../../lib/gcc/pic32mx/4.8.3/../../../../pic32mx/lib/micromips\libpic32.a(_mon_putc.o)
                              d:/program files/microchip/xc32/v2.50/bin/bin/../../lib/gcc/pic32mx/4.8.3/../../../../pic32mx/lib/micromips\libpic32.a(write.o) (_mon_putc)

Microchip PIC32 Memory-Usage Report

kseg0 Program-Memory Usage
section                    address  length [bytes]      (dec)  Description
-------                 ----------  -------------------------  -----------
.text.fgetwc            0x9d000000          0x170         368   
.text._ZNK10__cxxabiv11 0x9d000170           0x10          16   
.app_excpt              0x9d000180            0xc          12  General-Exception 
.text._ZL21base_of_enco 0x9d00018c           0x74         116   
.vector_0               0x9d000200            0x8           8  Interrupt Vector 0 
.vector_1               0x9d000208            0x8           8  Interrupt Vector 1 
.vector_2               0x9d000210            0x8           8  Interrupt Vector 2 
.vector_3               0x9d000218            0x8           8  Interrupt Vector 3 
.vector_4               0x9d000220            0x8           8  Interrupt Vector 4 
.vector_5               0x9d000228            0x8           8  Interrupt Vector 5 
.vector_6               0x9d000230            0x8           8  Interrupt Vector 6 
.vector_7               0x9d000238            0x8           8  Interrupt Vector 7 
.vector_8               0x9d000240            0x8           8  Interrupt Vector 8 
.vector_9               0x9d000248            0x8           8  Interrupt Vector 9 
.vector_10              0x9d000250            0x8           8  Interrupt Vector 10 
.vector_11              0x9d000258            0x8           8  Interrupt Vector 11 
.vector_12              0x9d000260            0x8           8  Interrupt Vector 12 
.vector_13              0x9d000268            0x8           8  Interrupt Vector 13 
.vector_14              0x9d000270            0x8           8  Interrupt Vector 14 
.vector_15              0x9d000278            0x8           8  Interrupt Vector 15 
.vector_16              0x9d000280            0x8           8  Interrupt Vector 16 
.vector_17              0x9d000288            0x8           8  Interrupt Vector 17 
.vector_18              0x9d000290            0x8           8  Interrupt Vector 18 
.vector_19              0x9d000298            0x8           8  Interrupt Vector 19 
.vector_20              0x9d0002a0            0x8           8  Interrupt Vector 20 
.vector_21              0x9d0002a8            0x8           8  Interrupt Vector 21 
.vector_22              0x9d0002b0            0x8           8  Interrupt Vector 22 
.vector_23              0x9d0002b8            0x8           8  Interrupt Vector 23 
.vector_24              0x9d0002c0            0x8           8  Interrupt Vector 24 
.vector_25              0x9d0002c8            0x8           8  Interrupt Vector 25 
.vector_26              0x9d0002d0            0x8           8  Interrupt Vector 26 
.vector_27              0x9d0002d8            0x8           8  Interrupt Vector 27 
.vector_28              0x9d0002e0            0x8           8  Interrupt Vector 28 
.vector_29              0x9d0002e8            0x8           8  Interrupt Vector 29 
.vector_30              0x9d0002f0            0x8           8  Interrupt Vector 30 
.vector_31              0x9d0002f8            0x8           8  Interrupt Vector 31 
.vector_32              0x9d000300            0x8           8  Interrupt Vector 32 
.vector_33              0x9d000308            0x8           8  Interrupt Vector 33 
.vector_34              0x9d000310            0x8           8  Interrupt Vector 34 
.vector_35              0x9d000318            0x8           8  Interrupt Vector 35 
.vector_36              0x9d000320            0x8           8  Interrupt Vector 36 
.vector_37              0x9d000328            0x8           8  Interrupt Vector 37 
.vector_38              0x9d000330            0x8           8  Interrupt Vector 38 
.vector_39              0x9d000338            0x8           8  Interrupt Vector 39 
.vector_40              0x9d000340            0x8           8  Interrupt Vector 40 
.vector_41              0x9d000348            0x8           8  Interrupt Vector 41 
.vector_42              0x9d000350            0x8           8  Interrupt Vector 42 
.vector_43              0x9d000358            0x8           8  Interrupt Vector 43 
.vector_44              0x9d000360            0x8           8  Interrupt Vector 44 
.vector_45              0x9d000368            0x8           8  Interrupt Vector 45 
.vector_46              0x9d000370            0x8           8  Interrupt Vector 46 
.vector_47              0x9d000378            0x8           8  Interrupt Vector 47 
.vector_48              0x9d000380            0x8           8  Interrupt Vector 48 
.vector_49              0x9d000388            0x8           8  Interrupt Vector 49 
.vector_50              0x9d000390            0x8           8  Interrupt Vector 50 
.vector_51              0x9d000398            0x8           8  Interrupt Vector 51 
.vector_52              0x9d0003a0            0x8           8  Interrupt Vector 52 
.vector_53              0x9d0003a8            0x8           8  Interrupt Vector 53 
.vector_54              0x9d0003b0            0x8           8  Interrupt Vector 54 
.vector_55              0x9d0003b8            0x8           8  Interrupt Vector 55 
.vector_56              0x9d0003c0            0x8           8  Interrupt Vector 56 
.vector_57              0x9d0003c8            0x8           8  Interrupt Vector 57 
.vector_58              0x9d0003d0            0x8           8  Interrupt Vector 58 
.vector_59              0x9d0003d8            0x8           8  Interrupt Vector 59 
.vector_60              0x9d0003e0            0x8           8  Interrupt Vector 60 
.vector_61              0x9d0003e8            0x8           8  Interrupt Vector 61 
.vector_62              0x9d0003f0            0x8           8  Interrupt Vector 62 
.vector_63              0x9d0003f8            0x8           8  Interrupt Vector 63 
.vector_64              0x9d000400            0x8           8   
.vector_65              0x9d000408            0x8           8   
.vector_66              0x9d000410            0x8           8   
.vector_67              0x9d000418            0x8           8   
.vector_68              0x9d000420            0x8           8   
.vector_69              0x9d000428            0x8           8   
.vector_70              0x9d000430            0x8           8   
.vector_71              0x9d000438            0x8           8   
.vector_72              0x9d000440            0x8           8   
.vector_73              0x9d000448            0x8           8   
.vector_74              0x9d000450            0x8           8   
.vector_75              0x9d000458            0x8           8   
.vector_76              0x9d000460            0x8           8   
.vector_77              0x9d000468            0x8           8   
.vector_78              0x9d000470            0x8           8   
.vector_79              0x9d000478            0x8           8   
.vector_80              0x9d000480            0x8           8   
.vector_81              0x9d000488            0x8           8   
.vector_82              0x9d000490            0x8           8   
.vector_83              0x9d000498            0x8           8   
.vector_84              0x9d0004a0            0x8           8   
.vector_85              0x9d0004a8            0x8           8   
.vector_86              0x9d0004b0            0x8           8   
.vector_87              0x9d0004b8            0x8           8   
.vector_88              0x9d0004c0            0x8           8   
.vector_89              0x9d0004c8            0x8           8   
.vector_90              0x9d0004d0            0x8           8   
.vector_91              0x9d0004d8            0x8           8   
.vector_92              0x9d0004e0            0x8           8   
.vector_93              0x9d0004e8            0x8           8   
.vector_94              0x9d0004f0            0x8           8   
.vector_95              0x9d0004f8            0x8           8   
.vector_96              0x9d000500            0x8           8   
.vector_97              0x9d000508            0x8           8   
.vector_98              0x9d000510            0x8           8   
.vector_99              0x9d000518            0x8           8   
.vector_100             0x9d000520            0x8           8   
.vector_101             0x9d000528            0x8           8   
.text                   0x9d000530         0x8180       33152  App's exec code 
.init                   0x9d0086b0           0x20          32   
.fini                   0x9d0086d0           0x18          24   
.ctors                  0x9d0086e8           0x1c          28   
.dtors                  0x9d008704           0x1c          28   
.rodata                 0x9d008720          0xc00        3072  Read-only const 
.text._ZNSt6_WinitC2Ev  0x9d009320         0x12fc        4860   
.text._ZNSt8ios_base4In 0x9d00a61c         0x1254        4692   
.dinit                  0x9d00b870          0xfb0        4016   
.text._ZNSt8ios_base4In 0x9d00c820          0xc84        3204   
.text._ZNSt6_WinitD2Ev  0x9d00d4a4          0xb74        2932   
.rodata                 0x9d00e018          0xb24        2852  Read-only const 
.text._Gentime          0x9d00eb3c          0x820        2080   
.text._Strerror         0x9d00f35c          0x4f4        1268   
.text._Makeloc          0x9d00f850          0x4b8        1208   
.text._ZNK10__cxxabiv12 0x9d00fd08          0x408        1032   
.text._ZSt16_Xoverflow_ 0x9d010110          0x3ac         940   
.text._ZSt15_Xruntime_e 0x9d0104bc          0x39c         924   
.text._Setloc           0x9d010858          0x384         900   
.text                   0x9d010bdc          0x310         784  App's exec code 
.rodata                 0x9d010eec          0x2fc         764  Read-only const 
.text._Makewct          0x9d0111e8          0x22c         556   
.text._Makestab         0x9d011414          0x228         552   
.rodata                 0x9d01163c          0x408        1032  Read-only const 
.rodata                 0x9d011a44          0x204         516  Read-only const 
.text._Stoulx           0x9d011c48          0x1f0         496   
.rodata                 0x9d011e38          0x1e4         484  Read-only const 
.text._Mbtowcx          0x9d01201c          0x1c8         456   
.text.realloc           0x9d0121e4          0x1c4         452   
.text                   0x9d0123a8          0x1b4         436  App's exec code 
.text.__cxa_call_unexpe 0x9d01255c          0x1b4         436   
.text._Wctombx          0x9d012710          0x1b0         432   
.text._Getlname         0x9d0128c0          0x18c         396   
.text._ZNK10__cxxabiv12 0x9d012a4c          0x18c         396   
.text._CStrftime        0x9d012bd8          0x184         388   
.text._Freeloc          0x9d012d5c          0x16c         364   
.text.malloc            0x9d012ec8          0x15c         348   
.text.initcloc          0x9d013024          0x148         328   
.text._Getzone          0x9d01316c          0x148         328   
.text.fputwc            0x9d0132b4          0x140         320   
.text._ZNSt8_LocinfoC2E 0x9d0133f4          0x13c         316   
.text.ISOwkyr           0x9d013530          0x138         312   
.text.fwrite            0x9d013668          0x134         308   
.text._Findloc          0x9d01379c          0x134         308   
.text._Locterm          0x9d0138d0          0x130         304   
.rodata                 0x9d013a00          0x12c         300  Read-only const 
.text._Foprep           0x9d013b2c          0x12c         300   
.text                   0x9d013c58          0x124         292  App's exec code 
.text._GLOBAL__sub_I__Z 0x9d013d7c          0x124         292   
.text._Fspos            0x9d013ea0          0x118         280   
.text._sbrk_init        0x9d013fb8          0x118         280   
.text._ZL28read_encoded 0x9d0140d0          0x114         276   
.text._ZNSt8_LocinfoC2E 0x9d0141e4          0x114         276   
.text                   0x9d0142f8          0x110         272  App's exec code 
.text._Getnloc          0x9d014408          0x10c         268   
.text._Getloc           0x9d014514          0x10c         268   
.text.fgets             0x9d014620          0x108         264   
.text._GLOBAL__sub_I__Z 0x9d014728          0x104         260   
.text.fputs             0x9d01482c           0xfc         252   
.text._Stolx            0x9d014928           0xfc         252   
.text._Frprep           0x9d014a24           0xf8         248   
.text._ZL28check_compac 0x9d014b1c           0xf4         244   
.text._Readloc          0x9d014c10           0xf0         240   
.text.getera.isra.1     0x9d014d00           0xec         236   
.text                   0x9d014dec           0xe8         232  App's exec code 
.text._Fwprep           0x9d014ed4           0xe8         232   
.text.setlocale         0x9d014fbc           0xdc         220   
.text                   0x9d015098           0xd8         216  App's exec code 
.text._WFrprep          0x9d015170           0xd8         216   
.text._Z41__static_init 0x9d015248           0xd0         208   
.text._WFwprep          0x9d015318           0xd0         208   
.text._ZNSt6locale5_Ini 0x9d0153e8           0xcc         204   
.text.read              0x9d0154b4           0xcc         204   
.text._ZNK10__cxxabiv12 0x9d015580           0xc8         200   
.text.setvbuf           0x9d015648           0xc8         200   
.text.fflush            0x9d015710           0xbc         188   
.text._ZL17parse_lsda_h 0x9d0157cc           0xb8         184   
.text._Z41__static_init 0x9d015884           0xb8         184   
.text._ZNK10__cxxabiv12 0x9d01593c           0xb4         180   
.text._ZNSt8ios_baseD2E 0x9d0159f0           0xac         172   
.text._mon_putc         0x9d015a9c           0xac         172   
.text._Atrealloc        0x9d015b48           0xa8         168   
.text.exit              0x9d015bf0           0x9c         156   
.text.free              0x9d015c8c           0x9c         156   
.text.cmp_era_date      0x9d015d28           0x9c         156   
.text.fclose            0x9d015dc4           0x98         152   
.text._Fgpos            0x9d015e5c           0x98         152   
.text.__cxa_end_catch   0x9d015ef4           0x90         144   
.text._ZNSoC1ESt14_Unin 0x9d015f84           0x90         144   
.text._ZNSt13basic_ostr 0x9d016014           0x90         144   
.text.unescape          0x9d0160a4           0x90         144   
.rodata                 0x9d016134           0x8c         140  Read-only const 
.text._ZSt18_Xinvalid_a 0x9d0161c0           0x8c         140   
.text._ZSt14_Xlength_er 0x9d01624c           0x8c         140   
.text._ZSt14_Xout_of_ra 0x9d0162d8           0x8c         140   
.rodata                 0x9d016364          0x118         280  Read-only const 
.rodata                 0x9d01647c           0x88         136  Read-only const 
.text._Wctomb           0x9d016504           0x88         136   
.text.getval.isra.0     0x9d01658c           0x84         132   
.text._sbrk             0x9d016610           0x84         132   
.text.__cxa_begin_catch 0x9d016694           0x80         128   
.text.general_exception 0x9d016714           0x80         128   
.rodata                 0x9d016794           0x80         128  Read-only const 
.text                   0x9d016814           0x7c         124  App's exec code 
.text._ZNK10__cxxabiv11 0x9d016890           0x78         120   
.text._ZNSt6locale7_Loc 0x9d016908           0x78         120   
.text.fputc             0x9d016980           0x78         120   
.text.__cxa_throw       0x9d0169f8           0x74         116   
.text                   0x9d016a6c           0x74         116  App's exec code 
.text.__cxa_allocate_ex 0x9d016ae0           0x6c         108   
.text._ZL21size_of_enco 0x9d016b4c           0x6c         108   
.rodata                 0x9d016bb8           0x6c         108  Read-only const 
.text._Defloc           0x9d016c24           0x6c         108   
.rodata                 0x9d016c90           0x6c         108  Read-only const 
.text.__cxa_rethrow     0x9d016cfc           0x68         104   
.text._Atexit           0x9d016d64           0x68         104   
.text.fgetc             0x9d016dcc           0x64         100   
.text._Fofree           0x9d016e30           0x64         100   
.text._ZNK10__cxxabiv11 0x9d016e94           0x60          96   
.text.__cxa_allocate_de 0x9d016ef4           0x60          96   
.text._Znwm             0x9d016f54           0x60          96   
.text._ZNSt6locale5empt 0x9d016fb4           0x60          96   
.text._GLOBAL__sub_I__Z 0x9d017014           0x60          96   
.text._Fopen            0x9d017074           0x5c          92   
.text.write             0x9d0170d0           0x5c          92   
.text._ZN10__cxxabiv111 0x9d01712c           0x58          88   
.text._Fofind           0x9d017184           0x58          88   
.text._Gettime          0x9d0171dc           0x58          88   
.text._ZL20check_except 0x9d017234           0x54          84   
.text.__cxa_free_except 0x9d017288           0x50          80   
.text.__cxa_free_depend 0x9d0172d8           0x50          80   
.text._ZL23__gxx_except 0x9d017328           0x50          80   
.text._ZNK10__cxxabiv12 0x9d017378           0x50          80   
.text._ZNSt6locale5face 0x9d0173c8           0x50          80   
.text.atexit            0x9d017418           0x50          80   
.text.ungetc            0x9d017468           0x50          80   
.rodata                 0x9d0174b8           0x50          80  Read-only const 
.text._Fac_tidy         0x9d017508           0x4c          76   
.text.__cxa_call_termin 0x9d017554           0x48          72   
.text._ZSt9_AllocateIcE 0x9d01759c           0x48          72   
.text._ZNSt15basic_stre 0x9d0175e4           0x48          72   
.text._ZSt9_AllocateIcE 0x9d01762c           0x48          72   
.text._ZSt9_AllocateIcE 0x9d017674           0x48          72   
.text._ZNSt15basic_stre 0x9d0176bc           0x48          72   
.text._ZNSt6locale7_Loc 0x9d017704           0x48          72   
.rodata                 0x9d01774c           0x48          72  Read-only const 
.text._ZSt9_AllocateIcE 0x9d017794           0x48          72   
.rodata                 0x9d0177dc           0x48          72  Read-only const 
.text.strncmp           0x9d017824           0x48          72   
.text.main_entry        0x9d01786c           0x44          68   
.text._ZNK10__cxxabiv11 0x9d0178b0           0x40          64   
.text                   0x9d0178f0           0x40          64  App's exec code 
.text._ZNSt8_LocinfoD2E 0x9d017930           0x40          64   
.text.memmove           0x9d017970           0x40          64   
.text._ZNSt8ios_base7_A 0x9d0179b0           0x40          64   
.text.strspn            0x9d0179f0           0x40          64   
.text._Locvar           0x9d017a30           0x40          64   
.text._ZL16get_adjusted 0x9d017a70           0x3c          60   
.text.closeall          0x9d017aac           0x3c          60   
.text.ungetwc           0x9d017ae8           0x3c          60   
.text.freeall           0x9d017b24           0x3c          60   
.text._Mbtowc           0x9d017b60           0x3c          60   
.text.strcspn           0x9d017b9c           0x3c          60   
.rodata                 0x9d017bd8           0x3c          60  Read-only const 
.text._Locsum           0x9d017c14           0x3c          60   
.text._ZNK10__cxxabiv11 0x9d017c50           0x38          56   
.text._ZL12read_sleb128 0x9d017c88           0x38          56   
.rodata                 0x9d017cc0           0x38          56  Read-only const 
.text.memcmp            0x9d017cf8           0x38          56   
.rodata                 0x9d017d30           0x38          56  Read-only const 
.text._ZNKSt9type_info1 0x9d017d68           0x34          52   
.text._bootstrap_except 0x9d017d9c           0x34          52   
.text._general_exceptio 0x9d017dd0           0x34          52   
.rodata                 0x9d017e04           0x34          52  Read-only const 
.text                   0x9d017e38           0x34          52  App's exec code 
.text._ZL15get_ttype_en 0x9d017e6c           0x30          48   
.vector_default         0x9d017e9c           0x30          48   
.text._Deletegloballoca 0x9d017ecc           0x30          48   
.text._Getptimes        0x9d017efc           0x30          48   
.text.asctime           0x9d017f2c           0x30          48   
.text._Getcloc          0x9d017f5c           0x30          48   
.text._Getpcostate      0x9d017f8c           0x30          48   
.text._Getpctype        0x9d017fbc           0x30          48   
.text._Getmbcurmax      0x9d017fec           0x30          48   
.text._Getpmbstate      0x9d01801c           0x30          48   
.text._Getptolower      0x9d01804c           0x30          48   
.text._Getptoupper      0x9d01807c           0x30          48   
.text._Getpwcostate     0x9d0180ac           0x30          48   
.text._Getpwcstate      0x9d0180dc           0x30          48   
.text._Getpwctrtab      0x9d01810c           0x30          48   
.text._Getpwctytab      0x9d01813c           0x30          48   
.text._Geterrno         0x9d01816c           0x30          48   
.rodata                 0x9d01819c           0x30          48  Read-only const 
.text._ZNK10__cxxabiv12 0x9d0181cc           0x2c          44   
.text._GLOBAL__sub_I__F 0x9d0181f8           0x2c          44   
.text._Tls_setupx_namal 0x9d018224           0x2c          44   
.text._Tls_setupx_globa 0x9d018250           0x2c          44   
.text.sbrk              0x9d01827c           0x2c          44   
.text._Closreg          0x9d0182a8           0x28          40   
.text.memchr            0x9d0182d0           0x28          40   
.text._Skip             0x9d0182f8           0x28          40   
.text.fopen             0x9d018320           0x28          40   
.text._ZN10__cxxabiv117 0x9d018348           0x24          36   
.rodata                 0x9d01836c           0x24          36  Read-only const 
.text._ZN10__cxxabiv120 0x9d018390           0x24          36   
.text.remove            0x9d0183b4           0x24          36   
.text._Getmem           0x9d0183d8           0x24          36   
.text._Z41__static_init 0x9d0183fc           0x24          36   
.text.strchr            0x9d018420           0x24          36   
.text._ZN10__cxxabiv121 0x9d018444           0x24          36   
.text._stub_sbd_memlayo 0x9d018468           0x24          36   
.text._ZN10__cxxabiv117 0x9d01848c           0x1c          28   
.text._ZNSt9exceptionD0 0x9d0184a8           0x1c          28   
.text._ZNSt13bad_except 0x9d0184c4           0x1c          28   
.text._ZN10__cxxabiv115 0x9d0184e0           0x1c          28   
.text._ZN10__cxxabiv119 0x9d0184fc           0x1c          28   
.text._ZN10__cxxabiv120 0x9d018518           0x1c          28   
.text._ZNSt9type_infoD0 0x9d018534           0x1c          28   
.text._ZNSt6locale7_Loc 0x9d018550           0x1c          28   
.text._ZNSt6locale7clas 0x9d01856c           0x1c          28   
.text.raise             0x9d018588           0x1c          28   
.text._Getgloballocale  0x9d0185a4           0x1c          28   
.text._Setgloballocale  0x9d0185c0           0x1c          28   
.text._ZNSt8ios_baseD0E 0x9d0185dc           0x1c          28   
.text.strrchr           0x9d0185f8           0x1c          28   
.text._ZN10__cxxabiv121 0x9d018614           0x1c          28   
.text._ZdlPv            0x9d018630           0x18          24   
.text._ZSt18uncaught_ex 0x9d018648           0x18          24   
.text                   0x9d018660           0x18          24  App's exec code 
.text._GLOBAL__sub_D__F 0x9d018678           0x18          24   
.text.fseek             0x9d018690           0x18          24   
.text._Tls_dtor_namallo 0x9d0186a8           0x18          24   
.text.wmemcpy           0x9d0186c0           0x18          24   
.text._Tls_dtor_global_ 0x9d0186d8           0x18          24   
.rodata                 0x9d0186f0           0x18          24  Read-only const 
.text._ZN10__cxxabiv112 0x9d018708           0x14          20   
.text._GLOBAL__sub_D__Z 0x9d01871c           0x14          20   
.text._GLOBAL__sub_D__Z 0x9d018730           0x14          20   
.text._ZNSt6locale16_Ge 0x9d018744           0x14          20   
.text._ZNSt6locale16_Se 0x9d018758           0x14          20   
.text.abort             0x9d01876c           0x14          20   
.text.fgetpos           0x9d018780           0x14          20   
.text.fsetpos           0x9d018794           0x14          20   
.text.strcpy            0x9d0187a8           0x14          20   
.text._GLOBAL__sub_D__Z 0x9d0187bc           0x14          20   
.text._ZdaPv            0x9d0187d0           0x14          20   
.text.strerror          0x9d0187e4           0x14          20   
.text.strtol            0x9d0187f8           0x14          20   
.text._Stoul            0x9d01880c           0x14          20   
.text._ZSt9terminatev   0x9d018820           0x10          16   
.text._ZSt10unexpectedv 0x9d018830           0x10          16   
.text._ZSt13set_termina 0x9d018840           0x10          16   
.text._ZSt14set_unexpec 0x9d018850           0x10          16   
.text._ZSt15set_new_han 0x9d018860           0x10          16   
.text._ZNKSs5_XranEv.is 0x9d018870           0x10          16   
.text._ZNKSs5_XlenEv.is 0x9d018880           0x10          16   
.text._ZNKSs5_XranEv.is 0x9d018890           0x10          16   
.text._ZNKSs5_XlenEv.is 0x9d0188a0           0x10          16   
.rodata                 0x9d0188b0           0x10          16  Read-only const 
.text._Nnl              0x9d0188c0           0x10          16   
.text._ZNKSs5_XranEv.is 0x9d0188d0           0x10          16   
.text._ZNKSs5_XlenEv.is 0x9d0188e0           0x10          16   
.rodata                 0x9d0188f0           0x10          16  Read-only const 
.text.open              0x9d018900           0x10          16   
.text.unlink            0x9d018910           0x10          16   
.text.rmdir             0x9d018920           0x10          16   
.text._ZNSt9exceptionD2 0x9d018930            0xc          12   
.text._ZNSt13bad_except 0x9d01893c            0xc          12   
.text._ZN10__cxxabiv115 0x9d018948            0xc          12   
.text._ZN10__cxxabiv119 0x9d018954            0xc          12   
.text._ZNKSt9exception4 0x9d018960            0xc          12   
.text._ZNKSt13bad_excep 0x9d01896c            0xc          12   
.text.__cxa_get_globals 0x9d018978            0xc          12   
.text.__cxa_get_globals 0x9d018984            0xc          12   
.text._ZNSt9type_infoD2 0x9d018990            0xc          12   
.text.__cxa_pure_virtua 0x9d01899c            0xc          12   
.text.__cxa_deleted_vir 0x9d0189a8            0xc          12   
.text.abs               0x9d0189b4            0xc          12   
.text._Exit             0x9d0189c0            0xc          12   
.text._ZSt16generic_cat 0x9d0189cc            0xc          12   
.text._ZSt17iostream_ca 0x9d0189d8            0xc          12   
.text._ZSt15system_cate 0x9d0189e4            0xc          12   
.text.localeconv        0x9d0189f0            0xc          12   
.text.__cxa_get_excepti 0x9d0189fc            0x8           8   
.rodata                 0x9d018a04            0x8           8  Read-only const 
.text.getpagesize       0x9d018a0c            0x8           8   
.text._ZNKSt9type_info1 0x9d018a14            0x4           4   
.text._ZNKSt9type_info1 0x9d018a18            0x4           4   
.text._ZNKSt9type_info1 0x9d018a1c            0x4           4   
.rodata._ZSt7nothrow.no 0x9d018a20            0x4           4   
.text._on_reset         0x9d018a24            0x4           4   
.text._on_bootstrap     0x9d018a28            0x4           4   
.rodata                 0x9d018a2c            0x8           8  Read-only const 
.text._ZdlPvS_          0x9d018a34            0x4           4   
.text.getenv            0x9d018a38            0x4           4   
.rodata                 0x9d018a3c            0x4           4  Read-only const 
.text._exit             0x9d018a40            0x4           4   
.text.isatty            0x9d018a44            0x4           4   
.text.lseek             0x9d018a48            0x4           4   
.text.close             0x9d018a4c            0x4           4   
.text.kill              0x9d018a50            0x4           4   
.text.getpid            0x9d018a54            0x4           4   
      Total kseg0_program_mem used  :     0x18a58      100952  38.5% of 0x40000

kseg0 Boot-Memory Usage
section                    address  length [bytes]      (dec)  Description
-------                 ----------  -------------------------  -----------
         Total kseg0_boot_mem used  :           0           0  

kseg1 Boot-Memory Usage
section                    address  length [bytes]      (dec)  Description
-------                 ----------  -------------------------  -----------
.reset                  0xbfc00000          0x164         356  Reset handler 
.bev_excpt              0xbfc00380            0xc          12  BEV-Exception 
         Total kseg1_boot_mem used  :       0x170         368  31.5% of 0x490
        --------------------------------------------------------------------------
         Total Program Memory used  :     0x18bc8      101320  38.5% of 0x40490
        --------------------------------------------------------------------------


kseg0 Data-Memory Usage
section                    address  length [bytes]      (dec)  Description
-------                 ----------  -------------------------  -----------
.jcr                    0x80000000            0x4           4   
.eh_frame               0x80000004            0x4           4   
.gcc_except_table       0x80000008          0x3a0         928   
.sdata                  0x800003a8            0x8           8  Small init data 
.sbss                   0x800003b0            0xc          12  Small uninit data 
.data                   0x800003bc            0x4           4  Initialized data 
.bss._ZL16emergency_buf 0x800003c0          0x800        2048   
.data                   0x80000bc0          0x30c         780  Initialized data 
.bss                    0x80000ecc          0x404        1028  Uninitialized data 
.data                   0x800012d0          0x380         896  Initialized data 
.bss                    0x80001650          0x144         324  Uninitialized data 
.bss._ZL15dependents_us 0x80001794            0x4           4   
.bss._ZL17dependents_bu 0x80001798          0x100         256   
.data                   0x80001898           0xa8         168  Initialized data 
.bss                    0x80001940           0x68         104  Uninitialized data 
.data                   0x800019a8           0x60          96  Initialized data 
.bss                    0x80001a08           0x50          80  Uninitialized data 
.data                   0x80001a58           0x50          80  Initialized data 
.bss                    0x80001aa8           0x8c         140  Uninitialized data 
.bss                    0x80001b34           0x88         136  Uninitialized data 
.bss                    0x80001bbc           0x24          36  Uninitialized data 
.data                   0x80001be0           0x24          36  Initialized data 
.bss                    0x80001c04           0x44          68  Uninitialized data 
.bss                    0x80001c48           0x3c          60  Uninitialized data 
.bss                    0x80001c84           0x10          16  Uninitialized data 
.data                   0x80001c94            0xc          12  Initialized data 
.bss                    0x80001ca0            0xc          12  Uninitialized data 
.bss._ZL10eh_globals.eh 0x80001cac            0x8           8   
.gnu.linkonce.b._ZZNSt1 0x80001cb4            0x8           8   
.bss._ZL14emergency_use 0x80001cbc            0x4           4   
.gnu.linkonce.b._ZGVNSt 0x80001cc0            0x8           8   
.gnu.linkonce.b._ZZNSt1 0x80001cc8            0x8           8   
.bss                    0x80001cd0           0x10          16  Uninitialized data 
.bss                    0x80001ce0           0x10          16  Uninitialized data 
.bss                    0x80001cf0            0x8           8  Uninitialized data 
.data._ZN10__cxxabiv120 0x80001cf8            0x4           4   
.data._ZN10__cxxabiv119 0x80001cfc            0x4           4   
.bss.__new_handler.__ne 0x80001d00            0x4           4   
.bss                    0x80001d04            0x4           4  Uninitialized data 
.gnu.linkonce.b._ZNSt9_ 0x80001d08            0x4           4   
.gnu.linkonce.b._ZNSt7c 0x80001d0c            0x4           4   
.gnu.linkonce.b._ZNSt9_ 0x80001d10            0x4           4   
.data                   0x80001d14            0x4           4  Initialized data 
.gnu.linkonce.b._ZNSt9_ 0x80001d18            0x4           4   
.gnu.linkonce.b._ZNSt9_ 0x80001d1c            0x4           4   
.data                   0x80001d20            0x8           8  Initialized data 
.bss                    0x80001d28            0x4           4  Uninitialized data 
.data                   0x80001d2c            0x4           4  Initialized data 
.bss                    0x80001d30            0x4           4  Uninitialized data 
.data                   0x80001d34            0x4           4  Initialized data 
.bss                    0x80001d38            0x4           4  Uninitialized data 
.data                   0x80001d3c            0x4           4  Initialized data 
.bss                    0x80001d40            0x4           4  Uninitialized data 
.data                   0x80001d44            0x4           4  Initialized data 
.bss                    0x80001d48            0x8           8  Uninitialized data 
.bss.errno              0x80001d50            0x4           4   
.data                   0x80001d54            0x4           4  Initialized data 
.bss                    0x80001d58            0x2           2  Uninitialized data 
.data                   0x80001d5a            0x2           2  Initialized data 
         Total kseg0_data_mem used  :      0x1d5c        7516  22.9% of 0x8000
        --------------------------------------------------------------------------
            Total Data Memory used  :      0x1d5c        7516  22.9% of 0x8000
        --------------------------------------------------------------------------


Dynamic Data-Memory Reservation
section                    address  length [bytes]      (dec)  Description
-------                 ----------  -------------------------  -----------
heap                    0x80001d60           0x10          16  Reserved for heap 
stack                   0x80001d88         0x6268       25192  Reserved for stack 

        --------------------------------------------------------------------------

Discarded input sections

 .reginfo       0x00000000       0x18 d:/program files/microchip/xc32/v2.50/bin/bin/../../lib/gcc/pic32mx/4.8.3/micromips/crtbegin.o
 .reginfo       0x00000000       0x18 build/default/production/main.o
 .reginfo       0x00000000       0x18 d:/program files/microchip/xc32/v2.50/bin/bin/../../lib/gcc/pic32mx/4.8.3/../../../../pic32mx/lib/micromips\libsupc++.a(class_type_info.o)
 .reginfo       0x00000000       0x18 d:/program files/microchip/xc32/v2.50/bin/bin/../../lib/gcc/pic32mx/4.8.3/../../../../pic32mx/lib/micromips\libsupc++.a(del_op.o)
 .reginfo       0x00000000       0x18 d:/program files/microchip/xc32/v2.50/bin/bin/../../lib/gcc/pic32mx/4.8.3/../../../../pic32mx/lib/micromips\libsupc++.a(eh_alloc.o)
 .reginfo       0x00000000       0x18 d:/program files/microchip/xc32/v2.50/bin/bin/../../lib/gcc/pic32mx/4.8.3/../../../../pic32mx/lib/micromips\libsupc++.a(eh_catch.o)
 .reginfo       0x00000000       0x18 d:/program files/microchip/xc32/v2.50/bin/bin/../../lib/gcc/pic32mx/4.8.3/../../../../pic32mx/lib/micromips\libsupc++.a(eh_exception.o)
 .reginfo       0x00000000       0x18 d:/program files/microchip/xc32/v2.50/bin/bin/../../lib/gcc/pic32mx/4.8.3/../../../../pic32mx/lib/micromips\libsupc++.a(eh_globals.o)
 .reginfo       0x00000000       0x18 d:/program files/microchip/xc32/v2.50/bin/bin/../../lib/gcc/pic32mx/4.8.3/../../../../pic32mx/lib/micromips\libsupc++.a(eh_personality.o)
 .reginfo       0x00000000       0x18 d:/program files/microchip/xc32/v2.50/bin/bin/../../lib/gcc/pic32mx/4.8.3/../../../../pic32mx/lib/micromips\libsupc++.a(eh_terminate.o)
 .reginfo       0x00000000       0x18 d:/program files/microchip/xc32/v2.50/bin/bin/../../lib/gcc/pic32mx/4.8.3/../../../../pic32mx/lib/micromips\libsupc++.a(eh_throw.o)
 .reginfo       0x00000000       0x18 d:/program files/microchip/xc32/v2.50/bin/bin/../../lib/gcc/pic32mx/4.8.3/../../../../pic32mx/lib/micromips\libsupc++.a(eh_unex_handler.o)
 .reginfo       0x00000000       0x18 d:/program files/microchip/xc32/v2.50/bin/bin/../../lib/gcc/pic32mx/4.8.3/../../../../pic32mx/lib/micromips\libsupc++.a(new_op.o)
 .reginfo       0x00000000       0x18 d:/program files/microchip/xc32/v2.50/bin/bin/../../lib/gcc/pic32mx/4.8.3/../../../../pic32mx/lib/micromips\libsupc++.a(si_class_type_info.o)
 .reginfo       0x00000000       0x18 d:/program files/microchip/xc32/v2.50/bin/bin/../../lib/gcc/pic32mx/4.8.3/../../../../pic32mx/lib/micromips\libsupc++.a(tinfo.o)
 .reginfo       0x00000000       0x18 d:/program files/microchip/xc32/v2.50/bin/bin/../../lib/gcc/pic32mx/4.8.3/../../../../pic32mx/lib/micromips\libsupc++.a(pure.o)
 .reginfo       0x00000000       0x18 d:/program files/microchip/xc32/v2.50/bin/bin/../../lib/gcc/pic32mx/4.8.3/../../../../pic32mx/lib/micromips\libsupc++.a(eh_call.o)
 .reginfo       0x00000000       0x18 d:/program files/microchip/xc32/v2.50/bin/bin/../../lib/gcc/pic32mx/4.8.3/../../../../pic32mx/lib/micromips\libsupc++.a(eh_term_handler.o)
 .reginfo       0x00000000       0x18 d:/program files/microchip/xc32/v2.50/bin/bin/../../lib/gcc/pic32mx/4.8.3/../../../../pic32mx/lib/micromips\libsupc++.a(new_handler.o)
 .reginfo       0x00000000       0x18 C:\Users\hoang\AppData\Local\Temp\ccMoW1mQ.o
 .reginfo       0x00000000       0x18 C:\Users\hoang\AppData\Local\Temp\cclKKak0.o
 .reginfo       0x00000000       0x18 C:\Users\hoang\AppData\Local\Temp\ccFXkMDy.o
 .discard       0x00000000      0x198 C:\Users\hoang\AppData\Local\Temp\ccFXkMDy.o
 .reginfo       0x00000000       0x18 d:/program files/microchip/xc32/v2.50/bin/bin/../../lib/gcc/pic32mx/4.8.3/../../../../pic32mx/lib/micromips\pic32_software_reset-mm.o
 .reginfo       0x00000000       0x18 d:/program files/microchip/xc32/v2.50/bin/bin/../../lib/gcc/pic32mx/4.8.3/micromips\libgcc.a(unwind-sjlj.o)
 .reginfo       0x00000000       0x18 d:/program files/microchip/xc32/v2.50/bin/bin/../../lib/gcc/pic32mx/4.8.3/../../../../pic32mx/lib/micromips\libpic32.a(memcpy.o)
 .reginfo       0x00000000       0x18 d:/program files/microchip/xc32/v2.50/bin/bin/../../lib/gcc/pic32mx/4.8.3/../../../../pic32mx/lib/micromips\libpic32.a(memset.o)
 .reginfo       0x00000000       0x18 d:/program files/microchip/xc32/v2.50/bin/bin/../../lib/gcc/pic32mx/4.8.3/../../../../pic32mx/lib/micromips\libpic32.a(strcmp.o)
 .reginfo       0x00000000       0x18 d:/program files/microchip/xc32/v2.50/bin/bin/../../lib/gcc/pic32mx/4.8.3/../../../../pic32mx/lib/micromips\libpic32.a(strlen.o)
 .reginfo       0x00000000       0x18 d:/program files/microchip/xc32/v2.50/bin/bin/../../lib/gcc/pic32mx/4.8.3/../../../../pic32mx/lib/micromips\libpic32.a(default-bootstrap-exception-handler.o)
 .reginfo       0x00000000       0x18 d:/program files/microchip/xc32/v2.50/bin/bin/../../lib/gcc/pic32mx/4.8.3/../../../../pic32mx/lib/micromips\libpic32.a(default-on-reset.o)
 .reginfo       0x00000000       0x18 d:/program files/microchip/xc32/v2.50/bin/bin/../../lib/gcc/pic32mx/4.8.3/../../../../pic32mx/lib/micromips\libpic32.a(default-on-bootstrap.o)
 .reginfo       0x00000000       0x18 d:/program files/microchip/xc32/v2.50/bin/bin/../../lib/gcc/pic32mx/4.8.3/../../../../pic32mx/lib/micromips\libpic32.a(default-nmi-handler.o)
 .reginfo       0x00000000       0x18 d:/program files/microchip/xc32/v2.50/bin/bin/../../lib/gcc/pic32mx/4.8.3/../../../../pic32mx/lib/micromips\libpic32.a(pic32_data_init.o)
 .reginfo       0x00000000       0x18 d:/program files/microchip/xc32/v2.50/bin/bin/../../lib/gcc/pic32mx/4.8.3/../../../../pic32mx/lib/micromips\libpic32.a(general-exception.o)
 .reginfo       0x00000000       0x18 d:/program files/microchip/xc32/v2.50/bin/bin/../../lib/gcc/pic32mx/4.8.3/../../../../pic32mx/lib/micromips\libpic32.a(vector0.o)
 .reginfo       0x00000000       0x18 d:/program files/microchip/xc32/v2.50/bin/bin/../../lib/gcc/pic32mx/4.8.3/../../../../pic32mx/lib/micromips\libpic32.a(vector1.o)
 .reginfo       0x00000000       0x18 d:/program files/microchip/xc32/v2.50/bin/bin/../../lib/gcc/pic32mx/4.8.3/../../../../pic32mx/lib/micromips\libpic32.a(vector2.o)
 .reginfo       0x00000000       0x18 d:/program files/microchip/xc32/v2.50/bin/bin/../../lib/gcc/pic32mx/4.8.3/../../../../pic32mx/lib/micromips\libpic32.a(vector3.o)
 .reginfo       0x00000000       0x18 d:/program files/microchip/xc32/v2.50/bin/bin/../../lib/gcc/pic32mx/4.8.3/../../../../pic32mx/lib/micromips\libpic32.a(vector4.o)
 .reginfo       0x00000000       0x18 d:/program files/microchip/xc32/v2.50/bin/bin/../../lib/gcc/pic32mx/4.8.3/../../../../pic32mx/lib/micromips\libpic32.a(vector5.o)
 .reginfo       0x00000000       0x18 d:/program files/microchip/xc32/v2.50/bin/bin/../../lib/gcc/pic32mx/4.8.3/../../../../pic32mx/lib/micromips\libpic32.a(vector6.o)
 .reginfo       0x00000000       0x18 d:/program files/microchip/xc32/v2.50/bin/bin/../../lib/gcc/pic32mx/4.8.3/../../../../pic32mx/lib/micromips\libpic32.a(vector7.o)
 .reginfo       0x00000000       0x18 d:/program files/microchip/xc32/v2.50/bin/bin/../../lib/gcc/pic32mx/4.8.3/../../../../pic32mx/lib/micromips\libpic32.a(vector8.o)
 .reginfo       0x00000000       0x18 d:/program files/microchip/xc32/v2.50/bin/bin/../../lib/gcc/pic32mx/4.8.3/../../../../pic32mx/lib/micromips\libpic32.a(vector9.o)
 .reginfo       0x00000000       0x18 d:/program files/microchip/xc32/v2.50/bin/bin/../../lib/gcc/pic32mx/4.8.3/../../../../pic32mx/lib/micromips\libpic32.a(vector10.o)
 .reginfo       0x00000000       0x18 d:/program files/microchip/xc32/v2.50/bin/bin/../../lib/gcc/pic32mx/4.8.3/../../../../pic32mx/lib/micromips\libpic32.a(vector11.o)
 .reginfo       0x00000000       0x18 d:/program files/microchip/xc32/v2.50/bin/bin/../../lib/gcc/pic32mx/4.8.3/../../../../pic32mx/lib/micromips\libpic32.a(vector12.o)
 .reginfo       0x00000000       0x18 d:/program files/microchip/xc32/v2.50/bin/bin/../../lib/gcc/pic32mx/4.8.3/../../../../pic32mx/lib/micromips\libpic32.a(vector13.o)
 .reginfo       0x00000000       0x18 d:/program files/microchip/xc32/v2.50/bin/bin/../../lib/gcc/pic32mx/4.8.3/../../../../pic32mx/lib/micromips\libpic32.a(vector14.o)
 .reginfo       0x00000000       0x18 d:/program files/microchip/xc32/v2.50/bin/bin/../../lib/gcc/pic32mx/4.8.3/../../../../pic32mx/lib/micromips\libpic32.a(vector15.o)
 .reginfo       0x00000000       0x18 d:/program files/microchip/xc32/v2.50/bin/bin/../../lib/gcc/pic32mx/4.8.3/../../../../pic32mx/lib/micromips\libpic32.a(vector16.o)
 .reginfo       0x00000000       0x18 d:/program files/microchip/xc32/v2.50/bin/bin/../../lib/gcc/pic32mx/4.8.3/../../../../pic32mx/lib/micromips\libpic32.a(vector17.o)
 .reginfo       0x00000000       0x18 d:/program files/microchip/xc32/v2.50/bin/bin/../../lib/gcc/pic32mx/4.8.3/../../../../pic32mx/lib/micromips\libpic32.a(vector18.o)
 .reginfo       0x00000000       0x18 d:/program files/microchip/xc32/v2.50/bin/bin/../../lib/gcc/pic32mx/4.8.3/../../../../pic32mx/lib/micromips\libpic32.a(vector19.o)
 .reginfo       0x00000000       0x18 d:/program files/microchip/xc32/v2.50/bin/bin/../../lib/gcc/pic32mx/4.8.3/../../../../pic32mx/lib/micromips\libpic32.a(vector20.o)
 .reginfo       0x00000000       0x18 d:/program files/microchip/xc32/v2.50/bin/bin/../../lib/gcc/pic32mx/4.8.3/../../../../pic32mx/lib/micromips\libpic32.a(vector21.o)
 .reginfo       0x00000000       0x18 d:/program files/microchip/xc32/v2.50/bin/bin/../../lib/gcc/pic32mx/4.8.3/../../../../pic32mx/lib/micromips\libpic32.a(vector22.o)
 .reginfo       0x00000000       0x18 d:/program files/microchip/xc32/v2.50/bin/bin/../../lib/gcc/pic32mx/4.8.3/../../../../pic32mx/lib/micromips\libpic32.a(vector23.o)
 .reginfo       0x00000000       0x18 d:/program files/microchip/xc32/v2.50/bin/bin/../../lib/gcc/pic32mx/4.8.3/../../../../pic32mx/lib/micromips\libpic32.a(vector24.o)
 .reginfo       0x00000000       0x18 d:/program files/microchip/xc32/v2.50/bin/bin/../../lib/gcc/pic32mx/4.8.3/../../../../pic32mx/lib/micromips\libpic32.a(vector25.o)
 .reginfo       0x00000000       0x18 d:/program files/microchip/xc32/v2.50/bin/bin/../../lib/gcc/pic32mx/4.8.3/../../../../pic32mx/lib/micromips\libpic32.a(vector26.o)
 .reginfo       0x00000000       0x18 d:/program files/microchip/xc32/v2.50/bin/bin/../../lib/gcc/pic32mx/4.8.3/../../../../pic32mx/lib/micromips\libpic32.a(vector27.o)
 .reginfo       0x00000000       0x18 d:/program files/microchip/xc32/v2.50/bin/bin/../../lib/gcc/pic32mx/4.8.3/../../../../pic32mx/lib/micromips\libpic32.a(vector28.o)
 .reginfo       0x00000000       0x18 d:/program files/microchip/xc32/v2.50/bin/bin/../../lib/gcc/pic32mx/4.8.3/../../../../pic32mx/lib/micromips\libpic32.a(vector29.o)
 .reginfo       0x00000000       0x18 d:/program files/microchip/xc32/v2.50/bin/bin/../../lib/gcc/pic32mx/4.8.3/../../../../pic32mx/lib/micromips\libpic32.a(vector30.o)
 .reginfo       0x00000000       0x18 d:/program files/microchip/xc32/v2.50/bin/bin/../../lib/gcc/pic32mx/4.8.3/../../../../pic32mx/lib/micromips\libpic32.a(vector31.o)
 .reginfo       0x00000000       0x18 d:/program files/microchip/xc32/v2.50/bin/bin/../../lib/gcc/pic32mx/4.8.3/../../../../pic32mx/lib/micromips\libpic32.a(vector32.o)
 .reginfo       0x00000000       0x18 d:/program files/microchip/xc32/v2.50/bin/bin/../../lib/gcc/pic32mx/4.8.3/../../../../pic32mx/lib/micromips\libpic32.a(vector33.o)
 .reginfo       0x00000000       0x18 d:/program files/microchip/xc32/v2.50/bin/bin/../../lib/gcc/pic32mx/4.8.3/../../../../pic32mx/lib/micromips\libpic32.a(vector34.o)
 .reginfo       0x00000000       0x18 d:/program files/microchip/xc32/v2.50/bin/bin/../../lib/gcc/pic32mx/4.8.3/../../../../pic32mx/lib/micromips\libpic32.a(vector35.o)
 .reginfo       0x00000000       0x18 d:/program files/microchip/xc32/v2.50/bin/bin/../../lib/gcc/pic32mx/4.8.3/../../../../pic32mx/lib/micromips\libpic32.a(vector36.o)
 .reginfo       0x00000000       0x18 d:/program files/microchip/xc32/v2.50/bin/bin/../../lib/gcc/pic32mx/4.8.3/../../../../pic32mx/lib/micromips\libpic32.a(vector37.o)
 .reginfo       0x00000000       0x18 d:/program files/microchip/xc32/v2.50/bin/bin/../../lib/gcc/pic32mx/4.8.3/../../../../pic32mx/lib/micromips\libpic32.a(vector38.o)
 .reginfo       0x00000000       0x18 d:/program files/microchip/xc32/v2.50/bin/bin/../../lib/gcc/pic32mx/4.8.3/../../../../pic32mx/lib/micromips\libpic32.a(vector39.o)
 .reginfo       0x00000000       0x18 d:/program files/microchip/xc32/v2.50/bin/bin/../../lib/gcc/pic32mx/4.8.3/../../../../pic32mx/lib/micromips\libpic32.a(vector40.o)
 .reginfo       0x00000000       0x18 d:/program files/microchip/xc32/v2.50/bin/bin/../../lib/gcc/pic32mx/4.8.3/../../../../pic32mx/lib/micromips\libpic32.a(vector41.o)
 .reginfo       0x00000000       0x18 d:/program files/microchip/xc32/v2.50/bin/bin/../../lib/gcc/pic32mx/4.8.3/../../../../pic32mx/lib/micromips\libpic32.a(vector42.o)
 .reginfo       0x00000000       0x18 d:/program files/microchip/xc32/v2.50/bin/bin/../../lib/gcc/pic32mx/4.8.3/../../../../pic32mx/lib/micromips\libpic32.a(vector43.o)
 .reginfo       0x00000000       0x18 d:/program files/microchip/xc32/v2.50/bin/bin/../../lib/gcc/pic32mx/4.8.3/../../../../pic32mx/lib/micromips\libpic32.a(vector44.o)
 .reginfo       0x00000000       0x18 d:/program files/microchip/xc32/v2.50/bin/bin/../../lib/gcc/pic32mx/4.8.3/../../../../pic32mx/lib/micromips\libpic32.a(vector45.o)
 .reginfo       0x00000000       0x18 d:/program files/microchip/xc32/v2.50/bin/bin/../../lib/gcc/pic32mx/4.8.3/../../../../pic32mx/lib/micromips\libpic32.a(vector46.o)
 .reginfo       0x00000000       0x18 d:/program files/microchip/xc32/v2.50/bin/bin/../../lib/gcc/pic32mx/4.8.3/../../../../pic32mx/lib/micromips\libpic32.a(vector47.o)
 .reginfo       0x00000000       0x18 d:/program files/microchip/xc32/v2.50/bin/bin/../../lib/gcc/pic32mx/4.8.3/../../../../pic32mx/lib/micromips\libpic32.a(vector48.o)
 .reginfo       0x00000000       0x18 d:/program files/microchip/xc32/v2.50/bin/bin/../../lib/gcc/pic32mx/4.8.3/../../../../pic32mx/lib/micromips\libpic32.a(vector49.o)
 .reginfo       0x00000000       0x18 d:/program files/microchip/xc32/v2.50/bin/bin/../../lib/gcc/pic32mx/4.8.3/../../../../pic32mx/lib/micromips\libpic32.a(vector50.o)
 .reginfo       0x00000000       0x18 d:/program files/microchip/xc32/v2.50/bin/bin/../../lib/gcc/pic32mx/4.8.3/../../../../pic32mx/lib/micromips\libpic32.a(vector51.o)
 .reginfo       0x00000000       0x18 d:/program files/microchip/xc32/v2.50/bin/bin/../../lib/gcc/pic32mx/4.8.3/../../../../pic32mx/lib/micromips\libpic32.a(vector52.o)
 .reginfo       0x00000000       0x18 d:/program files/microchip/xc32/v2.50/bin/bin/../../lib/gcc/pic32mx/4.8.3/../../../../pic32mx/lib/micromips\libpic32.a(vector53.o)
 .reginfo       0x00000000       0x18 d:/program files/microchip/xc32/v2.50/bin/bin/../../lib/gcc/pic32mx/4.8.3/../../../../pic32mx/lib/micromips\libpic32.a(vector54.o)
 .reginfo       0x00000000       0x18 d:/program files/microchip/xc32/v2.50/bin/bin/../../lib/gcc/pic32mx/4.8.3/../../../../pic32mx/lib/micromips\libpic32.a(vector55.o)
 .reginfo       0x00000000       0x18 d:/program files/microchip/xc32/v2.50/bin/bin/../../lib/gcc/pic32mx/4.8.3/../../../../pic32mx/lib/micromips\libpic32.a(vector56.o)
 .reginfo       0x00000000       0x18 d:/program files/microchip/xc32/v2.50/bin/bin/../../lib/gcc/pic32mx/4.8.3/../../../../pic32mx/lib/micromips\libpic32.a(vector57.o)
 .reginfo       0x00000000       0x18 d:/program files/microchip/xc32/v2.50/bin/bin/../../lib/gcc/pic32mx/4.8.3/../../../../pic32mx/lib/micromips\libpic32.a(vector58.o)
 .reginfo       0x00000000       0x18 d:/program files/microchip/xc32/v2.50/bin/bin/../../lib/gcc/pic32mx/4.8.3/../../../../pic32mx/lib/micromips\libpic32.a(vector59.o)
 .reginfo       0x00000000       0x18 d:/program files/microchip/xc32/v2.50/bin/bin/../../lib/gcc/pic32mx/4.8.3/../../../../pic32mx/lib/micromips\libpic32.a(vector60.o)
 .reginfo       0x00000000       0x18 d:/program files/microchip/xc32/v2.50/bin/bin/../../lib/gcc/pic32mx/4.8.3/../../../../pic32mx/lib/micromips\libpic32.a(vector61.o)
 .reginfo       0x00000000       0x18 d:/program files/microchip/xc32/v2.50/bin/bin/../../lib/gcc/pic32mx/4.8.3/../../../../pic32mx/lib/micromips\libpic32.a(vector62.o)
 .reginfo       0x00000000       0x18 d:/program files/microchip/xc32/v2.50/bin/bin/../../lib/gcc/pic32mx/4.8.3/../../../../pic32mx/lib/micromips\libpic32.a(vector63.o)
 .reginfo       0x00000000       0x18 d:/program files/microchip/xc32/v2.50/bin/bin/../../lib/gcc/pic32mx/4.8.3/../../../../pic32mx/lib/micromips\libpic32.a(vector64.o)
 .reginfo       0x00000000       0x18 d:/program files/microchip/xc32/v2.50/bin/bin/../../lib/gcc/pic32mx/4.8.3/../../../../pic32mx/lib/micromips\libpic32.a(vector65.o)
 .reginfo       0x00000000       0x18 d:/program files/microchip/xc32/v2.50/bin/bin/../../lib/gcc/pic32mx/4.8.3/../../../../pic32mx/lib/micromips\libpic32.a(vector66.o)
 .reginfo       0x00000000       0x18 d:/program files/microchip/xc32/v2.50/bin/bin/../../lib/gcc/pic32mx/4.8.3/../../../../pic32mx/lib/micromips\libpic32.a(vector67.o)
 .reginfo       0x00000000       0x18 d:/program files/microchip/xc32/v2.50/bin/bin/../../lib/gcc/pic32mx/4.8.3/../../../../pic32mx/lib/micromips\libpic32.a(vector68.o)
 .reginfo       0x00000000       0x18 d:/program files/microchip/xc32/v2.50/bin/bin/../../lib/gcc/pic32mx/4.8.3/../../../../pic32mx/lib/micromips\libpic32.a(vector69.o)
 .reginfo       0x00000000       0x18 d:/program files/microchip/xc32/v2.50/bin/bin/../../lib/gcc/pic32mx/4.8.3/../../../../pic32mx/lib/micromips\libpic32.a(vector70.o)
 .reginfo       0x00000000       0x18 d:/program files/microchip/xc32/v2.50/bin/bin/../../lib/gcc/pic32mx/4.8.3/../../../../pic32mx/lib/micromips\libpic32.a(vector71.o)
 .reginfo       0x00000000       0x18 d:/program files/microchip/xc32/v2.50/bin/bin/../../lib/gcc/pic32mx/4.8.3/../../../../pic32mx/lib/micromips\libpic32.a(vector72.o)
 .reginfo       0x00000000       0x18 d:/program files/microchip/xc32/v2.50/bin/bin/../../lib/gcc/pic32mx/4.8.3/../../../../pic32mx/lib/micromips\libpic32.a(vector73.o)
 .reginfo       0x00000000       0x18 d:/program files/microchip/xc32/v2.50/bin/bin/../../lib/gcc/pic32mx/4.8.3/../../../../pic32mx/lib/micromips\libpic32.a(vector74.o)
 .reginfo       0x00000000       0x18 d:/program files/microchip/xc32/v2.50/bin/bin/../../lib/gcc/pic32mx/4.8.3/../../../../pic32mx/lib/micromips\libpic32.a(vector75.o)
 .reginfo       0x00000000       0x18 d:/program files/microchip/xc32/v2.50/bin/bin/../../lib/gcc/pic32mx/4.8.3/../../../../pic32mx/lib/micromips\libpic32.a(vector76.o)
 .reginfo       0x00000000       0x18 d:/program files/microchip/xc32/v2.50/bin/bin/../../lib/gcc/pic32mx/4.8.3/../../../../pic32mx/lib/micromips\libpic32.a(vector77.o)
 .reginfo       0x00000000       0x18 d:/program files/microchip/xc32/v2.50/bin/bin/../../lib/gcc/pic32mx/4.8.3/../../../../pic32mx/lib/micromips\libpic32.a(vector78.o)
 .reginfo       0x00000000       0x18 d:/program files/microchip/xc32/v2.50/bin/bin/../../lib/gcc/pic32mx/4.8.3/../../../../pic32mx/lib/micromips\libpic32.a(vector79.o)
 .reginfo       0x00000000       0x18 d:/program files/microchip/xc32/v2.50/bin/bin/../../lib/gcc/pic32mx/4.8.3/../../../../pic32mx/lib/micromips\libpic32.a(vector80.o)
 .reginfo       0x00000000       0x18 d:/program files/microchip/xc32/v2.50/bin/bin/../../lib/gcc/pic32mx/4.8.3/../../../../pic32mx/lib/micromips\libpic32.a(vector81.o)
 .reginfo       0x00000000       0x18 d:/program files/microchip/xc32/v2.50/bin/bin/../../lib/gcc/pic32mx/4.8.3/../../../../pic32mx/lib/micromips\libpic32.a(vector82.o)
 .reginfo       0x00000000       0x18 d:/program files/microchip/xc32/v2.50/bin/bin/../../lib/gcc/pic32mx/4.8.3/../../../../pic32mx/lib/micromips\libpic32.a(vector83.o)
 .reginfo       0x00000000       0x18 d:/program files/microchip/xc32/v2.50/bin/bin/../../lib/gcc/pic32mx/4.8.3/../../../../pic32mx/lib/micromips\libpic32.a(vector84.o)
 .reginfo       0x00000000       0x18 d:/program files/microchip/xc32/v2.50/bin/bin/../../lib/gcc/pic32mx/4.8.3/../../../../pic32mx/lib/micromips\libpic32.a(vector85.o)
 .reginfo       0x00000000       0x18 d:/program files/microchip/xc32/v2.50/bin/bin/../../lib/gcc/pic32mx/4.8.3/../../../../pic32mx/lib/micromips\libpic32.a(vector86.o)
 .reginfo       0x00000000       0x18 d:/program files/microchip/xc32/v2.50/bin/bin/../../lib/gcc/pic32mx/4.8.3/../../../../pic32mx/lib/micromips\libpic32.a(vector87.o)
 .reginfo       0x00000000       0x18 d:/program files/microchip/xc32/v2.50/bin/bin/../../lib/gcc/pic32mx/4.8.3/../../../../pic32mx/lib/micromips\libpic32.a(vector88.o)
 .reginfo       0x00000000       0x18 d:/program files/microchip/xc32/v2.50/bin/bin/../../lib/gcc/pic32mx/4.8.3/../../../../pic32mx/lib/micromips\libpic32.a(vector89.o)
 .reginfo       0x00000000       0x18 d:/program files/microchip/xc32/v2.50/bin/bin/../../lib/gcc/pic32mx/4.8.3/../../../../pic32mx/lib/micromips\libpic32.a(vector90.o)
 .reginfo       0x00000000       0x18 d:/program files/microchip/xc32/v2.50/bin/bin/../../lib/gcc/pic32mx/4.8.3/../../../../pic32mx/lib/micromips\libpic32.a(vector91.o)
 .reginfo       0x00000000       0x18 d:/program files/microchip/xc32/v2.50/bin/bin/../../lib/gcc/pic32mx/4.8.3/../../../../pic32mx/lib/micromips\libpic32.a(vector92.o)
 .reginfo       0x00000000       0x18 d:/program files/microchip/xc32/v2.50/bin/bin/../../lib/gcc/pic32mx/4.8.3/../../../../pic32mx/lib/micromips\libpic32.a(vector93.o)
 .reginfo       0x00000000       0x18 d:/program files/microchip/xc32/v2.50/bin/bin/../../lib/gcc/pic32mx/4.8.3/../../../../pic32mx/lib/micromips\libpic32.a(vector94.o)
 .reginfo       0x00000000       0x18 d:/program files/microchip/xc32/v2.50/bin/bin/../../lib/gcc/pic32mx/4.8.3/../../../../pic32mx/lib/micromips\libpic32.a(vector95.o)
 .reginfo       0x00000000       0x18 d:/program files/microchip/xc32/v2.50/bin/bin/../../lib/gcc/pic32mx/4.8.3/../../../../pic32mx/lib/micromips\libpic32.a(vector96.o)
 .reginfo       0x00000000       0x18 d:/program files/microchip/xc32/v2.50/bin/bin/../../lib/gcc/pic32mx/4.8.3/../../../../pic32mx/lib/micromips\libpic32.a(vector97.o)
 .reginfo       0x00000000       0x18 d:/program files/microchip/xc32/v2.50/bin/bin/../../lib/gcc/pic32mx/4.8.3/../../../../pic32mx/lib/micromips\libpic32.a(vector98.o)
 .reginfo       0x00000000       0x18 d:/program files/microchip/xc32/v2.50/bin/bin/../../lib/gcc/pic32mx/4.8.3/../../../../pic32mx/lib/micromips\libpic32.a(vector99.o)
 .reginfo       0x00000000       0x18 d:/program files/microchip/xc32/v2.50/bin/bin/../../lib/gcc/pic32mx/4.8.3/../../../../pic32mx/lib/micromips\libpic32.a(vector100.o)
 .reginfo       0x00000000       0x18 d:/program files/microchip/xc32/v2.50/bin/bin/../../lib/gcc/pic32mx/4.8.3/../../../../pic32mx/lib/micromips\libpic32.a(vector101.o)
 .reginfo       0x00000000       0x18 d:/program files/microchip/xc32/v2.50/bin/bin/../../lib/gcc/pic32mx/4.8.3/../../../../pic32mx/lib/micromips\libpic32.a(default-general-exception-handler.o)
 .reginfo       0x00000000       0x18 d:/program files/microchip/xc32/v2.50/bin/bin/../../lib/gcc/pic32mx/4.8.3/../../../../pic32mx/lib/micromips\libpic32.a(defaultinterrupt.o)
 .reginfo       0x00000000       0x18 d:/program files/microchip/xc32/v2.50/bin/bin/../../lib/gcc/pic32mx/4.8.3/../../../../pic32mx/lib/micromips\libxcpp.a(iostream.o)
 .gnu.linkonce.t._ZNKSt9bad_alloc4whatEv
                0x00000000        0xc d:/program files/microchip/xc32/v2.50/bin/bin/../../lib/gcc/pic32mx/4.8.3/../../../../pic32mx/lib/micromips\libxcpp.a(iostream.o)
 .gnu.linkonce.t._ZNKSt13runtime_error4whatEv
                0x00000000       0x10 d:/program files/microchip/xc32/v2.50/bin/bin/../../lib/gcc/pic32mx/4.8.3/../../../../pic32mx/lib/micromips\libxcpp.a(iostream.o)
 .gnu.linkonce.t._ZNSt14error_categoryD1Ev
                0x00000000        0xc d:/program files/microchip/xc32/v2.50/bin/bin/../../lib/gcc/pic32mx/4.8.3/../../../../pic32mx/lib/micromips\libxcpp.a(iostream.o)
 .gnu.linkonce.t._ZNKSt14error_category23default_error_conditionEi
                0x00000000        0x8 d:/program files/microchip/xc32/v2.50/bin/bin/../../lib/gcc/pic32mx/4.8.3/../../../../pic32mx/lib/micromips\libxcpp.a(iostream.o)
 .gnu.linkonce.t._ZNKSt14error_category10equivalentEiRKSt15error_condition
                0x00000000       0x38 d:/program files/microchip/xc32/v2.50/bin/bin/../../lib/gcc/pic32mx/4.8.3/../../../../pic32mx/lib/micromips\libxcpp.a(iostream.o)
 .gnu.linkonce.t._ZNKSt14error_category10equivalentERKSt10error_codei
                0x00000000       0x14 d:/program files/microchip/xc32/v2.50/bin/bin/../../lib/gcc/pic32mx/4.8.3/../../../../pic32mx/lib/micromips\libxcpp.a(iostream.o)
 .gnu.linkonce.t._ZNSt9bad_allocD1Ev
                0x00000000       0x1c d:/program files/microchip/xc32/v2.50/bin/bin/../../lib/gcc/pic32mx/4.8.3/../../../../pic32mx/lib/micromips\libxcpp.a(iostream.o)
 .gnu.linkonce.t._ZNSt9bad_allocD0Ev
                0x00000000       0x24 d:/program files/microchip/xc32/v2.50/bin/bin/../../lib/gcc/pic32mx/4.8.3/../../../../pic32mx/lib/micromips\libxcpp.a(iostream.o)
 .gnu.linkonce.t._ZNSt14error_categoryD0Ev
                0x00000000       0x1c d:/program files/microchip/xc32/v2.50/bin/bin/../../lib/gcc/pic32mx/4.8.3/../../../../pic32mx/lib/micromips\libxcpp.a(iostream.o)
 .gnu.linkonce.t._ZNSt13runtime_errorD1Ev
                0x00000000       0x38 d:/program files/microchip/xc32/v2.50/bin/bin/../../lib/gcc/pic32mx/4.8.3/../../../../pic32mx/lib/micromips\libxcpp.a(iostream.o)
 .gnu.linkonce.t._ZNSt8ios_base7failureD0Ev
                0x00000000       0x40 d:/program files/microchip/xc32/v2.50/bin/bin/../../lib/gcc/pic32mx/4.8.3/../../../../pic32mx/lib/micromips\libxcpp.a(iostream.o)
 .gnu.linkonce.t._ZNSt13runtime_errorD0Ev
                0x00000000       0x40 d:/program files/microchip/xc32/v2.50/bin/bin/../../lib/gcc/pic32mx/4.8.3/../../../../pic32mx/lib/micromips\libxcpp.a(iostream.o)
 .gnu.linkonce.t._ZNSt12system_errorD1Ev
                0x00000000       0x38 d:/program files/microchip/xc32/v2.50/bin/bin/../../lib/gcc/pic32mx/4.8.3/../../../../pic32mx/lib/micromips\libxcpp.a(iostream.o)
 .gnu.linkonce.t._ZNSt8ios_base7failureD1Ev
                0x00000000       0x38 d:/program files/microchip/xc32/v2.50/bin/bin/../../lib/gcc/pic32mx/4.8.3/../../../../pic32mx/lib/micromips\libxcpp.a(iostream.o)
 .gnu.linkonce.t._ZNSt12system_errorD0Ev
                0x00000000       0x40 d:/program files/microchip/xc32/v2.50/bin/bin/../../lib/gcc/pic32mx/4.8.3/../../../../pic32mx/lib/micromips\libxcpp.a(iostream.o)
 .gnu.linkonce.t._ZNSs5_TidyEbm
                0x00000000       0x40 d:/program files/microchip/xc32/v2.50/bin/bin/../../lib/gcc/pic32mx/4.8.3/../../../../pic32mx/lib/micromips\libxcpp.a(iostream.o)
 .gnu.linkonce.t._ZNSt13runtime_errorC2EPKc
                0x00000000      0x3d8 d:/program files/microchip/xc32/v2.50/bin/bin/../../lib/gcc/pic32mx/4.8.3/../../../../pic32mx/lib/micromips\libxcpp.a(iostream.o)
 .gnu.linkonce.t._ZNSt8ios_base5clearENSt5_IosbIiE8_IostateEb
                0x00000000      0x7a0 d:/program files/microchip/xc32/v2.50/bin/bin/../../lib/gcc/pic32mx/4.8.3/../../../../pic32mx/lib/micromips\libxcpp.a(iostream.o)
 .gnu.linkonce.t._ZNSs5eraseEmm
                0x00000000       0x64 d:/program files/microchip/xc32/v2.50/bin/bin/../../lib/gcc/pic32mx/4.8.3/../../../../pic32mx/lib/micromips\libxcpp.a(iostream.o)
 .gnu.linkonce.t._ZNSs5_CopyEmm
                0x00000000      0x1b8 d:/program files/microchip/xc32/v2.50/bin/bin/../../lib/gcc/pic32mx/4.8.3/../../../../pic32mx/lib/micromips\libxcpp.a(iostream.o)
 .gnu.linkonce.r._ZTISt9bad_alloc
                0x00000000        0xc d:/program files/microchip/xc32/v2.50/bin/bin/../../lib/gcc/pic32mx/4.8.3/../../../../pic32mx/lib/micromips\libxcpp.a(iostream.o)
 .gnu.linkonce.r._ZTSSt9bad_alloc
                0x00000000       0x10 d:/program files/microchip/xc32/v2.50/bin/bin/../../lib/gcc/pic32mx/4.8.3/../../../../pic32mx/lib/micromips\libxcpp.a(iostream.o)
 .gnu.linkonce.r._ZTISt13runtime_error
                0x00000000        0xc d:/program files/microchip/xc32/v2.50/bin/bin/../../lib/gcc/pic32mx/4.8.3/../../../../pic32mx/lib/micromips\libxcpp.a(iostream.o)
 .gnu.linkonce.r._ZTSSt13runtime_error
                0x00000000       0x14 d:/program files/microchip/xc32/v2.50/bin/bin/../../lib/gcc/pic32mx/4.8.3/../../../../pic32mx/lib/micromips\libxcpp.a(iostream.o)
 .gnu.linkonce.r._ZTSSt14error_category
                0x00000000       0x14 d:/program files/microchip/xc32/v2.50/bin/bin/../../lib/gcc/pic32mx/4.8.3/../../../../pic32mx/lib/micromips\libxcpp.a(iostream.o)
 .gnu.linkonce.r._ZTISt14error_category
                0x00000000        0x8 d:/program files/microchip/xc32/v2.50/bin/bin/../../lib/gcc/pic32mx/4.8.3/../../../../pic32mx/lib/micromips\libxcpp.a(iostream.o)
 .gnu.linkonce.r._ZTISt12system_error
                0x00000000        0xc d:/program files/microchip/xc32/v2.50/bin/bin/../../lib/gcc/pic32mx/4.8.3/../../../../pic32mx/lib/micromips\libxcpp.a(iostream.o)
 .gnu.linkonce.r._ZTSSt12system_error
                0x00000000       0x14 d:/program files/microchip/xc32/v2.50/bin/bin/../../lib/gcc/pic32mx/4.8.3/../../../../pic32mx/lib/micromips\libxcpp.a(iostream.o)
 .gnu.linkonce.r._ZTINSt8ios_base7failureE
                0x00000000        0xc d:/program files/microchip/xc32/v2.50/bin/bin/../../lib/gcc/pic32mx/4.8.3/../../../../pic32mx/lib/micromips\libxcpp.a(iostream.o)
 .gnu.linkonce.r._ZTSNSt8ios_base7failureE
                0x00000000       0x18 d:/program files/microchip/xc32/v2.50/bin/bin/../../lib/gcc/pic32mx/4.8.3/../../../../pic32mx/lib/micromips\libxcpp.a(iostream.o)
 .gnu.linkonce.r._ZTVSt9bad_alloc
                0x00000000       0x18 d:/program files/microchip/xc32/v2.50/bin/bin/../../lib/gcc/pic32mx/4.8.3/../../../../pic32mx/lib/micromips\libxcpp.a(iostream.o)
 .gnu.linkonce.r._ZTVSt13runtime_error
                0x00000000       0x18 d:/program files/microchip/xc32/v2.50/bin/bin/../../lib/gcc/pic32mx/4.8.3/../../../../pic32mx/lib/micromips\libxcpp.a(iostream.o)
 .gnu.linkonce.r._ZTVSt14error_category
                0x00000000       0x28 d:/program files/microchip/xc32/v2.50/bin/bin/../../lib/gcc/pic32mx/4.8.3/../../../../pic32mx/lib/micromips\libxcpp.a(iostream.o)
 .gnu.linkonce.r._ZTVSt12system_error
                0x00000000       0x18 d:/program files/microchip/xc32/v2.50/bin/bin/../../lib/gcc/pic32mx/4.8.3/../../../../pic32mx/lib/micromips\libxcpp.a(iostream.o)
 .gnu.linkonce.r._ZTVNSt8ios_base7failureE
                0x00000000       0x18 d:/program files/microchip/xc32/v2.50/bin/bin/../../lib/gcc/pic32mx/4.8.3/../../../../pic32mx/lib/micromips\libxcpp.a(iostream.o)
 .reginfo       0x00000000       0x18 d:/program files/microchip/xc32/v2.50/bin/bin/../../lib/gcc/pic32mx/4.8.3/../../../../pic32mx/lib/micromips\libxcpp.a(xthrow.o)
 .gnu.linkonce.t._ZNKSt9bad_alloc4whatEv
                0x00000000        0xc d:/program files/microchip/xc32/v2.50/bin/bin/../../lib/gcc/pic32mx/4.8.3/../../../../pic32mx/lib/micromips\libxcpp.a(xthrow.o)
 .gnu.linkonce.t._ZNKSt13runtime_error4whatEv
                0x00000000       0x10 d:/program files/microchip/xc32/v2.50/bin/bin/../../lib/gcc/pic32mx/4.8.3/../../../../pic32mx/lib/micromips\libxcpp.a(xthrow.o)
 .gnu.linkonce.t._ZNSt9bad_allocD1Ev
                0x00000000       0x1c d:/program files/microchip/xc32/v2.50/bin/bin/../../lib/gcc/pic32mx/4.8.3/../../../../pic32mx/lib/micromips\libxcpp.a(xthrow.o)
 .gnu.linkonce.t._ZNSt9bad_allocD0Ev
                0x00000000       0x24 d:/program files/microchip/xc32/v2.50/bin/bin/../../lib/gcc/pic32mx/4.8.3/../../../../pic32mx/lib/micromips\libxcpp.a(xthrow.o)
 .gnu.linkonce.t._ZNSt13runtime_errorD1Ev
                0x00000000       0x38 d:/program files/microchip/xc32/v2.50/bin/bin/../../lib/gcc/pic32mx/4.8.3/../../../../pic32mx/lib/micromips\libxcpp.a(xthrow.o)
 .gnu.linkonce.t._ZNSt13runtime_errorD0Ev
                0x00000000       0x40 d:/program files/microchip/xc32/v2.50/bin/bin/../../lib/gcc/pic32mx/4.8.3/../../../../pic32mx/lib/micromips\libxcpp.a(xthrow.o)
 .gnu.linkonce.t._ZNSs5_TidyEbm
                0x00000000       0x40 d:/program files/microchip/xc32/v2.50/bin/bin/../../lib/gcc/pic32mx/4.8.3/../../../../pic32mx/lib/micromips\libxcpp.a(xthrow.o)
 .gnu.linkonce.r._ZTISt9bad_alloc
                0x00000000        0xc d:/program files/microchip/xc32/v2.50/bin/bin/../../lib/gcc/pic32mx/4.8.3/../../../../pic32mx/lib/micromips\libxcpp.a(xthrow.o)
 .gnu.linkonce.r._ZTSSt9bad_alloc
                0x00000000       0x10 d:/program files/microchip/xc32/v2.50/bin/bin/../../lib/gcc/pic32mx/4.8.3/../../../../pic32mx/lib/micromips\libxcpp.a(xthrow.o)
 .gnu.linkonce.r._ZTISt13runtime_error
                0x00000000        0xc d:/program files/microchip/xc32/v2.50/bin/bin/../../lib/gcc/pic32mx/4.8.3/../../../../pic32mx/lib/micromips\libxcpp.a(xthrow.o)
 .gnu.linkonce.r._ZTSSt13runtime_error
                0x00000000       0x14 d:/program files/microchip/xc32/v2.50/bin/bin/../../lib/gcc/pic32mx/4.8.3/../../../../pic32mx/lib/micromips\libxcpp.a(xthrow.o)
 .gnu.linkonce.r._ZTVSt9bad_alloc
                0x00000000       0x18 d:/program files/microchip/xc32/v2.50/bin/bin/../../lib/gcc/pic32mx/4.8.3/../../../../pic32mx/lib/micromips\libxcpp.a(xthrow.o)
 .gnu.linkonce.r._ZTVSt13runtime_error
                0x00000000       0x18 d:/program files/microchip/xc32/v2.50/bin/bin/../../lib/gcc/pic32mx/4.8.3/../../../../pic32mx/lib/micromips\libxcpp.a(xthrow.o)
 .reginfo       0x00000000       0x18 d:/program files/microchip/xc32/v2.50/bin/bin/../../lib/gcc/pic32mx/4.8.3/../../../../pic32mx/lib/micromips\libxcpp.a(wiostrea.o)
 .gnu.linkonce.t._ZNKSt9bad_alloc4whatEv
                0x00000000        0xc d:/program files/microchip/xc32/v2.50/bin/bin/../../lib/gcc/pic32mx/4.8.3/../../../../pic32mx/lib/micromips\libxcpp.a(wiostrea.o)
 .gnu.linkonce.t._ZNKSt13runtime_error4whatEv
                0x00000000       0x10 d:/program files/microchip/xc32/v2.50/bin/bin/../../lib/gcc/pic32mx/4.8.3/../../../../pic32mx/lib/micromips\libxcpp.a(wiostrea.o)
 .gnu.linkonce.t._ZNKSt8bad_cast4whatEv
                0x00000000        0xc d:/program files/microchip/xc32/v2.50/bin/bin/../../lib/gcc/pic32mx/4.8.3/../../../../pic32mx/lib/micromips\libxcpp.a(wiostrea.o)
 .gnu.linkonce.t._ZNSt6locale5facetD1Ev
                0x00000000        0xc d:/program files/microchip/xc32/v2.50/bin/bin/../../lib/gcc/pic32mx/4.8.3/../../../../pic32mx/lib/micromips\libxcpp.a(wiostrea.o)
 .gnu.linkonce.t._ZNSt12codecvt_baseD1Ev
                0x00000000        0xc d:/program files/microchip/xc32/v2.50/bin/bin/../../lib/gcc/pic32mx/4.8.3/../../../../pic32mx/lib/micromips\libxcpp.a(wiostrea.o)
 .gnu.linkonce.t._ZNKSt12codecvt_base16do_always_noconvEv
                0x00000000        0x4 d:/program files/microchip/xc32/v2.50/bin/bin/../../lib/gcc/pic32mx/4.8.3/../../../../pic32mx/lib/micromips\libxcpp.a(wiostrea.o)
 .gnu.linkonce.t._ZNKSt12codecvt_base13do_max_lengthEv
                0x00000000        0x4 d:/program files/microchip/xc32/v2.50/bin/bin/../../lib/gcc/pic32mx/4.8.3/../../../../pic32mx/lib/micromips\libxcpp.a(wiostrea.o)
 .gnu.linkonce.t._ZNKSt12codecvt_base11do_encodingEv
                0x00000000        0x4 d:/program files/microchip/xc32/v2.50/bin/bin/../../lib/gcc/pic32mx/4.8.3/../../../../pic32mx/lib/micromips\libxcpp.a(wiostrea.o)
 .gnu.linkonce.t._ZNSt10ctype_baseD1Ev
                0x00000000        0xc d:/program files/microchip/xc32/v2.50/bin/bin/../../lib/gcc/pic32mx/4.8.3/../../../../pic32mx/lib/micromips\libxcpp.a(wiostrea.o)
 .gnu.linkonce.t._ZNSt14error_categoryD1Ev
                0x00000000        0xc d:/program files/microchip/xc32/v2.50/bin/bin/../../lib/gcc/pic32mx/4.8.3/../../../../pic32mx/lib/micromips\libxcpp.a(wiostrea.o)
 .gnu.linkonce.t._ZNKSt14error_category23default_error_conditionEi
                0x00000000        0x8 d:/program files/microchip/xc32/v2.50/bin/bin/../../lib/gcc/pic32mx/4.8.3/../../../../pic32mx/lib/micromips\libxcpp.a(wiostrea.o)
 .gnu.linkonce.t._ZNKSt14error_category10equivalentEiRKSt15error_condition
                0x00000000       0x38 d:/program files/microchip/xc32/v2.50/bin/bin/../../lib/gcc/pic32mx/4.8.3/../../../../pic32mx/lib/micromips\libxcpp.a(wiostrea.o)
 .gnu.linkonce.t._ZNKSt14error_category10equivalentERKSt10error_codei
                0x00000000       0x14 d:/program files/microchip/xc32/v2.50/bin/bin/../../lib/gcc/pic32mx/4.8.3/../../../../pic32mx/lib/micromips\libxcpp.a(wiostrea.o)
 .gnu.linkonce.t._ZNSt9bad_allocD1Ev
                0x00000000       0x1c d:/program files/microchip/xc32/v2.50/bin/bin/../../lib/gcc/pic32mx/4.8.3/../../../../pic32mx/lib/micromips\libxcpp.a(wiostrea.o)
 .gnu.linkonce.t._ZNSt8bad_castD1Ev
                0x00000000       0x1c d:/program files/microchip/xc32/v2.50/bin/bin/../../lib/gcc/pic32mx/4.8.3/../../../../pic32mx/lib/micromips\libxcpp.a(wiostrea.o)
 .gnu.linkonce.t._ZNSt9bad_allocD0Ev
                0x00000000       0x24 d:/program files/microchip/xc32/v2.50/bin/bin/../../lib/gcc/pic32mx/4.8.3/../../../../pic32mx/lib/micromips\libxcpp.a(wiostrea.o)
 .gnu.linkonce.t._ZNSt6locale5facetD0Ev
                0x00000000       0x1c d:/program files/microchip/xc32/v2.50/bin/bin/../../lib/gcc/pic32mx/4.8.3/../../../../pic32mx/lib/micromips\libxcpp.a(wiostrea.o)
 .gnu.linkonce.t._ZNSt14error_categoryD0Ev
                0x00000000       0x1c d:/program files/microchip/xc32/v2.50/bin/bin/../../lib/gcc/pic32mx/4.8.3/../../../../pic32mx/lib/micromips\libxcpp.a(wiostrea.o)
 .gnu.linkonce.t._ZNSt8bad_castD0Ev
                0x00000000       0x24 d:/program files/microchip/xc32/v2.50/bin/bin/../../lib/gcc/pic32mx/4.8.3/../../../../pic32mx/lib/micromips\libxcpp.a(wiostrea.o)
 .gnu.linkonce.t._ZNSt12codecvt_baseD0Ev
                0x00000000       0x1c d:/program files/microchip/xc32/v2.50/bin/bin/../../lib/gcc/pic32mx/4.8.3/../../../../pic32mx/lib/micromips\libxcpp.a(wiostrea.o)
 .gnu.linkonce.t._ZNSt10ctype_baseD0Ev
                0x00000000       0x1c d:/program files/microchip/xc32/v2.50/bin/bin/../../lib/gcc/pic32mx/4.8.3/../../../../pic32mx/lib/micromips\libxcpp.a(wiostrea.o)
 .gnu.linkonce.t._ZNSt13runtime_errorD1Ev
                0x00000000       0x38 d:/program files/microchip/xc32/v2.50/bin/bin/../../lib/gcc/pic32mx/4.8.3/../../../../pic32mx/lib/micromips\libxcpp.a(wiostrea.o)
 .gnu.linkonce.t._ZNSt8ios_base7failureD0Ev
                0x00000000       0x40 d:/program files/microchip/xc32/v2.50/bin/bin/../../lib/gcc/pic32mx/4.8.3/../../../../pic32mx/lib/micromips\libxcpp.a(wiostrea.o)
 .gnu.linkonce.t._ZNSt13runtime_errorD0Ev
                0x00000000       0x40 d:/program files/microchip/xc32/v2.50/bin/bin/../../lib/gcc/pic32mx/4.8.3/../../../../pic32mx/lib/micromips\libxcpp.a(wiostrea.o)
 .gnu.linkonce.t._ZNSt12system_errorD1Ev
                0x00000000       0x38 d:/program files/microchip/xc32/v2.50/bin/bin/../../lib/gcc/pic32mx/4.8.3/../../../../pic32mx/lib/micromips\libxcpp.a(wiostrea.o)
 .gnu.linkonce.t._ZNSt8ios_base7failureD1Ev
                0x00000000       0x38 d:/program files/microchip/xc32/v2.50/bin/bin/../../lib/gcc/pic32mx/4.8.3/../../../../pic32mx/lib/micromips\libxcpp.a(wiostrea.o)
 .gnu.linkonce.t._ZNSt12system_errorD0Ev
                0x00000000       0x40 d:/program files/microchip/xc32/v2.50/bin/bin/../../lib/gcc/pic32mx/4.8.3/../../../../pic32mx/lib/micromips\libxcpp.a(wiostrea.o)
 .gnu.linkonce.t._ZNSt6localeD1Ev
                0x00000000       0x30 d:/program files/microchip/xc32/v2.50/bin/bin/../../lib/gcc/pic32mx/4.8.3/../../../../pic32mx/lib/micromips\libxcpp.a(wiostrea.o)
 .gnu.linkonce.t._ZNSs5_TidyEbm
                0x00000000       0x40 d:/program files/microchip/xc32/v2.50/bin/bin/../../lib/gcc/pic32mx/4.8.3/../../../../pic32mx/lib/micromips\libxcpp.a(wiostrea.o)
 .gnu.linkonce.t._ZNSt13runtime_errorC2EPKc
                0x00000000      0x3d8 d:/program files/microchip/xc32/v2.50/bin/bin/../../lib/gcc/pic32mx/4.8.3/../../../../pic32mx/lib/micromips\libxcpp.a(wiostrea.o)
 .gnu.linkonce.t._ZNSt8ios_base5clearENSt5_IosbIiE8_IostateEb
                0x00000000      0x7a0 d:/program files/microchip/xc32/v2.50/bin/bin/../../lib/gcc/pic32mx/4.8.3/../../../../pic32mx/lib/micromips\libxcpp.a(wiostrea.o)
 .gnu.linkonce.t._ZNSs5eraseEmm
                0x00000000       0x64 d:/program files/microchip/xc32/v2.50/bin/bin/../../lib/gcc/pic32mx/4.8.3/../../../../pic32mx/lib/micromips\libxcpp.a(wiostrea.o)
 .gnu.linkonce.t._ZNSs5_CopyEmm
                0x00000000      0x1b8 d:/program files/microchip/xc32/v2.50/bin/bin/../../lib/gcc/pic32mx/4.8.3/../../../../pic32mx/lib/micromips\libxcpp.a(wiostrea.o)
 .gnu.linkonce.t._ZNSs6appendEmc
                0x00000000      0x2ac d:/program files/microchip/xc32/v2.50/bin/bin/../../lib/gcc/pic32mx/4.8.3/../../../../pic32mx/lib/micromips\libxcpp.a(wiostrea.o)
 .gnu.linkonce.r._ZTISt9bad_alloc
                0x00000000        0xc d:/program files/microchip/xc32/v2.50/bin/bin/../../lib/gcc/pic32mx/4.8.3/../../../../pic32mx/lib/micromips\libxcpp.a(wiostrea.o)
 .gnu.linkonce.r._ZTSSt9bad_alloc
                0x00000000       0x10 d:/program files/microchip/xc32/v2.50/bin/bin/../../lib/gcc/pic32mx/4.8.3/../../../../pic32mx/lib/micromips\libxcpp.a(wiostrea.o)
 .gnu.linkonce.r._ZTISt13runtime_error
                0x00000000        0xc d:/program files/microchip/xc32/v2.50/bin/bin/../../lib/gcc/pic32mx/4.8.3/../../../../pic32mx/lib/micromips\libxcpp.a(wiostrea.o)
 .gnu.linkonce.r._ZTSSt13runtime_error
                0x00000000       0x14 d:/program files/microchip/xc32/v2.50/bin/bin/../../lib/gcc/pic32mx/4.8.3/../../../../pic32mx/lib/micromips\libxcpp.a(wiostrea.o)
 .gnu.linkonce.r._ZTISt8bad_cast
                0x00000000        0xc d:/program files/microchip/xc32/v2.50/bin/bin/../../lib/gcc/pic32mx/4.8.3/../../../../pic32mx/lib/micromips\libxcpp.a(wiostrea.o)
 .gnu.linkonce.r._ZTSSt8bad_cast
                0x00000000        0xc d:/program files/microchip/xc32/v2.50/bin/bin/../../lib/gcc/pic32mx/4.8.3/../../../../pic32mx/lib/micromips\libxcpp.a(wiostrea.o)
 .gnu.linkonce.r._ZTINSt6locale5facetE
                0x00000000        0x8 d:/program files/microchip/xc32/v2.50/bin/bin/../../lib/gcc/pic32mx/4.8.3/../../../../pic32mx/lib/micromips\libxcpp.a(wiostrea.o)
 .gnu.linkonce.r._ZTSNSt6locale5facetE
                0x00000000       0x14 d:/program files/microchip/xc32/v2.50/bin/bin/../../lib/gcc/pic32mx/4.8.3/../../../../pic32mx/lib/micromips\libxcpp.a(wiostrea.o)
 .gnu.linkonce.r._ZTISt12codecvt_base
                0x00000000        0xc d:/program files/microchip/xc32/v2.50/bin/bin/../../lib/gcc/pic32mx/4.8.3/../../../../pic32mx/lib/micromips\libxcpp.a(wiostrea.o)
 .gnu.linkonce.r._ZTSSt12codecvt_base
                0x00000000       0x14 d:/program files/microchip/xc32/v2.50/bin/bin/../../lib/gcc/pic32mx/4.8.3/../../../../pic32mx/lib/micromips\libxcpp.a(wiostrea.o)
 .gnu.linkonce.r._ZTISt10ctype_base
                0x00000000        0xc d:/program files/microchip/xc32/v2.50/bin/bin/../../lib/gcc/pic32mx/4.8.3/../../../../pic32mx/lib/micromips\libxcpp.a(wiostrea.o)
 .gnu.linkonce.r._ZTSSt10ctype_base
                0x00000000       0x10 d:/program files/microchip/xc32/v2.50/bin/bin/../../lib/gcc/pic32mx/4.8.3/../../../../pic32mx/lib/micromips\libxcpp.a(wiostrea.o)
 .gnu.linkonce.r._ZTSSt14error_category
                0x00000000       0x14 d:/program files/microchip/xc32/v2.50/bin/bin/../../lib/gcc/pic32mx/4.8.3/../../../../pic32mx/lib/micromips\libxcpp.a(wiostrea.o)
 .gnu.linkonce.r._ZTISt14error_category
                0x00000000        0x8 d:/program files/microchip/xc32/v2.50/bin/bin/../../lib/gcc/pic32mx/4.8.3/../../../../pic32mx/lib/micromips\libxcpp.a(wiostrea.o)
 .gnu.linkonce.r._ZTISt12system_error
                0x00000000        0xc d:/program files/microchip/xc32/v2.50/bin/bin/../../lib/gcc/pic32mx/4.8.3/../../../../pic32mx/lib/micromips\libxcpp.a(wiostrea.o)
 .gnu.linkonce.r._ZTSSt12system_error
                0x00000000       0x14 d:/program files/microchip/xc32/v2.50/bin/bin/../../lib/gcc/pic32mx/4.8.3/../../../../pic32mx/lib/micromips\libxcpp.a(wiostrea.o)
 .gnu.linkonce.r._ZTINSt8ios_base7failureE
                0x00000000        0xc d:/program files/microchip/xc32/v2.50/bin/bin/../../lib/gcc/pic32mx/4.8.3/../../../../pic32mx/lib/micromips\libxcpp.a(wiostrea.o)
 .gnu.linkonce.r._ZTSNSt8ios_base7failureE
                0x00000000       0x18 d:/program files/microchip/xc32/v2.50/bin/bin/../../lib/gcc/pic32mx/4.8.3/../../../../pic32mx/lib/micromips\libxcpp.a(wiostrea.o)
 .gnu.linkonce.r._ZTVSt9bad_alloc
                0x00000000       0x18 d:/program files/microchip/xc32/v2.50/bin/bin/../../lib/gcc/pic32mx/4.8.3/../../../../pic32mx/lib/micromips\libxcpp.a(wiostrea.o)
 .gnu.linkonce.r._ZTVSt13runtime_error
                0x00000000       0x18 d:/program files/microchip/xc32/v2.50/bin/bin/../../lib/gcc/pic32mx/4.8.3/../../../../pic32mx/lib/micromips\libxcpp.a(wiostrea.o)
 .gnu.linkonce.r._ZTVSt8bad_cast
                0x00000000       0x18 d:/program files/microchip/xc32/v2.50/bin/bin/../../lib/gcc/pic32mx/4.8.3/../../../../pic32mx/lib/micromips\libxcpp.a(wiostrea.o)
 .gnu.linkonce.r._ZTVNSt6locale5facetE
                0x00000000       0x10 d:/program files/microchip/xc32/v2.50/bin/bin/../../lib/gcc/pic32mx/4.8.3/../../../../pic32mx/lib/micromips\libxcpp.a(wiostrea.o)
 .gnu.linkonce.r._ZTVSt12codecvt_base
                0x00000000       0x20 d:/program files/microchip/xc32/v2.50/bin/bin/../../lib/gcc/pic32mx/4.8.3/../../../../pic32mx/lib/micromips\libxcpp.a(wiostrea.o)
 .gnu.linkonce.r._ZTVSt10ctype_base
                0x00000000       0x10 d:/program files/microchip/xc32/v2.50/bin/bin/../../lib/gcc/pic32mx/4.8.3/../../../../pic32mx/lib/micromips\libxcpp.a(wiostrea.o)
 .gnu.linkonce.r._ZTVSt14error_category
                0x00000000       0x28 d:/program files/microchip/xc32/v2.50/bin/bin/../../lib/gcc/pic32mx/4.8.3/../../../../pic32mx/lib/micromips\libxcpp.a(wiostrea.o)
 .gnu.linkonce.r._ZTVSt12system_error
                0x00000000       0x18 d:/program files/microchip/xc32/v2.50/bin/bin/../../lib/gcc/pic32mx/4.8.3/../../../../pic32mx/lib/micromips\libxcpp.a(wiostrea.o)
 .gnu.linkonce.r._ZTVNSt8ios_base7failureE
                0x00000000       0x18 d:/program files/microchip/xc32/v2.50/bin/bin/../../lib/gcc/pic32mx/4.8.3/../../../../pic32mx/lib/micromips\libxcpp.a(wiostrea.o)
 .reginfo       0x00000000       0x18 d:/program files/microchip/xc32/v2.50/bin/bin/../../lib/gcc/pic32mx/4.8.3/../../../../pic32mx/lib/micromips\libxcpp.a(locale0.o)
 .gnu.linkonce.t._ZNSt6locale5facetD1Ev
                0x00000000        0xc d:/program files/microchip/xc32/v2.50/bin/bin/../../lib/gcc/pic32mx/4.8.3/../../../../pic32mx/lib/micromips\libxcpp.a(locale0.o)
 .gnu.linkonce.t._ZNSt6locale5facetD0Ev
                0x00000000       0x1c d:/program files/microchip/xc32/v2.50/bin/bin/../../lib/gcc/pic32mx/4.8.3/../../../../pic32mx/lib/micromips\libxcpp.a(locale0.o)
 .gnu.linkonce.t._ZNSt6localeD1Ev
                0x00000000       0x30 d:/program files/microchip/xc32/v2.50/bin/bin/../../lib/gcc/pic32mx/4.8.3/../../../../pic32mx/lib/micromips\libxcpp.a(locale0.o)
 .gnu.linkonce.r._ZTINSt6locale5facetE
                0x00000000        0x8 d:/program files/microchip/xc32/v2.50/bin/bin/../../lib/gcc/pic32mx/4.8.3/../../../../pic32mx/lib/micromips\libxcpp.a(locale0.o)
 .gnu.linkonce.r._ZTSNSt6locale5facetE
                0x00000000       0x14 d:/program files/microchip/xc32/v2.50/bin/bin/../../lib/gcc/pic32mx/4.8.3/../../../../pic32mx/lib/micromips\libxcpp.a(locale0.o)
 .gnu.linkonce.r._ZTVNSt6locale5facetE
                0x00000000       0x10 d:/program files/microchip/xc32/v2.50/bin/bin/../../lib/gcc/pic32mx/4.8.3/../../../../pic32mx/lib/micromips\libxcpp.a(locale0.o)
 .reginfo       0x00000000       0x18 d:/program files/microchip/xc32/v2.50/bin/bin/../../lib/gcc/pic32mx/4.8.3/../../../../pic32mx/lib/micromips\libxcpp.a(abort.o)
 .reginfo       0x00000000       0x18 d:/program files/microchip/xc32/v2.50/bin/bin/../../lib/gcc/pic32mx/4.8.3/../../../../pic32mx/lib/micromips\libxcpp.a(abs.o)
 .reginfo       0x00000000       0x18 d:/program files/microchip/xc32/v2.50/bin/bin/../../lib/gcc/pic32mx/4.8.3/../../../../pic32mx/lib/micromips\libxcpp.a(asctime.o)
 .reginfo       0x00000000       0x18 d:/program files/microchip/xc32/v2.50/bin/bin/../../lib/gcc/pic32mx/4.8.3/../../../../pic32mx/lib/micromips\libxcpp.a(exit.o)
 .reginfo       0x00000000       0x18 d:/program files/microchip/xc32/v2.50/bin/bin/../../lib/gcc/pic32mx/4.8.3/../../../../pic32mx/lib/micromips\libxcpp.a(fclose.o)
 .reginfo       0x00000000       0x18 d:/program files/microchip/xc32/v2.50/bin/bin/../../lib/gcc/pic32mx/4.8.3/../../../../pic32mx/lib/micromips\libxcpp.a(fflush.o)
 .reginfo       0x00000000       0x18 d:/program files/microchip/xc32/v2.50/bin/bin/../../lib/gcc/pic32mx/4.8.3/../../../../pic32mx/lib/micromips\libxcpp.a(fgetc.o)
 .reginfo       0x00000000       0x18 d:/program files/microchip/xc32/v2.50/bin/bin/../../lib/gcc/pic32mx/4.8.3/../../../../pic32mx/lib/micromips\libxcpp.a(fgetpos.o)
 .reginfo       0x00000000       0x18 d:/program files/microchip/xc32/v2.50/bin/bin/../../lib/gcc/pic32mx/4.8.3/../../../../pic32mx/lib/micromips\libxcpp.a(fgetwc.o)
 .reginfo       0x00000000       0x18 d:/program files/microchip/xc32/v2.50/bin/bin/../../lib/gcc/pic32mx/4.8.3/../../../../pic32mx/lib/micromips\libxcpp.a(fputc.o)
 .reginfo       0x00000000       0x18 d:/program files/microchip/xc32/v2.50/bin/bin/../../lib/gcc/pic32mx/4.8.3/../../../../pic32mx/lib/micromips\libxcpp.a(fputwc.o)
 .reginfo       0x00000000       0x18 d:/program files/microchip/xc32/v2.50/bin/bin/../../lib/gcc/pic32mx/4.8.3/../../../../pic32mx/lib/micromips\libxcpp.a(free.o)
 .reginfo       0x00000000       0x18 d:/program files/microchip/xc32/v2.50/bin/bin/../../lib/gcc/pic32mx/4.8.3/../../../../pic32mx/lib/micromips\libxcpp.a(fseek.o)
 .reginfo       0x00000000       0x18 d:/program files/microchip/xc32/v2.50/bin/bin/../../lib/gcc/pic32mx/4.8.3/../../../../pic32mx/lib/micromips\libxcpp.a(fsetpos.o)
 .reginfo       0x00000000       0x18 d:/program files/microchip/xc32/v2.50/bin/bin/../../lib/gcc/pic32mx/4.8.3/../../../../pic32mx/lib/micromips\libxcpp.a(fwrite.o)
 .reginfo       0x00000000       0x18 d:/program files/microchip/xc32/v2.50/bin/bin/../../lib/gcc/pic32mx/4.8.3/../../../../pic32mx/lib/micromips\libxcpp.a(malloc.o)
 .reginfo       0x00000000       0x18 d:/program files/microchip/xc32/v2.50/bin/bin/../../lib/gcc/pic32mx/4.8.3/../../../../pic32mx/lib/micromips\libxcpp.a(memchr.o)
 .reginfo       0x00000000       0x18 d:/program files/microchip/xc32/v2.50/bin/bin/../../lib/gcc/pic32mx/4.8.3/../../../../pic32mx/lib/micromips\libxcpp.a(memmove.o)
 .reginfo       0x00000000       0x18 d:/program files/microchip/xc32/v2.50/bin/bin/../../lib/gcc/pic32mx/4.8.3/../../../../pic32mx/lib/micromips\libxcpp.a(raise.o)
 .reginfo       0x00000000       0x18 d:/program files/microchip/xc32/v2.50/bin/bin/../../lib/gcc/pic32mx/4.8.3/../../../../pic32mx/lib/micromips\libxcpp.a(remove.o)
 .reginfo       0x00000000       0x18 d:/program files/microchip/xc32/v2.50/bin/bin/../../lib/gcc/pic32mx/4.8.3/../../../../pic32mx/lib/micromips\libxcpp.a(setlocal.o)
 .reginfo       0x00000000       0x18 d:/program files/microchip/xc32/v2.50/bin/bin/../../lib/gcc/pic32mx/4.8.3/../../../../pic32mx/lib/micromips\libxcpp.a(setvbuf.o)
 .reginfo       0x00000000       0x18 d:/program files/microchip/xc32/v2.50/bin/bin/../../lib/gcc/pic32mx/4.8.3/../../../../pic32mx/lib/micromips\libxcpp.a(strcpy.o)
 .reginfo       0x00000000       0x18 d:/program files/microchip/xc32/v2.50/bin/bin/../../lib/gcc/pic32mx/4.8.3/../../../../pic32mx/lib/micromips\libxcpp.a(ungetc.o)
 .reginfo       0x00000000       0x18 d:/program files/microchip/xc32/v2.50/bin/bin/../../lib/gcc/pic32mx/4.8.3/../../../../pic32mx/lib/micromips\libxcpp.a(ungetwc.o)
 .reginfo       0x00000000       0x18 d:/program files/microchip/xc32/v2.50/bin/bin/../../lib/gcc/pic32mx/4.8.3/../../../../pic32mx/lib/micromips\libxcpp.a(wmemcpy.o)
 .reginfo       0x00000000       0x18 d:/program files/microchip/xc32/v2.50/bin/bin/../../lib/gcc/pic32mx/4.8.3/../../../../pic32mx/lib/micromips\libxcpp.a(xatexit.o)
 .reginfo       0x00000000       0x18 d:/program files/microchip/xc32/v2.50/bin/bin/../../lib/gcc/pic32mx/4.8.3/../../../../pic32mx/lib/micromips\libxcpp.a(xcostate.o)
 .reginfo       0x00000000       0x18 d:/program files/microchip/xc32/v2.50/bin/bin/../../lib/gcc/pic32mx/4.8.3/../../../../pic32mx/lib/micromips\libxcpp.a(xctype.o)
 .reginfo       0x00000000       0x18 d:/program files/microchip/xc32/v2.50/bin/bin/../../lib/gcc/pic32mx/4.8.3/../../../../pic32mx/lib/micromips\libxcpp.a(xdefloc.o)
 .reginfo       0x00000000       0x18 d:/program files/microchip/xc32/v2.50/bin/bin/../../lib/gcc/pic32mx/4.8.3/../../../../pic32mx/lib/micromips\libxcpp.a(xexit.o)
 .reginfo       0x00000000       0x18 d:/program files/microchip/xc32/v2.50/bin/bin/../../lib/gcc/pic32mx/4.8.3/../../../../pic32mx/lib/micromips\libxcpp.a(xfgpos.o)
 .reginfo       0x00000000       0x18 d:/program files/microchip/xc32/v2.50/bin/bin/../../lib/gcc/pic32mx/4.8.3/../../../../pic32mx/lib/micromips\libxcpp.a(xfiles.o)
 .reginfo       0x00000000       0x18 d:/program files/microchip/xc32/v2.50/bin/bin/../../lib/gcc/pic32mx/4.8.3/../../../../pic32mx/lib/micromips\libxcpp.a(xfofind.o)
 .reginfo       0x00000000       0x18 d:/program files/microchip/xc32/v2.50/bin/bin/../../lib/gcc/pic32mx/4.8.3/../../../../pic32mx/lib/micromips\libxcpp.a(xfrprep.o)
 .reginfo       0x00000000       0x18 d:/program files/microchip/xc32/v2.50/bin/bin/../../lib/gcc/pic32mx/4.8.3/../../../../pic32mx/lib/micromips\libxcpp.a(xfspos.o)
 .reginfo       0x00000000       0x18 d:/program files/microchip/xc32/v2.50/bin/bin/../../lib/gcc/pic32mx/4.8.3/../../../../pic32mx/lib/micromips\libxcpp.a(xfwprep.o)
 .reginfo       0x00000000       0x18 d:/program files/microchip/xc32/v2.50/bin/bin/../../lib/gcc/pic32mx/4.8.3/../../../../pic32mx/lib/micromips\libxcpp.a(xgetglob.o)
 .reginfo       0x00000000       0x18 d:/program files/microchip/xc32/v2.50/bin/bin/../../lib/gcc/pic32mx/4.8.3/../../../../pic32mx/lib/micromips\libxcpp.a(xgetloc.o)
 .reginfo       0x00000000       0x18 d:/program files/microchip/xc32/v2.50/bin/bin/../../lib/gcc/pic32mx/4.8.3/../../../../pic32mx/lib/micromips\libxcpp.a(xgetmem.o)
 .reginfo       0x00000000       0x18 d:/program files/microchip/xc32/v2.50/bin/bin/../../lib/gcc/pic32mx/4.8.3/../../../../pic32mx/lib/micromips\libxcpp.a(xmbtowc.o)
 .reginfo       0x00000000       0x18 d:/program files/microchip/xc32/v2.50/bin/bin/../../lib/gcc/pic32mx/4.8.3/../../../../pic32mx/lib/micromips\libxcpp.a(xsetloc.o)
 .reginfo       0x00000000       0x18 d:/program files/microchip/xc32/v2.50/bin/bin/../../lib/gcc/pic32mx/4.8.3/../../../../pic32mx/lib/micromips\libxcpp.a(xstate.o)
 .reginfo       0x00000000       0x18 d:/program files/microchip/xc32/v2.50/bin/bin/../../lib/gcc/pic32mx/4.8.3/../../../../pic32mx/lib/micromips\libxcpp.a(xstrftim.o)
 .reginfo       0x00000000       0x18 d:/program files/microchip/xc32/v2.50/bin/bin/../../lib/gcc/pic32mx/4.8.3/../../../../pic32mx/lib/micromips\libxcpp.a(xtolotab.o)
 .reginfo       0x00000000       0x18 d:/program files/microchip/xc32/v2.50/bin/bin/../../lib/gcc/pic32mx/4.8.3/../../../../pic32mx/lib/micromips\libxcpp.a(xtouptab.o)
 .reginfo       0x00000000       0x18 d:/program files/microchip/xc32/v2.50/bin/bin/../../lib/gcc/pic32mx/4.8.3/../../../../pic32mx/lib/micromips\libxcpp.a(xwcostate.o)
 .reginfo       0x00000000       0x18 d:/program files/microchip/xc32/v2.50/bin/bin/../../lib/gcc/pic32mx/4.8.3/../../../../pic32mx/lib/micromips\libxcpp.a(xwcstate.o)
 .reginfo       0x00000000       0x18 d:/program files/microchip/xc32/v2.50/bin/bin/../../lib/gcc/pic32mx/4.8.3/../../../../pic32mx/lib/micromips\libxcpp.a(xwctomb.o)
 .reginfo       0x00000000       0x18 d:/program files/microchip/xc32/v2.50/bin/bin/../../lib/gcc/pic32mx/4.8.3/../../../../pic32mx/lib/micromips\libxcpp.a(xwctrtab.o)
 .reginfo       0x00000000       0x18 d:/program files/microchip/xc32/v2.50/bin/bin/../../lib/gcc/pic32mx/4.8.3/../../../../pic32mx/lib/micromips\libxcpp.a(xwctytab.o)
 .reginfo       0x00000000       0x18 d:/program files/microchip/xc32/v2.50/bin/bin/../../lib/gcc/pic32mx/4.8.3/../../../../pic32mx/lib/micromips\libxcpp.a(xwfrprep.o)
 .reginfo       0x00000000       0x18 d:/program files/microchip/xc32/v2.50/bin/bin/../../lib/gcc/pic32mx/4.8.3/../../../../pic32mx/lib/micromips\libxcpp.a(xwfwprep.o)
 .reginfo       0x00000000       0x18 d:/program files/microchip/xc32/v2.50/bin/bin/../../lib/gcc/pic32mx/4.8.3/../../../../pic32mx/lib/micromips\libxcpp.a(syserror.o)
 .gnu.linkonce.t._ZNKSt9bad_alloc4whatEv
                0x00000000        0xc d:/program files/microchip/xc32/v2.50/bin/bin/../../lib/gcc/pic32mx/4.8.3/../../../../pic32mx/lib/micromips\libxcpp.a(syserror.o)
 .gnu.linkonce.t._ZNSt14error_categoryD1Ev
                0x00000000        0xc d:/program files/microchip/xc32/v2.50/bin/bin/../../lib/gcc/pic32mx/4.8.3/../../../../pic32mx/lib/micromips\libxcpp.a(syserror.o)
 .gnu.linkonce.t._ZNKSt14error_category23default_error_conditionEi
                0x00000000        0x8 d:/program files/microchip/xc32/v2.50/bin/bin/../../lib/gcc/pic32mx/4.8.3/../../../../pic32mx/lib/micromips\libxcpp.a(syserror.o)
 .gnu.linkonce.t._ZNKSt14error_category10equivalentEiRKSt15error_condition
                0x00000000       0x38 d:/program files/microchip/xc32/v2.50/bin/bin/../../lib/gcc/pic32mx/4.8.3/../../../../pic32mx/lib/micromips\libxcpp.a(syserror.o)
 .gnu.linkonce.t._ZNKSt14error_category10equivalentERKSt10error_codei
                0x00000000       0x14 d:/program files/microchip/xc32/v2.50/bin/bin/../../lib/gcc/pic32mx/4.8.3/../../../../pic32mx/lib/micromips\libxcpp.a(syserror.o)
 .gnu.linkonce.t._ZNSt9bad_allocD1Ev
                0x00000000       0x1c d:/program files/microchip/xc32/v2.50/bin/bin/../../lib/gcc/pic32mx/4.8.3/../../../../pic32mx/lib/micromips\libxcpp.a(syserror.o)
 .gnu.linkonce.t._ZNSt9bad_allocD0Ev
                0x00000000       0x24 d:/program files/microchip/xc32/v2.50/bin/bin/../../lib/gcc/pic32mx/4.8.3/../../../../pic32mx/lib/micromips\libxcpp.a(syserror.o)
 .gnu.linkonce.t._ZNSt14error_categoryD0Ev
                0x00000000       0x1c d:/program files/microchip/xc32/v2.50/bin/bin/../../lib/gcc/pic32mx/4.8.3/../../../../pic32mx/lib/micromips\libxcpp.a(syserror.o)
 .gnu.linkonce.t._ZNSs5_TidyEbm
                0x00000000       0x40 d:/program files/microchip/xc32/v2.50/bin/bin/../../lib/gcc/pic32mx/4.8.3/../../../../pic32mx/lib/micromips\libxcpp.a(syserror.o)
 .gnu.linkonce.r._ZTISt9bad_alloc
                0x00000000        0xc d:/program files/microchip/xc32/v2.50/bin/bin/../../lib/gcc/pic32mx/4.8.3/../../../../pic32mx/lib/micromips\libxcpp.a(syserror.o)
 .gnu.linkonce.r._ZTSSt9bad_alloc
                0x00000000       0x10 d:/program files/microchip/xc32/v2.50/bin/bin/../../lib/gcc/pic32mx/4.8.3/../../../../pic32mx/lib/micromips\libxcpp.a(syserror.o)
 .gnu.linkonce.r._ZTSSt14error_category
                0x00000000       0x14 d:/program files/microchip/xc32/v2.50/bin/bin/../../lib/gcc/pic32mx/4.8.3/../../../../pic32mx/lib/micromips\libxcpp.a(syserror.o)
 .gnu.linkonce.r._ZTISt14error_category
                0x00000000        0x8 d:/program files/microchip/xc32/v2.50/bin/bin/../../lib/gcc/pic32mx/4.8.3/../../../../pic32mx/lib/micromips\libxcpp.a(syserror.o)
 .gnu.linkonce.r._ZTVSt9bad_alloc
                0x00000000       0x18 d:/program files/microchip/xc32/v2.50/bin/bin/../../lib/gcc/pic32mx/4.8.3/../../../../pic32mx/lib/micromips\libxcpp.a(syserror.o)
 .gnu.linkonce.r._ZTVSt14error_category
                0x00000000       0x28 d:/program files/microchip/xc32/v2.50/bin/bin/../../lib/gcc/pic32mx/4.8.3/../../../../pic32mx/lib/micromips\libxcpp.a(syserror.o)
 .reginfo       0x00000000       0x18 d:/program files/microchip/xc32/v2.50/bin/bin/../../lib/gcc/pic32mx/4.8.3/../../../../pic32mx/lib/micromips\libxcpp.a(delaop.o)
 .reginfo       0x00000000       0x18 d:/program files/microchip/xc32/v2.50/bin/bin/../../lib/gcc/pic32mx/4.8.3/../../../../pic32mx/lib/micromips\libxcpp.a(ios.o)
 .gnu.linkonce.t._ZNSt14error_categoryD1Ev
                0x00000000        0xc d:/program files/microchip/xc32/v2.50/bin/bin/../../lib/gcc/pic32mx/4.8.3/../../../../pic32mx/lib/micromips\libxcpp.a(ios.o)
 .gnu.linkonce.t._ZNKSt14error_category23default_error_conditionEi
                0x00000000        0x8 d:/program files/microchip/xc32/v2.50/bin/bin/../../lib/gcc/pic32mx/4.8.3/../../../../pic32mx/lib/micromips\libxcpp.a(ios.o)
 .gnu.linkonce.t._ZNKSt14error_category10equivalentEiRKSt15error_condition
                0x00000000       0x38 d:/program files/microchip/xc32/v2.50/bin/bin/../../lib/gcc/pic32mx/4.8.3/../../../../pic32mx/lib/micromips\libxcpp.a(ios.o)
 .gnu.linkonce.t._ZNKSt14error_category10equivalentERKSt10error_codei
                0x00000000       0x14 d:/program files/microchip/xc32/v2.50/bin/bin/../../lib/gcc/pic32mx/4.8.3/../../../../pic32mx/lib/micromips\libxcpp.a(ios.o)
 .gnu.linkonce.t._ZNSt14error_categoryD0Ev
                0x00000000       0x1c d:/program files/microchip/xc32/v2.50/bin/bin/../../lib/gcc/pic32mx/4.8.3/../../../../pic32mx/lib/micromips\libxcpp.a(ios.o)
 .gnu.linkonce.r._ZTSSt14error_category
                0x00000000       0x14 d:/program files/microchip/xc32/v2.50/bin/bin/../../lib/gcc/pic32mx/4.8.3/../../../../pic32mx/lib/micromips\libxcpp.a(ios.o)
 .gnu.linkonce.r._ZTISt14error_category
                0x00000000        0x8 d:/program files/microchip/xc32/v2.50/bin/bin/../../lib/gcc/pic32mx/4.8.3/../../../../pic32mx/lib/micromips\libxcpp.a(ios.o)
 .gnu.linkonce.r._ZTVSt14error_category
                0x00000000       0x28 d:/program files/microchip/xc32/v2.50/bin/bin/../../lib/gcc/pic32mx/4.8.3/../../../../pic32mx/lib/micromips\libxcpp.a(ios.o)
 .reginfo       0x00000000       0x18 d:/program files/microchip/xc32/v2.50/bin/bin/../../lib/gcc/pic32mx/4.8.3/../../../../pic32mx/lib/micromips\libxcpp.a(delop3.o)
 .reginfo       0x00000000       0x18 d:/program files/microchip/xc32/v2.50/bin/bin/../../lib/gcc/pic32mx/4.8.3/../../../../pic32mx/lib/micromips\libxcpp.a(errno.o)
 .reginfo       0x00000000       0x18 d:/program files/microchip/xc32/v2.50/bin/bin/../../lib/gcc/pic32mx/4.8.3/../../../../pic32mx/lib/micromips\libxcpp.a(getenv.o)
 .reginfo       0x00000000       0x18 d:/program files/microchip/xc32/v2.50/bin/bin/../../lib/gcc/pic32mx/4.8.3/../../../../pic32mx/lib/micromips\libxcpp.a(localeco.o)
 .reginfo       0x00000000       0x18 d:/program files/microchip/xc32/v2.50/bin/bin/../../lib/gcc/pic32mx/4.8.3/../../../../pic32mx/lib/micromips\libxcpp.a(memcmp.o)
 .reginfo       0x00000000       0x18 d:/program files/microchip/xc32/v2.50/bin/bin/../../lib/gcc/pic32mx/4.8.3/../../../../pic32mx/lib/micromips\libxcpp.a(strcspn.o)
 .reginfo       0x00000000       0x18 d:/program files/microchip/xc32/v2.50/bin/bin/../../lib/gcc/pic32mx/4.8.3/../../../../pic32mx/lib/micromips\libxcpp.a(strerror.o)
 .reginfo       0x00000000       0x18 d:/program files/microchip/xc32/v2.50/bin/bin/../../lib/gcc/pic32mx/4.8.3/../../../../pic32mx/lib/micromips\libxcpp.a(xfindloc.o)
 .reginfo       0x00000000       0x18 d:/program files/microchip/xc32/v2.50/bin/bin/../../lib/gcc/pic32mx/4.8.3/../../../../pic32mx/lib/micromips\libxcpp.a(xfreeloc.o)
 .reginfo       0x00000000       0x18 d:/program files/microchip/xc32/v2.50/bin/bin/../../lib/gcc/pic32mx/4.8.3/../../../../pic32mx/lib/micromips\libxcpp.a(xgentime.o)
 .reginfo       0x00000000       0x18 d:/program files/microchip/xc32/v2.50/bin/bin/../../lib/gcc/pic32mx/4.8.3/../../../../pic32mx/lib/micromips\libxcpp.a(xgettime.o)
 .reginfo       0x00000000       0x18 d:/program files/microchip/xc32/v2.50/bin/bin/../../lib/gcc/pic32mx/4.8.3/../../../../pic32mx/lib/micromips\libxcpp.a(xgetzone.o)
 .reginfo       0x00000000       0x18 d:/program files/microchip/xc32/v2.50/bin/bin/../../lib/gcc/pic32mx/4.8.3/../../../../pic32mx/lib/micromips\libxcpp.a(xloctab.o)
 .reginfo       0x00000000       0x18 d:/program files/microchip/xc32/v2.50/bin/bin/../../lib/gcc/pic32mx/4.8.3/../../../../pic32mx/lib/micromips\libxcpp.a(xmakeloc.o)
 .reginfo       0x00000000       0x18 d:/program files/microchip/xc32/v2.50/bin/bin/../../lib/gcc/pic32mx/4.8.3/../../../../pic32mx/lib/micromips\libxcpp.a(xmakesta.o)
 .reginfo       0x00000000       0x18 d:/program files/microchip/xc32/v2.50/bin/bin/../../lib/gcc/pic32mx/4.8.3/../../../../pic32mx/lib/micromips\libxcpp.a(xmakewct.o)
 .reginfo       0x00000000       0x18 d:/program files/microchip/xc32/v2.50/bin/bin/../../lib/gcc/pic32mx/4.8.3/../../../../pic32mx/lib/micromips\libxcpp.a(xreadloc.o)
 .reginfo       0x00000000       0x18 d:/program files/microchip/xc32/v2.50/bin/bin/../../lib/gcc/pic32mx/4.8.3/../../../../pic32mx/lib/micromips\libxcpp.a(xstrerro.o)
 .reginfo       0x00000000       0x18 d:/program files/microchip/xc32/v2.50/bin/bin/../../lib/gcc/pic32mx/4.8.3/../../../../pic32mx/lib/micromips\libxcpp.a(fgets.o)
 .reginfo       0x00000000       0x18 d:/program files/microchip/xc32/v2.50/bin/bin/../../lib/gcc/pic32mx/4.8.3/../../../../pic32mx/lib/micromips\libxcpp.a(fopen.o)
 .reginfo       0x00000000       0x18 d:/program files/microchip/xc32/v2.50/bin/bin/../../lib/gcc/pic32mx/4.8.3/../../../../pic32mx/lib/micromips\libxcpp.a(fputs.o)
 .reginfo       0x00000000       0x18 d:/program files/microchip/xc32/v2.50/bin/bin/../../lib/gcc/pic32mx/4.8.3/../../../../pic32mx/lib/micromips\libxcpp.a(realloc.o)
 .reginfo       0x00000000       0x18 d:/program files/microchip/xc32/v2.50/bin/bin/../../lib/gcc/pic32mx/4.8.3/../../../../pic32mx/lib/micromips\libxcpp.a(strchr.o)
 .reginfo       0x00000000       0x18 d:/program files/microchip/xc32/v2.50/bin/bin/../../lib/gcc/pic32mx/4.8.3/../../../../pic32mx/lib/micromips\libxcpp.a(strncmp.o)
 .reginfo       0x00000000       0x18 d:/program files/microchip/xc32/v2.50/bin/bin/../../lib/gcc/pic32mx/4.8.3/../../../../pic32mx/lib/micromips\libxcpp.a(strrchr.o)
 .reginfo       0x00000000       0x18 d:/program files/microchip/xc32/v2.50/bin/bin/../../lib/gcc/pic32mx/4.8.3/../../../../pic32mx/lib/micromips\libxcpp.a(strspn.o)
 .reginfo       0x00000000       0x18 d:/program files/microchip/xc32/v2.50/bin/bin/../../lib/gcc/pic32mx/4.8.3/../../../../pic32mx/lib/micromips\libxcpp.a(strtol.o)
 .reginfo       0x00000000       0x18 d:/program files/microchip/xc32/v2.50/bin/bin/../../lib/gcc/pic32mx/4.8.3/../../../../pic32mx/lib/micromips\libxcpp.a(xfoprep.o)
 .reginfo       0x00000000       0x18 d:/program files/microchip/xc32/v2.50/bin/bin/../../lib/gcc/pic32mx/4.8.3/../../../../pic32mx/lib/micromips\libxcpp.a(xlocterm.o)
 .reginfo       0x00000000       0x18 d:/program files/microchip/xc32/v2.50/bin/bin/../../lib/gcc/pic32mx/4.8.3/../../../../pic32mx/lib/micromips\libxcpp.a(xstol.o)
 .reginfo       0x00000000       0x18 d:/program files/microchip/xc32/v2.50/bin/bin/../../lib/gcc/pic32mx/4.8.3/../../../../pic32mx/lib/micromips\libxcpp.a(xstoul.o)
 .reginfo       0x00000000       0x18 d:/program files/microchip/xc32/v2.50/bin/bin/../../lib/gcc/pic32mx/4.8.3/../../../../pic32mx/lib/micromips\libxcpp.a(xfopen.o)
 .reginfo       0x00000000       0x18 d:/program files/microchip/xc32/v2.50/bin/bin/../../lib/gcc/pic32mx/4.8.3/../../../../pic32mx/lib/micromips\libsupc++.a(vmi_class_type_info.o)
 .reginfo       0x00000000       0x18 d:/program files/microchip/xc32/v2.50/bin/bin/../../lib/gcc/pic32mx/4.8.3/../../../../pic32mx/lib/micromips\libpic32.a(sbrk.o)
 .reginfo       0x00000000       0x18 d:/program files/microchip/xc32/v2.50/bin/bin/../../lib/gcc/pic32mx/4.8.3/../../../../pic32mx/lib/micromips\libpic32.a(_exit.o)
 .reginfo       0x00000000       0x18 d:/program files/microchip/xc32/v2.50/bin/bin/../../lib/gcc/pic32mx/4.8.3/../../../../pic32mx/lib/micromips\libpic32.a(isatty.o)
 .reginfo       0x00000000       0x18 d:/program files/microchip/xc32/v2.50/bin/bin/../../lib/gcc/pic32mx/4.8.3/../../../../pic32mx/lib/micromips\libpic32.a(read.o)
 .reginfo       0x00000000       0x18 d:/program files/microchip/xc32/v2.50/bin/bin/../../lib/gcc/pic32mx/4.8.3/../../../../pic32mx/lib/micromips\libpic32.a(write.o)
 .reginfo       0x00000000       0x18 d:/program files/microchip/xc32/v2.50/bin/bin/../../lib/gcc/pic32mx/4.8.3/../../../../pic32mx/lib/micromips\libpic32.a(lseek.o)
 .reginfo       0x00000000       0x18 d:/program files/microchip/xc32/v2.50/bin/bin/../../lib/gcc/pic32mx/4.8.3/../../../../pic32mx/lib/micromips\libpic32.a(close.o)
 .reginfo       0x00000000       0x18 d:/program files/microchip/xc32/v2.50/bin/bin/../../lib/gcc/pic32mx/4.8.3/../../../../pic32mx/lib/micromips\libpic32.a(open.o)
 .gnu.warning.open
                0x00000000        0x0 d:/program files/microchip/xc32/v2.50/bin/bin/../../lib/gcc/pic32mx/4.8.3/../../../../pic32mx/lib/micromips\libpic32.a(open.o)
 .reginfo       0x00000000       0x18 d:/program files/microchip/xc32/v2.50/bin/bin/../../lib/gcc/pic32mx/4.8.3/../../../../pic32mx/lib/micromips\libpic32.a(unlink.o)
 .reginfo       0x00000000       0x18 d:/program files/microchip/xc32/v2.50/bin/bin/../../lib/gcc/pic32mx/4.8.3/../../../../pic32mx/lib/micromips\libpic32.a(kill.o)
 .reginfo       0x00000000       0x18 d:/program files/microchip/xc32/v2.50/bin/bin/../../lib/gcc/pic32mx/4.8.3/../../../../pic32mx/lib/micromips\libpic32.a(getpid.o)
 .reginfo       0x00000000       0x18 d:/program files/microchip/xc32/v2.50/bin/bin/../../lib/gcc/pic32mx/4.8.3/../../../../pic32mx/lib/micromips\libpic32.a(xc32_uart.o)
 .reginfo       0x00000000       0x18 d:/program files/microchip/xc32/v2.50/bin/bin/../../lib/gcc/pic32mx/4.8.3/../../../../pic32mx/lib/micromips\libpic32.a(errno.o)
 .reginfo       0x00000000       0x18 d:/program files/microchip/xc32/v2.50/bin/bin/../../lib/gcc/pic32mx/4.8.3/../../../../pic32mx/lib/micromips\libpic32.a(rmdir.o)
 .reginfo       0x00000000       0x18 d:/program files/microchip/xc32/v2.50/bin/bin/../../lib/gcc/pic32mx/4.8.3/../../../../pic32mx/lib/micromips\libpic32.a(_mon_putc.o)
 .reginfo       0x00000000       0x18 d:/program files/microchip/xc32/v2.50/bin/bin/../../lib/gcc/pic32mx/4.8.3/micromips/crtend.o
 .reginfo       0x00000000       0x18 d:/program files/microchip/xc32/v2.50/bin/bin/../../lib/gcc/pic32mx/4.8.3/micromips/crtn.o

Memory Configuration

Name             Origin             Length             Attributes
kseg0_program_mem 0x9d000000         0x00040000         xr
debug_exec_mem   0x9fc00490         0x00000760
kseg0_boot_mem   0x9fc00490         0x00000000
kseg1_boot_mem   0xbfc00000         0x00000490
config_BFC01744  0xbfc01744         0x00000004
config_BFC01748  0xbfc01748         0x00000004
config_BFC0174C  0xbfc0174c         0x00000004
config_BFC01750  0xbfc01750         0x00000004
config_BFC01754  0xbfc01754         0x00000004
config_BFC01758  0xbfc01758         0x00000004
config_BFC01760  0xbfc01760         0x00000004
config_BFC017C4  0xbfc017c4         0x00000004
config_BFC017C8  0xbfc017c8         0x00000004
config_BFC017CC  0xbfc017cc         0x00000004
config_BFC017D0  0xbfc017d0         0x00000004
config_BFC017D4  0xbfc017d4         0x00000004
config_BFC017D8  0xbfc017d8         0x00000004
config_BFC017E0  0xbfc017e0         0x00000004
kseg0_data_mem   0x80000000         0x00008000         w !x
sfrs             0xbf800000         0x00100000
configsfrs_BFC01740 0xbfc01740         0x0000001c
configsfrs_BFC017C0 0xbfc017c0         0x0000001c
*default*        0x00000000         0xffffffff

Linker script and memory map

LOAD d:/program files/microchip/xc32/v2.50/bin/bin/../../lib/gcc/pic32mx/4.8.3/micromips/crti.o
LOAD d:/program files/microchip/xc32/v2.50/bin/bin/../../lib/gcc/pic32mx/4.8.3/micromips/crtbegin.o
LOAD build/default/production/main.o
                0x00000001                __MPLAB_BUILD = 0x1
LOAD d:/program files/microchip/xc32/v2.50/bin/bin/../../lib/gcc/pic32mx/4.8.3/../../../../pic32mx/lib/micromips\libsupc++.a
LOAD C:\Users\hoang\AppData\Local\Temp\ccMoW1mQ.o
LOAD C:\Users\hoang\AppData\Local\Temp\cclKKak0.o
LOAD C:\Users\hoang\AppData\Local\Temp\ccFXkMDy.o
LOAD d:/program files/microchip/xc32/v2.50/bin/bin/../../lib/gcc/pic32mx/4.8.3/../../../../pic32mx/lib/micromips\pic32_software_reset-mm.o
                0x00000400                PROVIDE (_min_stack_size, 0x400)
                0x00000001                PROVIDE (_vector_spacing, 0x1)
                0x9d000000                PROVIDE (_ebase_address, 0x9d000000)
                0xbfc00000                _RESET_ADDR = 0xbfc00000
                0xbfc00380                _BEV_EXCPT_ADDR = 0xbfc00380
                0xbfc00480                _DBG_EXCPT_ADDR = 0xbfc00480
                0x9fc00490                _DBG_CODE_ADDR = 0x9fc00490
                0x00000760                _DBG_CODE_SIZE = 0x760
                0x9d000000                _SIMPLE_TLB_REFILL_EXCPT_ADDR = (_ebase_address + 0x0)
                0x9d000180                _GEN_EXCPT_ADDR = (_ebase_address + 0x180)

.config_BFC01744
 *(.config_BFC01744)

.config_BFC01748
 *(.config_BFC01748)

.config_BFC0174C
 *(.config_BFC0174C)

.config_BFC01750
 *(.config_BFC01750)

.config_BFC01754
 *(.config_BFC01754)

.config_BFC01758
 *(.config_BFC01758)

.config_BFC01760
 *(.config_BFC01760)

.config_BFC017C4
 *(.config_BFC017C4)

.config_BFC017C8
 *(.config_BFC017C8)

.config_BFC017CC
 *(.config_BFC017CC)

.config_BFC017D0
 *(.config_BFC017D0)

.config_BFC017D4
 *(.config_BFC017D4)

.config_BFC017D8
 *(.config_BFC017D8)

.config_BFC017E0
 *(.config_BFC017E0)

.reset          0xbfc00000      0x164
 *(.reset)
 .reset         0xbfc00000        0x8 C:\Users\hoang\AppData\Local\Temp\ccMoW1mQ.o
                0xbfc00001                _reset
 *(.reset.startup)
 .reset.startup
                0xbfc00008      0x15c C:\Users\hoang\AppData\Local\Temp\ccMoW1mQ.o
                0xbfc00009                _startup

.bev_excpt      0xbfc00380        0xc
 *(.bev_handler)
 .bev_handler   0xbfc00380        0xc C:\Users\hoang\AppData\Local\Temp\ccMoW1mQ.o

.dbg_excpt      0xbfc00480        0x0
                0xbfc00480                . = (. + DEFINED (_DEBUGGER)?0x8:0x0)

.dbg_code       0x9fc00490        0x0
                0x9fc00490                . = (. + DEFINED (_DEBUGGER)?_DBG_CODE_SIZE:0x0)

.app_excpt      0x9d000180        0xc
 *(.gen_handler)
 .gen_handler   0x9d000180        0xc C:\Users\hoang\AppData\Local\Temp\ccMoW1mQ.o

.vector_0       0x9d000200        0x8
 *(.vector_0)
 .vector_0      0x9d000200        0x8 d:/program files/microchip/xc32/v2.50/bin/bin/../../lib/gcc/pic32mx/4.8.3/../../../../pic32mx/lib/micromips\libpic32.a(vector0.o)
                0x9d000201                __vector_dispatch_0
                0x00000001                ASSERT (((_vector_spacing == 0x0) || (SIZEOF (.vector_0) <= (_vector_spacing << 0x3))), function at exception vector 0 too large)

.vector_1       0x9d000208        0x8
 *(.vector_1)
 .vector_1      0x9d000208        0x8 d:/program files/microchip/xc32/v2.50/bin/bin/../../lib/gcc/pic32mx/4.8.3/../../../../pic32mx/lib/micromips\libpic32.a(vector1.o)
                0x9d000209                __vector_dispatch_1
                0x00000001                ASSERT (((_vector_spacing == 0x0) || (SIZEOF (.vector_1) <= (_vector_spacing << 0x3))), function at exception vector 1 too large)

.vector_2       0x9d000210        0x8
 *(.vector_2)
 .vector_2      0x9d000210        0x8 d:/program files/microchip/xc32/v2.50/bin/bin/../../lib/gcc/pic32mx/4.8.3/../../../../pic32mx/lib/micromips\libpic32.a(vector2.o)
                0x9d000211                __vector_dispatch_2
                0x00000001                ASSERT (((_vector_spacing == 0x0) || (SIZEOF (.vector_2) <= (_vector_spacing << 0x3))), function at exception vector 2 too large)

.vector_3       0x9d000218        0x8
 *(.vector_3)
 .vector_3      0x9d000218        0x8 d:/program files/microchip/xc32/v2.50/bin/bin/../../lib/gcc/pic32mx/4.8.3/../../../../pic32mx/lib/micromips\libpic32.a(vector3.o)
                0x9d000219                __vector_dispatch_3
                0x00000001                ASSERT (((_vector_spacing == 0x0) || (SIZEOF (.vector_3) <= (_vector_spacing << 0x3))), function at exception vector 3 too large)

.vector_4       0x9d000220        0x8
 *(.vector_4)
 .vector_4      0x9d000220        0x8 d:/program files/microchip/xc32/v2.50/bin/bin/../../lib/gcc/pic32mx/4.8.3/../../../../pic32mx/lib/micromips\libpic32.a(vector4.o)
                0x9d000221                __vector_dispatch_4
                0x00000001                ASSERT (((_vector_spacing == 0x0) || (SIZEOF (.vector_4) <= (_vector_spacing << 0x3))), function at exception vector 4 too large)

.vector_5       0x9d000228        0x8
 *(.vector_5)
 .vector_5      0x9d000228        0x8 d:/program files/microchip/xc32/v2.50/bin/bin/../../lib/gcc/pic32mx/4.8.3/../../../../pic32mx/lib/micromips\libpic32.a(vector5.o)
                0x9d000229                __vector_dispatch_5
                0x00000001                ASSERT (((_vector_spacing == 0x0) || (SIZEOF (.vector_5) <= (_vector_spacing << 0x3))), function at exception vector 5 too large)

.vector_6       0x9d000230        0x8
 *(.vector_6)
 .vector_6      0x9d000230        0x8 d:/program files/microchip/xc32/v2.50/bin/bin/../../lib/gcc/pic32mx/4.8.3/../../../../pic32mx/lib/micromips\libpic32.a(vector6.o)
                0x9d000231                __vector_dispatch_6
                0x00000001                ASSERT (((_vector_spacing == 0x0) || (SIZEOF (.vector_6) <= (_vector_spacing << 0x3))), function at exception vector 6 too large)

.vector_7       0x9d000238        0x8
 *(.vector_7)
 .vector_7      0x9d000238        0x8 d:/program files/microchip/xc32/v2.50/bin/bin/../../lib/gcc/pic32mx/4.8.3/../../../../pic32mx/lib/micromips\libpic32.a(vector7.o)
                0x9d000239                __vector_dispatch_7
                0x00000001                ASSERT (((_vector_spacing == 0x0) || (SIZEOF (.vector_7) <= (_vector_spacing << 0x3))), function at exception vector 7 too large)

.vector_8       0x9d000240        0x8
 *(.vector_8)
 .vector_8      0x9d000240        0x8 d:/program files/microchip/xc32/v2.50/bin/bin/../../lib/gcc/pic32mx/4.8.3/../../../../pic32mx/lib/micromips\libpic32.a(vector8.o)
                0x9d000241                __vector_dispatch_8
                0x00000001                ASSERT (((_vector_spacing == 0x0) || (SIZEOF (.vector_8) <= (_vector_spacing << 0x3))), function at exception vector 8 too large)

.vector_9       0x9d000248        0x8
 *(.vector_9)
 .vector_9      0x9d000248        0x8 d:/program files/microchip/xc32/v2.50/bin/bin/../../lib/gcc/pic32mx/4.8.3/../../../../pic32mx/lib/micromips\libpic32.a(vector9.o)
                0x9d000249                __vector_dispatch_9
                0x00000001                ASSERT (((_vector_spacing == 0x0) || (SIZEOF (.vector_9) <= (_vector_spacing << 0x3))), function at exception vector 9 too large)

.vector_10      0x9d000250        0x8
 *(.vector_10)
 .vector_10     0x9d000250        0x8 d:/program files/microchip/xc32/v2.50/bin/bin/../../lib/gcc/pic32mx/4.8.3/../../../../pic32mx/lib/micromips\libpic32.a(vector10.o)
                0x9d000251                __vector_dispatch_10
                0x00000001                ASSERT (((_vector_spacing == 0x0) || (SIZEOF (.vector_10) <= (_vector_spacing << 0x3))), function at exception vector 10 too large)

.vector_11      0x9d000258        0x8
 *(.vector_11)
 .vector_11     0x9d000258        0x8 d:/program files/microchip/xc32/v2.50/bin/bin/../../lib/gcc/pic32mx/4.8.3/../../../../pic32mx/lib/micromips\libpic32.a(vector11.o)
                0x9d000259                __vector_dispatch_11
                0x00000001                ASSERT (((_vector_spacing == 0x0) || (SIZEOF (.vector_11) <= (_vector_spacing << 0x3))), function at exception vector 11 too large)

.vector_12      0x9d000260        0x8
 *(.vector_12)
 .vector_12     0x9d000260        0x8 d:/program files/microchip/xc32/v2.50/bin/bin/../../lib/gcc/pic32mx/4.8.3/../../../../pic32mx/lib/micromips\libpic32.a(vector12.o)
                0x9d000261                __vector_dispatch_12
                0x00000001                ASSERT (((_vector_spacing == 0x0) || (SIZEOF (.vector_12) <= (_vector_spacing << 0x3))), function at exception vector 12 too large)

.vector_13      0x9d000268        0x8
 *(.vector_13)
 .vector_13     0x9d000268        0x8 d:/program files/microchip/xc32/v2.50/bin/bin/../../lib/gcc/pic32mx/4.8.3/../../../../pic32mx/lib/micromips\libpic32.a(vector13.o)
                0x9d000269                __vector_dispatch_13
                0x00000001                ASSERT (((_vector_spacing == 0x0) || (SIZEOF (.vector_13) <= (_vector_spacing << 0x3))), function at exception vector 13 too large)

.vector_14      0x9d000270        0x8
 *(.vector_14)
 .vector_14     0x9d000270        0x8 d:/program files/microchip/xc32/v2.50/bin/bin/../../lib/gcc/pic32mx/4.8.3/../../../../pic32mx/lib/micromips\libpic32.a(vector14.o)
                0x9d000271                __vector_dispatch_14
                0x00000001                ASSERT (((_vector_spacing == 0x0) || (SIZEOF (.vector_14) <= (_vector_spacing << 0x3))), function at exception vector 14 too large)

.vector_15      0x9d000278        0x8
 *(.vector_15)
 .vector_15     0x9d000278        0x8 d:/program files/microchip/xc32/v2.50/bin/bin/../../lib/gcc/pic32mx/4.8.3/../../../../pic32mx/lib/micromips\libpic32.a(vector15.o)
                0x9d000279                __vector_dispatch_15
                0x00000001                ASSERT (((_vector_spacing == 0x0) || (SIZEOF (.vector_15) <= (_vector_spacing << 0x3))), function at exception vector 15 too large)

.vector_16      0x9d000280        0x8
 *(.vector_16)
 .vector_16     0x9d000280        0x8 d:/program files/microchip/xc32/v2.50/bin/bin/../../lib/gcc/pic32mx/4.8.3/../../../../pic32mx/lib/micromips\libpic32.a(vector16.o)
                0x9d000281                __vector_dispatch_16
                0x00000001                ASSERT (((_vector_spacing == 0x0) || (SIZEOF (.vector_16) <= (_vector_spacing << 0x3))), function at exception vector 16 too large)

.vector_17      0x9d000288        0x8
 *(.vector_17)
 .vector_17     0x9d000288        0x8 d:/program files/microchip/xc32/v2.50/bin/bin/../../lib/gcc/pic32mx/4.8.3/../../../../pic32mx/lib/micromips\libpic32.a(vector17.o)
                0x9d000289                __vector_dispatch_17
                0x00000001                ASSERT (((_vector_spacing == 0x0) || (SIZEOF (.vector_17) <= (_vector_spacing << 0x3))), function at exception vector 17 too large)

.vector_18      0x9d000290        0x8
 *(.vector_18)
 .vector_18     0x9d000290        0x8 d:/program files/microchip/xc32/v2.50/bin/bin/../../lib/gcc/pic32mx/4.8.3/../../../../pic32mx/lib/micromips\libpic32.a(vector18.o)
                0x9d000291                __vector_dispatch_18
                0x00000001                ASSERT (((_vector_spacing == 0x0) || (SIZEOF (.vector_18) <= (_vector_spacing << 0x3))), function at exception vector 18 too large)

.vector_19      0x9d000298        0x8
 *(.vector_19)
 .vector_19     0x9d000298        0x8 d:/program files/microchip/xc32/v2.50/bin/bin/../../lib/gcc/pic32mx/4.8.3/../../../../pic32mx/lib/micromips\libpic32.a(vector19.o)
                0x9d000299                __vector_dispatch_19
                0x00000001                ASSERT (((_vector_spacing == 0x0) || (SIZEOF (.vector_19) <= (_vector_spacing << 0x3))), function at exception vector 19 too large)

.vector_20      0x9d0002a0        0x8
 *(.vector_20)
 .vector_20     0x9d0002a0        0x8 d:/program files/microchip/xc32/v2.50/bin/bin/../../lib/gcc/pic32mx/4.8.3/../../../../pic32mx/lib/micromips\libpic32.a(vector20.o)
                0x9d0002a1                __vector_dispatch_20
                0x00000001                ASSERT (((_vector_spacing == 0x0) || (SIZEOF (.vector_20) <= (_vector_spacing << 0x3))), function at exception vector 20 too large)

.vector_21      0x9d0002a8        0x8
 *(.vector_21)
 .vector_21     0x9d0002a8        0x8 d:/program files/microchip/xc32/v2.50/bin/bin/../../lib/gcc/pic32mx/4.8.3/../../../../pic32mx/lib/micromips\libpic32.a(vector21.o)
                0x9d0002a9                __vector_dispatch_21
                0x00000001                ASSERT (((_vector_spacing == 0x0) || (SIZEOF (.vector_21) <= (_vector_spacing << 0x3))), function at exception vector 21 too large)

.vector_22      0x9d0002b0        0x8
 *(.vector_22)
 .vector_22     0x9d0002b0        0x8 d:/program files/microchip/xc32/v2.50/bin/bin/../../lib/gcc/pic32mx/4.8.3/../../../../pic32mx/lib/micromips\libpic32.a(vector22.o)
                0x9d0002b1                __vector_dispatch_22
                0x00000001                ASSERT (((_vector_spacing == 0x0) || (SIZEOF (.vector_22) <= (_vector_spacing << 0x3))), function at exception vector 22 too large)

.vector_23      0x9d0002b8        0x8
 *(.vector_23)
 .vector_23     0x9d0002b8        0x8 d:/program files/microchip/xc32/v2.50/bin/bin/../../lib/gcc/pic32mx/4.8.3/../../../../pic32mx/lib/micromips\libpic32.a(vector23.o)
                0x9d0002b9                __vector_dispatch_23
                0x00000001                ASSERT (((_vector_spacing == 0x0) || (SIZEOF (.vector_23) <= (_vector_spacing << 0x3))), function at exception vector 23 too large)

.vector_24      0x9d0002c0        0x8
 *(.vector_24)
 .vector_24     0x9d0002c0        0x8 d:/program files/microchip/xc32/v2.50/bin/bin/../../lib/gcc/pic32mx/4.8.3/../../../../pic32mx/lib/micromips\libpic32.a(vector24.o)
                0x9d0002c1                __vector_dispatch_24
                0x00000001                ASSERT (((_vector_spacing == 0x0) || (SIZEOF (.vector_24) <= (_vector_spacing << 0x3))), function at exception vector 24 too large)

.vector_25      0x9d0002c8        0x8
 *(.vector_25)
 .vector_25     0x9d0002c8        0x8 d:/program files/microchip/xc32/v2.50/bin/bin/../../lib/gcc/pic32mx/4.8.3/../../../../pic32mx/lib/micromips\libpic32.a(vector25.o)
                0x9d0002c9                __vector_dispatch_25
                0x00000001                ASSERT (((_vector_spacing == 0x0) || (SIZEOF (.vector_25) <= (_vector_spacing << 0x3))), function at exception vector 25 too large)

.vector_26      0x9d0002d0        0x8
 *(.vector_26)
 .vector_26     0x9d0002d0        0x8 d:/program files/microchip/xc32/v2.50/bin/bin/../../lib/gcc/pic32mx/4.8.3/../../../../pic32mx/lib/micromips\libpic32.a(vector26.o)
                0x9d0002d1                __vector_dispatch_26
                0x00000001                ASSERT (((_vector_spacing == 0x0) || (SIZEOF (.vector_26) <= (_vector_spacing << 0x3))), function at exception vector 26 too large)

.vector_27      0x9d0002d8        0x8
 *(.vector_27)
 .vector_27     0x9d0002d8        0x8 d:/program files/microchip/xc32/v2.50/bin/bin/../../lib/gcc/pic32mx/4.8.3/../../../../pic32mx/lib/micromips\libpic32.a(vector27.o)
                0x9d0002d9                __vector_dispatch_27
                0x00000001                ASSERT (((_vector_spacing == 0x0) || (SIZEOF (.vector_27) <= (_vector_spacing << 0x3))), function at exception vector 27 too large)

.vector_28      0x9d0002e0        0x8
 *(.vector_28)
 .vector_28     0x9d0002e0        0x8 d:/program files/microchip/xc32/v2.50/bin/bin/../../lib/gcc/pic32mx/4.8.3/../../../../pic32mx/lib/micromips\libpic32.a(vector28.o)
                0x9d0002e1                __vector_dispatch_28
                0x00000001                ASSERT (((_vector_spacing == 0x0) || (SIZEOF (.vector_28) <= (_vector_spacing << 0x3))), function at exception vector 28 too large)

.vector_29      0x9d0002e8        0x8
 *(.vector_29)
 .vector_29     0x9d0002e8        0x8 d:/program files/microchip/xc32/v2.50/bin/bin/../../lib/gcc/pic32mx/4.8.3/../../../../pic32mx/lib/micromips\libpic32.a(vector29.o)
                0x9d0002e9                __vector_dispatch_29
                0x00000001                ASSERT (((_vector_spacing == 0x0) || (SIZEOF (.vector_29) <= (_vector_spacing << 0x3))), function at exception vector 29 too large)

.vector_30      0x9d0002f0        0x8
 *(.vector_30)
 .vector_30     0x9d0002f0        0x8 d:/program files/microchip/xc32/v2.50/bin/bin/../../lib/gcc/pic32mx/4.8.3/../../../../pic32mx/lib/micromips\libpic32.a(vector30.o)
                0x9d0002f1                __vector_dispatch_30
                0x00000001                ASSERT (((_vector_spacing == 0x0) || (SIZEOF (.vector_30) <= (_vector_spacing << 0x3))), function at exception vector 30 too large)

.vector_31      0x9d0002f8        0x8
 *(.vector_31)
 .vector_31     0x9d0002f8        0x8 d:/program files/microchip/xc32/v2.50/bin/bin/../../lib/gcc/pic32mx/4.8.3/../../../../pic32mx/lib/micromips\libpic32.a(vector31.o)
                0x9d0002f9                __vector_dispatch_31
                0x00000001                ASSERT (((_vector_spacing == 0x0) || (SIZEOF (.vector_31) <= (_vector_spacing << 0x3))), function at exception vector 31 too large)

.vector_32      0x9d000300        0x8
 *(.vector_32)
 .vector_32     0x9d000300        0x8 d:/program files/microchip/xc32/v2.50/bin/bin/../../lib/gcc/pic32mx/4.8.3/../../../../pic32mx/lib/micromips\libpic32.a(vector32.o)
                0x9d000301                __vector_dispatch_32
                0x00000001                ASSERT (((_vector_spacing == 0x0) || (SIZEOF (.vector_32) <= (_vector_spacing << 0x3))), function at exception vector 32 too large)

.vector_33      0x9d000308        0x8
 *(.vector_33)
 .vector_33     0x9d000308        0x8 d:/program files/microchip/xc32/v2.50/bin/bin/../../lib/gcc/pic32mx/4.8.3/../../../../pic32mx/lib/micromips\libpic32.a(vector33.o)
                0x9d000309                __vector_dispatch_33
                0x00000001                ASSERT (((_vector_spacing == 0x0) || (SIZEOF (.vector_33) <= (_vector_spacing << 0x3))), function at exception vector 33 too large)

.vector_34      0x9d000310        0x8
 *(.vector_34)
 .vector_34     0x9d000310        0x8 d:/program files/microchip/xc32/v2.50/bin/bin/../../lib/gcc/pic32mx/4.8.3/../../../../pic32mx/lib/micromips\libpic32.a(vector34.o)
                0x9d000311                __vector_dispatch_34
                0x00000001                ASSERT (((_vector_spacing == 0x0) || (SIZEOF (.vector_34) <= (_vector_spacing << 0x3))), function at exception vector 34 too large)

.vector_35      0x9d000318        0x8
 *(.vector_35)
 .vector_35     0x9d000318        0x8 d:/program files/microchip/xc32/v2.50/bin/bin/../../lib/gcc/pic32mx/4.8.3/../../../../pic32mx/lib/micromips\libpic32.a(vector35.o)
                0x9d000319                __vector_dispatch_35
                0x00000001                ASSERT (((_vector_spacing == 0x0) || (SIZEOF (.vector_35) <= (_vector_spacing << 0x3))), function at exception vector 35 too large)

.vector_36      0x9d000320        0x8
 *(.vector_36)
 .vector_36     0x9d000320        0x8 d:/program files/microchip/xc32/v2.50/bin/bin/../../lib/gcc/pic32mx/4.8.3/../../../../pic32mx/lib/micromips\libpic32.a(vector36.o)
                0x9d000321                __vector_dispatch_36
                0x00000001                ASSERT (((_vector_spacing == 0x0) || (SIZEOF (.vector_36) <= (_vector_spacing << 0x3))), function at exception vector 36 too large)

.vector_37      0x9d000328        0x8
 *(.vector_37)
 .vector_37     0x9d000328        0x8 d:/program files/microchip/xc32/v2.50/bin/bin/../../lib/gcc/pic32mx/4.8.3/../../../../pic32mx/lib/micromips\libpic32.a(vector37.o)
                0x9d000329                __vector_dispatch_37
                0x00000001                ASSERT (((_vector_spacing == 0x0) || (SIZEOF (.vector_37) <= (_vector_spacing << 0x3))), function at exception vector 37 too large)

.vector_38      0x9d000330        0x8
 *(.vector_38)
 .vector_38     0x9d000330        0x8 d:/program files/microchip/xc32/v2.50/bin/bin/../../lib/gcc/pic32mx/4.8.3/../../../../pic32mx/lib/micromips\libpic32.a(vector38.o)
                0x9d000331                __vector_dispatch_38
                0x00000001                ASSERT (((_vector_spacing == 0x0) || (SIZEOF (.vector_38) <= (_vector_spacing << 0x3))), function at exception vector 38 too large)

.vector_39      0x9d000338        0x8
 *(.vector_39)
 .vector_39     0x9d000338        0x8 d:/program files/microchip/xc32/v2.50/bin/bin/../../lib/gcc/pic32mx/4.8.3/../../../../pic32mx/lib/micromips\libpic32.a(vector39.o)
                0x9d000339                __vector_dispatch_39
                0x00000001                ASSERT (((_vector_spacing == 0x0) || (SIZEOF (.vector_39) <= (_vector_spacing << 0x3))), function at exception vector 39 too large)

.vector_40      0x9d000340        0x8
 *(.vector_40)
 .vector_40     0x9d000340        0x8 d:/program files/microchip/xc32/v2.50/bin/bin/../../lib/gcc/pic32mx/4.8.3/../../../../pic32mx/lib/micromips\libpic32.a(vector40.o)
                0x9d000341                __vector_dispatch_40
                0x00000001                ASSERT (((_vector_spacing == 0x0) || (SIZEOF (.vector_40) <= (_vector_spacing << 0x3))), function at exception vector 40 too large)

.vector_41      0x9d000348        0x8
 *(.vector_41)
 .vector_41     0x9d000348        0x8 d:/program files/microchip/xc32/v2.50/bin/bin/../../lib/gcc/pic32mx/4.8.3/../../../../pic32mx/lib/micromips\libpic32.a(vector41.o)
                0x9d000349                __vector_dispatch_41
                0x00000001                ASSERT (((_vector_spacing == 0x0) || (SIZEOF (.vector_41) <= (_vector_spacing << 0x3))), function at exception vector 41 too large)

.vector_42      0x9d000350        0x8
 *(.vector_42)
 .vector_42     0x9d000350        0x8 d:/program files/microchip/xc32/v2.50/bin/bin/../../lib/gcc/pic32mx/4.8.3/../../../../pic32mx/lib/micromips\libpic32.a(vector42.o)
                0x9d000351                __vector_dispatch_42
                0x00000001                ASSERT (((_vector_spacing == 0x0) || (SIZEOF (.vector_42) <= (_vector_spacing << 0x3))), function at exception vector 42 too large)

.vector_43      0x9d000358        0x8
 *(.vector_43)
 .vector_43     0x9d000358        0x8 d:/program files/microchip/xc32/v2.50/bin/bin/../../lib/gcc/pic32mx/4.8.3/../../../../pic32mx/lib/micromips\libpic32.a(vector43.o)
                0x9d000359                __vector_dispatch_43
                0x00000001                ASSERT (((_vector_spacing == 0x0) || (SIZEOF (.vector_43) <= (_vector_spacing << 0x3))), function at exception vector 43 too large)

.vector_44      0x9d000360        0x8
 *(.vector_44)
 .vector_44     0x9d000360        0x8 d:/program files/microchip/xc32/v2.50/bin/bin/../../lib/gcc/pic32mx/4.8.3/../../../../pic32mx/lib/micromips\libpic32.a(vector44.o)
                0x9d000361                __vector_dispatch_44
                0x00000001                ASSERT (((_vector_spacing == 0x0) || (SIZEOF (.vector_44) <= (_vector_spacing << 0x3))), function at exception vector 44 too large)

.vector_45      0x9d000368        0x8
 *(.vector_45)
 .vector_45     0x9d000368        0x8 d:/program files/microchip/xc32/v2.50/bin/bin/../../lib/gcc/pic32mx/4.8.3/../../../../pic32mx/lib/micromips\libpic32.a(vector45.o)
                0x9d000369                __vector_dispatch_45
                0x00000001                ASSERT (((_vector_spacing == 0x0) || (SIZEOF (.vector_45) <= (_vector_spacing << 0x3))), function at exception vector 45 too large)

.vector_46      0x9d000370        0x8
 *(.vector_46)
 .vector_46     0x9d000370        0x8 d:/program files/microchip/xc32/v2.50/bin/bin/../../lib/gcc/pic32mx/4.8.3/../../../../pic32mx/lib/micromips\libpic32.a(vector46.o)
                0x9d000371                __vector_dispatch_46
                0x00000001                ASSERT (((_vector_spacing == 0x0) || (SIZEOF (.vector_46) <= (_vector_spacing << 0x3))), function at exception vector 46 too large)

.vector_47      0x9d000378        0x8
 *(.vector_47)
 .vector_47     0x9d000378        0x8 d:/program files/microchip/xc32/v2.50/bin/bin/../../lib/gcc/pic32mx/4.8.3/../../../../pic32mx/lib/micromips\libpic32.a(vector47.o)
                0x9d000379                __vector_dispatch_47
                0x00000001                ASSERT (((_vector_spacing == 0x0) || (SIZEOF (.vector_47) <= (_vector_spacing << 0x3))), function at exception vector 47 too large)

.vector_48      0x9d000380        0x8
 *(.vector_48)
 .vector_48     0x9d000380        0x8 d:/program files/microchip/xc32/v2.50/bin/bin/../../lib/gcc/pic32mx/4.8.3/../../../../pic32mx/lib/micromips\libpic32.a(vector48.o)
                0x9d000381                __vector_dispatch_48
                0x00000001                ASSERT (((_vector_spacing == 0x0) || (SIZEOF (.vector_48) <= (_vector_spacing << 0x3))), function at exception vector 48 too large)

.vector_49      0x9d000388        0x8
 *(.vector_49)
 .vector_49     0x9d000388        0x8 d:/program files/microchip/xc32/v2.50/bin/bin/../../lib/gcc/pic32mx/4.8.3/../../../../pic32mx/lib/micromips\libpic32.a(vector49.o)
                0x9d000389                __vector_dispatch_49
                0x00000001                ASSERT (((_vector_spacing == 0x0) || (SIZEOF (.vector_49) <= (_vector_spacing << 0x3))), function at exception vector 49 too large)

.vector_50      0x9d000390        0x8
 *(.vector_50)
 .vector_50     0x9d000390        0x8 d:/program files/microchip/xc32/v2.50/bin/bin/../../lib/gcc/pic32mx/4.8.3/../../../../pic32mx/lib/micromips\libpic32.a(vector50.o)
                0x9d000391                __vector_dispatch_50
                0x00000001                ASSERT (((_vector_spacing == 0x0) || (SIZEOF (.vector_50) <= (_vector_spacing << 0x3))), function at exception vector 50 too large)

.vector_51      0x9d000398        0x8
 *(.vector_51)
 .vector_51     0x9d000398        0x8 d:/program files/microchip/xc32/v2.50/bin/bin/../../lib/gcc/pic32mx/4.8.3/../../../../pic32mx/lib/micromips\libpic32.a(vector51.o)
                0x9d000399                __vector_dispatch_51
                0x00000001                ASSERT (((_vector_spacing == 0x0) || (SIZEOF (.vector_51) <= (_vector_spacing << 0x3))), function at exception vector 51 too large)

.vector_52      0x9d0003a0        0x8
 *(.vector_52)
 .vector_52     0x9d0003a0        0x8 d:/program files/microchip/xc32/v2.50/bin/bin/../../lib/gcc/pic32mx/4.8.3/../../../../pic32mx/lib/micromips\libpic32.a(vector52.o)
                0x9d0003a1                __vector_dispatch_52
                0x00000001                ASSERT (((_vector_spacing == 0x0) || (SIZEOF (.vector_52) <= (_vector_spacing << 0x3))), function at exception vector 52 too large)

.vector_53      0x9d0003a8        0x8
 *(.vector_53)
 .vector_53     0x9d0003a8        0x8 d:/program files/microchip/xc32/v2.50/bin/bin/../../lib/gcc/pic32mx/4.8.3/../../../../pic32mx/lib/micromips\libpic32.a(vector53.o)
                0x9d0003a9                __vector_dispatch_53
                0x00000001                ASSERT (((_vector_spacing == 0x0) || (SIZEOF (.vector_53) <= (_vector_spacing << 0x3))), function at exception vector 53 too large)

.vector_54      0x9d0003b0        0x8
 *(.vector_54)
 .vector_54     0x9d0003b0        0x8 d:/program files/microchip/xc32/v2.50/bin/bin/../../lib/gcc/pic32mx/4.8.3/../../../../pic32mx/lib/micromips\libpic32.a(vector54.o)
                0x9d0003b1                __vector_dispatch_54
                0x00000001                ASSERT (((_vector_spacing == 0x0) || (SIZEOF (.vector_54) <= (_vector_spacing << 0x3))), function at exception vector 54 too large)

.vector_55      0x9d0003b8        0x8
 *(.vector_55)
 .vector_55     0x9d0003b8        0x8 d:/program files/microchip/xc32/v2.50/bin/bin/../../lib/gcc/pic32mx/4.8.3/../../../../pic32mx/lib/micromips\libpic32.a(vector55.o)
                0x9d0003b9                __vector_dispatch_55
                0x00000001                ASSERT (((_vector_spacing == 0x0) || (SIZEOF (.vector_55) <= (_vector_spacing << 0x3))), function at exception vector 55 too large)

.vector_56      0x9d0003c0        0x8
 *(.vector_56)
 .vector_56     0x9d0003c0        0x8 d:/program files/microchip/xc32/v2.50/bin/bin/../../lib/gcc/pic32mx/4.8.3/../../../../pic32mx/lib/micromips\libpic32.a(vector56.o)
                0x9d0003c1                __vector_dispatch_56
                0x00000001                ASSERT (((_vector_spacing == 0x0) || (SIZEOF (.vector_56) <= (_vector_spacing << 0x3))), function at exception vector 56 too large)

.vector_57      0x9d0003c8        0x8
 *(.vector_57)
 .vector_57     0x9d0003c8        0x8 d:/program files/microchip/xc32/v2.50/bin/bin/../../lib/gcc/pic32mx/4.8.3/../../../../pic32mx/lib/micromips\libpic32.a(vector57.o)
                0x9d0003c9                __vector_dispatch_57
                0x00000001                ASSERT (((_vector_spacing == 0x0) || (SIZEOF (.vector_57) <= (_vector_spacing << 0x3))), function at exception vector 57 too large)

.vector_58      0x9d0003d0        0x8
 *(.vector_58)
 .vector_58     0x9d0003d0        0x8 d:/program files/microchip/xc32/v2.50/bin/bin/../../lib/gcc/pic32mx/4.8.3/../../../../pic32mx/lib/micromips\libpic32.a(vector58.o)
                0x9d0003d1                __vector_dispatch_58
                0x00000001                ASSERT (((_vector_spacing == 0x0) || (SIZEOF (.vector_58) <= (_vector_spacing << 0x3))), function at exception vector 58 too large)

.vector_59      0x9d0003d8        0x8
 *(.vector_59)
 .vector_59     0x9d0003d8        0x8 d:/program files/microchip/xc32/v2.50/bin/bin/../../lib/gcc/pic32mx/4.8.3/../../../../pic32mx/lib/micromips\libpic32.a(vector59.o)
                0x9d0003d9                __vector_dispatch_59
                0x00000001                ASSERT (((_vector_spacing == 0x0) || (SIZEOF (.vector_59) <= (_vector_spacing << 0x3))), function at exception vector 59 too large)

.vector_60      0x9d0003e0        0x8
 *(.vector_60)
 .vector_60     0x9d0003e0        0x8 d:/program files/microchip/xc32/v2.50/bin/bin/../../lib/gcc/pic32mx/4.8.3/../../../../pic32mx/lib/micromips\libpic32.a(vector60.o)
                0x9d0003e1                __vector_dispatch_60
                0x00000001                ASSERT (((_vector_spacing == 0x0) || (SIZEOF (.vector_60) <= (_vector_spacing << 0x3))), function at exception vector 60 too large)

.vector_61      0x9d0003e8        0x8
 *(.vector_61)
 .vector_61     0x9d0003e8        0x8 d:/program files/microchip/xc32/v2.50/bin/bin/../../lib/gcc/pic32mx/4.8.3/../../../../pic32mx/lib/micromips\libpic32.a(vector61.o)
                0x9d0003e9                __vector_dispatch_61
                0x00000001                ASSERT (((_vector_spacing == 0x0) || (SIZEOF (.vector_61) <= (_vector_spacing << 0x3))), function at exception vector 61 too large)

.vector_62      0x9d0003f0        0x8
 *(.vector_62)
 .vector_62     0x9d0003f0        0x8 d:/program files/microchip/xc32/v2.50/bin/bin/../../lib/gcc/pic32mx/4.8.3/../../../../pic32mx/lib/micromips\libpic32.a(vector62.o)
                0x9d0003f1                __vector_dispatch_62
                0x00000001                ASSERT (((_vector_spacing == 0x0) || (SIZEOF (.vector_62) <= (_vector_spacing << 0x3))), function at exception vector 62 too large)

.vector_63      0x9d0003f8        0x8
 *(.vector_63)
 .vector_63     0x9d0003f8        0x8 d:/program files/microchip/xc32/v2.50/bin/bin/../../lib/gcc/pic32mx/4.8.3/../../../../pic32mx/lib/micromips\libpic32.a(vector63.o)
                0x9d0003f9                __vector_dispatch_63
                0x00000001                ASSERT (((_vector_spacing == 0x0) || (SIZEOF (.vector_63) <= (_vector_spacing << 0x3))), function at exception vector 63 too large)

.vector_64      0x9d000400        0x8
 *(.vector_64)
 .vector_64     0x9d000400        0x8 d:/program files/microchip/xc32/v2.50/bin/bin/../../lib/gcc/pic32mx/4.8.3/../../../../pic32mx/lib/micromips\libpic32.a(vector64.o)
                0x9d000401                __vector_dispatch_64
                0x00000001                ASSERT (((_vector_spacing == 0x0) || (SIZEOF (.vector_64) <= (_vector_spacing << 0x3))), function at exception vector 64 too large)

.vector_65      0x9d000408        0x8
 *(.vector_65)
 .vector_65     0x9d000408        0x8 d:/program files/microchip/xc32/v2.50/bin/bin/../../lib/gcc/pic32mx/4.8.3/../../../../pic32mx/lib/micromips\libpic32.a(vector65.o)
                0x9d000409                __vector_dispatch_65
                0x00000001                ASSERT (((_vector_spacing == 0x0) || (SIZEOF (.vector_65) <= (_vector_spacing << 0x3))), function at exception vector 65 too large)

.vector_66      0x9d000410        0x8
 *(.vector_66)
 .vector_66     0x9d000410        0x8 d:/program files/microchip/xc32/v2.50/bin/bin/../../lib/gcc/pic32mx/4.8.3/../../../../pic32mx/lib/micromips\libpic32.a(vector66.o)
                0x9d000411                __vector_dispatch_66
                0x00000001                ASSERT (((_vector_spacing == 0x0) || (SIZEOF (.vector_66) <= (_vector_spacing << 0x3))), function at exception vector 66 too large)

.vector_67      0x9d000418        0x8
 *(.vector_67)
 .vector_67     0x9d000418        0x8 d:/program files/microchip/xc32/v2.50/bin/bin/../../lib/gcc/pic32mx/4.8.3/../../../../pic32mx/lib/micromips\libpic32.a(vector67.o)
                0x9d000419                __vector_dispatch_67
                0x00000001                ASSERT (((_vector_spacing == 0x0) || (SIZEOF (.vector_67) <= (_vector_spacing << 0x3))), function at exception vector 67 too large)

.vector_68      0x9d000420        0x8
 *(.vector_68)
 .vector_68     0x9d000420        0x8 d:/program files/microchip/xc32/v2.50/bin/bin/../../lib/gcc/pic32mx/4.8.3/../../../../pic32mx/lib/micromips\libpic32.a(vector68.o)
                0x9d000421                __vector_dispatch_68
                0x00000001                ASSERT (((_vector_spacing == 0x0) || (SIZEOF (.vector_68) <= (_vector_spacing << 0x3))), function at exception vector 68 too large)

.vector_69      0x9d000428        0x8
 *(.vector_69)
 .vector_69     0x9d000428        0x8 d:/program files/microchip/xc32/v2.50/bin/bin/../../lib/gcc/pic32mx/4.8.3/../../../../pic32mx/lib/micromips\libpic32.a(vector69.o)
                0x9d000429                __vector_dispatch_69
                0x00000001                ASSERT (((_vector_spacing == 0x0) || (SIZEOF (.vector_69) <= (_vector_spacing << 0x3))), function at exception vector 69 too large)

.vector_70      0x9d000430        0x8
 *(.vector_70)
 .vector_70     0x9d000430        0x8 d:/program files/microchip/xc32/v2.50/bin/bin/../../lib/gcc/pic32mx/4.8.3/../../../../pic32mx/lib/micromips\libpic32.a(vector70.o)
                0x9d000431                __vector_dispatch_70
                0x00000001                ASSERT (((_vector_spacing == 0x0) || (SIZEOF (.vector_70) <= (_vector_spacing << 0x3))), function at exception vector 70 too large)

.vector_71      0x9d000438        0x8
 *(.vector_71)
 .vector_71     0x9d000438        0x8 d:/program files/microchip/xc32/v2.50/bin/bin/../../lib/gcc/pic32mx/4.8.3/../../../../pic32mx/lib/micromips\libpic32.a(vector71.o)
                0x9d000439                __vector_dispatch_71
                0x00000001                ASSERT (((_vector_spacing == 0x0) || (SIZEOF (.vector_71) <= (_vector_spacing << 0x3))), function at exception vector 71 too large)

.vector_72      0x9d000440        0x8
 *(.vector_72)
 .vector_72     0x9d000440        0x8 d:/program files/microchip/xc32/v2.50/bin/bin/../../lib/gcc/pic32mx/4.8.3/../../../../pic32mx/lib/micromips\libpic32.a(vector72.o)
                0x9d000441                __vector_dispatch_72
                0x00000001                ASSERT (((_vector_spacing == 0x0) || (SIZEOF (.vector_72) <= (_vector_spacing << 0x3))), function at exception vector 72 too large)

.vector_73      0x9d000448        0x8
 *(.vector_73)
 .vector_73     0x9d000448        0x8 d:/program files/microchip/xc32/v2.50/bin/bin/../../lib/gcc/pic32mx/4.8.3/../../../../pic32mx/lib/micromips\libpic32.a(vector73.o)
                0x9d000449                __vector_dispatch_73
                0x00000001                ASSERT (((_vector_spacing == 0x0) || (SIZEOF (.vector_73) <= (_vector_spacing << 0x3))), function at exception vector 73 too large)

.vector_74      0x9d000450        0x8
 *(.vector_74)
 .vector_74     0x9d000450        0x8 d:/program files/microchip/xc32/v2.50/bin/bin/../../lib/gcc/pic32mx/4.8.3/../../../../pic32mx/lib/micromips\libpic32.a(vector74.o)
                0x9d000451                __vector_dispatch_74
                0x00000001                ASSERT (((_vector_spacing == 0x0) || (SIZEOF (.vector_74) <= (_vector_spacing << 0x3))), function at exception vector 74 too large)

.vector_75      0x9d000458        0x8
 *(.vector_75)
 .vector_75     0x9d000458        0x8 d:/program files/microchip/xc32/v2.50/bin/bin/../../lib/gcc/pic32mx/4.8.3/../../../../pic32mx/lib/micromips\libpic32.a(vector75.o)
                0x9d000459                __vector_dispatch_75
                0x00000001                ASSERT (((_vector_spacing == 0x0) || (SIZEOF (.vector_75) <= (_vector_spacing << 0x3))), function at exception vector 75 too large)

.vector_76      0x9d000460        0x8
 *(.vector_76)
 .vector_76     0x9d000460        0x8 d:/program files/microchip/xc32/v2.50/bin/bin/../../lib/gcc/pic32mx/4.8.3/../../../../pic32mx/lib/micromips\libpic32.a(vector76.o)
                0x9d000461                __vector_dispatch_76
                0x00000001                ASSERT (((_vector_spacing == 0x0) || (SIZEOF (.vector_76) <= (_vector_spacing << 0x3))), function at exception vector 76 too large)

.vector_77      0x9d000468        0x8
 *(.vector_77)
 .vector_77     0x9d000468        0x8 d:/program files/microchip/xc32/v2.50/bin/bin/../../lib/gcc/pic32mx/4.8.3/../../../../pic32mx/lib/micromips\libpic32.a(vector77.o)
                0x9d000469                __vector_dispatch_77
                0x00000001                ASSERT (((_vector_spacing == 0x0) || (SIZEOF (.vector_77) <= (_vector_spacing << 0x3))), function at exception vector 77 too large)

.vector_78      0x9d000470        0x8
 *(.vector_78)
 .vector_78     0x9d000470        0x8 d:/program files/microchip/xc32/v2.50/bin/bin/../../lib/gcc/pic32mx/4.8.3/../../../../pic32mx/lib/micromips\libpic32.a(vector78.o)
                0x9d000471                __vector_dispatch_78
                0x00000001                ASSERT (((_vector_spacing == 0x0) || (SIZEOF (.vector_78) <= (_vector_spacing << 0x3))), function at exception vector 78 too large)

.vector_79      0x9d000478        0x8
 *(.vector_79)
 .vector_79     0x9d000478        0x8 d:/program files/microchip/xc32/v2.50/bin/bin/../../lib/gcc/pic32mx/4.8.3/../../../../pic32mx/lib/micromips\libpic32.a(vector79.o)
                0x9d000479                __vector_dispatch_79
                0x00000001                ASSERT (((_vector_spacing == 0x0) || (SIZEOF (.vector_79) <= (_vector_spacing << 0x3))), function at exception vector 79 too large)

.vector_80      0x9d000480        0x8
 *(.vector_80)
 .vector_80     0x9d000480        0x8 d:/program files/microchip/xc32/v2.50/bin/bin/../../lib/gcc/pic32mx/4.8.3/../../../../pic32mx/lib/micromips\libpic32.a(vector80.o)
                0x9d000481                __vector_dispatch_80
                0x00000001                ASSERT (((_vector_spacing == 0x0) || (SIZEOF (.vector_80) <= (_vector_spacing << 0x3))), function at exception vector 80 too large)

.vector_81      0x9d000488        0x8
 *(.vector_81)
 .vector_81     0x9d000488        0x8 d:/program files/microchip/xc32/v2.50/bin/bin/../../lib/gcc/pic32mx/4.8.3/../../../../pic32mx/lib/micromips\libpic32.a(vector81.o)
                0x9d000489                __vector_dispatch_81
                0x00000001                ASSERT (((_vector_spacing == 0x0) || (SIZEOF (.vector_81) <= (_vector_spacing << 0x3))), function at exception vector 81 too large)

.vector_82      0x9d000490        0x8
 *(.vector_82)
 .vector_82     0x9d000490        0x8 d:/program files/microchip/xc32/v2.50/bin/bin/../../lib/gcc/pic32mx/4.8.3/../../../../pic32mx/lib/micromips\libpic32.a(vector82.o)
                0x9d000491                __vector_dispatch_82
                0x00000001                ASSERT (((_vector_spacing == 0x0) || (SIZEOF (.vector_82) <= (_vector_spacing << 0x3))), function at exception vector 82 too large)

.vector_83      0x9d000498        0x8
 *(.vector_83)
 .vector_83     0x9d000498        0x8 d:/program files/microchip/xc32/v2.50/bin/bin/../../lib/gcc/pic32mx/4.8.3/../../../../pic32mx/lib/micromips\libpic32.a(vector83.o)
                0x9d000499                __vector_dispatch_83
                0x00000001                ASSERT (((_vector_spacing == 0x0) || (SIZEOF (.vector_83) <= (_vector_spacing << 0x3))), function at exception vector 83 too large)

.vector_84      0x9d0004a0        0x8
 *(.vector_84)
 .vector_84     0x9d0004a0        0x8 d:/program files/microchip/xc32/v2.50/bin/bin/../../lib/gcc/pic32mx/4.8.3/../../../../pic32mx/lib/micromips\libpic32.a(vector84.o)
                0x9d0004a1                __vector_dispatch_84
                0x00000001                ASSERT (((_vector_spacing == 0x0) || (SIZEOF (.vector_84) <= (_vector_spacing << 0x3))), function at exception vector 84 too large)

.vector_85      0x9d0004a8        0x8
 *(.vector_85)
 .vector_85     0x9d0004a8        0x8 d:/program files/microchip/xc32/v2.50/bin/bin/../../lib/gcc/pic32mx/4.8.3/../../../../pic32mx/lib/micromips\libpic32.a(vector85.o)
                0x9d0004a9                __vector_dispatch_85
                0x00000001                ASSERT (((_vector_spacing == 0x0) || (SIZEOF (.vector_85) <= (_vector_spacing << 0x3))), function at exception vector 85 too large)

.vector_86      0x9d0004b0        0x8
 *(.vector_86)
 .vector_86     0x9d0004b0        0x8 d:/program files/microchip/xc32/v2.50/bin/bin/../../lib/gcc/pic32mx/4.8.3/../../../../pic32mx/lib/micromips\libpic32.a(vector86.o)
                0x9d0004b1                __vector_dispatch_86
                0x00000001                ASSERT (((_vector_spacing == 0x0) || (SIZEOF (.vector_86) <= (_vector_spacing << 0x3))), function at exception vector 86 too large)

.vector_87      0x9d0004b8        0x8
 *(.vector_87)
 .vector_87     0x9d0004b8        0x8 d:/program files/microchip/xc32/v2.50/bin/bin/../../lib/gcc/pic32mx/4.8.3/../../../../pic32mx/lib/micromips\libpic32.a(vector87.o)
                0x9d0004b9                __vector_dispatch_87
                0x00000001                ASSERT (((_vector_spacing == 0x0) || (SIZEOF (.vector_87) <= (_vector_spacing << 0x3))), function at exception vector 87 too large)

.vector_88      0x9d0004c0        0x8
 *(.vector_88)
 .vector_88     0x9d0004c0        0x8 d:/program files/microchip/xc32/v2.50/bin/bin/../../lib/gcc/pic32mx/4.8.3/../../../../pic32mx/lib/micromips\libpic32.a(vector88.o)
                0x9d0004c1                __vector_dispatch_88
                0x00000001                ASSERT (((_vector_spacing == 0x0) || (SIZEOF (.vector_88) <= (_vector_spacing << 0x3))), function at exception vector 88 too large)

.vector_89      0x9d0004c8        0x8
 *(.vector_89)
 .vector_89     0x9d0004c8        0x8 d:/program files/microchip/xc32/v2.50/bin/bin/../../lib/gcc/pic32mx/4.8.3/../../../../pic32mx/lib/micromips\libpic32.a(vector89.o)
                0x9d0004c9                __vector_dispatch_89
                0x00000001                ASSERT (((_vector_spacing == 0x0) || (SIZEOF (.vector_89) <= (_vector_spacing << 0x3))), function at exception vector 89 too large)

.vector_90      0x9d0004d0        0x8
 *(.vector_90)
 .vector_90     0x9d0004d0        0x8 d:/program files/microchip/xc32/v2.50/bin/bin/../../lib/gcc/pic32mx/4.8.3/../../../../pic32mx/lib/micromips\libpic32.a(vector90.o)
                0x9d0004d1                __vector_dispatch_90
                0x00000001                ASSERT (((_vector_spacing == 0x0) || (SIZEOF (.vector_90) <= (_vector_spacing << 0x3))), function at exception vector 90 too large)

.vector_91      0x9d0004d8        0x8
 *(.vector_91)
 .vector_91     0x9d0004d8        0x8 d:/program files/microchip/xc32/v2.50/bin/bin/../../lib/gcc/pic32mx/4.8.3/../../../../pic32mx/lib/micromips\libpic32.a(vector91.o)
                0x9d0004d9                __vector_dispatch_91
                0x00000001                ASSERT (((_vector_spacing == 0x0) || (SIZEOF (.vector_91) <= (_vector_spacing << 0x3))), function at exception vector 91 too large)

.vector_92      0x9d0004e0        0x8
 *(.vector_92)
 .vector_92     0x9d0004e0        0x8 d:/program files/microchip/xc32/v2.50/bin/bin/../../lib/gcc/pic32mx/4.8.3/../../../../pic32mx/lib/micromips\libpic32.a(vector92.o)
                0x9d0004e1                __vector_dispatch_92
                0x00000001                ASSERT (((_vector_spacing == 0x0) || (SIZEOF (.vector_92) <= (_vector_spacing << 0x3))), function at exception vector 92 too large)

.vector_93      0x9d0004e8        0x8
 *(.vector_93)
 .vector_93     0x9d0004e8        0x8 d:/program files/microchip/xc32/v2.50/bin/bin/../../lib/gcc/pic32mx/4.8.3/../../../../pic32mx/lib/micromips\libpic32.a(vector93.o)
                0x9d0004e9                __vector_dispatch_93
                0x00000001                ASSERT (((_vector_spacing == 0x0) || (SIZEOF (.vector_93) <= (_vector_spacing << 0x3))), function at exception vector 93 too large)

.vector_94      0x9d0004f0        0x8
 *(.vector_94)
 .vector_94     0x9d0004f0        0x8 d:/program files/microchip/xc32/v2.50/bin/bin/../../lib/gcc/pic32mx/4.8.3/../../../../pic32mx/lib/micromips\libpic32.a(vector94.o)
                0x9d0004f1                __vector_dispatch_94
                0x00000001                ASSERT (((_vector_spacing == 0x0) || (SIZEOF (.vector_94) <= (_vector_spacing << 0x3))), function at exception vector 94 too large)

.vector_95      0x9d0004f8        0x8
 *(.vector_95)
 .vector_95     0x9d0004f8        0x8 d:/program files/microchip/xc32/v2.50/bin/bin/../../lib/gcc/pic32mx/4.8.3/../../../../pic32mx/lib/micromips\libpic32.a(vector95.o)
                0x9d0004f9                __vector_dispatch_95
                0x00000001                ASSERT (((_vector_spacing == 0x0) || (SIZEOF (.vector_95) <= (_vector_spacing << 0x3))), function at exception vector 95 too large)

.vector_96      0x9d000500        0x8
 *(.vector_96)
 .vector_96     0x9d000500        0x8 d:/program files/microchip/xc32/v2.50/bin/bin/../../lib/gcc/pic32mx/4.8.3/../../../../pic32mx/lib/micromips\libpic32.a(vector96.o)
                0x9d000501                __vector_dispatch_96
                0x00000001                ASSERT (((_vector_spacing == 0x0) || (SIZEOF (.vector_96) <= (_vector_spacing << 0x3))), function at exception vector 96 too large)

.vector_97      0x9d000508        0x8
 *(.vector_97)
 .vector_97     0x9d000508        0x8 d:/program files/microchip/xc32/v2.50/bin/bin/../../lib/gcc/pic32mx/4.8.3/../../../../pic32mx/lib/micromips\libpic32.a(vector97.o)
                0x9d000509                __vector_dispatch_97
                0x00000001                ASSERT (((_vector_spacing == 0x0) || (SIZEOF (.vector_97) <= (_vector_spacing << 0x3))), function at exception vector 97 too large)

.vector_98      0x9d000510        0x8
 *(.vector_98)
 .vector_98     0x9d000510        0x8 d:/program files/microchip/xc32/v2.50/bin/bin/../../lib/gcc/pic32mx/4.8.3/../../../../pic32mx/lib/micromips\libpic32.a(vector98.o)
                0x9d000511                __vector_dispatch_98
                0x00000001                ASSERT (((_vector_spacing == 0x0) || (SIZEOF (.vector_98) <= (_vector_spacing << 0x3))), function at exception vector 98 too large)

.vector_99      0x9d000518        0x8
 *(.vector_99)
 .vector_99     0x9d000518        0x8 d:/program files/microchip/xc32/v2.50/bin/bin/../../lib/gcc/pic32mx/4.8.3/../../../../pic32mx/lib/micromips\libpic32.a(vector99.o)
                0x9d000519                __vector_dispatch_99
                0x00000001                ASSERT (((_vector_spacing == 0x0) || (SIZEOF (.vector_99) <= (_vector_spacing << 0x3))), function at exception vector 99 too large)

.vector_100     0x9d000520        0x8
 *(.vector_100)
 .vector_100    0x9d000520        0x8 d:/program files/microchip/xc32/v2.50/bin/bin/../../lib/gcc/pic32mx/4.8.3/../../../../pic32mx/lib/micromips\libpic32.a(vector100.o)
                0x9d000521                __vector_dispatch_100
                0x00000001                ASSERT (((_vector_spacing == 0x0) || (SIZEOF (.vector_100) <= (_vector_spacing << 0x3))), function at exception vector 100 too large)

.vector_101     0x9d000528        0x8
 *(.vector_101)
 .vector_101    0x9d000528        0x8 d:/program files/microchip/xc32/v2.50/bin/bin/../../lib/gcc/pic32mx/4.8.3/../../../../pic32mx/lib/micromips\libpic32.a(vector101.o)
                0x9d000529                __vector_dispatch_101
                0x00000001                ASSERT (((_vector_spacing == 0x0) || (SIZEOF (.vector_101) <= (_vector_spacing << 0x3))), function at exception vector 101 too large)

.startup
 *(.startup)

.text           0x9d000530     0x8180
 *(.stub .gnu.linkonce.t.*)
 .gnu.linkonce.t._ZNSt9exceptionC2Ev
                0x9d000530       0x20 build/default/production/main.o
                0x9d000531                std::exception::exception()
 .gnu.linkonce.t._ZNSt9bad_allocC1EPKc
                0x9d000550       0x34 build/default/production/main.o
                0x9d000551                std::bad_alloc::bad_alloc(char const*)
 .gnu.linkonce.t._ZNKSt9bad_alloc4whatEv
                0x9d000584       0x1c build/default/production/main.o
                0x9d000585                std::bad_alloc::what() const
 .gnu.linkonce.t._ZNSt9bad_allocD1Ev
                0x9d0005a0       0x40 build/default/production/main.o
                0x9d0005a1                std::bad_alloc::~bad_alloc()
 .gnu.linkonce.t._ZNSt9bad_allocD0Ev
                0x9d0005e0       0x2c build/default/production/main.o
                0x9d0005e1                std::bad_alloc::~bad_alloc()
 .gnu.linkonce.t._ZNSt11char_traitsIcE6lengthEPKc
                0x9d00060c       0x20 build/default/production/main.o
                0x9d00060d                std::char_traits<char>::length(char const*)
 .gnu.linkonce.t._ZNSt11char_traitsIcE4copyEPcPKcm
                0x9d00062c       0x30 build/default/production/main.o
                0x9d00062d                std::char_traits<char>::copy(char*, char const*, unsigned long)
 .gnu.linkonce.t._ZNSt11char_traitsIcE4moveEPcPKcm
                0x9d00065c       0x30 build/default/production/main.o
                0x9d00065d                std::char_traits<char>::move(char*, char const*, unsigned long)
 .gnu.linkonce.t._ZNSt11char_traitsIcE6assignERcRKc
                0x9d00068c       0x24 build/default/production/main.o
                0x9d00068d                std::char_traits<char>::assign(char&, char const&)
 .gnu.linkonce.t._ZNSt11char_traitsIcE11to_int_typeERKc
                0x9d0006b0       0x1c build/default/production/main.o
                0x9d0006b1                std::char_traits<char>::to_int_type(char const&)
 .gnu.linkonce.t._ZNSt11char_traitsIcE11eq_int_typeERKiS2_
                0x9d0006cc       0x2c build/default/production/main.o
                0x9d0006cd                std::char_traits<char>::eq_int_type(int const&, int const&)
 .gnu.linkonce.t._ZNSt11char_traitsIcE3eofEv
                0x9d0006f8       0x10 build/default/production/main.o
                0x9d0006f9                std::char_traits<char>::eof()
 .gnu.linkonce.t._ZNSt13runtime_errorC2EPKc
                0x9d000708       0xc4 build/default/production/main.o
                0x9d000709                std::runtime_error::runtime_error(char const*)
 .gnu.linkonce.t._ZNSt13runtime_errorD2Ev
                0x9d0007cc       0x50 build/default/production/main.o
                0x9d0007cd                std::runtime_error::~runtime_error()
 .gnu.linkonce.t._ZNSt13runtime_errorD1Ev
                0x9d00081c       0x50 build/default/production/main.o
                0x9d00081d                std::runtime_error::~runtime_error()
 .gnu.linkonce.t._ZNSt13runtime_errorD0Ev
                0x9d00086c       0x2c build/default/production/main.o
                0x9d00086d                std::runtime_error::~runtime_error()
 .gnu.linkonce.t._ZNKSt13runtime_error4whatEv
                0x9d000898       0xb0 build/default/production/main.o
                0x9d000899                std::runtime_error::what() const
 .gnu.linkonce.t._ZNSt14error_categoryD1Ev
                0x9d000948       0x34 build/default/production/main.o
                0x9d000949                std::error_category::~error_category()
 .gnu.linkonce.t._ZNSt14error_categoryD0Ev
                0x9d00097c       0x2c build/default/production/main.o
                0x9d00097d                std::error_category::~error_category()
 .gnu.linkonce.t._ZNKSt14error_categoryeqERKS_
                0x9d0009a8       0x28 build/default/production/main.o
                0x9d0009a9                std::error_category::operator==(std::error_category const&) const
 .gnu.linkonce.t._ZNSt10error_codeC1EiRKSt14error_category
                0x9d0009d0       0x30 build/default/production/main.o
                0x9d0009d1                std::error_code::error_code(int, std::error_category const&)
 .gnu.linkonce.t._ZNKSt10error_code5valueEv
                0x9d000a00       0x18 build/default/production/main.o
                0x9d000a01                std::error_code::value() const
 .gnu.linkonce.t._ZNKSt10error_code8categoryEv
                0x9d000a18       0x18 build/default/production/main.o
                0x9d000a19                std::error_code::category() const
 .gnu.linkonce.t._ZNSt15error_conditionC1EiRKSt14error_category
                0x9d000a30       0x30 build/default/production/main.o
                0x9d000a31                std::error_condition::error_condition(int, std::error_category const&)
 .gnu.linkonce.t._ZNKSt15error_condition5valueEv
                0x9d000a60       0x18 build/default/production/main.o
                0x9d000a61                std::error_condition::value() const
 .gnu.linkonce.t._ZNKSt15error_condition8categoryEv
                0x9d000a78       0x18 build/default/production/main.o
                0x9d000a79                std::error_condition::category() const
 .gnu.linkonce.t._ZNKSt15error_conditioneqERKS_
                0x9d000a90       0x68 build/default/production/main.o
                0x9d000a91                std::error_condition::operator==(std::error_condition const&) const
 .gnu.linkonce.t._ZNKSt14error_category23default_error_conditionEi
                0x9d000af8       0x34 build/default/production/main.o
                0x9d000af9                std::error_category::default_error_condition(int) const
 .gnu.linkonce.t._ZNKSt14error_category10equivalentEiRKSt15error_condition
                0x9d000b2c       0x4c build/default/production/main.o
                0x9d000b2d                std::error_category::equivalent(int, std::error_condition const&) const
 .gnu.linkonce.t._ZNKSt14error_category10equivalentERKSt10error_codei
                0x9d000b78       0x58 build/default/production/main.o
                0x9d000b79                std::error_category::equivalent(std::error_code const&, int) const
 .gnu.linkonce.t._ZSt15make_error_codeNSt7io_errc7io_errcE
                0x9d000bd0       0x3c build/default/production/main.o
                0x9d000bd1                std::make_error_code(std::io_errc::io_errc)
 .gnu.linkonce.t._ZNSt12system_errorC2ESt10error_codePKc
                0x9d000c0c       0x5c build/default/production/main.o
                0x9d000c0d                std::system_error::system_error(std::error_code, char const*)
 .gnu.linkonce.t._ZNSt12system_error8_MakestrEv
                0x9d000c68       0x14 build/default/production/main.o
                0x9d000c69                std::system_error::_Makestr()
 .gnu.linkonce.t._ZNSt12system_errorD2Ev
                0x9d000c7c       0x40 build/default/production/main.o
                0x9d000c7d                std::system_error::~system_error()
 .gnu.linkonce.t._ZNSt12system_errorD1Ev
                0x9d000cbc       0x40 build/default/production/main.o
                0x9d000cbd                std::system_error::~system_error()
 .gnu.linkonce.t._ZNSt12system_errorD0Ev
                0x9d000cfc       0x2c build/default/production/main.o
                0x9d000cfd                std::system_error::~system_error()
 .gnu.linkonce.t._ZNSt8ios_base7failureC1EPKcRKSt10error_code
                0x9d000d28       0x44 build/default/production/main.o
                0x9d000d29                std::ios_base::failure::failure(char const*, std::error_code const&)
 .gnu.linkonce.t._ZNSt8ios_base5clearENSt5_IosbIiE8_IostateEb
                0x9d000d6c      0x258 build/default/production/main.o
                0x9d000d6d                std::ios_base::clear(std::_Iosb<int>::_Iostate, bool)
 .gnu.linkonce.t._ZNKSt8ios_base7rdstateEv
                0x9d000fc4       0x18 build/default/production/main.o
                0x9d000fc5                std::ios_base::rdstate() const
 .gnu.linkonce.t._ZNKSt8ios_base4goodEv
                0x9d000fdc       0x28 build/default/production/main.o
                0x9d000fdd                std::ios_base::good() const
 .gnu.linkonce.t._ZNKSt8ios_base4failEv
                0x9d001004       0x2c build/default/production/main.o
                0x9d001005                std::ios_base::fail() const
 .gnu.linkonce.t._ZNKSt8ios_base5flagsEv
                0x9d001030       0x18 build/default/production/main.o
                0x9d001031                std::ios_base::flags() const
 .gnu.linkonce.t._ZNKSt8ios_base5widthEv
                0x9d001048       0x18 build/default/production/main.o
                0x9d001049                std::ios_base::width() const
 .gnu.linkonce.t._ZNSt8ios_base5widthEi
                0x9d001060       0x30 build/default/production/main.o
                0x9d001061                std::ios_base::width(int)
 .gnu.linkonce.t._ZStanNSt5_IosbIiE9_FmtflagsES1_
                0x9d001090       0x20 build/default/production/main.o
                0x9d001091                std::operator&(std::_Iosb<int>::_Fmtflags, std::_Iosb<int>::_Fmtflags)
 .gnu.linkonce.t._ZStoRRNSt5_IosbIiE8_IostateES1_
                0x9d0010b0       0x30 build/default/production/main.o
                0x9d0010b1                std::operator|=(std::_Iosb<int>::_Iostate&, std::_Iosb<int>::_Iostate)
 .gnu.linkonce.t._ZNSsD1Ev
                0x9d0010e0       0x64 build/default/production/main.o
                0x9d0010e1                std::basic_string<char, std::char_traits<char>, std::allocator<char> >::~basic_string()
 .gnu.linkonce.t._ZNSsC1EPKc
                0x9d001144       0xd8 build/default/production/main.o
                0x9d001145                std::basic_string<char, std::char_traits<char>, std::allocator<char> >::basic_string(char const*)
 .gnu.linkonce.t._ZNKSs5c_strEv
                0x9d00121c       0x20 build/default/production/main.o
                0x9d00121d                std::string::c_str() const
 .gnu.linkonce.t._ZStlsISt11char_traitsIcEERSt13basic_ostreamIcT_ES5_PKc
                0x9d00123c      0x3f8 build/default/production/main.o
                0x9d00123d                std::basic_ostream<char, std::char_traits<char> >& std::operator<< <std::char_traits<char> >(std::basic_ostream<char, std::char_traits<char> >&, char const*)
 .gnu.linkonce.t._ZNSt15_Allocator_baseIcEC2Ev
                0x9d001634       0x14 build/default/production/main.o
                0x9d001635                std::_Allocator_base<char>::_Allocator_base()
 .gnu.linkonce.t._ZNSaIcEC1ERKS_
                0x9d001648       0x24 build/default/production/main.o
                0x9d001649                std::allocator<char>::allocator(std::allocator<char> const&)
 .gnu.linkonce.t._ZNSt16_Container_base0C2Ev
                0x9d00166c       0x14 build/default/production/main.o
                0x9d00166d                std::_Container_base0::_Container_base0()
 .gnu.linkonce.t._ZNSt11_String_valIcSaIcEEC2ES0_
                0x9d001680       0x38 build/default/production/main.o
                0x9d001681                std::_String_val<char, std::allocator<char> >::_String_val(std::allocator<char>)
 .gnu.linkonce.t._ZNSt11_String_valIcSaIcEED2Ev
                0x9d0016b8       0x14 build/default/production/main.o
                0x9d0016b9                std::_String_val<char, std::allocator<char> >::~_String_val()
 .gnu.linkonce.t._ZNSs5_TidyEbm
                0x9d0016cc       0x94 build/default/production/main.o
                0x9d0016cd                std::string::_Tidy(bool, unsigned long)
 .gnu.linkonce.t._ZNSs6assignERKSsmm
                0x9d001760      0x104 build/default/production/main.o
                0x9d001761                std::string::assign(std::string const&, unsigned long, unsigned long)
 .gnu.linkonce.t._ZNSaIcEC1Ev
                0x9d001864       0x20 build/default/production/main.o
                0x9d001865                std::allocator<char>::allocator()
 .gnu.linkonce.t._ZNSs6assignEPKc
                0x9d001884       0x34 build/default/production/main.o
                0x9d001885                std::string::assign(char const*)
 .gnu.linkonce.t._ZNKSs6_MyptrEv
                0x9d0018b8       0x30 build/default/production/main.o
                0x9d0018b9                std::string::_Myptr() const
 .gnu.linkonce.t._ZNKSs4sizeEv
                0x9d0018e8       0x18 build/default/production/main.o
                0x9d0018e9                std::string::size() const
 .gnu.linkonce.t._ZNSo6sentryC1ERSo
                0x9d001900      0x138 build/default/production/main.o
                0x9d001901                std::ostream::sentry::sentry(std::ostream&)
 .gnu.linkonce.t._ZNSo6sentryD1Ev
                0x9d001a38       0x74 build/default/production/main.o
                0x9d001a39                std::ostream::sentry::~sentry()
 .gnu.linkonce.t._ZNKSo6sentrycvbEv
                0x9d001aac       0x24 build/default/production/main.o
                0x9d001aad                std::ostream::sentry::operator bool() const
 .gnu.linkonce.t._ZNKSt9basic_iosIcSt11char_traitsIcEE5rdbufEv
                0x9d001ad0       0x18 build/default/production/main.o
                0x9d001ad1                std::basic_ios<char, std::char_traits<char> >::rdbuf() const
 .gnu.linkonce.t._ZNKSt9basic_iosIcSt11char_traitsIcEE4fillEv
                0x9d001ae8       0x1c build/default/production/main.o
                0x9d001ae9                std::basic_ios<char, std::char_traits<char> >::fill() const
 .gnu.linkonce.t._ZNSt15basic_streambufIcSt11char_traitsIcEE5sputcEc
                0x9d001b04       0x6c build/default/production/main.o
                0x9d001b05                std::basic_streambuf<char, std::char_traits<char> >::sputc(char)
 .gnu.linkonce.t._ZNSt15basic_streambufIcSt11char_traitsIcEE5sputnEPKci
                0x9d001b70       0x3c build/default/production/main.o
                0x9d001b71                std::basic_streambuf<char, std::char_traits<char> >::sputn(char const*, int)
 .gnu.linkonce.t._ZNSt9basic_iosIcSt11char_traitsIcEE8setstateENSt5_IosbIiE8_IostateEb
                0x9d001bac       0x50 build/default/production/main.o
                0x9d001bad                std::basic_ios<char, std::char_traits<char> >::setstate(std::_Iosb<int>::_Iostate, bool)
 .gnu.linkonce.t._ZNSaIcE10deallocateEPcm
                0x9d001bfc       0x28 build/default/production/main.o
                0x9d001bfd                std::allocator<char>::deallocate(char*, unsigned long)
 .gnu.linkonce.t._ZNSs4_EosEm
                0x9d001c24       0x4c build/default/production/main.o
                0x9d001c25                std::string::_Eos(unsigned long)
 .gnu.linkonce.t._ZNKSs5_XranEv
                0x9d001c70       0x1c build/default/production/main.o
                0x9d001c71                std::string::_Xran() const
 .gnu.linkonce.t._ZNSs5eraseEmm
                0x9d001c8c       0xd8 build/default/production/main.o
                0x9d001c8d                std::string::erase(unsigned long, unsigned long)
 .gnu.linkonce.t._ZNSs5_GrowEmb
                0x9d001d64       0xd4 build/default/production/main.o
                0x9d001d65                std::string::_Grow(unsigned long, bool)
 .gnu.linkonce.t._ZNSs6_MyptrEv
                0x9d001e38       0x30 build/default/production/main.o
                0x9d001e39                std::string::_Myptr()
 .gnu.linkonce.t._ZNSs6assignEPKcm
                0x9d001e68       0x9c build/default/production/main.o
                0x9d001e69                std::string::assign(char const*, unsigned long)
 .gnu.linkonce.t._ZNSo12_Sentry_baseC2ERSo
                0x9d001f04       0x78 build/default/production/main.o
                0x9d001f05                std::ostream::_Sentry_base::_Sentry_base(std::ostream&)
 .gnu.linkonce.t._ZNSo12_Sentry_baseD2Ev
                0x9d001f7c       0x9c build/default/production/main.o
                0x9d001f7d                std::ostream::_Sentry_base::~_Sentry_base()
 .gnu.linkonce.t._ZNKSt9basic_iosIcSt11char_traitsIcEE3tieEv
                0x9d002018       0x18 build/default/production/main.o
                0x9d002019                std::basic_ios<char, std::char_traits<char> >::tie() const
 .gnu.linkonce.t._ZNSo5flushEv
                0x9d002030       0xac build/default/production/main.o
                0x9d002031                std::ostream::flush()
 .gnu.linkonce.t._ZNSo5_OsfxEv
                0x9d0020dc       0xc0 build/default/production/main.o
                0x9d0020dd                std::ostream::_Osfx()
 .gnu.linkonce.t._ZNKSt15basic_streambufIcSt11char_traitsIcEE8_PnavailEv
                0x9d00219c       0x38 build/default/production/main.o
                0x9d00219d                std::basic_streambuf<char, std::char_traits<char> >::_Pnavail() const
 .gnu.linkonce.t._ZNSt15basic_streambufIcSt11char_traitsIcEE6_PnincEv
                0x9d0021d4       0x20 build/default/production/main.o
                0x9d0021d5                std::basic_streambuf<char, std::char_traits<char> >::_Pninc()
 .gnu.linkonce.t._ZNSt9basic_iosIcSt11char_traitsIcEE5clearENSt5_IosbIiE8_IostateEb
                0x9d0021f4       0x4c build/default/production/main.o
                0x9d0021f5                std::basic_ios<char, std::char_traits<char> >::clear(std::_Iosb<int>::_Iostate, bool)
 .gnu.linkonce.t._ZNKSs8max_sizeEv
                0x9d002240       0x40 build/default/production/main.o
                0x9d002241                std::string::max_size() const
 .gnu.linkonce.t._ZNKSs5_XlenEv
                0x9d002280       0x1c build/default/production/main.o
                0x9d002281                std::string::_Xlen() const
 .gnu.linkonce.t._ZNSs5_CopyEmm
                0x9d00229c      0x248 build/default/production/main.o
                0x9d00229d                std::string::_Copy(unsigned long, unsigned long)
 .gnu.linkonce.t._ZNSs7_InsideEPKc
                0x9d0024e4       0x70 build/default/production/main.o
                0x9d0024e5                std::string::_Inside(char const*)
 .gnu.linkonce.t._ZNSt15basic_streambufIcSt11char_traitsIcEE7pubsyncEv
                0x9d002554       0x2c build/default/production/main.o
                0x9d002555                std::basic_streambuf<char, std::char_traits<char> >::pubsync()
 .gnu.linkonce.t._ZNKSaIcE8max_sizeEv
                0x9d002580       0x2c build/default/production/main.o
                0x9d002581                std::allocator<char>::max_size() const
 .gnu.linkonce.t._ZNSaIcE8allocateEm
                0x9d0025ac       0x28 build/default/production/main.o
                0x9d0025ad                std::allocator<char>::allocate(unsigned long)
 .gnu.linkonce.t._ZSt9_AllocateIcEPT_mS1_
                0x9d0025d4       0x80 build/default/production/main.o
                0x9d0025d5                char* std::_Allocate<char>(unsigned long, char*)
 .gnu.linkonce.t._ZNSt8ios_base7failureD1Ev
                0x9d002654       0x40 build/default/production/main.o
                0x9d002655                std::ios_base::failure::~failure()
 .gnu.linkonce.t._ZNSt8ios_base7failureD0Ev
                0x9d002694       0x2c build/default/production/main.o
                0x9d002695                std::ios_base::failure::~failure()
 .gnu.linkonce.t._ZNKSt8bad_cast4whatEv
                0x9d0026c0        0xc d:/program files/microchip/xc32/v2.50/bin/bin/../../lib/gcc/pic32mx/4.8.3/../../../../pic32mx/lib/micromips\libxcpp.a(iostream.o)
                0x9d0026c1                std::bad_cast::what() const
 .gnu.linkonce.t._ZNSt6locale5facetD1Ev
                0x9d0026cc        0xc d:/program files/microchip/xc32/v2.50/bin/bin/../../lib/gcc/pic32mx/4.8.3/../../../../pic32mx/lib/micromips\libxcpp.a(iostream.o)
                0x9d0026cd                std::locale::facet::~facet()
 .gnu.linkonce.t._ZNSt12codecvt_baseD1Ev
                0x9d0026d8        0xc d:/program files/microchip/xc32/v2.50/bin/bin/../../lib/gcc/pic32mx/4.8.3/../../../../pic32mx/lib/micromips\libxcpp.a(iostream.o)
                0x9d0026d9                std::codecvt_base::~codecvt_base()
 .gnu.linkonce.t._ZNKSt12codecvt_base16do_always_noconvEv
                0x9d0026e4        0x4 d:/program files/microchip/xc32/v2.50/bin/bin/../../lib/gcc/pic32mx/4.8.3/../../../../pic32mx/lib/micromips\libxcpp.a(iostream.o)
                0x9d0026e5                std::codecvt_base::do_always_noconv() const
 .gnu.linkonce.t._ZNKSt12codecvt_base13do_max_lengthEv
                0x9d0026e8        0x4 d:/program files/microchip/xc32/v2.50/bin/bin/../../lib/gcc/pic32mx/4.8.3/../../../../pic32mx/lib/micromips\libxcpp.a(iostream.o)
                0x9d0026e9                std::codecvt_base::do_max_length() const
 .gnu.linkonce.t._ZNKSt12codecvt_base11do_encodingEv
                0x9d0026ec        0x4 d:/program files/microchip/xc32/v2.50/bin/bin/../../lib/gcc/pic32mx/4.8.3/../../../../pic32mx/lib/micromips\libxcpp.a(iostream.o)
                0x9d0026ed                std::codecvt_base::do_encoding() const
 .gnu.linkonce.t._ZNSt10ctype_baseD1Ev
                0x9d0026f0        0xc d:/program files/microchip/xc32/v2.50/bin/bin/../../lib/gcc/pic32mx/4.8.3/../../../../pic32mx/lib/micromips\libxcpp.a(iostream.o)
                0x9d0026f1                std::ctype_base::~ctype_base()
 .gnu.linkonce.t._ZNKSt5ctypeIcE10do_tolowerEc
                0x9d0026fc       0x10 d:/program files/microchip/xc32/v2.50/bin/bin/../../lib/gcc/pic32mx/4.8.3/../../../../pic32mx/lib/micromips\libxcpp.a(iostream.o)
                0x9d0026fd                std::ctype<char>::do_tolower(char) const
 .gnu.linkonce.t._ZNKSt5ctypeIcE10do_tolowerEPcPKc
                0x9d00270c       0x1c d:/program files/microchip/xc32/v2.50/bin/bin/../../lib/gcc/pic32mx/4.8.3/../../../../pic32mx/lib/micromips\libxcpp.a(iostream.o)
                0x9d00270d                std::ctype<char>::do_tolower(char*, char const*) const
 .gnu.linkonce.t._ZNKSt5ctypeIcE10do_toupperEc
                0x9d002728       0x10 d:/program files/microchip/xc32/v2.50/bin/bin/../../lib/gcc/pic32mx/4.8.3/../../../../pic32mx/lib/micromips\libxcpp.a(iostream.o)
                0x9d002729                std::ctype<char>::do_toupper(char) const
 .gnu.linkonce.t._ZNKSt5ctypeIcE10do_toupperEPcPKc
                0x9d002738       0x1c d:/program files/microchip/xc32/v2.50/bin/bin/../../lib/gcc/pic32mx/4.8.3/../../../../pic32mx/lib/micromips\libxcpp.a(iostream.o)
                0x9d002739                std::ctype<char>::do_toupper(char*, char const*) const
 .gnu.linkonce.t._ZNKSt5ctypeIcE8do_widenEc
                0x9d002754        0x4 d:/program files/microchip/xc32/v2.50/bin/bin/../../lib/gcc/pic32mx/4.8.3/../../../../pic32mx/lib/micromips\libxcpp.a(iostream.o)
                0x9d002755                std::ctype<char>::do_widen(char) const
 .gnu.linkonce.t._ZNKSt5ctypeIcE9do_narrowEcc
                0x9d002758        0x4 d:/program files/microchip/xc32/v2.50/bin/bin/../../lib/gcc/pic32mx/4.8.3/../../../../pic32mx/lib/micromips\libxcpp.a(iostream.o)
                0x9d002759                std::ctype<char>::do_narrow(char, char) const
 .gnu.linkonce.t._ZNSt15basic_streambufIcSt11char_traitsIcEE4syncEv
                0x9d00275c        0x4 d:/program files/microchip/xc32/v2.50/bin/bin/../../lib/gcc/pic32mx/4.8.3/../../../../pic32mx/lib/micromips\libxcpp.a(iostream.o)
                0x9d00275d                std::basic_streambuf<char, std::char_traits<char> >::sync()
 .gnu.linkonce.t._ZNSt15basic_streambufIcSt11char_traitsIcEE5_LockEv
                0x9d002760        0x4 d:/program files/microchip/xc32/v2.50/bin/bin/../../lib/gcc/pic32mx/4.8.3/../../../../pic32mx/lib/micromips\libxcpp.a(iostream.o)
                0x9d002761                std::basic_streambuf<char, std::char_traits<char> >::_Lock()
 .gnu.linkonce.t._ZNSt15basic_streambufIcSt11char_traitsIcEE7_UnlockEv
                0x9d002764        0x4 d:/program files/microchip/xc32/v2.50/bin/bin/../../lib/gcc/pic32mx/4.8.3/../../../../pic32mx/lib/micromips\libxcpp.a(iostream.o)
                0x9d002765                std::basic_streambuf<char, std::char_traits<char> >::_Unlock()
 .gnu.linkonce.t._ZNSt15basic_streambufIcSt11char_traitsIcEE9showmanycEv
                0x9d002768        0x4 d:/program files/microchip/xc32/v2.50/bin/bin/../../lib/gcc/pic32mx/4.8.3/../../../../pic32mx/lib/micromips\libxcpp.a(iostream.o)
                0x9d002769                std::basic_streambuf<char, std::char_traits<char> >::showmanyc()
 .gnu.linkonce.t._ZNSt15basic_streambufIcSt11char_traitsIcEE8overflowEi
                0x9d00276c        0x4 d:/program files/microchip/xc32/v2.50/bin/bin/../../lib/gcc/pic32mx/4.8.3/../../../../pic32mx/lib/micromips\libxcpp.a(iostream.o)
                0x9d00276d                std::basic_streambuf<char, std::char_traits<char> >::overflow(int)
 .gnu.linkonce.t._ZNSt15basic_streambufIcSt11char_traitsIcEE9pbackfailEi
                0x9d002770        0x4 d:/program files/microchip/xc32/v2.50/bin/bin/../../lib/gcc/pic32mx/4.8.3/../../../../pic32mx/lib/micromips\libxcpp.a(iostream.o)
                0x9d002771                std::basic_streambuf<char, std::char_traits<char> >::pbackfail(int)
 .gnu.linkonce.t._ZNSt15basic_streambufIcSt11char_traitsIcEE9underflowEv
                0x9d002774        0x4 d:/program files/microchip/xc32/v2.50/bin/bin/../../lib/gcc/pic32mx/4.8.3/../../../../pic32mx/lib/micromips\libxcpp.a(iostream.o)
                0x9d002775                std::basic_streambuf<char, std::char_traits<char> >::underflow()
 .gnu.linkonce.t._ZNSt15basic_streambufIcSt11char_traitsIcEE5uflowEv
                0x9d002778       0x28 d:/program files/microchip/xc32/v2.50/bin/bin/../../lib/gcc/pic32mx/4.8.3/../../../../pic32mx/lib/micromips\libxcpp.a(iostream.o)
                0x9d002779                std::basic_streambuf<char, std::char_traits<char> >::uflow()
 .gnu.linkonce.t._ZNSt15basic_streambufIcSt11char_traitsIcEE7seekoffElNSt5_IosbIiE8_SeekdirENS4_9_OpenmodeE
                0x9d0027a0       0x30 d:/program files/microchip/xc32/v2.50/bin/bin/../../lib/gcc/pic32mx/4.8.3/../../../../pic32mx/lib/micromips\libxcpp.a(iostream.o)
                0x9d0027a1                std::basic_streambuf<char, std::char_traits<char> >::seekoff(long, std::_Iosb<int>::_Seekdir, std::_Iosb<int>::_Openmode)
 .gnu.linkonce.t._ZNSt15basic_streambufIcSt11char_traitsIcEE7seekposESt4fposI9_MbstatetENSt5_IosbIiE9_OpenmodeE
                0x9d0027d0       0x3c d:/program files/microchip/xc32/v2.50/bin/bin/../../lib/gcc/pic32mx/4.8.3/../../../../pic32mx/lib/micromips\libxcpp.a(iostream.o)
                0x9d0027d1                std::basic_streambuf<char, std::char_traits<char> >::seekpos(std::fpos<_Mbstatet>, std::_Iosb<int>::_Openmode)
 .gnu.linkonce.t._ZNSt15basic_streambufIcSt11char_traitsIcEE6setbufEPci
                0x9d00280c        0x4 d:/program files/microchip/xc32/v2.50/bin/bin/../../lib/gcc/pic32mx/4.8.3/../../../../pic32mx/lib/micromips\libxcpp.a(iostream.o)
                0x9d00280d                std::basic_streambuf<char, std::char_traits<char> >::setbuf(char*, int)
 .gnu.linkonce.t._ZNSt15basic_streambufIcSt11char_traitsIcEE5imbueERKSt6locale
                0x9d002810        0x4 d:/program files/microchip/xc32/v2.50/bin/bin/../../lib/gcc/pic32mx/4.8.3/../../../../pic32mx/lib/micromips\libxcpp.a(iostream.o)
                0x9d002811                std::basic_streambuf<char, std::char_traits<char> >::imbue(std::locale const&)
 .gnu.linkonce.t._ZNKSt7codecvtIcc9_MbstatetE6do_outERS0_PKcS4_RS4_PcS6_RS6_
                0x9d002814       0x10 d:/program files/microchip/xc32/v2.50/bin/bin/../../lib/gcc/pic32mx/4.8.3/../../../../pic32mx/lib/micromips\libxcpp.a(iostream.o)
                0x9d002815                std::codecvt<char, char, _Mbstatet>::do_out(_Mbstatet&, char const*, char const*, char const*&, char*, char*, char*&) const
 .gnu.linkonce.t._ZNKSt7codecvtIcc9_MbstatetE5do_inERS0_PKcS4_RS4_PcS6_RS6_
                0x9d002824       0x10 d:/program files/microchip/xc32/v2.50/bin/bin/../../lib/gcc/pic32mx/4.8.3/../../../../pic32mx/lib/micromips\libxcpp.a(iostream.o)
                0x9d002825                std::codecvt<char, char, _Mbstatet>::do_in(_Mbstatet&, char const*, char const*, char const*&, char*, char*, char*&) const
 .gnu.linkonce.t._ZNKSt7codecvtIcc9_MbstatetE10do_unshiftERS0_PcS3_RS3_
                0x9d002834        0x8 d:/program files/microchip/xc32/v2.50/bin/bin/../../lib/gcc/pic32mx/4.8.3/../../../../pic32mx/lib/micromips\libxcpp.a(iostream.o)
                0x9d002835                std::codecvt<char, char, _Mbstatet>::do_unshift(_Mbstatet&, char*, char*, char*&) const
 .gnu.linkonce.t._ZNSt7codecvtIcc9_MbstatetED1Ev
                0x9d00283c        0xc d:/program files/microchip/xc32/v2.50/bin/bin/../../lib/gcc/pic32mx/4.8.3/../../../../pic32mx/lib/micromips\libxcpp.a(iostream.o)
                0x9d00283d                std::codecvt<char, char, _Mbstatet>::~codecvt()
 .gnu.linkonce.t._ZNKSt7codecvtIcc9_MbstatetE9do_lengthERKS0_PKcS5_m
                0x9d002848       0x10 d:/program files/microchip/xc32/v2.50/bin/bin/../../lib/gcc/pic32mx/4.8.3/../../../../pic32mx/lib/micromips\libxcpp.a(iostream.o)
                0x9d002849                std::codecvt<char, char, _Mbstatet>::do_length(_Mbstatet const&, char const*, char const*, unsigned long) const
 .gnu.linkonce.t._ZNSt8bad_castD1Ev
                0x9d002858       0x1c d:/program files/microchip/xc32/v2.50/bin/bin/../../lib/gcc/pic32mx/4.8.3/../../../../pic32mx/lib/micromips\libxcpp.a(iostream.o)
                0x9d002859                std::bad_cast::~bad_cast()
 .gnu.linkonce.t._ZNSt6locale5facetD0Ev
                0x9d002874       0x1c d:/program files/microchip/xc32/v2.50/bin/bin/../../lib/gcc/pic32mx/4.8.3/../../../../pic32mx/lib/micromips\libxcpp.a(iostream.o)
                0x9d002875                std::locale::facet::~facet()
 .gnu.linkonce.t._ZNSt8bad_castD0Ev
                0x9d002890       0x24 d:/program files/microchip/xc32/v2.50/bin/bin/../../lib/gcc/pic32mx/4.8.3/../../../../pic32mx/lib/micromips\libxcpp.a(iostream.o)
                0x9d002891                std::bad_cast::~bad_cast()
 .gnu.linkonce.t._ZNSt12codecvt_baseD0Ev
                0x9d0028b4       0x1c d:/program files/microchip/xc32/v2.50/bin/bin/../../lib/gcc/pic32mx/4.8.3/../../../../pic32mx/lib/micromips\libxcpp.a(iostream.o)
                0x9d0028b5                std::codecvt_base::~codecvt_base()
 .gnu.linkonce.t._ZNSt10ctype_baseD0Ev
                0x9d0028d0       0x1c d:/program files/microchip/xc32/v2.50/bin/bin/../../lib/gcc/pic32mx/4.8.3/../../../../pic32mx/lib/micromips\libxcpp.a(iostream.o)
                0x9d0028d1                std::ctype_base::~ctype_base()
 .gnu.linkonce.t._ZNSt7codecvtIcc9_MbstatetED0Ev
                0x9d0028ec       0x1c d:/program files/microchip/xc32/v2.50/bin/bin/../../lib/gcc/pic32mx/4.8.3/../../../../pic32mx/lib/micromips\libxcpp.a(iostream.o)
                0x9d0028ed                std::codecvt<char, char, _Mbstatet>::~codecvt()
 .gnu.linkonce.t._ZNKSt5ctypeIcE8do_widenEPKcS2_Pc
                0x9d002908       0x18 d:/program files/microchip/xc32/v2.50/bin/bin/../../lib/gcc/pic32mx/4.8.3/../../../../pic32mx/lib/micromips\libxcpp.a(iostream.o)
                0x9d002909                std::ctype<char>::do_widen(char const*, char const*, char*) const
 .gnu.linkonce.t._ZNKSt5ctypeIcE9do_narrowEPKcS2_cPc
                0x9d002920       0x18 d:/program files/microchip/xc32/v2.50/bin/bin/../../lib/gcc/pic32mx/4.8.3/../../../../pic32mx/lib/micromips\libxcpp.a(iostream.o)
                0x9d002921                std::ctype<char>::do_narrow(char const*, char const*, char, char*) const
 .gnu.linkonce.t._ZNSt15basic_streambufIcSt11char_traitsIcEE6xsgetnEPci
                0x9d002938       0x8c d:/program files/microchip/xc32/v2.50/bin/bin/../../lib/gcc/pic32mx/4.8.3/../../../../pic32mx/lib/micromips\libxcpp.a(iostream.o)
                0x9d002939                std::basic_streambuf<char, std::char_traits<char> >::xsgetn(char*, int)
 .gnu.linkonce.t._ZNSt15basic_streambufIcSt11char_traitsIcEE6xsputnEPKci
                0x9d0029c4       0x8c d:/program files/microchip/xc32/v2.50/bin/bin/../../lib/gcc/pic32mx/4.8.3/../../../../pic32mx/lib/micromips\libxcpp.a(iostream.o)
                0x9d0029c5                std::basic_streambuf<char, std::char_traits<char> >::xsputn(char const*, int)
 .gnu.linkonce.t._ZNSt9basic_iosIcSt11char_traitsIcEED1Ev
                0x9d002a50       0x1c d:/program files/microchip/xc32/v2.50/bin/bin/../../lib/gcc/pic32mx/4.8.3/../../../../pic32mx/lib/micromips\libxcpp.a(iostream.o)
                0x9d002a51                std::basic_ios<char, std::char_traits<char> >::~basic_ios()
 .gnu.linkonce.t._ZNSt9basic_iosIcSt11char_traitsIcEED0Ev
                0x9d002a6c       0x24 d:/program files/microchip/xc32/v2.50/bin/bin/../../lib/gcc/pic32mx/4.8.3/../../../../pic32mx/lib/micromips\libxcpp.a(iostream.o)
                0x9d002a6d                std::basic_ios<char, std::char_traits<char> >::~basic_ios()
 .gnu.linkonce.t._ZNSoD1Ev
                0x9d002a90       0x34 d:/program files/microchip/xc32/v2.50/bin/bin/../../lib/gcc/pic32mx/4.8.3/../../../../pic32mx/lib/micromips\libxcpp.a(iostream.o)
                0x9d002a91                std::basic_ostream<char, std::char_traits<char> >::~basic_ostream()
                0x9d002ab9                virtual thunk to std::basic_ostream<char, std::char_traits<char> >::~basic_ostream()
 .gnu.linkonce.t._ZNSoD0Ev
                0x9d002ac4       0x3c d:/program files/microchip/xc32/v2.50/bin/bin/../../lib/gcc/pic32mx/4.8.3/../../../../pic32mx/lib/micromips\libxcpp.a(iostream.o)
                0x9d002ac5                std::basic_ostream<char, std::char_traits<char> >::~basic_ostream()
                0x9d002af5                virtual thunk to std::basic_ostream<char, std::char_traits<char> >::~basic_ostream()
 .gnu.linkonce.t._ZNSiD1Ev
                0x9d002b00       0x34 d:/program files/microchip/xc32/v2.50/bin/bin/../../lib/gcc/pic32mx/4.8.3/../../../../pic32mx/lib/micromips\libxcpp.a(iostream.o)
                0x9d002b01                std::basic_istream<char, std::char_traits<char> >::~basic_istream()
                0x9d002b29                virtual thunk to std::basic_istream<char, std::char_traits<char> >::~basic_istream()
 .gnu.linkonce.t._ZNSiD0Ev
                0x9d002b34       0x3c d:/program files/microchip/xc32/v2.50/bin/bin/../../lib/gcc/pic32mx/4.8.3/../../../../pic32mx/lib/micromips\libxcpp.a(iostream.o)
                0x9d002b35                std::basic_istream<char, std::char_traits<char> >::~basic_istream()
                0x9d002b65                virtual thunk to std::basic_istream<char, std::char_traits<char> >::~basic_istream()
 .gnu.linkonce.t._ZNSt13basic_filebufIcSt11char_traitsIcEE4syncEv
                0x9d002b70       0x38 d:/program files/microchip/xc32/v2.50/bin/bin/../../lib/gcc/pic32mx/4.8.3/../../../../pic32mx/lib/micromips\libxcpp.a(iostream.o)
                0x9d002b71                std::basic_filebuf<char, std::char_traits<char> >::sync()
 .gnu.linkonce.t._ZNSt13basic_filebufIcSt11char_traitsIcEE9pbackfailEi
                0x9d002ba8       0xb4 d:/program files/microchip/xc32/v2.50/bin/bin/../../lib/gcc/pic32mx/4.8.3/../../../../pic32mx/lib/micromips\libxcpp.a(iostream.o)
                0x9d002ba9                std::basic_filebuf<char, std::char_traits<char> >::pbackfail(int)
 .gnu.linkonce.t._ZNSt13basic_filebufIcSt11char_traitsIcEE9underflowEv
                0x9d002c5c       0x48 d:/program files/microchip/xc32/v2.50/bin/bin/../../lib/gcc/pic32mx/4.8.3/../../../../pic32mx/lib/micromips\libxcpp.a(iostream.o)
                0x9d002c5d                std::basic_filebuf<char, std::char_traits<char> >::underflow()
 .gnu.linkonce.t._ZNSt5ctypeIcED1Ev
                0x9d002ca4       0x60 d:/program files/microchip/xc32/v2.50/bin/bin/../../lib/gcc/pic32mx/4.8.3/../../../../pic32mx/lib/micromips\libxcpp.a(iostream.o)
                0x9d002ca5                std::ctype<char>::~ctype()
 .gnu.linkonce.t._ZNSt5ctypeIcED0Ev
                0x9d002d04       0x78 d:/program files/microchip/xc32/v2.50/bin/bin/../../lib/gcc/pic32mx/4.8.3/../../../../pic32mx/lib/micromips\libxcpp.a(iostream.o)
                0x9d002d05                std::ctype<char>::~ctype()
 .gnu.linkonce.t._ZNSt13basic_filebufIcSt11char_traitsIcEE6setbufEPci
                0x9d002d7c       0xa8 d:/program files/microchip/xc32/v2.50/bin/bin/../../lib/gcc/pic32mx/4.8.3/../../../../pic32mx/lib/micromips\libxcpp.a(iostream.o)
                0x9d002d7d                std::basic_filebuf<char, std::char_traits<char> >::setbuf(char*, int)
 .gnu.linkonce.t._ZNSt13basic_filebufIcSt11char_traitsIcEE5imbueERKSt6locale
                0x9d002e24      0x1f8 d:/program files/microchip/xc32/v2.50/bin/bin/../../lib/gcc/pic32mx/4.8.3/../../../../pic32mx/lib/micromips\libxcpp.a(iostream.o)
                0x9d002e25                std::basic_filebuf<char, std::char_traits<char> >::imbue(std::locale const&)
 .gnu.linkonce.t._ZNSt15basic_streambufIcSt11char_traitsIcEED1Ev
                0x9d00301c       0x48 d:/program files/microchip/xc32/v2.50/bin/bin/../../lib/gcc/pic32mx/4.8.3/../../../../pic32mx/lib/micromips\libxcpp.a(iostream.o)
                0x9d00301d                std::basic_streambuf<char, std::char_traits<char> >::~basic_streambuf()
 .gnu.linkonce.t._ZNSt15basic_streambufIcSt11char_traitsIcEED0Ev
                0x9d003064       0x54 d:/program files/microchip/xc32/v2.50/bin/bin/../../lib/gcc/pic32mx/4.8.3/../../../../pic32mx/lib/micromips\libxcpp.a(iostream.o)
                0x9d003065                std::basic_streambuf<char, std::char_traits<char> >::~basic_streambuf()
 .gnu.linkonce.t._ZNSt6localeD1Ev
                0x9d0030b8       0x30 d:/program files/microchip/xc32/v2.50/bin/bin/../../lib/gcc/pic32mx/4.8.3/../../../../pic32mx/lib/micromips\libxcpp.a(iostream.o)
                0x9d0030b9                std::locale::~locale()
 .gnu.linkonce.t._ZNSt13basic_filebufIcSt11char_traitsIcEE7seekposESt4fposI9_MbstatetENSt5_IosbIiE9_OpenmodeE
                0x9d0030e8      0x4e4 d:/program files/microchip/xc32/v2.50/bin/bin/../../lib/gcc/pic32mx/4.8.3/../../../../pic32mx/lib/micromips\libxcpp.a(iostream.o)
                0x9d0030e9                std::basic_filebuf<char, std::char_traits<char> >::seekpos(std::fpos<_Mbstatet>, std::_Iosb<int>::_Openmode)
 .gnu.linkonce.t._ZNSt13basic_filebufIcSt11char_traitsIcEE7seekoffElNSt5_IosbIiE8_SeekdirENS4_9_OpenmodeE
                0x9d0035cc      0x4b8 d:/program files/microchip/xc32/v2.50/bin/bin/../../lib/gcc/pic32mx/4.8.3/../../../../pic32mx/lib/micromips\libxcpp.a(iostream.o)
                0x9d0035cd                std::basic_filebuf<char, std::char_traits<char> >::seekoff(long, std::_Iosb<int>::_Seekdir, std::_Iosb<int>::_Openmode)
 .gnu.linkonce.t._ZNSt13basic_filebufIcSt11char_traitsIcEE5uflowEv
                0x9d003a84      0x480 d:/program files/microchip/xc32/v2.50/bin/bin/../../lib/gcc/pic32mx/4.8.3/../../../../pic32mx/lib/micromips\libxcpp.a(iostream.o)
                0x9d003a85                std::basic_filebuf<char, std::char_traits<char> >::uflow()
 .gnu.linkonce.t._ZNSt13basic_filebufIcSt11char_traitsIcEE8overflowEi
                0x9d003f04      0x474 d:/program files/microchip/xc32/v2.50/bin/bin/../../lib/gcc/pic32mx/4.8.3/../../../../pic32mx/lib/micromips\libxcpp.a(iostream.o)
                0x9d003f05                std::basic_filebuf<char, std::char_traits<char> >::overflow(int)
 .gnu.linkonce.t._ZNSs6appendEmc
                0x9d004378      0x2ac d:/program files/microchip/xc32/v2.50/bin/bin/../../lib/gcc/pic32mx/4.8.3/../../../../pic32mx/lib/micromips\libxcpp.a(iostream.o)
                0x9d004379                std::string::append(unsigned long, char)
 .gnu.linkonce.t._ZNSt13basic_filebufIcSt11char_traitsIcEED0Ev
                0x9d004624      0x2cc d:/program files/microchip/xc32/v2.50/bin/bin/../../lib/gcc/pic32mx/4.8.3/../../../../pic32mx/lib/micromips\libxcpp.a(iostream.o)
                0x9d004625                std::basic_filebuf<char, std::char_traits<char> >::~basic_filebuf()
 .gnu.linkonce.t._ZNSt13basic_filebufIcSt11char_traitsIcEED1Ev
                0x9d0048f0      0x2c4 d:/program files/microchip/xc32/v2.50/bin/bin/../../lib/gcc/pic32mx/4.8.3/../../../../pic32mx/lib/micromips\libxcpp.a(iostream.o)
                0x9d0048f1                std::basic_filebuf<char, std::char_traits<char> >::~basic_filebuf()
 .gnu.linkonce.t._ZNKSt11logic_error4whatEv
                0x9d004bb4       0x10 d:/program files/microchip/xc32/v2.50/bin/bin/../../lib/gcc/pic32mx/4.8.3/../../../../pic32mx/lib/micromips\libxcpp.a(xthrow.o)
                0x9d004bb5                std::logic_error::what() const
 .gnu.linkonce.t._ZNSt11logic_errorD1Ev
                0x9d004bc4       0x38 d:/program files/microchip/xc32/v2.50/bin/bin/../../lib/gcc/pic32mx/4.8.3/../../../../pic32mx/lib/micromips\libxcpp.a(xthrow.o)
                0x9d004bc5                std::logic_error::~logic_error()
 .gnu.linkonce.t._ZNSt14overflow_errorD0Ev
                0x9d004bfc       0x40 d:/program files/microchip/xc32/v2.50/bin/bin/../../lib/gcc/pic32mx/4.8.3/../../../../pic32mx/lib/micromips\libxcpp.a(xthrow.o)
                0x9d004bfd                std::overflow_error::~overflow_error()
 .gnu.linkonce.t._ZNSt12out_of_rangeD0Ev
                0x9d004c3c       0x40 d:/program files/microchip/xc32/v2.50/bin/bin/../../lib/gcc/pic32mx/4.8.3/../../../../pic32mx/lib/micromips\libxcpp.a(xthrow.o)
                0x9d004c3d                std::out_of_range::~out_of_range()
 .gnu.linkonce.t._ZNSt11logic_errorD0Ev
                0x9d004c7c       0x40 d:/program files/microchip/xc32/v2.50/bin/bin/../../lib/gcc/pic32mx/4.8.3/../../../../pic32mx/lib/micromips\libxcpp.a(xthrow.o)
                0x9d004c7d                std::logic_error::~logic_error()
 .gnu.linkonce.t._ZNSt14overflow_errorD1Ev
                0x9d004cbc       0x38 d:/program files/microchip/xc32/v2.50/bin/bin/../../lib/gcc/pic32mx/4.8.3/../../../../pic32mx/lib/micromips\libxcpp.a(xthrow.o)
                0x9d004cbd                std::overflow_error::~overflow_error()
 .gnu.linkonce.t._ZNSt12length_errorD1Ev
                0x9d004cf4       0x38 d:/program files/microchip/xc32/v2.50/bin/bin/../../lib/gcc/pic32mx/4.8.3/../../../../pic32mx/lib/micromips\libxcpp.a(xthrow.o)
                0x9d004cf5                std::length_error::~length_error()
 .gnu.linkonce.t._ZNSt12out_of_rangeD1Ev
                0x9d004d2c       0x38 d:/program files/microchip/xc32/v2.50/bin/bin/../../lib/gcc/pic32mx/4.8.3/../../../../pic32mx/lib/micromips\libxcpp.a(xthrow.o)
                0x9d004d2d                std::out_of_range::~out_of_range()
 .gnu.linkonce.t._ZNSt16invalid_argumentD1Ev
                0x9d004d64       0x38 d:/program files/microchip/xc32/v2.50/bin/bin/../../lib/gcc/pic32mx/4.8.3/../../../../pic32mx/lib/micromips\libxcpp.a(xthrow.o)
                0x9d004d65                std::invalid_argument::~invalid_argument()
 .gnu.linkonce.t._ZNSt16invalid_argumentD0Ev
                0x9d004d9c       0x40 d:/program files/microchip/xc32/v2.50/bin/bin/../../lib/gcc/pic32mx/4.8.3/../../../../pic32mx/lib/micromips\libxcpp.a(xthrow.o)
                0x9d004d9d                std::invalid_argument::~invalid_argument()
 .gnu.linkonce.t._ZNSt12length_errorD0Ev
                0x9d004ddc       0x40 d:/program files/microchip/xc32/v2.50/bin/bin/../../lib/gcc/pic32mx/4.8.3/../../../../pic32mx/lib/micromips\libxcpp.a(xthrow.o)
                0x9d004ddd                std::length_error::~length_error()
 .gnu.linkonce.t._ZNSt11logic_errorC2EPKc
                0x9d004e1c      0x3ec d:/program files/microchip/xc32/v2.50/bin/bin/../../lib/gcc/pic32mx/4.8.3/../../../../pic32mx/lib/micromips\libxcpp.a(xthrow.o)
                0x9d004e1d                std::logic_error::logic_error(char const*)
 .gnu.linkonce.t._ZNSt7codecvtIwc9_MbstatetED1Ev
                0x9d005208        0xc d:/program files/microchip/xc32/v2.50/bin/bin/../../lib/gcc/pic32mx/4.8.3/../../../../pic32mx/lib/micromips\libxcpp.a(wiostrea.o)
                0x9d005209                std::codecvt<wchar_t, char, _Mbstatet>::~codecvt()
 .gnu.linkonce.t._ZNKSt7codecvtIwc9_MbstatetE16do_always_noconvEv
                0x9d005214        0x4 d:/program files/microchip/xc32/v2.50/bin/bin/../../lib/gcc/pic32mx/4.8.3/../../../../pic32mx/lib/micromips\libxcpp.a(wiostrea.o)
                0x9d005215                std::codecvt<wchar_t, char, _Mbstatet>::do_always_noconv() const
 .gnu.linkonce.t._ZNKSt7codecvtIwc9_MbstatetE13do_max_lengthEv
                0x9d005218        0x4 d:/program files/microchip/xc32/v2.50/bin/bin/../../lib/gcc/pic32mx/4.8.3/../../../../pic32mx/lib/micromips\libxcpp.a(wiostrea.o)
                0x9d005219                std::codecvt<wchar_t, char, _Mbstatet>::do_max_length() const
 .gnu.linkonce.t._ZNKSt7codecvtIwc9_MbstatetE11do_encodingEv
                0x9d00521c        0x4 d:/program files/microchip/xc32/v2.50/bin/bin/../../lib/gcc/pic32mx/4.8.3/../../../../pic32mx/lib/micromips\libxcpp.a(wiostrea.o)
                0x9d00521d                std::codecvt<wchar_t, char, _Mbstatet>::do_encoding() const
 .gnu.linkonce.t._ZNKSt5ctypeIwE5do_isEsw
                0x9d005220       0x2c d:/program files/microchip/xc32/v2.50/bin/bin/../../lib/gcc/pic32mx/4.8.3/../../../../pic32mx/lib/micromips\libxcpp.a(wiostrea.o)
                0x9d005221                std::ctype<wchar_t>::do_is(short, wchar_t) const
 .gnu.linkonce.t._ZNKSt5ctypeIwE5do_isEPKwS2_Ps
                0x9d00524c       0x44 d:/program files/microchip/xc32/v2.50/bin/bin/../../lib/gcc/pic32mx/4.8.3/../../../../pic32mx/lib/micromips\libxcpp.a(wiostrea.o)
                0x9d00524d                std::ctype<wchar_t>::do_is(wchar_t const*, wchar_t const*, short*) const
 .gnu.linkonce.t._ZNKSt5ctypeIwE10do_scan_isEsPKwS2_
                0x9d005290       0x34 d:/program files/microchip/xc32/v2.50/bin/bin/../../lib/gcc/pic32mx/4.8.3/../../../../pic32mx/lib/micromips\libxcpp.a(wiostrea.o)
                0x9d005291                std::ctype<wchar_t>::do_scan_is(short, wchar_t const*, wchar_t const*) const
 .gnu.linkonce.t._ZNKSt5ctypeIwE11do_scan_notEsPKwS2_
                0x9d0052c4       0x34 d:/program files/microchip/xc32/v2.50/bin/bin/../../lib/gcc/pic32mx/4.8.3/../../../../pic32mx/lib/micromips\libxcpp.a(wiostrea.o)
                0x9d0052c5                std::ctype<wchar_t>::do_scan_not(short, wchar_t const*, wchar_t const*) const
 .gnu.linkonce.t._ZNKSt5ctypeIwE10do_tolowerEw
                0x9d0052f8       0x34 d:/program files/microchip/xc32/v2.50/bin/bin/../../lib/gcc/pic32mx/4.8.3/../../../../pic32mx/lib/micromips\libxcpp.a(wiostrea.o)
                0x9d0052f9                std::ctype<wchar_t>::do_tolower(wchar_t) const
 .gnu.linkonce.t._ZNKSt5ctypeIwE10do_tolowerEPwPKw
                0x9d00532c       0x50 d:/program files/microchip/xc32/v2.50/bin/bin/../../lib/gcc/pic32mx/4.8.3/../../../../pic32mx/lib/micromips\libxcpp.a(wiostrea.o)
                0x9d00532d                std::ctype<wchar_t>::do_tolower(wchar_t*, wchar_t const*) const
 .gnu.linkonce.t._ZNKSt5ctypeIwE10do_toupperEw
                0x9d00537c       0x34 d:/program files/microchip/xc32/v2.50/bin/bin/../../lib/gcc/pic32mx/4.8.3/../../../../pic32mx/lib/micromips\libxcpp.a(wiostrea.o)
                0x9d00537d                std::ctype<wchar_t>::do_toupper(wchar_t) const
 .gnu.linkonce.t._ZNKSt5ctypeIwE10do_toupperEPwPKw
                0x9d0053b0       0x50 d:/program files/microchip/xc32/v2.50/bin/bin/../../lib/gcc/pic32mx/4.8.3/../../../../pic32mx/lib/micromips\libxcpp.a(wiostrea.o)
                0x9d0053b1                std::ctype<wchar_t>::do_toupper(wchar_t*, wchar_t const*) const
 .gnu.linkonce.t._ZNSt15basic_streambufIwSt11char_traitsIwEE4syncEv
                0x9d005400        0x4 d:/program files/microchip/xc32/v2.50/bin/bin/../../lib/gcc/pic32mx/4.8.3/../../../../pic32mx/lib/micromips\libxcpp.a(wiostrea.o)
                0x9d005401                std::basic_streambuf<wchar_t, std::char_traits<wchar_t> >::sync()
 .gnu.linkonce.t._ZNSt15basic_streambufIwSt11char_traitsIwEE5_LockEv
                0x9d005404        0x4 d:/program files/microchip/xc32/v2.50/bin/bin/../../lib/gcc/pic32mx/4.8.3/../../../../pic32mx/lib/micromips\libxcpp.a(wiostrea.o)
                0x9d005405                std::basic_streambuf<wchar_t, std::char_traits<wchar_t> >::_Lock()
 .gnu.linkonce.t._ZNSt15basic_streambufIwSt11char_traitsIwEE7_UnlockEv
                0x9d005408        0x4 d:/program files/microchip/xc32/v2.50/bin/bin/../../lib/gcc/pic32mx/4.8.3/../../../../pic32mx/lib/micromips\libxcpp.a(wiostrea.o)
                0x9d005409                std::basic_streambuf<wchar_t, std::char_traits<wchar_t> >::_Unlock()
 .gnu.linkonce.t._ZNSt15basic_streambufIwSt11char_traitsIwEE9showmanycEv
                0x9d00540c        0x4 d:/program files/microchip/xc32/v2.50/bin/bin/../../lib/gcc/pic32mx/4.8.3/../../../../pic32mx/lib/micromips\libxcpp.a(wiostrea.o)
                0x9d00540d                std::basic_streambuf<wchar_t, std::char_traits<wchar_t> >::showmanyc()
 .gnu.linkonce.t._ZNSt15basic_streambufIwSt11char_traitsIwEE8overflowEw
                0x9d005410        0x4 d:/program files/microchip/xc32/v2.50/bin/bin/../../lib/gcc/pic32mx/4.8.3/../../../../pic32mx/lib/micromips\libxcpp.a(wiostrea.o)
                0x9d005411                std::basic_streambuf<wchar_t, std::char_traits<wchar_t> >::overflow(wchar_t)
 .gnu.linkonce.t._ZNSt15basic_streambufIwSt11char_traitsIwEE9pbackfailEw
                0x9d005414        0x4 d:/program files/microchip/xc32/v2.50/bin/bin/../../lib/gcc/pic32mx/4.8.3/../../../../pic32mx/lib/micromips\libxcpp.a(wiostrea.o)
                0x9d005415                std::basic_streambuf<wchar_t, std::char_traits<wchar_t> >::pbackfail(wchar_t)
 .gnu.linkonce.t._ZNSt15basic_streambufIwSt11char_traitsIwEE9underflowEv
                0x9d005418        0x4 d:/program files/microchip/xc32/v2.50/bin/bin/../../lib/gcc/pic32mx/4.8.3/../../../../pic32mx/lib/micromips\libxcpp.a(wiostrea.o)
                0x9d005419                std::basic_streambuf<wchar_t, std::char_traits<wchar_t> >::underflow()
 .gnu.linkonce.t._ZNSt15basic_streambufIwSt11char_traitsIwEE5uflowEv
                0x9d00541c       0x28 d:/program files/microchip/xc32/v2.50/bin/bin/../../lib/gcc/pic32mx/4.8.3/../../../../pic32mx/lib/micromips\libxcpp.a(wiostrea.o)
                0x9d00541d                std::basic_streambuf<wchar_t, std::char_traits<wchar_t> >::uflow()
 .gnu.linkonce.t._ZNSt15basic_streambufIwSt11char_traitsIwEE7seekoffElNSt5_IosbIiE8_SeekdirENS4_9_OpenmodeE
                0x9d005444       0x30 d:/program files/microchip/xc32/v2.50/bin/bin/../../lib/gcc/pic32mx/4.8.3/../../../../pic32mx/lib/micromips\libxcpp.a(wiostrea.o)
                0x9d005445                std::basic_streambuf<wchar_t, std::char_traits<wchar_t> >::seekoff(long, std::_Iosb<int>::_Seekdir, std::_Iosb<int>::_Openmode)
 .gnu.linkonce.t._ZNSt15basic_streambufIwSt11char_traitsIwEE7seekposESt4fposI9_MbstatetENSt5_IosbIiE9_OpenmodeE
                0x9d005474       0x3c d:/program files/microchip/xc32/v2.50/bin/bin/../../lib/gcc/pic32mx/4.8.3/../../../../pic32mx/lib/micromips\libxcpp.a(wiostrea.o)
                0x9d005475                std::basic_streambuf<wchar_t, std::char_traits<wchar_t> >::seekpos(std::fpos<_Mbstatet>, std::_Iosb<int>::_Openmode)
 .gnu.linkonce.t._ZNSt15basic_streambufIwSt11char_traitsIwEE6setbufEPwi
                0x9d0054b0        0x4 d:/program files/microchip/xc32/v2.50/bin/bin/../../lib/gcc/pic32mx/4.8.3/../../../../pic32mx/lib/micromips\libxcpp.a(wiostrea.o)
                0x9d0054b1                std::basic_streambuf<wchar_t, std::char_traits<wchar_t> >::setbuf(wchar_t*, int)
 .gnu.linkonce.t._ZNSt15basic_streambufIwSt11char_traitsIwEE5imbueERKSt6locale
                0x9d0054b4        0x4 d:/program files/microchip/xc32/v2.50/bin/bin/../../lib/gcc/pic32mx/4.8.3/../../../../pic32mx/lib/micromips\libxcpp.a(wiostrea.o)
                0x9d0054b5                std::basic_streambuf<wchar_t, std::char_traits<wchar_t> >::imbue(std::locale const&)
 .gnu.linkonce.t._ZNSt7codecvtIwc9_MbstatetED0Ev
                0x9d0054b8       0x1c d:/program files/microchip/xc32/v2.50/bin/bin/../../lib/gcc/pic32mx/4.8.3/../../../../pic32mx/lib/micromips\libxcpp.a(wiostrea.o)
                0x9d0054b9                std::codecvt<wchar_t, char, _Mbstatet>::~codecvt()
 .gnu.linkonce.t._ZNKSt7codecvtIwc9_MbstatetE5do_inERS0_PKcS4_RS4_PwS6_RS6_
                0x9d0054d4       0xb4 d:/program files/microchip/xc32/v2.50/bin/bin/../../lib/gcc/pic32mx/4.8.3/../../../../pic32mx/lib/micromips\libxcpp.a(wiostrea.o)
                0x9d0054d5                std::codecvt<wchar_t, char, _Mbstatet>::do_in(_Mbstatet&, char const*, char const*, char const*&, wchar_t*, wchar_t*, wchar_t*&) const
 .gnu.linkonce.t._ZNKSt7codecvtIwc9_MbstatetE9do_lengthERKS0_PKcS5_m
                0x9d005588       0x80 d:/program files/microchip/xc32/v2.50/bin/bin/../../lib/gcc/pic32mx/4.8.3/../../../../pic32mx/lib/micromips\libxcpp.a(wiostrea.o)
                0x9d005589                std::codecvt<wchar_t, char, _Mbstatet>::do_length(_Mbstatet const&, char const*, char const*, unsigned long) const
 .gnu.linkonce.t._ZNKSt5ctypeIwE8do_widenEPKcS2_Pw
                0x9d005608       0x4c d:/program files/microchip/xc32/v2.50/bin/bin/../../lib/gcc/pic32mx/4.8.3/../../../../pic32mx/lib/micromips\libxcpp.a(wiostrea.o)
                0x9d005609                std::ctype<wchar_t>::do_widen(char const*, char const*, wchar_t*) const
 .gnu.linkonce.t._ZNKSt7codecvtIwc9_MbstatetE6do_outERS0_PKwS4_RS4_PcS6_RS6_
                0x9d005654      0x10c d:/program files/microchip/xc32/v2.50/bin/bin/../../lib/gcc/pic32mx/4.8.3/../../../../pic32mx/lib/micromips\libxcpp.a(wiostrea.o)
                0x9d005655                std::codecvt<wchar_t, char, _Mbstatet>::do_out(_Mbstatet&, wchar_t const*, wchar_t const*, wchar_t const*&, char*, char*, char*&) const
 .gnu.linkonce.t._ZNKSt7codecvtIwc9_MbstatetE10do_unshiftERS0_PcS3_RS3_
                0x9d005760       0x8c d:/program files/microchip/xc32/v2.50/bin/bin/../../lib/gcc/pic32mx/4.8.3/../../../../pic32mx/lib/micromips\libxcpp.a(wiostrea.o)
                0x9d005761                std::codecvt<wchar_t, char, _Mbstatet>::do_unshift(_Mbstatet&, char*, char*, char*&) const
 .gnu.linkonce.t._ZNKSt5ctypeIwE9do_narrowEPKwS2_cPc
                0x9d0057ec       0x50 d:/program files/microchip/xc32/v2.50/bin/bin/../../lib/gcc/pic32mx/4.8.3/../../../../pic32mx/lib/micromips\libxcpp.a(wiostrea.o)
                0x9d0057ed                std::ctype<wchar_t>::do_narrow(wchar_t const*, wchar_t const*, char, char*) const
 .gnu.linkonce.t._ZNSt5ctypeIwED1Ev
                0x9d00583c       0x2c d:/program files/microchip/xc32/v2.50/bin/bin/../../lib/gcc/pic32mx/4.8.3/../../../../pic32mx/lib/micromips\libxcpp.a(wiostrea.o)
                0x9d00583d                std::ctype<wchar_t>::~ctype()
 .gnu.linkonce.t._ZNSt5ctypeIwED0Ev
                0x9d005868       0x34 d:/program files/microchip/xc32/v2.50/bin/bin/../../lib/gcc/pic32mx/4.8.3/../../../../pic32mx/lib/micromips\libxcpp.a(wiostrea.o)
                0x9d005869                std::ctype<wchar_t>::~ctype()
 .gnu.linkonce.t._ZNSt9basic_iosIwSt11char_traitsIwEED1Ev
                0x9d00589c       0x1c d:/program files/microchip/xc32/v2.50/bin/bin/../../lib/gcc/pic32mx/4.8.3/../../../../pic32mx/lib/micromips\libxcpp.a(wiostrea.o)
                0x9d00589d                std::basic_ios<wchar_t, std::char_traits<wchar_t> >::~basic_ios()
 .gnu.linkonce.t._ZNSt9basic_iosIwSt11char_traitsIwEED0Ev
                0x9d0058b8       0x24 d:/program files/microchip/xc32/v2.50/bin/bin/../../lib/gcc/pic32mx/4.8.3/../../../../pic32mx/lib/micromips\libxcpp.a(wiostrea.o)
                0x9d0058b9                std::basic_ios<wchar_t, std::char_traits<wchar_t> >::~basic_ios()
 .gnu.linkonce.t._ZNSt13basic_ostreamIwSt11char_traitsIwEED1Ev
                0x9d0058dc       0x34 d:/program files/microchip/xc32/v2.50/bin/bin/../../lib/gcc/pic32mx/4.8.3/../../../../pic32mx/lib/micromips\libxcpp.a(wiostrea.o)
                0x9d0058dd                std::basic_ostream<wchar_t, std::char_traits<wchar_t> >::~basic_ostream()
                0x9d005905                virtual thunk to std::basic_ostream<wchar_t, std::char_traits<wchar_t> >::~basic_ostream()
 .gnu.linkonce.t._ZNSt13basic_ostreamIwSt11char_traitsIwEED0Ev
                0x9d005910       0x3c d:/program files/microchip/xc32/v2.50/bin/bin/../../lib/gcc/pic32mx/4.8.3/../../../../pic32mx/lib/micromips\libxcpp.a(wiostrea.o)
                0x9d005911                std::basic_ostream<wchar_t, std::char_traits<wchar_t> >::~basic_ostream()
                0x9d005941                virtual thunk to std::basic_ostream<wchar_t, std::char_traits<wchar_t> >::~basic_ostream()
 .gnu.linkonce.t._ZNSt13basic_istreamIwSt11char_traitsIwEED1Ev
                0x9d00594c       0x34 d:/program files/microchip/xc32/v2.50/bin/bin/../../lib/gcc/pic32mx/4.8.3/../../../../pic32mx/lib/micromips\libxcpp.a(wiostrea.o)
                0x9d00594d                std::basic_istream<wchar_t, std::char_traits<wchar_t> >::~basic_istream()
                0x9d005975                virtual thunk to std::basic_istream<wchar_t, std::char_traits<wchar_t> >::~basic_istream()
 .gnu.linkonce.t._ZNSt13basic_istreamIwSt11char_traitsIwEED0Ev
                0x9d005980       0x3c d:/program files/microchip/xc32/v2.50/bin/bin/../../lib/gcc/pic32mx/4.8.3/../../../../pic32mx/lib/micromips\libxcpp.a(wiostrea.o)
                0x9d005981                std::basic_istream<wchar_t, std::char_traits<wchar_t> >::~basic_istream()
                0x9d0059b1                virtual thunk to std::basic_istream<wchar_t, std::char_traits<wchar_t> >::~basic_istream()
 .gnu.linkonce.t._ZNSt15basic_streambufIwSt11char_traitsIwEE6xsgetnEPwi
                0x9d0059bc       0x90 d:/program files/microchip/xc32/v2.50/bin/bin/../../lib/gcc/pic32mx/4.8.3/../../../../pic32mx/lib/micromips\libxcpp.a(wiostrea.o)
                0x9d0059bd                std::basic_streambuf<wchar_t, std::char_traits<wchar_t> >::xsgetn(wchar_t*, int)
 .gnu.linkonce.t._ZNSt15basic_streambufIwSt11char_traitsIwEE6xsputnEPKwi
                0x9d005a4c       0x90 d:/program files/microchip/xc32/v2.50/bin/bin/../../lib/gcc/pic32mx/4.8.3/../../../../pic32mx/lib/micromips\libxcpp.a(wiostrea.o)
                0x9d005a4d                std::basic_streambuf<wchar_t, std::char_traits<wchar_t> >::xsputn(wchar_t const*, int)
 .gnu.linkonce.t._ZNSt13basic_filebufIwSt11char_traitsIwEE6setbufEPwi
                0x9d005adc       0x90 d:/program files/microchip/xc32/v2.50/bin/bin/../../lib/gcc/pic32mx/4.8.3/../../../../pic32mx/lib/micromips\libxcpp.a(wiostrea.o)
                0x9d005add                std::basic_filebuf<wchar_t, std::char_traits<wchar_t> >::setbuf(wchar_t*, int)
 .gnu.linkonce.t._ZNSt13basic_filebufIwSt11char_traitsIwEE4syncEv
                0x9d005b6c       0x38 d:/program files/microchip/xc32/v2.50/bin/bin/../../lib/gcc/pic32mx/4.8.3/../../../../pic32mx/lib/micromips\libxcpp.a(wiostrea.o)
                0x9d005b6d                std::basic_filebuf<wchar_t, std::char_traits<wchar_t> >::sync()
 .gnu.linkonce.t._ZNSt13basic_filebufIwSt11char_traitsIwEE9pbackfailEw
                0x9d005ba4       0xb8 d:/program files/microchip/xc32/v2.50/bin/bin/../../lib/gcc/pic32mx/4.8.3/../../../../pic32mx/lib/micromips\libxcpp.a(wiostrea.o)
                0x9d005ba5                std::basic_filebuf<wchar_t, std::char_traits<wchar_t> >::pbackfail(wchar_t)
 .gnu.linkonce.t._ZNSt13basic_filebufIwSt11char_traitsIwEE9underflowEv
                0x9d005c5c       0x48 d:/program files/microchip/xc32/v2.50/bin/bin/../../lib/gcc/pic32mx/4.8.3/../../../../pic32mx/lib/micromips\libxcpp.a(wiostrea.o)
                0x9d005c5d                std::basic_filebuf<wchar_t, std::char_traits<wchar_t> >::underflow()
 .gnu.linkonce.t._ZNKSt5ctypeIwE9do_narrowEwc
                0x9d005ca4       0x30 d:/program files/microchip/xc32/v2.50/bin/bin/../../lib/gcc/pic32mx/4.8.3/../../../../pic32mx/lib/micromips\libxcpp.a(wiostrea.o)
                0x9d005ca5                std::ctype<wchar_t>::do_narrow(wchar_t, char) const
 .gnu.linkonce.t._ZNKSt5ctypeIwE8do_widenEc
                0x9d005cd4       0x2c d:/program files/microchip/xc32/v2.50/bin/bin/../../lib/gcc/pic32mx/4.8.3/../../../../pic32mx/lib/micromips\libxcpp.a(wiostrea.o)
                0x9d005cd5                std::ctype<wchar_t>::do_widen(char) const
 .gnu.linkonce.t._ZNSt13basic_filebufIwSt11char_traitsIwEE5imbueERKSt6locale
                0x9d005d00      0x244 d:/program files/microchip/xc32/v2.50/bin/bin/../../lib/gcc/pic32mx/4.8.3/../../../../pic32mx/lib/micromips\libxcpp.a(wiostrea.o)
                0x9d005d01                std::basic_filebuf<wchar_t, std::char_traits<wchar_t> >::imbue(std::locale const&)
 .gnu.linkonce.t._ZNSt15basic_streambufIwSt11char_traitsIwEED1Ev
                0x9d005f44       0x48 d:/program files/microchip/xc32/v2.50/bin/bin/../../lib/gcc/pic32mx/4.8.3/../../../../pic32mx/lib/micromips\libxcpp.a(wiostrea.o)
                0x9d005f45                std::basic_streambuf<wchar_t, std::char_traits<wchar_t> >::~basic_streambuf()
 .gnu.linkonce.t._ZNSt15basic_streambufIwSt11char_traitsIwEED0Ev
                0x9d005f8c       0x54 d:/program files/microchip/xc32/v2.50/bin/bin/../../lib/gcc/pic32mx/4.8.3/../../../../pic32mx/lib/micromips\libxcpp.a(wiostrea.o)
                0x9d005f8d                std::basic_streambuf<wchar_t, std::char_traits<wchar_t> >::~basic_streambuf()
 .gnu.linkonce.t._ZNSt13basic_filebufIwSt11char_traitsIwEE7seekposESt4fposI9_MbstatetENSt5_IosbIiE9_OpenmodeE
                0x9d005fe0      0x4e4 d:/program files/microchip/xc32/v2.50/bin/bin/../../lib/gcc/pic32mx/4.8.3/../../../../pic32mx/lib/micromips\libxcpp.a(wiostrea.o)
                0x9d005fe1                std::basic_filebuf<wchar_t, std::char_traits<wchar_t> >::seekpos(std::fpos<_Mbstatet>, std::_Iosb<int>::_Openmode)
 .gnu.linkonce.t._ZNSt13basic_filebufIwSt11char_traitsIwEE8overflowEw
                0x9d0064c4      0x45c d:/program files/microchip/xc32/v2.50/bin/bin/../../lib/gcc/pic32mx/4.8.3/../../../../pic32mx/lib/micromips\libxcpp.a(wiostrea.o)
                0x9d0064c5                std::basic_filebuf<wchar_t, std::char_traits<wchar_t> >::overflow(wchar_t)
 .gnu.linkonce.t._ZNSt13basic_filebufIwSt11char_traitsIwEE7seekoffElNSt5_IosbIiE8_SeekdirENS4_9_OpenmodeE
                0x9d006920      0x4b8 d:/program files/microchip/xc32/v2.50/bin/bin/../../lib/gcc/pic32mx/4.8.3/../../../../pic32mx/lib/micromips\libxcpp.a(wiostrea.o)
                0x9d006921                std::basic_filebuf<wchar_t, std::char_traits<wchar_t> >::seekoff(long, std::_Iosb<int>::_Seekdir, std::_Iosb<int>::_Openmode)
 .gnu.linkonce.t._ZNSt13basic_filebufIwSt11char_traitsIwEE5uflowEv
                0x9d006dd8      0x484 d:/program files/microchip/xc32/v2.50/bin/bin/../../lib/gcc/pic32mx/4.8.3/../../../../pic32mx/lib/micromips\libxcpp.a(wiostrea.o)
                0x9d006dd9                std::basic_filebuf<wchar_t, std::char_traits<wchar_t> >::uflow()
 .gnu.linkonce.t._ZNSt13basic_filebufIwSt11char_traitsIwEED0Ev
                0x9d00725c      0x2cc d:/program files/microchip/xc32/v2.50/bin/bin/../../lib/gcc/pic32mx/4.8.3/../../../../pic32mx/lib/micromips\libxcpp.a(wiostrea.o)
                0x9d00725d                std::basic_filebuf<wchar_t, std::char_traits<wchar_t> >::~basic_filebuf()
 .gnu.linkonce.t._ZNSt13basic_filebufIwSt11char_traitsIwEED1Ev
                0x9d007528      0x2c4 d:/program files/microchip/xc32/v2.50/bin/bin/../../lib/gcc/pic32mx/4.8.3/../../../../pic32mx/lib/micromips\libxcpp.a(wiostrea.o)
                0x9d007529                std::basic_filebuf<wchar_t, std::char_traits<wchar_t> >::~basic_filebuf()
 .gnu.linkonce.t._ZNKSt23_Generic_error_category4nameEv
                0x9d0077ec        0x4 d:/program files/microchip/xc32/v2.50/bin/bin/../../lib/gcc/pic32mx/4.8.3/../../../../pic32mx/lib/micromips\libxcpp.a(syserror.o)
                0x9d0077ed                std::_Generic_error_category::name() const
 .gnu.linkonce.t._ZNKSt24_Iostream_error_category4nameEv
                0x9d0077f0        0x4 d:/program files/microchip/xc32/v2.50/bin/bin/../../lib/gcc/pic32mx/4.8.3/../../../../pic32mx/lib/micromips\libxcpp.a(syserror.o)
                0x9d0077f1                std::_Iostream_error_category::name() const
 .gnu.linkonce.t._ZNSt23_Generic_error_categoryD1Ev
                0x9d0077f4        0xc d:/program files/microchip/xc32/v2.50/bin/bin/../../lib/gcc/pic32mx/4.8.3/../../../../pic32mx/lib/micromips\libxcpp.a(syserror.o)
                0x9d0077f5                std::_Generic_error_category::~_Generic_error_category()
 .gnu.linkonce.t._ZNKSt22_System_error_category4nameEv
                0x9d007800        0x4 d:/program files/microchip/xc32/v2.50/bin/bin/../../lib/gcc/pic32mx/4.8.3/../../../../pic32mx/lib/micromips\libxcpp.a(syserror.o)
                0x9d007801                std::_System_error_category::name() const
 .gnu.linkonce.t._ZNKSt22_System_error_category23default_error_conditionEi
                0x9d007804        0x8 d:/program files/microchip/xc32/v2.50/bin/bin/../../lib/gcc/pic32mx/4.8.3/../../../../pic32mx/lib/micromips\libxcpp.a(syserror.o)
                0x9d007805                std::_System_error_category::default_error_condition(int) const
 .gnu.linkonce.t._ZNSt22_System_error_categoryD1Ev
                0x9d00780c        0xc d:/program files/microchip/xc32/v2.50/bin/bin/../../lib/gcc/pic32mx/4.8.3/../../../../pic32mx/lib/micromips\libxcpp.a(syserror.o)
                0x9d00780d                std::_System_error_category::~_System_error_category()
 .gnu.linkonce.t._ZNSt24_Iostream_error_categoryD1Ev
                0x9d007818        0xc d:/program files/microchip/xc32/v2.50/bin/bin/../../lib/gcc/pic32mx/4.8.3/../../../../pic32mx/lib/micromips\libxcpp.a(syserror.o)
                0x9d007819                std::_Iostream_error_category::~_Iostream_error_category()
 .gnu.linkonce.t._ZNSt23_Generic_error_categoryD0Ev
                0x9d007824       0x1c d:/program files/microchip/xc32/v2.50/bin/bin/../../lib/gcc/pic32mx/4.8.3/../../../../pic32mx/lib/micromips\libxcpp.a(syserror.o)
                0x9d007825                std::_Generic_error_category::~_Generic_error_category()
 .gnu.linkonce.t._ZNSt24_Iostream_error_categoryD0Ev
                0x9d007840       0x1c d:/program files/microchip/xc32/v2.50/bin/bin/../../lib/gcc/pic32mx/4.8.3/../../../../pic32mx/lib/micromips\libxcpp.a(syserror.o)
                0x9d007841                std::_Iostream_error_category::~_Iostream_error_category()
 .gnu.linkonce.t._ZNSt22_System_error_categoryD0Ev
                0x9d00785c       0x1c d:/program files/microchip/xc32/v2.50/bin/bin/../../lib/gcc/pic32mx/4.8.3/../../../../pic32mx/lib/micromips\libxcpp.a(syserror.o)
                0x9d00785d                std::_System_error_category::~_System_error_category()
 .gnu.linkonce.t._ZNKSt23_Generic_error_category7messageEi
                0x9d007878      0x3b0 d:/program files/microchip/xc32/v2.50/bin/bin/../../lib/gcc/pic32mx/4.8.3/../../../../pic32mx/lib/micromips\libxcpp.a(syserror.o)
                0x9d007879                std::_Generic_error_category::message(int) const
 .gnu.linkonce.t._ZNKSt24_Iostream_error_category7messageEi
                0x9d007c28      0x6bc d:/program files/microchip/xc32/v2.50/bin/bin/../../lib/gcc/pic32mx/4.8.3/../../../../pic32mx/lib/micromips\libxcpp.a(syserror.o)
                0x9d007c29                std::_Iostream_error_category::message(int) const
 *(.text.*personality*)
 .text.__gxx_personality_sj0
                0x9d0082e4      0x3cc d:/program files/microchip/xc32/v2.50/bin/bin/../../lib/gcc/pic32mx/4.8.3/../../../../pic32mx/lib/micromips\libsupc++.a(eh_personality.o)
                0x9d0082e5                __gxx_personality_sj0
 *(.mips16.fn.*)
 *(.mips16.call.*)
 *(.gnu.warning)
                0x9d0086b0                . = ALIGN (0x4)

.init           0x9d0086b0       0x20
 *crti.o(.init)
 .init          0x9d0086b0        0x6 d:/program files/microchip/xc32/v2.50/bin/bin/../../lib/gcc/pic32mx/4.8.3/micromips/crti.o
                0x9d0086b1                _init
 *crtbegin.o(.init)
 .init          0x9d0086b6        0x8 d:/program files/microchip/xc32/v2.50/bin/bin/../../lib/gcc/pic32mx/4.8.3/micromips/crtbegin.o
 *(EXCLUDE_FILE(*crtn.o *crtend?.o *crtend.o) .init)
 *crtend.o(.init)
 .init          0x9d0086be        0x8 d:/program files/microchip/xc32/v2.50/bin/bin/../../lib/gcc/pic32mx/4.8.3/micromips/crtend.o
 *crtn.o(.init)
 .init          0x9d0086c6        0x8 d:/program files/microchip/xc32/v2.50/bin/bin/../../lib/gcc/pic32mx/4.8.3/micromips/crtn.o
                0x9d0086d0                . = ALIGN (0x4)
 *fill*         0x9d0086ce        0x2 

.fini           0x9d0086d0       0x18
 *(.fini)
 .fini          0x9d0086d0        0x6 d:/program files/microchip/xc32/v2.50/bin/bin/../../lib/gcc/pic32mx/4.8.3/micromips/crti.o
                0x9d0086d1                _fini
 .fini          0x9d0086d6        0x8 d:/program files/microchip/xc32/v2.50/bin/bin/../../lib/gcc/pic32mx/4.8.3/micromips/crtbegin.o
 .fini          0x9d0086de        0x8 d:/program files/microchip/xc32/v2.50/bin/bin/../../lib/gcc/pic32mx/4.8.3/micromips/crtn.o
                0x9d0086e8                . = ALIGN (0x4)
 *fill*         0x9d0086e6        0x2 

.preinit_array  0x9d0086e8        0x0
                0x9d0086e8                PROVIDE (__preinit_array_start, .)
 *(.preinit_array)
                0x9d0086e8                PROVIDE (__preinit_array_end, .)
                0x9d0086e8                . = ALIGN (0x4)

.init_array     0x9d0086e8        0x0
                0x9d0086e8                PROVIDE (__init_array_start, .)
 *(SORT(.init_array.*))
 *(.init_array)
                0x9d0086e8                PROVIDE (__init_array_end, .)
                0x9d0086e8                . = ALIGN (0x4)

.fini_array     0x9d0086e8        0x0
                0x9d0086e8                PROVIDE (__fini_array_start, .)
 *(SORT(.fini_array.*))
 *(.fini_array)
                0x9d0086e8                PROVIDE (__fini_array_end, .)
                0x9d0086e8                . = ALIGN (0x4)

.ctors          0x9d0086e8       0x1c
 *crtbegin.o(.ctors)
 .ctors         0x9d0086e8        0x4 d:/program files/microchip/xc32/v2.50/bin/bin/../../lib/gcc/pic32mx/4.8.3/micromips/crtbegin.o
 *crtbegin?.o(.ctors)
 *(EXCLUDE_FILE(*crtend?.o *crtend.o) .ctors)
 .ctors         0x9d0086ec        0x4 build/default/production/main.o
 .ctors         0x9d0086f0        0x4 d:/program files/microchip/xc32/v2.50/bin/bin/../../lib/gcc/pic32mx/4.8.3/../../../../pic32mx/lib/micromips\libxcpp.a(iostream.o)
 .ctors         0x9d0086f4        0x4 d:/program files/microchip/xc32/v2.50/bin/bin/../../lib/gcc/pic32mx/4.8.3/../../../../pic32mx/lib/micromips\libxcpp.a(wiostrea.o)
 .ctors         0x9d0086f8        0x4 d:/program files/microchip/xc32/v2.50/bin/bin/../../lib/gcc/pic32mx/4.8.3/../../../../pic32mx/lib/micromips\libxcpp.a(locale0.o)
 .ctors         0x9d0086fc        0x4 d:/program files/microchip/xc32/v2.50/bin/bin/../../lib/gcc/pic32mx/4.8.3/../../../../pic32mx/lib/micromips\libxcpp.a(syserror.o)
 *(SORT(.ctors.*))
 *(.ctors)
 .ctors         0x9d008700        0x4 d:/program files/microchip/xc32/v2.50/bin/bin/../../lib/gcc/pic32mx/4.8.3/micromips/crtend.o
                0x9d008704                . = ALIGN (0x4)

.dtors          0x9d008704       0x1c
 *crtbegin.o(.dtors)
 .dtors         0x9d008704        0x4 d:/program files/microchip/xc32/v2.50/bin/bin/../../lib/gcc/pic32mx/4.8.3/micromips/crtbegin.o
 *crtbegin?.o(.dtors)
 *(EXCLUDE_FILE(*crtend?.o *crtend.o) .dtors)
 .dtors         0x9d008708        0x4 build/default/production/main.o
 .dtors         0x9d00870c        0x4 d:/program files/microchip/xc32/v2.50/bin/bin/../../lib/gcc/pic32mx/4.8.3/../../../../pic32mx/lib/micromips\libxcpp.a(iostream.o)
 .dtors         0x9d008710        0x4 d:/program files/microchip/xc32/v2.50/bin/bin/../../lib/gcc/pic32mx/4.8.3/../../../../pic32mx/lib/micromips\libxcpp.a(wiostrea.o)
 .dtors         0x9d008714        0x4 d:/program files/microchip/xc32/v2.50/bin/bin/../../lib/gcc/pic32mx/4.8.3/../../../../pic32mx/lib/micromips\libxcpp.a(locale0.o)
 .dtors         0x9d008718        0x4 d:/program files/microchip/xc32/v2.50/bin/bin/../../lib/gcc/pic32mx/4.8.3/../../../../pic32mx/lib/micromips\libxcpp.a(syserror.o)
 *(SORT(.dtors.*))
 *(.dtors)
 .dtors         0x9d00871c        0x4 d:/program files/microchip/xc32/v2.50/bin/bin/../../lib/gcc/pic32mx/4.8.3/micromips/crtend.o
                0x9d00871c                __DTOR_END__
                0x9d008720                . = ALIGN (0x4)

.rodata         0x9d008720      0xc00
 *(.gnu.linkonce.r.*)
 .gnu.linkonce.r._ZTVNSt8ios_base7failureE
                0x9d008720       0x18 build/default/production/main.o
                0x9d008720                vtable for std::ios_base::failure
 .gnu.linkonce.r._ZTVSt12system_error
                0x9d008738       0x18 build/default/production/main.o
                0x9d008738                vtable for std::system_error
 .gnu.linkonce.r._ZTVSt14error_category
                0x9d008750       0x28 build/default/production/main.o
                0x9d008750                vtable for std::error_category
 .gnu.linkonce.r._ZTVSt13runtime_error
                0x9d008778       0x18 build/default/production/main.o
                0x9d008778                vtable for std::runtime_error
 .gnu.linkonce.r._ZTVSt9bad_alloc
                0x9d008790       0x18 build/default/production/main.o
                0x9d008790                vtable for std::bad_alloc
 .gnu.linkonce.r._ZTSNSt8ios_base7failureE
                0x9d0087a8       0x18 build/default/production/main.o
                0x9d0087a8                typeinfo name for std::ios_base::failure
 .gnu.linkonce.r._ZTINSt8ios_base7failureE
                0x9d0087c0        0xc build/default/production/main.o
                0x9d0087c0                typeinfo for std::ios_base::failure
 .gnu.linkonce.r._ZTSSt12system_error
                0x9d0087cc       0x14 build/default/production/main.o
                0x9d0087cc                typeinfo name for std::system_error
 .gnu.linkonce.r._ZTISt12system_error
                0x9d0087e0        0xc build/default/production/main.o
                0x9d0087e0                typeinfo for std::system_error
 .gnu.linkonce.r._ZTISt14error_category
                0x9d0087ec        0x8 build/default/production/main.o
                0x9d0087ec                typeinfo for std::error_category
 .gnu.linkonce.r._ZTSSt14error_category
                0x9d0087f4       0x14 build/default/production/main.o
                0x9d0087f4                typeinfo name for std::error_category
 .gnu.linkonce.r._ZTSSt13runtime_error
                0x9d008808       0x14 build/default/production/main.o
                0x9d008808                typeinfo name for std::runtime_error
 .gnu.linkonce.r._ZTISt13runtime_error
                0x9d00881c        0xc build/default/production/main.o
                0x9d00881c                typeinfo for std::runtime_error
 .gnu.linkonce.r._ZTSSt9bad_alloc
                0x9d008828       0x10 build/default/production/main.o
                0x9d008828                typeinfo name for std::bad_alloc
 .gnu.linkonce.r._ZTISt9bad_alloc
                0x9d008838        0xc build/default/production/main.o
                0x9d008838                typeinfo for std::bad_alloc
 .gnu.linkonce.r._ZTSN10__cxxabiv117__class_type_infoE._ZTSN10__cxxabiv117__class_type_infoE
                0x9d008844       0x24 d:/program files/microchip/xc32/v2.50/bin/bin/../../lib/gcc/pic32mx/4.8.3/../../../../pic32mx/lib/micromips\libsupc++.a(class_type_info.o)
                0x9d008844                typeinfo name for __cxxabiv1::__class_type_info
 .gnu.linkonce.r._ZTIN10__cxxabiv117__class_type_infoE._ZTIN10__cxxabiv117__class_type_infoE
                0x9d008868        0xc d:/program files/microchip/xc32/v2.50/bin/bin/../../lib/gcc/pic32mx/4.8.3/../../../../pic32mx/lib/micromips\libsupc++.a(class_type_info.o)
                0x9d008868                typeinfo for __cxxabiv1::__class_type_info
 *fill*         0x9d008874        0x4 
 .gnu.linkonce.r._ZTVN10__cxxabiv117__class_type_infoE._ZTVN10__cxxabiv117__class_type_infoE
                0x9d008878       0x30 d:/program files/microchip/xc32/v2.50/bin/bin/../../lib/gcc/pic32mx/4.8.3/../../../../pic32mx/lib/micromips\libsupc++.a(class_type_info.o)
                0x9d008878                vtable for __cxxabiv1::__class_type_info
 .gnu.linkonce.r._ZTSSt9exception._ZTSSt9exception
                0x9d0088a8       0x10 d:/program files/microchip/xc32/v2.50/bin/bin/../../lib/gcc/pic32mx/4.8.3/../../../../pic32mx/lib/micromips\libsupc++.a(eh_exception.o)
                0x9d0088a8                typeinfo name for std::exception
 .gnu.linkonce.r._ZTISt9exception._ZTISt9exception
                0x9d0088b8        0x8 d:/program files/microchip/xc32/v2.50/bin/bin/../../lib/gcc/pic32mx/4.8.3/../../../../pic32mx/lib/micromips\libsupc++.a(eh_exception.o)
                0x9d0088b8                typeinfo for std::exception
 .gnu.linkonce.r._ZTSSt13bad_exception._ZTSSt13bad_exception
                0x9d0088c0       0x14 d:/program files/microchip/xc32/v2.50/bin/bin/../../lib/gcc/pic32mx/4.8.3/../../../../pic32mx/lib/micromips\libsupc++.a(eh_exception.o)
                0x9d0088c0                typeinfo name for std::bad_exception
 .gnu.linkonce.r._ZTISt13bad_exception._ZTISt13bad_exception
                0x9d0088d4        0xc d:/program files/microchip/xc32/v2.50/bin/bin/../../lib/gcc/pic32mx/4.8.3/../../../../pic32mx/lib/micromips\libsupc++.a(eh_exception.o)
                0x9d0088d4                typeinfo for std::bad_exception
 .gnu.linkonce.r._ZTSN10__cxxabiv115__forced_unwindE._ZTSN10__cxxabiv115__forced_unwindE
                0x9d0088e0       0x20 d:/program files/microchip/xc32/v2.50/bin/bin/../../lib/gcc/pic32mx/4.8.3/../../../../pic32mx/lib/micromips\libsupc++.a(eh_exception.o)
                0x9d0088e0                typeinfo name for __cxxabiv1::__forced_unwind
 .gnu.linkonce.r._ZTIN10__cxxabiv115__forced_unwindE._ZTIN10__cxxabiv115__forced_unwindE
                0x9d008900        0x8 d:/program files/microchip/xc32/v2.50/bin/bin/../../lib/gcc/pic32mx/4.8.3/../../../../pic32mx/lib/micromips\libsupc++.a(eh_exception.o)
                0x9d008900                typeinfo for __cxxabiv1::__forced_unwind
 .gnu.linkonce.r._ZTSN10__cxxabiv119__foreign_exceptionE._ZTSN10__cxxabiv119__foreign_exceptionE
                0x9d008908       0x24 d:/program files/microchip/xc32/v2.50/bin/bin/../../lib/gcc/pic32mx/4.8.3/../../../../pic32mx/lib/micromips\libsupc++.a(eh_exception.o)
                0x9d008908                typeinfo name for __cxxabiv1::__foreign_exception
 .gnu.linkonce.r._ZTIN10__cxxabiv119__foreign_exceptionE._ZTIN10__cxxabiv119__foreign_exceptionE
                0x9d00892c        0x8 d:/program files/microchip/xc32/v2.50/bin/bin/../../lib/gcc/pic32mx/4.8.3/../../../../pic32mx/lib/micromips\libsupc++.a(eh_exception.o)
                0x9d00892c                typeinfo for __cxxabiv1::__foreign_exception
 *fill*         0x9d008934        0x4 
 .gnu.linkonce.r._ZTVSt9exception._ZTVSt9exception
                0x9d008938       0x18 d:/program files/microchip/xc32/v2.50/bin/bin/../../lib/gcc/pic32mx/4.8.3/../../../../pic32mx/lib/micromips\libsupc++.a(eh_exception.o)
                0x9d008938                vtable for std::exception
 .gnu.linkonce.r._ZTVSt13bad_exception._ZTVSt13bad_exception
                0x9d008950       0x18 d:/program files/microchip/xc32/v2.50/bin/bin/../../lib/gcc/pic32mx/4.8.3/../../../../pic32mx/lib/micromips\libsupc++.a(eh_exception.o)
                0x9d008950                vtable for std::bad_exception
 .gnu.linkonce.r._ZTVN10__cxxabiv115__forced_unwindE._ZTVN10__cxxabiv115__forced_unwindE
                0x9d008968       0x18 d:/program files/microchip/xc32/v2.50/bin/bin/../../lib/gcc/pic32mx/4.8.3/../../../../pic32mx/lib/micromips\libsupc++.a(eh_exception.o)
                0x9d008968                vtable for __cxxabiv1::__forced_unwind
 .gnu.linkonce.r._ZTVN10__cxxabiv119__foreign_exceptionE._ZTVN10__cxxabiv119__foreign_exceptionE
                0x9d008980       0x18 d:/program files/microchip/xc32/v2.50/bin/bin/../../lib/gcc/pic32mx/4.8.3/../../../../pic32mx/lib/micromips\libsupc++.a(eh_exception.o)
                0x9d008980                vtable for __cxxabiv1::__foreign_exception
 .gnu.linkonce.r._ZTSN10__cxxabiv120__si_class_type_infoE._ZTSN10__cxxabiv120__si_class_type_infoE
                0x9d008998       0x28 d:/program files/microchip/xc32/v2.50/bin/bin/../../lib/gcc/pic32mx/4.8.3/../../../../pic32mx/lib/micromips\libsupc++.a(si_class_type_info.o)
                0x9d008998                typeinfo name for __cxxabiv1::__si_class_type_info
 .gnu.linkonce.r._ZTIN10__cxxabiv120__si_class_type_infoE._ZTIN10__cxxabiv120__si_class_type_infoE
                0x9d0089c0        0xc d:/program files/microchip/xc32/v2.50/bin/bin/../../lib/gcc/pic32mx/4.8.3/../../../../pic32mx/lib/micromips\libsupc++.a(si_class_type_info.o)
                0x9d0089c0                typeinfo for __cxxabiv1::__si_class_type_info
 *fill*         0x9d0089cc        0x4 
 .gnu.linkonce.r._ZTVN10__cxxabiv120__si_class_type_infoE._ZTVN10__cxxabiv120__si_class_type_infoE
                0x9d0089d0       0x30 d:/program files/microchip/xc32/v2.50/bin/bin/../../lib/gcc/pic32mx/4.8.3/../../../../pic32mx/lib/micromips\libsupc++.a(si_class_type_info.o)
                0x9d0089d0                vtable for __cxxabiv1::__si_class_type_info
 .gnu.linkonce.r._ZTSSt9type_info._ZTSSt9type_info
                0x9d008a00       0x10 d:/program files/microchip/xc32/v2.50/bin/bin/../../lib/gcc/pic32mx/4.8.3/../../../../pic32mx/lib/micromips\libsupc++.a(tinfo.o)
                0x9d008a00                typeinfo name for std::type_info
 .gnu.linkonce.r._ZTISt9type_info._ZTISt9type_info
                0x9d008a10        0x8 d:/program files/microchip/xc32/v2.50/bin/bin/../../lib/gcc/pic32mx/4.8.3/../../../../pic32mx/lib/micromips\libsupc++.a(tinfo.o)
                0x9d008a10                typeinfo for std::type_info
 .gnu.linkonce.r._ZTVSt9type_info._ZTVSt9type_info
                0x9d008a18       0x20 d:/program files/microchip/xc32/v2.50/bin/bin/../../lib/gcc/pic32mx/4.8.3/../../../../pic32mx/lib/micromips\libsupc++.a(tinfo.o)
                0x9d008a18                vtable for std::type_info
 .gnu.linkonce.r._ZTISt7codecvtIcc9_MbstatetE
                0x9d008a38        0xc d:/program files/microchip/xc32/v2.50/bin/bin/../../lib/gcc/pic32mx/4.8.3/../../../../pic32mx/lib/micromips\libxcpp.a(iostream.o)
                0x9d008a38                typeinfo for std::codecvt<char, char, _Mbstatet>
 .gnu.linkonce.r._ZTSSt7codecvtIcc9_MbstatetE
                0x9d008a44       0x1c d:/program files/microchip/xc32/v2.50/bin/bin/../../lib/gcc/pic32mx/4.8.3/../../../../pic32mx/lib/micromips\libxcpp.a(iostream.o)
                0x9d008a44                typeinfo name for std::codecvt<char, char, _Mbstatet>
 .gnu.linkonce.r._ZTVSt7codecvtIcc9_MbstatetE
                0x9d008a60       0x30 d:/program files/microchip/xc32/v2.50/bin/bin/../../lib/gcc/pic32mx/4.8.3/../../../../pic32mx/lib/micromips\libxcpp.a(iostream.o)
                0x9d008a60                vtable for std::codecvt<char, char, _Mbstatet>
 .gnu.linkonce.r._ZTISt8bad_cast
                0x9d008a90        0xc d:/program files/microchip/xc32/v2.50/bin/bin/../../lib/gcc/pic32mx/4.8.3/../../../../pic32mx/lib/micromips\libxcpp.a(iostream.o)
                0x9d008a90                typeinfo for std::bad_cast
 .gnu.linkonce.r._ZTSSt8bad_cast
                0x9d008a9c        0xc d:/program files/microchip/xc32/v2.50/bin/bin/../../lib/gcc/pic32mx/4.8.3/../../../../pic32mx/lib/micromips\libxcpp.a(iostream.o)
                0x9d008a9c                typeinfo name for std::bad_cast
 .gnu.linkonce.r._ZTINSt6locale5facetE
                0x9d008aa8        0x8 d:/program files/microchip/xc32/v2.50/bin/bin/../../lib/gcc/pic32mx/4.8.3/../../../../pic32mx/lib/micromips\libxcpp.a(iostream.o)
                0x9d008aa8                typeinfo for std::locale::facet
 .gnu.linkonce.r._ZTSNSt6locale5facetE
                0x9d008ab0       0x14 d:/program files/microchip/xc32/v2.50/bin/bin/../../lib/gcc/pic32mx/4.8.3/../../../../pic32mx/lib/micromips\libxcpp.a(iostream.o)
                0x9d008ab0                typeinfo name for std::locale::facet
 .gnu.linkonce.r._ZTISt12codecvt_base
                0x9d008ac4        0xc d:/program files/microchip/xc32/v2.50/bin/bin/../../lib/gcc/pic32mx/4.8.3/../../../../pic32mx/lib/micromips\libxcpp.a(iostream.o)
                0x9d008ac4                typeinfo for std::codecvt_base
 .gnu.linkonce.r._ZTSSt12codecvt_base
                0x9d008ad0       0x14 d:/program files/microchip/xc32/v2.50/bin/bin/../../lib/gcc/pic32mx/4.8.3/../../../../pic32mx/lib/micromips\libxcpp.a(iostream.o)
                0x9d008ad0                typeinfo name for std::codecvt_base
 .gnu.linkonce.r._ZTISt10ctype_base
                0x9d008ae4        0xc d:/program files/microchip/xc32/v2.50/bin/bin/../../lib/gcc/pic32mx/4.8.3/../../../../pic32mx/lib/micromips\libxcpp.a(iostream.o)
                0x9d008ae4                typeinfo for std::ctype_base
 .gnu.linkonce.r._ZTSSt10ctype_base
                0x9d008af0       0x10 d:/program files/microchip/xc32/v2.50/bin/bin/../../lib/gcc/pic32mx/4.8.3/../../../../pic32mx/lib/micromips\libxcpp.a(iostream.o)
                0x9d008af0                typeinfo name for std::ctype_base
 .gnu.linkonce.r._ZTISt5ctypeIcE
                0x9d008b00        0xc d:/program files/microchip/xc32/v2.50/bin/bin/../../lib/gcc/pic32mx/4.8.3/../../../../pic32mx/lib/micromips\libxcpp.a(iostream.o)
                0x9d008b00                typeinfo for std::ctype<char>
 .gnu.linkonce.r._ZTSSt5ctypeIcE
                0x9d008b0c        0xc d:/program files/microchip/xc32/v2.50/bin/bin/../../lib/gcc/pic32mx/4.8.3/../../../../pic32mx/lib/micromips\libxcpp.a(iostream.o)
                0x9d008b0c                typeinfo name for std::ctype<char>
 .gnu.linkonce.r._ZTISt15basic_streambufIcSt11char_traitsIcEE
                0x9d008b18        0x8 d:/program files/microchip/xc32/v2.50/bin/bin/../../lib/gcc/pic32mx/4.8.3/../../../../pic32mx/lib/micromips\libxcpp.a(iostream.o)
                0x9d008b18                typeinfo for std::basic_streambuf<char, std::char_traits<char> >
 .gnu.linkonce.r._ZTSSt15basic_streambufIcSt11char_traitsIcEE
                0x9d008b20       0x2c d:/program files/microchip/xc32/v2.50/bin/bin/../../lib/gcc/pic32mx/4.8.3/../../../../pic32mx/lib/micromips\libxcpp.a(iostream.o)
                0x9d008b20                typeinfo name for std::basic_streambuf<char, std::char_traits<char> >
 .gnu.linkonce.r._ZTISt13basic_filebufIcSt11char_traitsIcEE
                0x9d008b4c        0xc d:/program files/microchip/xc32/v2.50/bin/bin/../../lib/gcc/pic32mx/4.8.3/../../../../pic32mx/lib/micromips\libxcpp.a(iostream.o)
                0x9d008b4c                typeinfo for std::basic_filebuf<char, std::char_traits<char> >
 .gnu.linkonce.r._ZTSSt13basic_filebufIcSt11char_traitsIcEE
                0x9d008b58       0x28 d:/program files/microchip/xc32/v2.50/bin/bin/../../lib/gcc/pic32mx/4.8.3/../../../../pic32mx/lib/micromips\libxcpp.a(iostream.o)
                0x9d008b58                typeinfo name for std::basic_filebuf<char, std::char_traits<char> >
 .gnu.linkonce.r._ZTISt9basic_iosIcSt11char_traitsIcEE
                0x9d008b80        0xc d:/program files/microchip/xc32/v2.50/bin/bin/../../lib/gcc/pic32mx/4.8.3/../../../../pic32mx/lib/micromips\libxcpp.a(iostream.o)
                0x9d008b80                typeinfo for std::basic_ios<char, std::char_traits<char> >
 .gnu.linkonce.r._ZTSSt9basic_iosIcSt11char_traitsIcEE
                0x9d008b8c       0x24 d:/program files/microchip/xc32/v2.50/bin/bin/../../lib/gcc/pic32mx/4.8.3/../../../../pic32mx/lib/micromips\libxcpp.a(iostream.o)
                0x9d008b8c                typeinfo name for std::basic_ios<char, std::char_traits<char> >
 .gnu.linkonce.r._ZTISi
                0x9d008bb0       0x18 d:/program files/microchip/xc32/v2.50/bin/bin/../../lib/gcc/pic32mx/4.8.3/../../../../pic32mx/lib/micromips\libxcpp.a(iostream.o)
                0x9d008bb0                typeinfo for std::istream
 .gnu.linkonce.r._ZTSSi
                0x9d008bc8        0x4 d:/program files/microchip/xc32/v2.50/bin/bin/../../lib/gcc/pic32mx/4.8.3/../../../../pic32mx/lib/micromips\libxcpp.a(iostream.o)
                0x9d008bc8                typeinfo name for std::istream
 .gnu.linkonce.r._ZTISo
                0x9d008bcc       0x18 d:/program files/microchip/xc32/v2.50/bin/bin/../../lib/gcc/pic32mx/4.8.3/../../../../pic32mx/lib/micromips\libxcpp.a(iostream.o)
                0x9d008bcc                typeinfo for std::ostream
 .gnu.linkonce.r._ZTSSo
                0x9d008be4        0x4 d:/program files/microchip/xc32/v2.50/bin/bin/../../lib/gcc/pic32mx/4.8.3/../../../../pic32mx/lib/micromips\libxcpp.a(iostream.o)
                0x9d008be4                typeinfo name for std::ostream
 .gnu.linkonce.r._ZTVSt8bad_cast
                0x9d008be8       0x18 d:/program files/microchip/xc32/v2.50/bin/bin/../../lib/gcc/pic32mx/4.8.3/../../../../pic32mx/lib/micromips\libxcpp.a(iostream.o)
                0x9d008be8                vtable for std::bad_cast
 .gnu.linkonce.r._ZTVNSt6locale5facetE
                0x9d008c00       0x10 d:/program files/microchip/xc32/v2.50/bin/bin/../../lib/gcc/pic32mx/4.8.3/../../../../pic32mx/lib/micromips\libxcpp.a(iostream.o)
                0x9d008c00                vtable for std::locale::facet
 .gnu.linkonce.r._ZTVSt12codecvt_base
                0x9d008c10       0x20 d:/program files/microchip/xc32/v2.50/bin/bin/../../lib/gcc/pic32mx/4.8.3/../../../../pic32mx/lib/micromips\libxcpp.a(iostream.o)
                0x9d008c10                vtable for std::codecvt_base
 .gnu.linkonce.r._ZTVSt10ctype_base
                0x9d008c30       0x10 d:/program files/microchip/xc32/v2.50/bin/bin/../../lib/gcc/pic32mx/4.8.3/../../../../pic32mx/lib/micromips\libxcpp.a(iostream.o)
                0x9d008c30                vtable for std::ctype_base
 .gnu.linkonce.r._ZTVSt5ctypeIcE
                0x9d008c40       0x30 d:/program files/microchip/xc32/v2.50/bin/bin/../../lib/gcc/pic32mx/4.8.3/../../../../pic32mx/lib/micromips\libxcpp.a(iostream.o)
                0x9d008c40                vtable for std::ctype<char>
 .gnu.linkonce.r._ZTVSt15basic_streambufIcSt11char_traitsIcEE
                0x9d008c70       0x48 d:/program files/microchip/xc32/v2.50/bin/bin/../../lib/gcc/pic32mx/4.8.3/../../../../pic32mx/lib/micromips\libxcpp.a(iostream.o)
                0x9d008c70                vtable for std::basic_streambuf<char, std::char_traits<char> >
 .gnu.linkonce.r._ZTVSt13basic_filebufIcSt11char_traitsIcEE
                0x9d008cb8       0x48 d:/program files/microchip/xc32/v2.50/bin/bin/../../lib/gcc/pic32mx/4.8.3/../../../../pic32mx/lib/micromips\libxcpp.a(iostream.o)
                0x9d008cb8                vtable for std::basic_filebuf<char, std::char_traits<char> >
 .gnu.linkonce.r._ZTVSt9basic_iosIcSt11char_traitsIcEE
                0x9d008d00       0x10 d:/program files/microchip/xc32/v2.50/bin/bin/../../lib/gcc/pic32mx/4.8.3/../../../../pic32mx/lib/micromips\libxcpp.a(iostream.o)
                0x9d008d00                vtable for std::basic_ios<char, std::char_traits<char> >
 .gnu.linkonce.r._ZTTSi
                0x9d008d10        0x8 d:/program files/microchip/xc32/v2.50/bin/bin/../../lib/gcc/pic32mx/4.8.3/../../../../pic32mx/lib/micromips\libxcpp.a(iostream.o)
                0x9d008d10                VTT for std::istream
 .gnu.linkonce.r._ZTVSi
                0x9d008d18       0x28 d:/program files/microchip/xc32/v2.50/bin/bin/../../lib/gcc/pic32mx/4.8.3/../../../../pic32mx/lib/micromips\libxcpp.a(iostream.o)
                0x9d008d18                vtable for std::istream
 .gnu.linkonce.r._ZTTSo
                0x9d008d40        0x8 d:/program files/microchip/xc32/v2.50/bin/bin/../../lib/gcc/pic32mx/4.8.3/../../../../pic32mx/lib/micromips\libxcpp.a(iostream.o)
                0x9d008d40                VTT for std::ostream
 .gnu.linkonce.r._ZTVSo
                0x9d008d48       0x28 d:/program files/microchip/xc32/v2.50/bin/bin/../../lib/gcc/pic32mx/4.8.3/../../../../pic32mx/lib/micromips\libxcpp.a(iostream.o)
                0x9d008d48                vtable for std::ostream
 .gnu.linkonce.r._ZTISt11logic_error
                0x9d008d70        0xc d:/program files/microchip/xc32/v2.50/bin/bin/../../lib/gcc/pic32mx/4.8.3/../../../../pic32mx/lib/micromips\libxcpp.a(xthrow.o)
                0x9d008d70                typeinfo for std::logic_error
 .gnu.linkonce.r._ZTSSt11logic_error
                0x9d008d7c       0x10 d:/program files/microchip/xc32/v2.50/bin/bin/../../lib/gcc/pic32mx/4.8.3/../../../../pic32mx/lib/micromips\libxcpp.a(xthrow.o)
                0x9d008d7c                typeinfo name for std::logic_error
 .gnu.linkonce.r._ZTISt16invalid_argument
                0x9d008d8c        0xc d:/program files/microchip/xc32/v2.50/bin/bin/../../lib/gcc/pic32mx/4.8.3/../../../../pic32mx/lib/micromips\libxcpp.a(xthrow.o)
                0x9d008d8c                typeinfo for std::invalid_argument
 .gnu.linkonce.r._ZTSSt16invalid_argument
                0x9d008d98       0x18 d:/program files/microchip/xc32/v2.50/bin/bin/../../lib/gcc/pic32mx/4.8.3/../../../../pic32mx/lib/micromips\libxcpp.a(xthrow.o)
                0x9d008d98                typeinfo name for std::invalid_argument
 .gnu.linkonce.r._ZTISt12length_error
                0x9d008db0        0xc d:/program files/microchip/xc32/v2.50/bin/bin/../../lib/gcc/pic32mx/4.8.3/../../../../pic32mx/lib/micromips\libxcpp.a(xthrow.o)
                0x9d008db0                typeinfo for std::length_error
 .gnu.linkonce.r._ZTSSt12length_error
                0x9d008dbc       0x14 d:/program files/microchip/xc32/v2.50/bin/bin/../../lib/gcc/pic32mx/4.8.3/../../../../pic32mx/lib/micromips\libxcpp.a(xthrow.o)
                0x9d008dbc                typeinfo name for std::length_error
 .gnu.linkonce.r._ZTISt12out_of_range
                0x9d008dd0        0xc d:/program files/microchip/xc32/v2.50/bin/bin/../../lib/gcc/pic32mx/4.8.3/../../../../pic32mx/lib/micromips\libxcpp.a(xthrow.o)
                0x9d008dd0                typeinfo for std::out_of_range
 .gnu.linkonce.r._ZTSSt12out_of_range
                0x9d008ddc       0x14 d:/program files/microchip/xc32/v2.50/bin/bin/../../lib/gcc/pic32mx/4.8.3/../../../../pic32mx/lib/micromips\libxcpp.a(xthrow.o)
                0x9d008ddc                typeinfo name for std::out_of_range
 .gnu.linkonce.r._ZTISt14overflow_error
                0x9d008df0        0xc d:/program files/microchip/xc32/v2.50/bin/bin/../../lib/gcc/pic32mx/4.8.3/../../../../pic32mx/lib/micromips\libxcpp.a(xthrow.o)
                0x9d008df0                typeinfo for std::overflow_error
 .gnu.linkonce.r._ZTSSt14overflow_error
                0x9d008dfc       0x14 d:/program files/microchip/xc32/v2.50/bin/bin/../../lib/gcc/pic32mx/4.8.3/../../../../pic32mx/lib/micromips\libxcpp.a(xthrow.o)
                0x9d008dfc                typeinfo name for std::overflow_error
 .gnu.linkonce.r._ZTVSt11logic_error
                0x9d008e10       0x18 d:/program files/microchip/xc32/v2.50/bin/bin/../../lib/gcc/pic32mx/4.8.3/../../../../pic32mx/lib/micromips\libxcpp.a(xthrow.o)
                0x9d008e10                vtable for std::logic_error
 .gnu.linkonce.r._ZTVSt16invalid_argument
                0x9d008e28       0x18 d:/program files/microchip/xc32/v2.50/bin/bin/../../lib/gcc/pic32mx/4.8.3/../../../../pic32mx/lib/micromips\libxcpp.a(xthrow.o)
                0x9d008e28                vtable for std::invalid_argument
 .gnu.linkonce.r._ZTVSt12length_error
                0x9d008e40       0x18 d:/program files/microchip/xc32/v2.50/bin/bin/../../lib/gcc/pic32mx/4.8.3/../../../../pic32mx/lib/micromips\libxcpp.a(xthrow.o)
                0x9d008e40                vtable for std::length_error
 .gnu.linkonce.r._ZTVSt12out_of_range
                0x9d008e58       0x18 d:/program files/microchip/xc32/v2.50/bin/bin/../../lib/gcc/pic32mx/4.8.3/../../../../pic32mx/lib/micromips\libxcpp.a(xthrow.o)
                0x9d008e58                vtable for std::out_of_range
 .gnu.linkonce.r._ZTVSt14overflow_error
                0x9d008e70       0x18 d:/program files/microchip/xc32/v2.50/bin/bin/../../lib/gcc/pic32mx/4.8.3/../../../../pic32mx/lib/micromips\libxcpp.a(xthrow.o)
                0x9d008e70                vtable for std::overflow_error
 .gnu.linkonce.r._ZTISt7codecvtIwc9_MbstatetE
                0x9d008e88        0xc d:/program files/microchip/xc32/v2.50/bin/bin/../../lib/gcc/pic32mx/4.8.3/../../../../pic32mx/lib/micromips\libxcpp.a(wiostrea.o)
                0x9d008e88                typeinfo for std::codecvt<wchar_t, char, _Mbstatet>
 .gnu.linkonce.r._ZTSSt7codecvtIwc9_MbstatetE
                0x9d008e94       0x1c d:/program files/microchip/xc32/v2.50/bin/bin/../../lib/gcc/pic32mx/4.8.3/../../../../pic32mx/lib/micromips\libxcpp.a(wiostrea.o)
                0x9d008e94                typeinfo name for std::codecvt<wchar_t, char, _Mbstatet>
 .gnu.linkonce.r._ZTISt5ctypeIwE
                0x9d008eb0        0xc d:/program files/microchip/xc32/v2.50/bin/bin/../../lib/gcc/pic32mx/4.8.3/../../../../pic32mx/lib/micromips\libxcpp.a(wiostrea.o)
                0x9d008eb0                typeinfo for std::ctype<wchar_t>
 .gnu.linkonce.r._ZTSSt5ctypeIwE
                0x9d008ebc        0xc d:/program files/microchip/xc32/v2.50/bin/bin/../../lib/gcc/pic32mx/4.8.3/../../../../pic32mx/lib/micromips\libxcpp.a(wiostrea.o)
                0x9d008ebc                typeinfo name for std::ctype<wchar_t>
 .gnu.linkonce.r._ZTISt15basic_streambufIwSt11char_traitsIwEE
                0x9d008ec8        0x8 d:/program files/microchip/xc32/v2.50/bin/bin/../../lib/gcc/pic32mx/4.8.3/../../../../pic32mx/lib/micromips\libxcpp.a(wiostrea.o)
                0x9d008ec8                typeinfo for std::basic_streambuf<wchar_t, std::char_traits<wchar_t> >
 .gnu.linkonce.r._ZTSSt15basic_streambufIwSt11char_traitsIwEE
                0x9d008ed0       0x2c d:/program files/microchip/xc32/v2.50/bin/bin/../../lib/gcc/pic32mx/4.8.3/../../../../pic32mx/lib/micromips\libxcpp.a(wiostrea.o)
                0x9d008ed0                typeinfo name for std::basic_streambuf<wchar_t, std::char_traits<wchar_t> >
 .gnu.linkonce.r._ZTISt13basic_filebufIwSt11char_traitsIwEE
                0x9d008efc        0xc d:/program files/microchip/xc32/v2.50/bin/bin/../../lib/gcc/pic32mx/4.8.3/../../../../pic32mx/lib/micromips\libxcpp.a(wiostrea.o)
                0x9d008efc                typeinfo for std::basic_filebuf<wchar_t, std::char_traits<wchar_t> >
 .gnu.linkonce.r._ZTSSt13basic_filebufIwSt11char_traitsIwEE
                0x9d008f08       0x28 d:/program files/microchip/xc32/v2.50/bin/bin/../../lib/gcc/pic32mx/4.8.3/../../../../pic32mx/lib/micromips\libxcpp.a(wiostrea.o)
                0x9d008f08                typeinfo name for std::basic_filebuf<wchar_t, std::char_traits<wchar_t> >
 .gnu.linkonce.r._ZTISt9basic_iosIwSt11char_traitsIwEE
                0x9d008f30        0xc d:/program files/microchip/xc32/v2.50/bin/bin/../../lib/gcc/pic32mx/4.8.3/../../../../pic32mx/lib/micromips\libxcpp.a(wiostrea.o)
                0x9d008f30                typeinfo for std::basic_ios<wchar_t, std::char_traits<wchar_t> >
 .gnu.linkonce.r._ZTSSt9basic_iosIwSt11char_traitsIwEE
                0x9d008f3c       0x24 d:/program files/microchip/xc32/v2.50/bin/bin/../../lib/gcc/pic32mx/4.8.3/../../../../pic32mx/lib/micromips\libxcpp.a(wiostrea.o)
                0x9d008f3c                typeinfo name for std::basic_ios<wchar_t, std::char_traits<wchar_t> >
 .gnu.linkonce.r._ZTISt13basic_istreamIwSt11char_traitsIwEE
                0x9d008f60       0x18 d:/program files/microchip/xc32/v2.50/bin/bin/../../lib/gcc/pic32mx/4.8.3/../../../../pic32mx/lib/micromips\libxcpp.a(wiostrea.o)
                0x9d008f60                typeinfo for std::basic_istream<wchar_t, std::char_traits<wchar_t> >
 .gnu.linkonce.r._ZTSSt13basic_istreamIwSt11char_traitsIwEE
                0x9d008f78       0x28 d:/program files/microchip/xc32/v2.50/bin/bin/../../lib/gcc/pic32mx/4.8.3/../../../../pic32mx/lib/micromips\libxcpp.a(wiostrea.o)
                0x9d008f78                typeinfo name for std::basic_istream<wchar_t, std::char_traits<wchar_t> >
 .gnu.linkonce.r._ZTISt13basic_ostreamIwSt11char_traitsIwEE
                0x9d008fa0       0x18 d:/program files/microchip/xc32/v2.50/bin/bin/../../lib/gcc/pic32mx/4.8.3/../../../../pic32mx/lib/micromips\libxcpp.a(wiostrea.o)
                0x9d008fa0                typeinfo for std::basic_ostream<wchar_t, std::char_traits<wchar_t> >
 .gnu.linkonce.r._ZTSSt13basic_ostreamIwSt11char_traitsIwEE
                0x9d008fb8       0x28 d:/program files/microchip/xc32/v2.50/bin/bin/../../lib/gcc/pic32mx/4.8.3/../../../../pic32mx/lib/micromips\libxcpp.a(wiostrea.o)
                0x9d008fb8                typeinfo name for std::basic_ostream<wchar_t, std::char_traits<wchar_t> >
 .gnu.linkonce.r._ZTVSt7codecvtIwc9_MbstatetE
                0x9d008fe0       0x30 d:/program files/microchip/xc32/v2.50/bin/bin/../../lib/gcc/pic32mx/4.8.3/../../../../pic32mx/lib/micromips\libxcpp.a(wiostrea.o)
                0x9d008fe0                vtable for std::codecvt<wchar_t, char, _Mbstatet>
 .gnu.linkonce.r._ZTVSt5ctypeIwE
                0x9d009010       0x40 d:/program files/microchip/xc32/v2.50/bin/bin/../../lib/gcc/pic32mx/4.8.3/../../../../pic32mx/lib/micromips\libxcpp.a(wiostrea.o)
                0x9d009010                vtable for std::ctype<wchar_t>
 .gnu.linkonce.r._ZTVSt15basic_streambufIwSt11char_traitsIwEE
                0x9d009050       0x48 d:/program files/microchip/xc32/v2.50/bin/bin/../../lib/gcc/pic32mx/4.8.3/../../../../pic32mx/lib/micromips\libxcpp.a(wiostrea.o)
                0x9d009050                vtable for std::basic_streambuf<wchar_t, std::char_traits<wchar_t> >
 .gnu.linkonce.r._ZTVSt13basic_filebufIwSt11char_traitsIwEE
                0x9d009098       0x48 d:/program files/microchip/xc32/v2.50/bin/bin/../../lib/gcc/pic32mx/4.8.3/../../../../pic32mx/lib/micromips\libxcpp.a(wiostrea.o)
                0x9d009098                vtable for std::basic_filebuf<wchar_t, std::char_traits<wchar_t> >
 .gnu.linkonce.r._ZTVSt9basic_iosIwSt11char_traitsIwEE
                0x9d0090e0       0x10 d:/program files/microchip/xc32/v2.50/bin/bin/../../lib/gcc/pic32mx/4.8.3/../../../../pic32mx/lib/micromips\libxcpp.a(wiostrea.o)
                0x9d0090e0                vtable for std::basic_ios<wchar_t, std::char_traits<wchar_t> >
 .gnu.linkonce.r._ZTTSt13basic_istreamIwSt11char_traitsIwEE
                0x9d0090f0        0x8 d:/program files/microchip/xc32/v2.50/bin/bin/../../lib/gcc/pic32mx/4.8.3/../../../../pic32mx/lib/micromips\libxcpp.a(wiostrea.o)
                0x9d0090f0                VTT for std::basic_istream<wchar_t, std::char_traits<wchar_t> >
 .gnu.linkonce.r._ZTVSt13basic_istreamIwSt11char_traitsIwEE
                0x9d0090f8       0x28 d:/program files/microchip/xc32/v2.50/bin/bin/../../lib/gcc/pic32mx/4.8.3/../../../../pic32mx/lib/micromips\libxcpp.a(wiostrea.o)
                0x9d0090f8                vtable for std::basic_istream<wchar_t, std::char_traits<wchar_t> >
 .gnu.linkonce.r._ZTTSt13basic_ostreamIwSt11char_traitsIwEE
                0x9d009120        0x8 d:/program files/microchip/xc32/v2.50/bin/bin/../../lib/gcc/pic32mx/4.8.3/../../../../pic32mx/lib/micromips\libxcpp.a(wiostrea.o)
                0x9d009120                VTT for std::basic_ostream<wchar_t, std::char_traits<wchar_t> >
 .gnu.linkonce.r._ZTVSt13basic_ostreamIwSt11char_traitsIwEE
                0x9d009128       0x28 d:/program files/microchip/xc32/v2.50/bin/bin/../../lib/gcc/pic32mx/4.8.3/../../../../pic32mx/lib/micromips\libxcpp.a(wiostrea.o)
                0x9d009128                vtable for std::basic_ostream<wchar_t, std::char_traits<wchar_t> >
 .gnu.linkonce.r._ZTSNSt6locale7_LocimpE
                0x9d009150       0x14 d:/program files/microchip/xc32/v2.50/bin/bin/../../lib/gcc/pic32mx/4.8.3/../../../../pic32mx/lib/micromips\libxcpp.a(locale0.o)
                0x9d009150                typeinfo name for std::locale::_Locimp
 .gnu.linkonce.r._ZTINSt6locale7_LocimpE
                0x9d009164        0xc d:/program files/microchip/xc32/v2.50/bin/bin/../../lib/gcc/pic32mx/4.8.3/../../../../pic32mx/lib/micromips\libxcpp.a(locale0.o)
                0x9d009164                typeinfo for std::locale::_Locimp
 .gnu.linkonce.r._ZTVNSt6locale7_LocimpE
                0x9d009170       0x10 d:/program files/microchip/xc32/v2.50/bin/bin/../../lib/gcc/pic32mx/4.8.3/../../../../pic32mx/lib/micromips\libxcpp.a(locale0.o)
                0x9d009170                vtable for std::locale::_Locimp
 .gnu.linkonce.r._ZTISt23_Generic_error_category
                0x9d009180        0xc d:/program files/microchip/xc32/v2.50/bin/bin/../../lib/gcc/pic32mx/4.8.3/../../../../pic32mx/lib/micromips\libxcpp.a(syserror.o)
                0x9d009180                typeinfo for std::_Generic_error_category
 .gnu.linkonce.r._ZTSSt23_Generic_error_category
                0x9d00918c       0x1c d:/program files/microchip/xc32/v2.50/bin/bin/../../lib/gcc/pic32mx/4.8.3/../../../../pic32mx/lib/micromips\libxcpp.a(syserror.o)
                0x9d00918c                typeinfo name for std::_Generic_error_category
 .gnu.linkonce.r._ZTISt24_Iostream_error_category
                0x9d0091a8        0xc d:/program files/microchip/xc32/v2.50/bin/bin/../../lib/gcc/pic32mx/4.8.3/../../../../pic32mx/lib/micromips\libxcpp.a(syserror.o)
                0x9d0091a8                typeinfo for std::_Iostream_error_category
 .gnu.linkonce.r._ZTSSt24_Iostream_error_category
                0x9d0091b4       0x20 d:/program files/microchip/xc32/v2.50/bin/bin/../../lib/gcc/pic32mx/4.8.3/../../../../pic32mx/lib/micromips\libxcpp.a(syserror.o)
                0x9d0091b4                typeinfo name for std::_Iostream_error_category
 .gnu.linkonce.r._ZTISt22_System_error_category
                0x9d0091d4        0xc d:/program files/microchip/xc32/v2.50/bin/bin/../../lib/gcc/pic32mx/4.8.3/../../../../pic32mx/lib/micromips\libxcpp.a(syserror.o)
                0x9d0091d4                typeinfo for std::_System_error_category
 .gnu.linkonce.r._ZTSSt22_System_error_category
                0x9d0091e0       0x1c d:/program files/microchip/xc32/v2.50/bin/bin/../../lib/gcc/pic32mx/4.8.3/../../../../pic32mx/lib/micromips\libxcpp.a(syserror.o)
                0x9d0091e0                typeinfo name for std::_System_error_category
 *fill*         0x9d0091fc        0x4 
 .gnu.linkonce.r._ZTVSt23_Generic_error_category
                0x9d009200       0x28 d:/program files/microchip/xc32/v2.50/bin/bin/../../lib/gcc/pic32mx/4.8.3/../../../../pic32mx/lib/micromips\libxcpp.a(syserror.o)
                0x9d009200                vtable for std::_Generic_error_category
 .gnu.linkonce.r._ZTVSt24_Iostream_error_category
                0x9d009228       0x28 d:/program files/microchip/xc32/v2.50/bin/bin/../../lib/gcc/pic32mx/4.8.3/../../../../pic32mx/lib/micromips\libxcpp.a(syserror.o)
                0x9d009228                vtable for std::_Iostream_error_category
 .gnu.linkonce.r._ZTVSt22_System_error_category
                0x9d009250       0x28 d:/program files/microchip/xc32/v2.50/bin/bin/../../lib/gcc/pic32mx/4.8.3/../../../../pic32mx/lib/micromips\libxcpp.a(syserror.o)
                0x9d009250                vtable for std::_System_error_category
 .gnu.linkonce.r._ZTISt5_IosbIiE
                0x9d009278        0x8 d:/program files/microchip/xc32/v2.50/bin/bin/../../lib/gcc/pic32mx/4.8.3/../../../../pic32mx/lib/micromips\libxcpp.a(ios.o)
                0x9d009278                typeinfo for std::_Iosb<int>
 .gnu.linkonce.r._ZTSSt5_IosbIiE
                0x9d009280        0xc d:/program files/microchip/xc32/v2.50/bin/bin/../../lib/gcc/pic32mx/4.8.3/../../../../pic32mx/lib/micromips\libxcpp.a(ios.o)
                0x9d009280                typeinfo name for std::_Iosb<int>
 .gnu.linkonce.r._ZTSSt8ios_base
                0x9d00928c        0xc d:/program files/microchip/xc32/v2.50/bin/bin/../../lib/gcc/pic32mx/4.8.3/../../../../pic32mx/lib/micromips\libxcpp.a(ios.o)
                0x9d00928c                typeinfo name for std::ios_base
 .gnu.linkonce.r._ZTISt8ios_base
                0x9d009298        0xc d:/program files/microchip/xc32/v2.50/bin/bin/../../lib/gcc/pic32mx/4.8.3/../../../../pic32mx/lib/micromips\libxcpp.a(ios.o)
                0x9d009298                typeinfo for std::ios_base
 *fill*         0x9d0092a4        0x4 
 .gnu.linkonce.r._ZTVSt8ios_base
                0x9d0092a8       0x10 d:/program files/microchip/xc32/v2.50/bin/bin/../../lib/gcc/pic32mx/4.8.3/../../../../pic32mx/lib/micromips\libxcpp.a(ios.o)
                0x9d0092a8                vtable for std::ios_base
 .gnu.linkonce.r._ZTSN10__cxxabiv121__vmi_class_type_infoE._ZTSN10__cxxabiv121__vmi_class_type_infoE
                0x9d0092b8       0x28 d:/program files/microchip/xc32/v2.50/bin/bin/../../lib/gcc/pic32mx/4.8.3/../../../../pic32mx/lib/micromips\libsupc++.a(vmi_class_type_info.o)
                0x9d0092b8                typeinfo name for __cxxabiv1::__vmi_class_type_info
 .gnu.linkonce.r._ZTIN10__cxxabiv121__vmi_class_type_infoE._ZTIN10__cxxabiv121__vmi_class_type_infoE
                0x9d0092e0        0xc d:/program files/microchip/xc32/v2.50/bin/bin/../../lib/gcc/pic32mx/4.8.3/../../../../pic32mx/lib/micromips\libsupc++.a(vmi_class_type_info.o)
                0x9d0092e0                typeinfo for __cxxabiv1::__vmi_class_type_info
 *fill*         0x9d0092ec        0x4 
 .gnu.linkonce.r._ZTVN10__cxxabiv121__vmi_class_type_infoE._ZTVN10__cxxabiv121__vmi_class_type_infoE
                0x9d0092f0       0x30 d:/program files/microchip/xc32/v2.50/bin/bin/../../lib/gcc/pic32mx/4.8.3/../../../../pic32mx/lib/micromips\libsupc++.a(vmi_class_type_info.o)
                0x9d0092f0                vtable for __cxxabiv1::__vmi_class_type_info
 *(.rodata1)
                0x9d009320                . = ALIGN (0x4)

.sdata2         0x9d009320        0x0
 *(.sdata2 .sdata2.* .gnu.linkonce.s2.*)
                0x9d009320                . = ALIGN (0x4)

.sbss2          0x9d009320        0x0
 *(.sbss2 .sbss2.* .gnu.linkonce.sb2.*)
                0x9d009320                . = ALIGN (0x4)

.eh_frame_hdr
 *(.eh_frame_hdr)
                0x9d009320                . = ALIGN (0x4)

.eh_frame
 *(.eh_frame)
                0x9d009320                . = ALIGN (0x4)

.gcc_except_table
 *(.gcc_except_table .gcc_except_table.*)
                0x9d009320                . = ALIGN (0x4)

.dbg_data       0x80000000        0x0
                0x80000000                . = (. + DEFINED (_DEBUGGER)?0x200:0x0)

.jcr            0x80000000        0x4
 *(.jcr)
 .jcr           0x80000000        0x0 d:/program files/microchip/xc32/v2.50/bin/bin/../../lib/gcc/pic32mx/4.8.3/micromips/crtbegin.o
 .jcr           0x80000000        0x4 d:/program files/microchip/xc32/v2.50/bin/bin/../../lib/gcc/pic32mx/4.8.3/micromips/crtend.o
                0x80000004                . = ALIGN (0x4)

.eh_frame       0x80000004        0x4
 *(.eh_frame)
 .eh_frame      0x80000004        0x0 d:/program files/microchip/xc32/v2.50/bin/bin/../../lib/gcc/pic32mx/4.8.3/micromips/crtbegin.o
 .eh_frame      0x80000004        0x4 d:/program files/microchip/xc32/v2.50/bin/bin/../../lib/gcc/pic32mx/4.8.3/micromips/crtend.o
                0x80000008                . = ALIGN (0x4)

.gcc_except_table
                0x80000008      0x3a0
 *(.gcc_except_table .gcc_except_table.*)
 .gcc_except_table
                0x80000008       0x74 build/default/production/main.o
 .gcc_except_table
                0x8000007c       0x20 d:/program files/microchip/xc32/v2.50/bin/bin/../../lib/gcc/pic32mx/4.8.3/../../../../pic32mx/lib/micromips\libsupc++.a(eh_personality.o)
 .gcc_except_table
                0x8000009c       0x10 d:/program files/microchip/xc32/v2.50/bin/bin/../../lib/gcc/pic32mx/4.8.3/../../../../pic32mx/lib/micromips\libsupc++.a(eh_terminate.o)
 .gcc_except_table
                0x800000ac      0x140 d:/program files/microchip/xc32/v2.50/bin/bin/../../lib/gcc/pic32mx/4.8.3/../../../../pic32mx/lib/micromips\libxcpp.a(iostream.o)
 .gcc_except_table
                0x800001ec       0x50 d:/program files/microchip/xc32/v2.50/bin/bin/../../lib/gcc/pic32mx/4.8.3/../../../../pic32mx/lib/micromips\libxcpp.a(xthrow.o)
 .gcc_except_table
                0x8000023c      0x140 d:/program files/microchip/xc32/v2.50/bin/bin/../../lib/gcc/pic32mx/4.8.3/../../../../pic32mx/lib/micromips\libxcpp.a(wiostrea.o)
 .gcc_except_table
                0x8000037c       0x2c d:/program files/microchip/xc32/v2.50/bin/bin/../../lib/gcc/pic32mx/4.8.3/../../../../pic32mx/lib/micromips\libxcpp.a(syserror.o)
                0x800003a8                . = ALIGN (0x4)

.persist        0x800003a8        0x0
                0x800003a8                _persist_begin = .
 *(.persist .persist.*)
                0x800003a8                . = ALIGN (0x4)
                0x800003a8                _persist_end = .

.data           0x800003a8        0x0
 *(.gnu.linkonce.d.*)
 *(.data1)
                0x800003a8                . = ALIGN (0x4)
                0x800003a8                . = .
                0x800083a0                _gp = (ALIGN (0x10) + 0x7ff0)

.got            0x800003a8        0x0
 *(.got.plt)
 *(.got)
                0x800003a8                . = ALIGN (0x4)

.sdata          0x800003a8        0x8
                0x800003a8                _sdata_begin = .
 *(.sdata .sdata.* .gnu.linkonce.s.*)
 .sdata         0x800003a8        0x4 d:/program files/microchip/xc32/v2.50/bin/bin/../../lib/gcc/pic32mx/4.8.3/micromips/crtbegin.o
                0x800003a8                __dso_handle
 .sdata         0x800003ac        0x4 d:/program files/microchip/xc32/v2.50/bin/bin/../../lib/gcc/pic32mx/4.8.3/../../../../pic32mx/lib/micromips\libpic32.a(xc32_uart.o)
                0x800003ac                __XC_UART
                0x800003b0                . = ALIGN (0x4)
                0x800003b0                _sdata_end = .

.lit8
 *(.lit8)

.lit4
 *(.lit4)
                0x800003b0                . = ALIGN (0x4)
                0x800003b0                _data_end = .
                0x800003b0                _bss_begin = .

.sbss           0x800003b0        0xc
                0x800003b0                _sbss_begin = .
 *(.dynsbss)
 *(.sbss .sbss.* .gnu.linkonce.sb.*)
 .sbss          0x800003b0        0xc build/default/production/main.o
 *(.scommon)
                0x800003bc                _sbss_end = .
                0x800003bc                . = ALIGN (0x4)

.bss            0x800003bc        0x0
 *(.dynbss)
 *(COMMON)
                0x800003bc                . = ALIGN ((. != 0x0)?0x4:0x1)
                0x800003bc                . = ALIGN (0x4)
                0x800003bc                _end = .
                0x800003bc                _bss_end = .
                0x00008000                _bmxdudba_address = 0x8000
                0x00008000                _bmxdupba_address = 0x8000

/DISCARD/
 *(.pdr)
 *(.rel.dyn)
 *(.note.GNU-stack)
 *(.note.GNU-stack)
 *(.gnu_debuglink)
 *(.gnu.lto_*)
 *(.discard)

.gptab.sdata
 *(.gptab.data)
 *(.gptab.sdata)

.gptab.sbss
 *(.gptab.bss)
 *(.gptab.sbss)

.mdebug.abi32   0x00000000        0x0
 *(.mdebug.abi32)
 .mdebug.abi32  0x00000000        0x0 d:/program files/microchip/xc32/v2.50/bin/bin/../../lib/gcc/pic32mx/4.8.3/micromips/crtbegin.o
 .mdebug.abi32  0x00000000        0x0 build/default/production/main.o
 .mdebug.abi32  0x00000000        0x0 d:/program files/microchip/xc32/v2.50/bin/bin/../../lib/gcc/pic32mx/4.8.3/../../../../pic32mx/lib/micromips\libsupc++.a(class_type_info.o)
 .mdebug.abi32  0x00000000        0x0 d:/program files/microchip/xc32/v2.50/bin/bin/../../lib/gcc/pic32mx/4.8.3/../../../../pic32mx/lib/micromips\libsupc++.a(del_op.o)
 .mdebug.abi32  0x00000000        0x0 d:/program files/microchip/xc32/v2.50/bin/bin/../../lib/gcc/pic32mx/4.8.3/../../../../pic32mx/lib/micromips\libsupc++.a(eh_alloc.o)
 .mdebug.abi32  0x00000000        0x0 d:/program files/microchip/xc32/v2.50/bin/bin/../../lib/gcc/pic32mx/4.8.3/../../../../pic32mx/lib/micromips\libsupc++.a(eh_catch.o)
 .mdebug.abi32  0x00000000        0x0 d:/program files/microchip/xc32/v2.50/bin/bin/../../lib/gcc/pic32mx/4.8.3/../../../../pic32mx/lib/micromips\libsupc++.a(eh_exception.o)
 .mdebug.abi32  0x00000000        0x0 d:/program files/microchip/xc32/v2.50/bin/bin/../../lib/gcc/pic32mx/4.8.3/../../../../pic32mx/lib/micromips\libsupc++.a(eh_globals.o)
 .mdebug.abi32  0x00000000        0x0 d:/program files/microchip/xc32/v2.50/bin/bin/../../lib/gcc/pic32mx/4.8.3/../../../../pic32mx/lib/micromips\libsupc++.a(eh_personality.o)
 .mdebug.abi32  0x00000000        0x0 d:/program files/microchip/xc32/v2.50/bin/bin/../../lib/gcc/pic32mx/4.8.3/../../../../pic32mx/lib/micromips\libsupc++.a(eh_terminate.o)
 .mdebug.abi32  0x00000000        0x0 d:/program files/microchip/xc32/v2.50/bin/bin/../../lib/gcc/pic32mx/4.8.3/../../../../pic32mx/lib/micromips\libsupc++.a(eh_throw.o)
 .mdebug.abi32  0x00000000        0x0 d:/program files/microchip/xc32/v2.50/bin/bin/../../lib/gcc/pic32mx/4.8.3/../../../../pic32mx/lib/micromips\libsupc++.a(eh_unex_handler.o)
 .mdebug.abi32  0x00000000        0x0 d:/program files/microchip/xc32/v2.50/bin/bin/../../lib/gcc/pic32mx/4.8.3/../../../../pic32mx/lib/micromips\libsupc++.a(new_op.o)
 .mdebug.abi32  0x00000000        0x0 d:/program files/microchip/xc32/v2.50/bin/bin/../../lib/gcc/pic32mx/4.8.3/../../../../pic32mx/lib/micromips\libsupc++.a(si_class_type_info.o)
 .mdebug.abi32  0x00000000        0x0 d:/program files/microchip/xc32/v2.50/bin/bin/../../lib/gcc/pic32mx/4.8.3/../../../../pic32mx/lib/micromips\libsupc++.a(tinfo.o)
 .mdebug.abi32  0x00000000        0x0 d:/program files/microchip/xc32/v2.50/bin/bin/../../lib/gcc/pic32mx/4.8.3/../../../../pic32mx/lib/micromips\libsupc++.a(pure.o)
 .mdebug.abi32  0x00000000        0x0 d:/program files/microchip/xc32/v2.50/bin/bin/../../lib/gcc/pic32mx/4.8.3/../../../../pic32mx/lib/micromips\libsupc++.a(eh_call.o)
 .mdebug.abi32  0x00000000        0x0 d:/program files/microchip/xc32/v2.50/bin/bin/../../lib/gcc/pic32mx/4.8.3/../../../../pic32mx/lib/micromips\libsupc++.a(eh_term_handler.o)
 .mdebug.abi32  0x00000000        0x0 d:/program files/microchip/xc32/v2.50/bin/bin/../../lib/gcc/pic32mx/4.8.3/../../../../pic32mx/lib/micromips\libsupc++.a(new_handler.o)
 .mdebug.abi32  0x00000000        0x0 d:/program files/microchip/xc32/v2.50/bin/bin/../../lib/gcc/pic32mx/4.8.3/micromips\libgcc.a(unwind-sjlj.o)
 .mdebug.abi32  0x00000000        0x0 d:/program files/microchip/xc32/v2.50/bin/bin/../../lib/gcc/pic32mx/4.8.3/../../../../pic32mx/lib/micromips\libpic32.a(default-bootstrap-exception-handler.o)
 .mdebug.abi32  0x00000000        0x0 d:/program files/microchip/xc32/v2.50/bin/bin/../../lib/gcc/pic32mx/4.8.3/../../../../pic32mx/lib/micromips\libpic32.a(default-on-reset.o)
 .mdebug.abi32  0x00000000        0x0 d:/program files/microchip/xc32/v2.50/bin/bin/../../lib/gcc/pic32mx/4.8.3/../../../../pic32mx/lib/micromips\libpic32.a(default-on-bootstrap.o)
 .mdebug.abi32  0x00000000        0x0 d:/program files/microchip/xc32/v2.50/bin/bin/../../lib/gcc/pic32mx/4.8.3/../../../../pic32mx/lib/micromips\libpic32.a(default-general-exception-handler.o)
 .mdebug.abi32  0x00000000        0x0 d:/program files/microchip/xc32/v2.50/bin/bin/../../lib/gcc/pic32mx/4.8.3/../../../../pic32mx/lib/micromips\libpic32.a(defaultinterrupt.o)
 .mdebug.abi32  0x00000000        0x0 d:/program files/microchip/xc32/v2.50/bin/bin/../../lib/gcc/pic32mx/4.8.3/../../../../pic32mx/lib/micromips\libxcpp.a(iostream.o)
 .mdebug.abi32  0x00000000        0x0 d:/program files/microchip/xc32/v2.50/bin/bin/../../lib/gcc/pic32mx/4.8.3/../../../../pic32mx/lib/micromips\libxcpp.a(xthrow.o)
 .mdebug.abi32  0x00000000        0x0 d:/program files/microchip/xc32/v2.50/bin/bin/../../lib/gcc/pic32mx/4.8.3/../../../../pic32mx/lib/micromips\libxcpp.a(wiostrea.o)
 .mdebug.abi32  0x00000000        0x0 d:/program files/microchip/xc32/v2.50/bin/bin/../../lib/gcc/pic32mx/4.8.3/../../../../pic32mx/lib/micromips\libxcpp.a(locale0.o)
 .mdebug.abi32  0x00000000        0x0 d:/program files/microchip/xc32/v2.50/bin/bin/../../lib/gcc/pic32mx/4.8.3/../../../../pic32mx/lib/micromips\libxcpp.a(abort.o)
 .mdebug.abi32  0x00000000        0x0 d:/program files/microchip/xc32/v2.50/bin/bin/../../lib/gcc/pic32mx/4.8.3/../../../../pic32mx/lib/micromips\libxcpp.a(abs.o)
 .mdebug.abi32  0x00000000        0x0 d:/program files/microchip/xc32/v2.50/bin/bin/../../lib/gcc/pic32mx/4.8.3/../../../../pic32mx/lib/micromips\libxcpp.a(asctime.o)
 .mdebug.abi32  0x00000000        0x0 d:/program files/microchip/xc32/v2.50/bin/bin/../../lib/gcc/pic32mx/4.8.3/../../../../pic32mx/lib/micromips\libxcpp.a(exit.o)
 .mdebug.abi32  0x00000000        0x0 d:/program files/microchip/xc32/v2.50/bin/bin/../../lib/gcc/pic32mx/4.8.3/../../../../pic32mx/lib/micromips\libxcpp.a(fclose.o)
 .mdebug.abi32  0x00000000        0x0 d:/program files/microchip/xc32/v2.50/bin/bin/../../lib/gcc/pic32mx/4.8.3/../../../../pic32mx/lib/micromips\libxcpp.a(fflush.o)
 .mdebug.abi32  0x00000000        0x0 d:/program files/microchip/xc32/v2.50/bin/bin/../../lib/gcc/pic32mx/4.8.3/../../../../pic32mx/lib/micromips\libxcpp.a(fgetc.o)
 .mdebug.abi32  0x00000000        0x0 d:/program files/microchip/xc32/v2.50/bin/bin/../../lib/gcc/pic32mx/4.8.3/../../../../pic32mx/lib/micromips\libxcpp.a(fgetpos.o)
 .mdebug.abi32  0x00000000        0x0 d:/program files/microchip/xc32/v2.50/bin/bin/../../lib/gcc/pic32mx/4.8.3/../../../../pic32mx/lib/micromips\libxcpp.a(fgetwc.o)
 .mdebug.abi32  0x00000000        0x0 d:/program files/microchip/xc32/v2.50/bin/bin/../../lib/gcc/pic32mx/4.8.3/../../../../pic32mx/lib/micromips\libxcpp.a(fputc.o)
 .mdebug.abi32  0x00000000        0x0 d:/program files/microchip/xc32/v2.50/bin/bin/../../lib/gcc/pic32mx/4.8.3/../../../../pic32mx/lib/micromips\libxcpp.a(fputwc.o)
 .mdebug.abi32  0x00000000        0x0 d:/program files/microchip/xc32/v2.50/bin/bin/../../lib/gcc/pic32mx/4.8.3/../../../../pic32mx/lib/micromips\libxcpp.a(free.o)
 .mdebug.abi32  0x00000000        0x0 d:/program files/microchip/xc32/v2.50/bin/bin/../../lib/gcc/pic32mx/4.8.3/../../../../pic32mx/lib/micromips\libxcpp.a(fseek.o)
 .mdebug.abi32  0x00000000        0x0 d:/program files/microchip/xc32/v2.50/bin/bin/../../lib/gcc/pic32mx/4.8.3/../../../../pic32mx/lib/micromips\libxcpp.a(fsetpos.o)
 .mdebug.abi32  0x00000000        0x0 d:/program files/microchip/xc32/v2.50/bin/bin/../../lib/gcc/pic32mx/4.8.3/../../../../pic32mx/lib/micromips\libxcpp.a(fwrite.o)
 .mdebug.abi32  0x00000000        0x0 d:/program files/microchip/xc32/v2.50/bin/bin/../../lib/gcc/pic32mx/4.8.3/../../../../pic32mx/lib/micromips\libxcpp.a(malloc.o)
 .mdebug.abi32  0x00000000        0x0 d:/program files/microchip/xc32/v2.50/bin/bin/../../lib/gcc/pic32mx/4.8.3/../../../../pic32mx/lib/micromips\libxcpp.a(memchr.o)
 .mdebug.abi32  0x00000000        0x0 d:/program files/microchip/xc32/v2.50/bin/bin/../../lib/gcc/pic32mx/4.8.3/../../../../pic32mx/lib/micromips\libxcpp.a(memmove.o)
 .mdebug.abi32  0x00000000        0x0 d:/program files/microchip/xc32/v2.50/bin/bin/../../lib/gcc/pic32mx/4.8.3/../../../../pic32mx/lib/micromips\libxcpp.a(raise.o)
 .mdebug.abi32  0x00000000        0x0 d:/program files/microchip/xc32/v2.50/bin/bin/../../lib/gcc/pic32mx/4.8.3/../../../../pic32mx/lib/micromips\libxcpp.a(remove.o)
 .mdebug.abi32  0x00000000        0x0 d:/program files/microchip/xc32/v2.50/bin/bin/../../lib/gcc/pic32mx/4.8.3/../../../../pic32mx/lib/micromips\libxcpp.a(setlocal.o)
 .mdebug.abi32  0x00000000        0x0 d:/program files/microchip/xc32/v2.50/bin/bin/../../lib/gcc/pic32mx/4.8.3/../../../../pic32mx/lib/micromips\libxcpp.a(setvbuf.o)
 .mdebug.abi32  0x00000000        0x0 d:/program files/microchip/xc32/v2.50/bin/bin/../../lib/gcc/pic32mx/4.8.3/../../../../pic32mx/lib/micromips\libxcpp.a(strcpy.o)
 .mdebug.abi32  0x00000000        0x0 d:/program files/microchip/xc32/v2.50/bin/bin/../../lib/gcc/pic32mx/4.8.3/../../../../pic32mx/lib/micromips\libxcpp.a(ungetc.o)
 .mdebug.abi32  0x00000000        0x0 d:/program files/microchip/xc32/v2.50/bin/bin/../../lib/gcc/pic32mx/4.8.3/../../../../pic32mx/lib/micromips\libxcpp.a(ungetwc.o)
 .mdebug.abi32  0x00000000        0x0 d:/program files/microchip/xc32/v2.50/bin/bin/../../lib/gcc/pic32mx/4.8.3/../../../../pic32mx/lib/micromips\libxcpp.a(wmemcpy.o)
 .mdebug.abi32  0x00000000        0x0 d:/program files/microchip/xc32/v2.50/bin/bin/../../lib/gcc/pic32mx/4.8.3/../../../../pic32mx/lib/micromips\libxcpp.a(xatexit.o)
 .mdebug.abi32  0x00000000        0x0 d:/program files/microchip/xc32/v2.50/bin/bin/../../lib/gcc/pic32mx/4.8.3/../../../../pic32mx/lib/micromips\libxcpp.a(xcostate.o)
 .mdebug.abi32  0x00000000        0x0 d:/program files/microchip/xc32/v2.50/bin/bin/../../lib/gcc/pic32mx/4.8.3/../../../../pic32mx/lib/micromips\libxcpp.a(xctype.o)
 .mdebug.abi32  0x00000000        0x0 d:/program files/microchip/xc32/v2.50/bin/bin/../../lib/gcc/pic32mx/4.8.3/../../../../pic32mx/lib/micromips\libxcpp.a(xdefloc.o)
 .mdebug.abi32  0x00000000        0x0 d:/program files/microchip/xc32/v2.50/bin/bin/../../lib/gcc/pic32mx/4.8.3/../../../../pic32mx/lib/micromips\libxcpp.a(xexit.o)
 .mdebug.abi32  0x00000000        0x0 d:/program files/microchip/xc32/v2.50/bin/bin/../../lib/gcc/pic32mx/4.8.3/../../../../pic32mx/lib/micromips\libxcpp.a(xfgpos.o)
 .mdebug.abi32  0x00000000        0x0 d:/program files/microchip/xc32/v2.50/bin/bin/../../lib/gcc/pic32mx/4.8.3/../../../../pic32mx/lib/micromips\libxcpp.a(xfiles.o)
 .mdebug.abi32  0x00000000        0x0 d:/program files/microchip/xc32/v2.50/bin/bin/../../lib/gcc/pic32mx/4.8.3/../../../../pic32mx/lib/micromips\libxcpp.a(xfofind.o)
 .mdebug.abi32  0x00000000        0x0 d:/program files/microchip/xc32/v2.50/bin/bin/../../lib/gcc/pic32mx/4.8.3/../../../../pic32mx/lib/micromips\libxcpp.a(xfrprep.o)
 .mdebug.abi32  0x00000000        0x0 d:/program files/microchip/xc32/v2.50/bin/bin/../../lib/gcc/pic32mx/4.8.3/../../../../pic32mx/lib/micromips\libxcpp.a(xfspos.o)
 .mdebug.abi32  0x00000000        0x0 d:/program files/microchip/xc32/v2.50/bin/bin/../../lib/gcc/pic32mx/4.8.3/../../../../pic32mx/lib/micromips\libxcpp.a(xfwprep.o)
 .mdebug.abi32  0x00000000        0x0 d:/program files/microchip/xc32/v2.50/bin/bin/../../lib/gcc/pic32mx/4.8.3/../../../../pic32mx/lib/micromips\libxcpp.a(xgetglob.o)
 .mdebug.abi32  0x00000000        0x0 d:/program files/microchip/xc32/v2.50/bin/bin/../../lib/gcc/pic32mx/4.8.3/../../../../pic32mx/lib/micromips\libxcpp.a(xgetloc.o)
 .mdebug.abi32  0x00000000        0x0 d:/program files/microchip/xc32/v2.50/bin/bin/../../lib/gcc/pic32mx/4.8.3/../../../../pic32mx/lib/micromips\libxcpp.a(xgetmem.o)
 .mdebug.abi32  0x00000000        0x0 d:/program files/microchip/xc32/v2.50/bin/bin/../../lib/gcc/pic32mx/4.8.3/../../../../pic32mx/lib/micromips\libxcpp.a(xmbtowc.o)
 .mdebug.abi32  0x00000000        0x0 d:/program files/microchip/xc32/v2.50/bin/bin/../../lib/gcc/pic32mx/4.8.3/../../../../pic32mx/lib/micromips\libxcpp.a(xsetloc.o)
 .mdebug.abi32  0x00000000        0x0 d:/program files/microchip/xc32/v2.50/bin/bin/../../lib/gcc/pic32mx/4.8.3/../../../../pic32mx/lib/micromips\libxcpp.a(xstate.o)
 .mdebug.abi32  0x00000000        0x0 d:/program files/microchip/xc32/v2.50/bin/bin/../../lib/gcc/pic32mx/4.8.3/../../../../pic32mx/lib/micromips\libxcpp.a(xstrftim.o)
 .mdebug.abi32  0x00000000        0x0 d:/program files/microchip/xc32/v2.50/bin/bin/../../lib/gcc/pic32mx/4.8.3/../../../../pic32mx/lib/micromips\libxcpp.a(xtolotab.o)
 .mdebug.abi32  0x00000000        0x0 d:/program files/microchip/xc32/v2.50/bin/bin/../../lib/gcc/pic32mx/4.8.3/../../../../pic32mx/lib/micromips\libxcpp.a(xtouptab.o)
 .mdebug.abi32  0x00000000        0x0 d:/program files/microchip/xc32/v2.50/bin/bin/../../lib/gcc/pic32mx/4.8.3/../../../../pic32mx/lib/micromips\libxcpp.a(xwcostate.o)
 .mdebug.abi32  0x00000000        0x0 d:/program files/microchip/xc32/v2.50/bin/bin/../../lib/gcc/pic32mx/4.8.3/../../../../pic32mx/lib/micromips\libxcpp.a(xwcstate.o)
 .mdebug.abi32  0x00000000        0x0 d:/program files/microchip/xc32/v2.50/bin/bin/../../lib/gcc/pic32mx/4.8.3/../../../../pic32mx/lib/micromips\libxcpp.a(xwctomb.o)
 .mdebug.abi32  0x00000000        0x0 d:/program files/microchip/xc32/v2.50/bin/bin/../../lib/gcc/pic32mx/4.8.3/../../../../pic32mx/lib/micromips\libxcpp.a(xwctrtab.o)
 .mdebug.abi32  0x00000000        0x0 d:/program files/microchip/xc32/v2.50/bin/bin/../../lib/gcc/pic32mx/4.8.3/../../../../pic32mx/lib/micromips\libxcpp.a(xwctytab.o)
 .mdebug.abi32  0x00000000        0x0 d:/program files/microchip/xc32/v2.50/bin/bin/../../lib/gcc/pic32mx/4.8.3/../../../../pic32mx/lib/micromips\libxcpp.a(xwfrprep.o)
 .mdebug.abi32  0x00000000        0x0 d:/program files/microchip/xc32/v2.50/bin/bin/../../lib/gcc/pic32mx/4.8.3/../../../../pic32mx/lib/micromips\libxcpp.a(xwfwprep.o)
 .mdebug.abi32  0x00000000        0x0 d:/program files/microchip/xc32/v2.50/bin/bin/../../lib/gcc/pic32mx/4.8.3/../../../../pic32mx/lib/micromips\libxcpp.a(syserror.o)
 .mdebug.abi32  0x00000000        0x0 d:/program files/microchip/xc32/v2.50/bin/bin/../../lib/gcc/pic32mx/4.8.3/../../../../pic32mx/lib/micromips\libxcpp.a(delaop.o)
 .mdebug.abi32  0x00000000        0x0 d:/program files/microchip/xc32/v2.50/bin/bin/../../lib/gcc/pic32mx/4.8.3/../../../../pic32mx/lib/micromips\libxcpp.a(ios.o)
 .mdebug.abi32  0x00000000        0x0 d:/program files/microchip/xc32/v2.50/bin/bin/../../lib/gcc/pic32mx/4.8.3/../../../../pic32mx/lib/micromips\libxcpp.a(delop3.o)
 .mdebug.abi32  0x00000000        0x0 d:/program files/microchip/xc32/v2.50/bin/bin/../../lib/gcc/pic32mx/4.8.3/../../../../pic32mx/lib/micromips\libxcpp.a(errno.o)
 .mdebug.abi32  0x00000000        0x0 d:/program files/microchip/xc32/v2.50/bin/bin/../../lib/gcc/pic32mx/4.8.3/../../../../pic32mx/lib/micromips\libxcpp.a(getenv.o)
 .mdebug.abi32  0x00000000        0x0 d:/program files/microchip/xc32/v2.50/bin/bin/../../lib/gcc/pic32mx/4.8.3/../../../../pic32mx/lib/micromips\libxcpp.a(localeco.o)
 .mdebug.abi32  0x00000000        0x0 d:/program files/microchip/xc32/v2.50/bin/bin/../../lib/gcc/pic32mx/4.8.3/../../../../pic32mx/lib/micromips\libxcpp.a(memcmp.o)
 .mdebug.abi32  0x00000000        0x0 d:/program files/microchip/xc32/v2.50/bin/bin/../../lib/gcc/pic32mx/4.8.3/../../../../pic32mx/lib/micromips\libxcpp.a(strcspn.o)
 .mdebug.abi32  0x00000000        0x0 d:/program files/microchip/xc32/v2.50/bin/bin/../../lib/gcc/pic32mx/4.8.3/../../../../pic32mx/lib/micromips\libxcpp.a(strerror.o)
 .mdebug.abi32  0x00000000        0x0 d:/program files/microchip/xc32/v2.50/bin/bin/../../lib/gcc/pic32mx/4.8.3/../../../../pic32mx/lib/micromips\libxcpp.a(xfindloc.o)
 .mdebug.abi32  0x00000000        0x0 d:/program files/microchip/xc32/v2.50/bin/bin/../../lib/gcc/pic32mx/4.8.3/../../../../pic32mx/lib/micromips\libxcpp.a(xfreeloc.o)
 .mdebug.abi32  0x00000000        0x0 d:/program files/microchip/xc32/v2.50/bin/bin/../../lib/gcc/pic32mx/4.8.3/../../../../pic32mx/lib/micromips\libxcpp.a(xgentime.o)
 .mdebug.abi32  0x00000000        0x0 d:/program files/microchip/xc32/v2.50/bin/bin/../../lib/gcc/pic32mx/4.8.3/../../../../pic32mx/lib/micromips\libxcpp.a(xgettime.o)
 .mdebug.abi32  0x00000000        0x0 d:/program files/microchip/xc32/v2.50/bin/bin/../../lib/gcc/pic32mx/4.8.3/../../../../pic32mx/lib/micromips\libxcpp.a(xgetzone.o)
 .mdebug.abi32  0x00000000        0x0 d:/program files/microchip/xc32/v2.50/bin/bin/../../lib/gcc/pic32mx/4.8.3/../../../../pic32mx/lib/micromips\libxcpp.a(xloctab.o)
 .mdebug.abi32  0x00000000        0x0 d:/program files/microchip/xc32/v2.50/bin/bin/../../lib/gcc/pic32mx/4.8.3/../../../../pic32mx/lib/micromips\libxcpp.a(xmakeloc.o)
 .mdebug.abi32  0x00000000        0x0 d:/program files/microchip/xc32/v2.50/bin/bin/../../lib/gcc/pic32mx/4.8.3/../../../../pic32mx/lib/micromips\libxcpp.a(xmakesta.o)
 .mdebug.abi32  0x00000000        0x0 d:/program files/microchip/xc32/v2.50/bin/bin/../../lib/gcc/pic32mx/4.8.3/../../../../pic32mx/lib/micromips\libxcpp.a(xmakewct.o)
 .mdebug.abi32  0x00000000        0x0 d:/program files/microchip/xc32/v2.50/bin/bin/../../lib/gcc/pic32mx/4.8.3/../../../../pic32mx/lib/micromips\libxcpp.a(xreadloc.o)
 .mdebug.abi32  0x00000000        0x0 d:/program files/microchip/xc32/v2.50/bin/bin/../../lib/gcc/pic32mx/4.8.3/../../../../pic32mx/lib/micromips\libxcpp.a(xstrerro.o)
 .mdebug.abi32  0x00000000        0x0 d:/program files/microchip/xc32/v2.50/bin/bin/../../lib/gcc/pic32mx/4.8.3/../../../../pic32mx/lib/micromips\libxcpp.a(fgets.o)
 .mdebug.abi32  0x00000000        0x0 d:/program files/microchip/xc32/v2.50/bin/bin/../../lib/gcc/pic32mx/4.8.3/../../../../pic32mx/lib/micromips\libxcpp.a(fopen.o)
 .mdebug.abi32  0x00000000        0x0 d:/program files/microchip/xc32/v2.50/bin/bin/../../lib/gcc/pic32mx/4.8.3/../../../../pic32mx/lib/micromips\libxcpp.a(fputs.o)
 .mdebug.abi32  0x00000000        0x0 d:/program files/microchip/xc32/v2.50/bin/bin/../../lib/gcc/pic32mx/4.8.3/../../../../pic32mx/lib/micromips\libxcpp.a(realloc.o)
 .mdebug.abi32  0x00000000        0x0 d:/program files/microchip/xc32/v2.50/bin/bin/../../lib/gcc/pic32mx/4.8.3/../../../../pic32mx/lib/micromips\libxcpp.a(strchr.o)
 .mdebug.abi32  0x00000000        0x0 d:/program files/microchip/xc32/v2.50/bin/bin/../../lib/gcc/pic32mx/4.8.3/../../../../pic32mx/lib/micromips\libxcpp.a(strncmp.o)
 .mdebug.abi32  0x00000000        0x0 d:/program files/microchip/xc32/v2.50/bin/bin/../../lib/gcc/pic32mx/4.8.3/../../../../pic32mx/lib/micromips\libxcpp.a(strrchr.o)
 .mdebug.abi32  0x00000000        0x0 d:/program files/microchip/xc32/v2.50/bin/bin/../../lib/gcc/pic32mx/4.8.3/../../../../pic32mx/lib/micromips\libxcpp.a(strspn.o)
 .mdebug.abi32  0x00000000        0x0 d:/program files/microchip/xc32/v2.50/bin/bin/../../lib/gcc/pic32mx/4.8.3/../../../../pic32mx/lib/micromips\libxcpp.a(strtol.o)
 .mdebug.abi32  0x00000000        0x0 d:/program files/microchip/xc32/v2.50/bin/bin/../../lib/gcc/pic32mx/4.8.3/../../../../pic32mx/lib/micromips\libxcpp.a(xfoprep.o)
 .mdebug.abi32  0x00000000        0x0 d:/program files/microchip/xc32/v2.50/bin/bin/../../lib/gcc/pic32mx/4.8.3/../../../../pic32mx/lib/micromips\libxcpp.a(xlocterm.o)
 .mdebug.abi32  0x00000000        0x0 d:/program files/microchip/xc32/v2.50/bin/bin/../../lib/gcc/pic32mx/4.8.3/../../../../pic32mx/lib/micromips\libxcpp.a(xstol.o)
 .mdebug.abi32  0x00000000        0x0 d:/program files/microchip/xc32/v2.50/bin/bin/../../lib/gcc/pic32mx/4.8.3/../../../../pic32mx/lib/micromips\libxcpp.a(xstoul.o)
 .mdebug.abi32  0x00000000        0x0 d:/program files/microchip/xc32/v2.50/bin/bin/../../lib/gcc/pic32mx/4.8.3/../../../../pic32mx/lib/micromips\libxcpp.a(xfopen.o)
 .mdebug.abi32  0x00000000        0x0 d:/program files/microchip/xc32/v2.50/bin/bin/../../lib/gcc/pic32mx/4.8.3/../../../../pic32mx/lib/micromips\libsupc++.a(vmi_class_type_info.o)
 .mdebug.abi32  0x00000000        0x0 d:/program files/microchip/xc32/v2.50/bin/bin/../../lib/gcc/pic32mx/4.8.3/../../../../pic32mx/lib/micromips\libpic32.a(sbrk.o)
 .mdebug.abi32  0x00000000        0x0 d:/program files/microchip/xc32/v2.50/bin/bin/../../lib/gcc/pic32mx/4.8.3/../../../../pic32mx/lib/micromips\libpic32.a(_exit.o)
 .mdebug.abi32  0x00000000        0x0 d:/program files/microchip/xc32/v2.50/bin/bin/../../lib/gcc/pic32mx/4.8.3/../../../../pic32mx/lib/micromips\libpic32.a(isatty.o)
 .mdebug.abi32  0x00000000        0x0 d:/program files/microchip/xc32/v2.50/bin/bin/../../lib/gcc/pic32mx/4.8.3/../../../../pic32mx/lib/micromips\libpic32.a(read.o)
 .mdebug.abi32  0x00000000        0x0 d:/program files/microchip/xc32/v2.50/bin/bin/../../lib/gcc/pic32mx/4.8.3/../../../../pic32mx/lib/micromips\libpic32.a(write.o)
 .mdebug.abi32  0x00000000        0x0 d:/program files/microchip/xc32/v2.50/bin/bin/../../lib/gcc/pic32mx/4.8.3/../../../../pic32mx/lib/micromips\libpic32.a(lseek.o)
 .mdebug.abi32  0x00000000        0x0 d:/program files/microchip/xc32/v2.50/bin/bin/../../lib/gcc/pic32mx/4.8.3/../../../../pic32mx/lib/micromips\libpic32.a(close.o)
 .mdebug.abi32  0x00000000        0x0 d:/program files/microchip/xc32/v2.50/bin/bin/../../lib/gcc/pic32mx/4.8.3/../../../../pic32mx/lib/micromips\libpic32.a(open.o)
 .mdebug.abi32  0x00000000        0x0 d:/program files/microchip/xc32/v2.50/bin/bin/../../lib/gcc/pic32mx/4.8.3/../../../../pic32mx/lib/micromips\libpic32.a(unlink.o)
 .mdebug.abi32  0x00000000        0x0 d:/program files/microchip/xc32/v2.50/bin/bin/../../lib/gcc/pic32mx/4.8.3/../../../../pic32mx/lib/micromips\libpic32.a(kill.o)
 .mdebug.abi32  0x00000000        0x0 d:/program files/microchip/xc32/v2.50/bin/bin/../../lib/gcc/pic32mx/4.8.3/../../../../pic32mx/lib/micromips\libpic32.a(getpid.o)
 .mdebug.abi32  0x00000000        0x0 d:/program files/microchip/xc32/v2.50/bin/bin/../../lib/gcc/pic32mx/4.8.3/../../../../pic32mx/lib/micromips\libpic32.a(xc32_uart.o)
 .mdebug.abi32  0x00000000        0x0 d:/program files/microchip/xc32/v2.50/bin/bin/../../lib/gcc/pic32mx/4.8.3/../../../../pic32mx/lib/micromips\libpic32.a(errno.o)
 .mdebug.abi32  0x00000000        0x0 d:/program files/microchip/xc32/v2.50/bin/bin/../../lib/gcc/pic32mx/4.8.3/../../../../pic32mx/lib/micromips\libpic32.a(rmdir.o)
 .mdebug.abi32  0x00000000        0x0 d:/program files/microchip/xc32/v2.50/bin/bin/../../lib/gcc/pic32mx/4.8.3/../../../../pic32mx/lib/micromips\libpic32.a(_mon_putc.o)
 .mdebug.abi32  0x00000000        0x0 d:/program files/microchip/xc32/v2.50/bin/bin/../../lib/gcc/pic32mx/4.8.3/micromips/crtend.o

.mdebug.abiN32
 *(.mdebug.abiN32)

.mdebug.abi64
 *(.mdebug.abi64)

.mdebug.abiO64
 *(.mdebug.abiO64)

.mdebug.eabi32
 *(.mdebug.eabi32)

.mdebug.eabi64
 *(.mdebug.eabi64)

.gcc_compiled_long32
 *(.gcc_compiled_long32)

.gcc_compiled_long64
 *(.gcc_compiled_long64)

.stab
 *(.stab)

.stabstr
 *(.stabstr)

.stab.excl
 *(.stab.excl)

.stab.exclstr
 *(.stab.exclstr)

.stab.index
 *(.stab.index)

.stab.indexstr
 *(.stab.indexstr)

.comment        0x00000000      0x11f
 *(.comment)
 .comment       0x00000000       0x3c d:/program files/microchip/xc32/v2.50/bin/bin/../../lib/gcc/pic32mx/4.8.3/micromips/crtbegin.o
                                 0x3d (size before relaxing)
 .comment       0x00000000       0x3d build/default/production/main.o
 .comment       0x00000000       0x3d d:/program files/microchip/xc32/v2.50/bin/bin/../../lib/gcc/pic32mx/4.8.3/../../../../pic32mx/lib/micromips\libsupc++.a(class_type_info.o)
 .comment       0x00000000       0x3d d:/program files/microchip/xc32/v2.50/bin/bin/../../lib/gcc/pic32mx/4.8.3/../../../../pic32mx/lib/micromips\libsupc++.a(del_op.o)
 .comment       0x00000000       0x3d d:/program files/microchip/xc32/v2.50/bin/bin/../../lib/gcc/pic32mx/4.8.3/../../../../pic32mx/lib/micromips\libsupc++.a(eh_alloc.o)
 .comment       0x00000000       0x3d d:/program files/microchip/xc32/v2.50/bin/bin/../../lib/gcc/pic32mx/4.8.3/../../../../pic32mx/lib/micromips\libsupc++.a(eh_catch.o)
 .comment       0x00000000       0x3d d:/program files/microchip/xc32/v2.50/bin/bin/../../lib/gcc/pic32mx/4.8.3/../../../../pic32mx/lib/micromips\libsupc++.a(eh_exception.o)
 .comment       0x00000000       0x3d d:/program files/microchip/xc32/v2.50/bin/bin/../../lib/gcc/pic32mx/4.8.3/../../../../pic32mx/lib/micromips\libsupc++.a(eh_globals.o)
 .comment       0x00000000       0x3d d:/program files/microchip/xc32/v2.50/bin/bin/../../lib/gcc/pic32mx/4.8.3/../../../../pic32mx/lib/micromips\libsupc++.a(eh_personality.o)
 .comment       0x00000000       0x3d d:/program files/microchip/xc32/v2.50/bin/bin/../../lib/gcc/pic32mx/4.8.3/../../../../pic32mx/lib/micromips\libsupc++.a(eh_terminate.o)
 .comment       0x00000000       0x3d d:/program files/microchip/xc32/v2.50/bin/bin/../../lib/gcc/pic32mx/4.8.3/../../../../pic32mx/lib/micromips\libsupc++.a(eh_throw.o)
 .comment       0x00000000       0x3d d:/program files/microchip/xc32/v2.50/bin/bin/../../lib/gcc/pic32mx/4.8.3/../../../../pic32mx/lib/micromips\libsupc++.a(eh_unex_handler.o)
 .comment       0x00000000       0x3d d:/program files/microchip/xc32/v2.50/bin/bin/../../lib/gcc/pic32mx/4.8.3/../../../../pic32mx/lib/micromips\libsupc++.a(new_op.o)
 .comment       0x00000000       0x3d d:/program files/microchip/xc32/v2.50/bin/bin/../../lib/gcc/pic32mx/4.8.3/../../../../pic32mx/lib/micromips\libsupc++.a(si_class_type_info.o)
 .comment       0x00000000       0x3d d:/program files/microchip/xc32/v2.50/bin/bin/../../lib/gcc/pic32mx/4.8.3/../../../../pic32mx/lib/micromips\libsupc++.a(tinfo.o)
 .comment       0x00000000       0x3d d:/program files/microchip/xc32/v2.50/bin/bin/../../lib/gcc/pic32mx/4.8.3/../../../../pic32mx/lib/micromips\libsupc++.a(pure.o)
 .comment       0x00000000       0x3d d:/program files/microchip/xc32/v2.50/bin/bin/../../lib/gcc/pic32mx/4.8.3/../../../../pic32mx/lib/micromips\libsupc++.a(eh_call.o)
 .comment       0x00000000       0x3d d:/program files/microchip/xc32/v2.50/bin/bin/../../lib/gcc/pic32mx/4.8.3/../../../../pic32mx/lib/micromips\libsupc++.a(eh_term_handler.o)
 .comment       0x00000000       0x3d d:/program files/microchip/xc32/v2.50/bin/bin/../../lib/gcc/pic32mx/4.8.3/../../../../pic32mx/lib/micromips\libsupc++.a(new_handler.o)
 .comment       0x00000000       0x3d d:/program files/microchip/xc32/v2.50/bin/bin/../../lib/gcc/pic32mx/4.8.3/micromips\libgcc.a(unwind-sjlj.o)
 .comment       0x0000003c       0x18 d:/program files/microchip/xc32/v2.50/bin/bin/../../lib/gcc/pic32mx/4.8.3/../../../../pic32mx/lib/micromips\libpic32.a(memset.o)
                                 0x19 (size before relaxing)
 .comment       0x00000054       0x19 d:/program files/microchip/xc32/v2.50/bin/bin/../../lib/gcc/pic32mx/4.8.3/../../../../pic32mx/lib/micromips\libpic32.a(strcmp.o)
                                 0x1a (size before relaxing)
 .comment       0x0000006d       0x19 d:/program files/microchip/xc32/v2.50/bin/bin/../../lib/gcc/pic32mx/4.8.3/../../../../pic32mx/lib/micromips\libpic32.a(strlen.o)
                                 0x1a (size before relaxing)
 .comment       0x00000000       0x3d d:/program files/microchip/xc32/v2.50/bin/bin/../../lib/gcc/pic32mx/4.8.3/../../../../pic32mx/lib/micromips\libpic32.a(default-bootstrap-exception-handler.o)
 .comment       0x00000000       0x3d d:/program files/microchip/xc32/v2.50/bin/bin/../../lib/gcc/pic32mx/4.8.3/../../../../pic32mx/lib/micromips\libpic32.a(default-on-reset.o)
 .comment       0x00000000       0x3d d:/program files/microchip/xc32/v2.50/bin/bin/../../lib/gcc/pic32mx/4.8.3/../../../../pic32mx/lib/micromips\libpic32.a(default-on-bootstrap.o)
 .comment       0x00000000       0x3d d:/program files/microchip/xc32/v2.50/bin/bin/../../lib/gcc/pic32mx/4.8.3/../../../../pic32mx/lib/micromips\libpic32.a(default-general-exception-handler.o)
 .comment       0x00000000       0x3d d:/program files/microchip/xc32/v2.50/bin/bin/../../lib/gcc/pic32mx/4.8.3/../../../../pic32mx/lib/micromips\libpic32.a(defaultinterrupt.o)
 .comment       0x00000000       0x3d d:/program files/microchip/xc32/v2.50/bin/bin/../../lib/gcc/pic32mx/4.8.3/../../../../pic32mx/lib/micromips\libxcpp.a(iostream.o)
 .comment       0x00000000       0x3d d:/program files/microchip/xc32/v2.50/bin/bin/../../lib/gcc/pic32mx/4.8.3/../../../../pic32mx/lib/micromips\libxcpp.a(xthrow.o)
 .comment       0x00000000       0x3d d:/program files/microchip/xc32/v2.50/bin/bin/../../lib/gcc/pic32mx/4.8.3/../../../../pic32mx/lib/micromips\libxcpp.a(wiostrea.o)
 .comment       0x00000000       0x3d d:/program files/microchip/xc32/v2.50/bin/bin/../../lib/gcc/pic32mx/4.8.3/../../../../pic32mx/lib/micromips\libxcpp.a(locale0.o)
 .comment       0x00000000       0x3d d:/program files/microchip/xc32/v2.50/bin/bin/../../lib/gcc/pic32mx/4.8.3/../../../../pic32mx/lib/micromips\libxcpp.a(abort.o)
 .comment       0x00000000       0x3d d:/program files/microchip/xc32/v2.50/bin/bin/../../lib/gcc/pic32mx/4.8.3/../../../../pic32mx/lib/micromips\libxcpp.a(abs.o)
 .comment       0x00000000       0x3d d:/program files/microchip/xc32/v2.50/bin/bin/../../lib/gcc/pic32mx/4.8.3/../../../../pic32mx/lib/micromips\libxcpp.a(asctime.o)
 .comment       0x00000000       0x3d d:/program files/microchip/xc32/v2.50/bin/bin/../../lib/gcc/pic32mx/4.8.3/../../../../pic32mx/lib/micromips\libxcpp.a(exit.o)
 .comment       0x00000000       0x3d d:/program files/microchip/xc32/v2.50/bin/bin/../../lib/gcc/pic32mx/4.8.3/../../../../pic32mx/lib/micromips\libxcpp.a(fclose.o)
 .comment       0x00000000       0x3d d:/program files/microchip/xc32/v2.50/bin/bin/../../lib/gcc/pic32mx/4.8.3/../../../../pic32mx/lib/micromips\libxcpp.a(fflush.o)
 .comment       0x00000000       0x3d d:/program files/microchip/xc32/v2.50/bin/bin/../../lib/gcc/pic32mx/4.8.3/../../../../pic32mx/lib/micromips\libxcpp.a(fgetc.o)
 .comment       0x00000000       0x3d d:/program files/microchip/xc32/v2.50/bin/bin/../../lib/gcc/pic32mx/4.8.3/../../../../pic32mx/lib/micromips\libxcpp.a(fgetpos.o)
 .comment       0x00000000       0x3d d:/program files/microchip/xc32/v2.50/bin/bin/../../lib/gcc/pic32mx/4.8.3/../../../../pic32mx/lib/micromips\libxcpp.a(fgetwc.o)
 .comment       0x00000000       0x3d d:/program files/microchip/xc32/v2.50/bin/bin/../../lib/gcc/pic32mx/4.8.3/../../../../pic32mx/lib/micromips\libxcpp.a(fputc.o)
 .comment       0x00000000       0x3d d:/program files/microchip/xc32/v2.50/bin/bin/../../lib/gcc/pic32mx/4.8.3/../../../../pic32mx/lib/micromips\libxcpp.a(fputwc.o)
 .comment       0x00000000       0x3d d:/program files/microchip/xc32/v2.50/bin/bin/../../lib/gcc/pic32mx/4.8.3/../../../../pic32mx/lib/micromips\libxcpp.a(free.o)
 .comment       0x00000000       0x3d d:/program files/microchip/xc32/v2.50/bin/bin/../../lib/gcc/pic32mx/4.8.3/../../../../pic32mx/lib/micromips\libxcpp.a(fseek.o)
 .comment       0x00000000       0x3d d:/program files/microchip/xc32/v2.50/bin/bin/../../lib/gcc/pic32mx/4.8.3/../../../../pic32mx/lib/micromips\libxcpp.a(fsetpos.o)
 .comment       0x00000000       0x3d d:/program files/microchip/xc32/v2.50/bin/bin/../../lib/gcc/pic32mx/4.8.3/../../../../pic32mx/lib/micromips\libxcpp.a(fwrite.o)
 .comment       0x00000000       0x3d d:/program files/microchip/xc32/v2.50/bin/bin/../../lib/gcc/pic32mx/4.8.3/../../../../pic32mx/lib/micromips\libxcpp.a(malloc.o)
 .comment       0x00000000       0x3d d:/program files/microchip/xc32/v2.50/bin/bin/../../lib/gcc/pic32mx/4.8.3/../../../../pic32mx/lib/micromips\libxcpp.a(memchr.o)
 .comment       0x00000000       0x3d d:/program files/microchip/xc32/v2.50/bin/bin/../../lib/gcc/pic32mx/4.8.3/../../../../pic32mx/lib/micromips\libxcpp.a(memmove.o)
 .comment       0x00000000       0x3d d:/program files/microchip/xc32/v2.50/bin/bin/../../lib/gcc/pic32mx/4.8.3/../../../../pic32mx/lib/micromips\libxcpp.a(raise.o)
 .comment       0x00000000       0x3d d:/program files/microchip/xc32/v2.50/bin/bin/../../lib/gcc/pic32mx/4.8.3/../../../../pic32mx/lib/micromips\libxcpp.a(remove.o)
 .comment       0x00000000       0x3d d:/program files/microchip/xc32/v2.50/bin/bin/../../lib/gcc/pic32mx/4.8.3/../../../../pic32mx/lib/micromips\libxcpp.a(setlocal.o)
 .comment       0x00000000       0x3d d:/program files/microchip/xc32/v2.50/bin/bin/../../lib/gcc/pic32mx/4.8.3/../../../../pic32mx/lib/micromips\libxcpp.a(setvbuf.o)
 .comment       0x00000000       0x3d d:/program files/microchip/xc32/v2.50/bin/bin/../../lib/gcc/pic32mx/4.8.3/../../../../pic32mx/lib/micromips\libxcpp.a(strcpy.o)
 .comment       0x00000000       0x3d d:/program files/microchip/xc32/v2.50/bin/bin/../../lib/gcc/pic32mx/4.8.3/../../../../pic32mx/lib/micromips\libxcpp.a(ungetc.o)
 .comment       0x00000000       0x3d d:/program files/microchip/xc32/v2.50/bin/bin/../../lib/gcc/pic32mx/4.8.3/../../../../pic32mx/lib/micromips\libxcpp.a(ungetwc.o)
 .comment       0x00000000       0x3d d:/program files/microchip/xc32/v2.50/bin/bin/../../lib/gcc/pic32mx/4.8.3/../../../../pic32mx/lib/micromips\libxcpp.a(wmemcpy.o)
 .comment       0x00000000       0x3d d:/program files/microchip/xc32/v2.50/bin/bin/../../lib/gcc/pic32mx/4.8.3/../../../../pic32mx/lib/micromips\libxcpp.a(xatexit.o)
 .comment       0x00000000       0x3d d:/program files/microchip/xc32/v2.50/bin/bin/../../lib/gcc/pic32mx/4.8.3/../../../../pic32mx/lib/micromips\libxcpp.a(xcostate.o)
 .comment       0x00000000       0x3d d:/program files/microchip/xc32/v2.50/bin/bin/../../lib/gcc/pic32mx/4.8.3/../../../../pic32mx/lib/micromips\libxcpp.a(xctype.o)
 .comment       0x00000000       0x3d d:/program files/microchip/xc32/v2.50/bin/bin/../../lib/gcc/pic32mx/4.8.3/../../../../pic32mx/lib/micromips\libxcpp.a(xdefloc.o)
 .comment       0x00000000       0x3d d:/program files/microchip/xc32/v2.50/bin/bin/../../lib/gcc/pic32mx/4.8.3/../../../../pic32mx/lib/micromips\libxcpp.a(xexit.o)
 .comment       0x00000000       0x3d d:/program files/microchip/xc32/v2.50/bin/bin/../../lib/gcc/pic32mx/4.8.3/../../../../pic32mx/lib/micromips\libxcpp.a(xfgpos.o)
 .comment       0x00000000       0x3d d:/program files/microchip/xc32/v2.50/bin/bin/../../lib/gcc/pic32mx/4.8.3/../../../../pic32mx/lib/micromips\libxcpp.a(xfiles.o)
 .comment       0x00000000       0x3d d:/program files/microchip/xc32/v2.50/bin/bin/../../lib/gcc/pic32mx/4.8.3/../../../../pic32mx/lib/micromips\libxcpp.a(xfofind.o)
 .comment       0x00000000       0x3d d:/program files/microchip/xc32/v2.50/bin/bin/../../lib/gcc/pic32mx/4.8.3/../../../../pic32mx/lib/micromips\libxcpp.a(xfrprep.o)
 .comment       0x00000000       0x3d d:/program files/microchip/xc32/v2.50/bin/bin/../../lib/gcc/pic32mx/4.8.3/../../../../pic32mx/lib/micromips\libxcpp.a(xfspos.o)
 .comment       0x00000000       0x3d d:/program files/microchip/xc32/v2.50/bin/bin/../../lib/gcc/pic32mx/4.8.3/../../../../pic32mx/lib/micromips\libxcpp.a(xfwprep.o)
 .comment       0x00000000       0x3d d:/program files/microchip/xc32/v2.50/bin/bin/../../lib/gcc/pic32mx/4.8.3/../../../../pic32mx/lib/micromips\libxcpp.a(xgetglob.o)
 .comment       0x00000000       0x3d d:/program files/microchip/xc32/v2.50/bin/bin/../../lib/gcc/pic32mx/4.8.3/../../../../pic32mx/lib/micromips\libxcpp.a(xgetloc.o)
 .comment       0x00000000       0x3d d:/program files/microchip/xc32/v2.50/bin/bin/../../lib/gcc/pic32mx/4.8.3/../../../../pic32mx/lib/micromips\libxcpp.a(xgetmem.o)
 .comment       0x00000000       0x3d d:/program files/microchip/xc32/v2.50/bin/bin/../../lib/gcc/pic32mx/4.8.3/../../../../pic32mx/lib/micromips\libxcpp.a(xmbtowc.o)
 .comment       0x00000000       0x3d d:/program files/microchip/xc32/v2.50/bin/bin/../../lib/gcc/pic32mx/4.8.3/../../../../pic32mx/lib/micromips\libxcpp.a(xsetloc.o)
 .comment       0x00000000       0x3d d:/program files/microchip/xc32/v2.50/bin/bin/../../lib/gcc/pic32mx/4.8.3/../../../../pic32mx/lib/micromips\libxcpp.a(xstate.o)
 .comment       0x00000000       0x3d d:/program files/microchip/xc32/v2.50/bin/bin/../../lib/gcc/pic32mx/4.8.3/../../../../pic32mx/lib/micromips\libxcpp.a(xstrftim.o)
 .comment       0x00000000       0x3d d:/program files/microchip/xc32/v2.50/bin/bin/../../lib/gcc/pic32mx/4.8.3/../../../../pic32mx/lib/micromips\libxcpp.a(xtolotab.o)
 .comment       0x00000000       0x3d d:/program files/microchip/xc32/v2.50/bin/bin/../../lib/gcc/pic32mx/4.8.3/../../../../pic32mx/lib/micromips\libxcpp.a(xtouptab.o)
 .comment       0x00000000       0x3d d:/program files/microchip/xc32/v2.50/bin/bin/../../lib/gcc/pic32mx/4.8.3/../../../../pic32mx/lib/micromips\libxcpp.a(xwcostate.o)
 .comment       0x00000000       0x3d d:/program files/microchip/xc32/v2.50/bin/bin/../../lib/gcc/pic32mx/4.8.3/../../../../pic32mx/lib/micromips\libxcpp.a(xwcstate.o)
 .comment       0x00000000       0x3d d:/program files/microchip/xc32/v2.50/bin/bin/../../lib/gcc/pic32mx/4.8.3/../../../../pic32mx/lib/micromips\libxcpp.a(xwctomb.o)
 .comment       0x00000000       0x3d d:/program files/microchip/xc32/v2.50/bin/bin/../../lib/gcc/pic32mx/4.8.3/../../../../pic32mx/lib/micromips\libxcpp.a(xwctrtab.o)
 .comment       0x00000000       0x3d d:/program files/microchip/xc32/v2.50/bin/bin/../../lib/gcc/pic32mx/4.8.3/../../../../pic32mx/lib/micromips\libxcpp.a(xwctytab.o)
 .comment       0x00000000       0x3d d:/program files/microchip/xc32/v2.50/bin/bin/../../lib/gcc/pic32mx/4.8.3/../../../../pic32mx/lib/micromips\libxcpp.a(xwfrprep.o)
 .comment       0x00000000       0x3d d:/program files/microchip/xc32/v2.50/bin/bin/../../lib/gcc/pic32mx/4.8.3/../../../../pic32mx/lib/micromips\libxcpp.a(xwfwprep.o)
 .comment       0x00000000       0x3d d:/program files/microchip/xc32/v2.50/bin/bin/../../lib/gcc/pic32mx/4.8.3/../../../../pic32mx/lib/micromips\libxcpp.a(syserror.o)
 .comment       0x00000000       0x3d d:/program files/microchip/xc32/v2.50/bin/bin/../../lib/gcc/pic32mx/4.8.3/../../../../pic32mx/lib/micromips\libxcpp.a(delaop.o)
 .comment       0x00000000       0x3d d:/program files/microchip/xc32/v2.50/bin/bin/../../lib/gcc/pic32mx/4.8.3/../../../../pic32mx/lib/micromips\libxcpp.a(ios.o)
 .comment       0x00000000       0x3d d:/program files/microchip/xc32/v2.50/bin/bin/../../lib/gcc/pic32mx/4.8.3/../../../../pic32mx/lib/micromips\libxcpp.a(delop3.o)
 .comment       0x00000000       0x3d d:/program files/microchip/xc32/v2.50/bin/bin/../../lib/gcc/pic32mx/4.8.3/../../../../pic32mx/lib/micromips\libxcpp.a(errno.o)
 .comment       0x00000000       0x3d d:/program files/microchip/xc32/v2.50/bin/bin/../../lib/gcc/pic32mx/4.8.3/../../../../pic32mx/lib/micromips\libxcpp.a(getenv.o)
 .comment       0x00000000       0x3d d:/program files/microchip/xc32/v2.50/bin/bin/../../lib/gcc/pic32mx/4.8.3/../../../../pic32mx/lib/micromips\libxcpp.a(localeco.o)
 .comment       0x00000000       0x3d d:/program files/microchip/xc32/v2.50/bin/bin/../../lib/gcc/pic32mx/4.8.3/../../../../pic32mx/lib/micromips\libxcpp.a(memcmp.o)
 .comment       0x00000000       0x3d d:/program files/microchip/xc32/v2.50/bin/bin/../../lib/gcc/pic32mx/4.8.3/../../../../pic32mx/lib/micromips\libxcpp.a(strcspn.o)
 .comment       0x00000000       0x3d d:/program files/microchip/xc32/v2.50/bin/bin/../../lib/gcc/pic32mx/4.8.3/../../../../pic32mx/lib/micromips\libxcpp.a(strerror.o)
 .comment       0x00000000       0x3d d:/program files/microchip/xc32/v2.50/bin/bin/../../lib/gcc/pic32mx/4.8.3/../../../../pic32mx/lib/micromips\libxcpp.a(xfindloc.o)
 .comment       0x00000000       0x3d d:/program files/microchip/xc32/v2.50/bin/bin/../../lib/gcc/pic32mx/4.8.3/../../../../pic32mx/lib/micromips\libxcpp.a(xfreeloc.o)
 .comment       0x00000000       0x3d d:/program files/microchip/xc32/v2.50/bin/bin/../../lib/gcc/pic32mx/4.8.3/../../../../pic32mx/lib/micromips\libxcpp.a(xgentime.o)
 .comment       0x00000000       0x3d d:/program files/microchip/xc32/v2.50/bin/bin/../../lib/gcc/pic32mx/4.8.3/../../../../pic32mx/lib/micromips\libxcpp.a(xgettime.o)
 .comment       0x00000000       0x3d d:/program files/microchip/xc32/v2.50/bin/bin/../../lib/gcc/pic32mx/4.8.3/../../../../pic32mx/lib/micromips\libxcpp.a(xgetzone.o)
 .comment       0x00000000       0x3d d:/program files/microchip/xc32/v2.50/bin/bin/../../lib/gcc/pic32mx/4.8.3/../../../../pic32mx/lib/micromips\libxcpp.a(xloctab.o)
 .comment       0x00000000       0x3d d:/program files/microchip/xc32/v2.50/bin/bin/../../lib/gcc/pic32mx/4.8.3/../../../../pic32mx/lib/micromips\libxcpp.a(xmakeloc.o)
 .comment       0x00000000       0x3d d:/program files/microchip/xc32/v2.50/bin/bin/../../lib/gcc/pic32mx/4.8.3/../../../../pic32mx/lib/micromips\libxcpp.a(xmakesta.o)
 .comment       0x00000000       0x3d d:/program files/microchip/xc32/v2.50/bin/bin/../../lib/gcc/pic32mx/4.8.3/../../../../pic32mx/lib/micromips\libxcpp.a(xmakewct.o)
 .comment       0x00000000       0x3d d:/program files/microchip/xc32/v2.50/bin/bin/../../lib/gcc/pic32mx/4.8.3/../../../../pic32mx/lib/micromips\libxcpp.a(xreadloc.o)
 .comment       0x00000000       0x3d d:/program files/microchip/xc32/v2.50/bin/bin/../../lib/gcc/pic32mx/4.8.3/../../../../pic32mx/lib/micromips\libxcpp.a(xstrerro.o)
 .comment       0x00000000       0x3d d:/program files/microchip/xc32/v2.50/bin/bin/../../lib/gcc/pic32mx/4.8.3/../../../../pic32mx/lib/micromips\libxcpp.a(fgets.o)
 .comment       0x00000000       0x3d d:/program files/microchip/xc32/v2.50/bin/bin/../../lib/gcc/pic32mx/4.8.3/../../../../pic32mx/lib/micromips\libxcpp.a(fopen.o)
 .comment       0x00000000       0x3d d:/program files/microchip/xc32/v2.50/bin/bin/../../lib/gcc/pic32mx/4.8.3/../../../../pic32mx/lib/micromips\libxcpp.a(fputs.o)
 .comment       0x00000000       0x3d d:/program files/microchip/xc32/v2.50/bin/bin/../../lib/gcc/pic32mx/4.8.3/../../../../pic32mx/lib/micromips\libxcpp.a(realloc.o)
 .comment       0x00000000       0x3d d:/program files/microchip/xc32/v2.50/bin/bin/../../lib/gcc/pic32mx/4.8.3/../../../../pic32mx/lib/micromips\libxcpp.a(strchr.o)
 .comment       0x00000000       0x3d d:/program files/microchip/xc32/v2.50/bin/bin/../../lib/gcc/pic32mx/4.8.3/../../../../pic32mx/lib/micromips\libxcpp.a(strncmp.o)
 .comment       0x00000000       0x3d d:/program files/microchip/xc32/v2.50/bin/bin/../../lib/gcc/pic32mx/4.8.3/../../../../pic32mx/lib/micromips\libxcpp.a(strrchr.o)
 .comment       0x00000000       0x3d d:/program files/microchip/xc32/v2.50/bin/bin/../../lib/gcc/pic32mx/4.8.3/../../../../pic32mx/lib/micromips\libxcpp.a(strspn.o)
 .comment       0x00000000       0x3d d:/program files/microchip/xc32/v2.50/bin/bin/../../lib/gcc/pic32mx/4.8.3/../../../../pic32mx/lib/micromips\libxcpp.a(strtol.o)
 .comment       0x00000000       0x3d d:/program files/microchip/xc32/v2.50/bin/bin/../../lib/gcc/pic32mx/4.8.3/../../../../pic32mx/lib/micromips\libxcpp.a(xfoprep.o)
 .comment       0x00000000       0x3d d:/program files/microchip/xc32/v2.50/bin/bin/../../lib/gcc/pic32mx/4.8.3/../../../../pic32mx/lib/micromips\libxcpp.a(xlocterm.o)
 .comment       0x00000000       0x3d d:/program files/microchip/xc32/v2.50/bin/bin/../../lib/gcc/pic32mx/4.8.3/../../../../pic32mx/lib/micromips\libxcpp.a(xstol.o)
 .comment       0x00000000       0x3d d:/program files/microchip/xc32/v2.50/bin/bin/../../lib/gcc/pic32mx/4.8.3/../../../../pic32mx/lib/micromips\libxcpp.a(xstoul.o)
 .comment       0x00000000       0x3d d:/program files/microchip/xc32/v2.50/bin/bin/../../lib/gcc/pic32mx/4.8.3/../../../../pic32mx/lib/micromips\libxcpp.a(xfopen.o)
 .comment       0x00000000       0x3d d:/program files/microchip/xc32/v2.50/bin/bin/../../lib/gcc/pic32mx/4.8.3/../../../../pic32mx/lib/micromips\libsupc++.a(vmi_class_type_info.o)
 .comment       0x00000086       0x4b d:/program files/microchip/xc32/v2.50/bin/bin/../../lib/gcc/pic32mx/4.8.3/../../../../pic32mx/lib/micromips\libpic32.a(sbrk.o)
                                 0x88 (size before relaxing)
 .comment       0x00000000       0x3d d:/program files/microchip/xc32/v2.50/bin/bin/../../lib/gcc/pic32mx/4.8.3/../../../../pic32mx/lib/micromips\libpic32.a(_exit.o)
 .comment       0x000000d1       0x4e d:/program files/microchip/xc32/v2.50/bin/bin/../../lib/gcc/pic32mx/4.8.3/../../../../pic32mx/lib/micromips\libpic32.a(isatty.o)
                                 0x8b (size before relaxing)
 .comment       0x00000000       0x3d d:/program files/microchip/xc32/v2.50/bin/bin/../../lib/gcc/pic32mx/4.8.3/../../../../pic32mx/lib/micromips\libpic32.a(read.o)
 .comment       0x00000000       0x3d d:/program files/microchip/xc32/v2.50/bin/bin/../../lib/gcc/pic32mx/4.8.3/../../../../pic32mx/lib/micromips\libpic32.a(write.o)
 .comment       0x00000000       0x3d d:/program files/microchip/xc32/v2.50/bin/bin/../../lib/gcc/pic32mx/4.8.3/../../../../pic32mx/lib/micromips\libpic32.a(lseek.o)
 .comment       0x00000000       0x3d d:/program files/microchip/xc32/v2.50/bin/bin/../../lib/gcc/pic32mx/4.8.3/../../../../pic32mx/lib/micromips\libpic32.a(close.o)
 .comment       0x00000000       0x3d d:/program files/microchip/xc32/v2.50/bin/bin/../../lib/gcc/pic32mx/4.8.3/../../../../pic32mx/lib/micromips\libpic32.a(open.o)
 .comment       0x00000000       0x3d d:/program files/microchip/xc32/v2.50/bin/bin/../../lib/gcc/pic32mx/4.8.3/../../../../pic32mx/lib/micromips\libpic32.a(unlink.o)
 .comment       0x00000000       0x3d d:/program files/microchip/xc32/v2.50/bin/bin/../../lib/gcc/pic32mx/4.8.3/../../../../pic32mx/lib/micromips\libpic32.a(kill.o)
 .comment       0x00000000       0x3d d:/program files/microchip/xc32/v2.50/bin/bin/../../lib/gcc/pic32mx/4.8.3/../../../../pic32mx/lib/micromips\libpic32.a(getpid.o)
 .comment       0x00000000       0x3d d:/program files/microchip/xc32/v2.50/bin/bin/../../lib/gcc/pic32mx/4.8.3/../../../../pic32mx/lib/micromips\libpic32.a(xc32_uart.o)
 .comment       0x00000000       0x3d d:/program files/microchip/xc32/v2.50/bin/bin/../../lib/gcc/pic32mx/4.8.3/../../../../pic32mx/lib/micromips\libpic32.a(errno.o)
 .comment       0x00000000       0x3d d:/program files/microchip/xc32/v2.50/bin/bin/../../lib/gcc/pic32mx/4.8.3/../../../../pic32mx/lib/micromips\libpic32.a(rmdir.o)
 .comment       0x00000000       0x3d d:/program files/microchip/xc32/v2.50/bin/bin/../../lib/gcc/pic32mx/4.8.3/../../../../pic32mx/lib/micromips\libpic32.a(_mon_putc.o)
 .comment       0x00000000       0x3d d:/program files/microchip/xc32/v2.50/bin/bin/../../lib/gcc/pic32mx/4.8.3/micromips/crtend.o

.debug
 *.elf(.debug)
 *(.debug)

.line
 *.elf(.line)
 *(.line)

.debug_srcinfo
 *.elf(.debug_srcinfo)
 *(.debug_srcinfo)

.debug_sfnames
 *.elf(.debug_sfnames)
 *(.debug_sfnames)

.debug_aranges  0x00000000     0x1a80
 *.elf(.debug_aranges)
 *(.debug_aranges)
 .debug_aranges
                0x00000000      0x310 build/default/production/main.o
 .debug_aranges
                0x00000310       0x20 d:/program files/microchip/xc32/v2.50/bin/bin/../../lib/gcc/pic32mx/4.8.3/../../../../pic32mx/lib/micromips\pic32_software_reset-mm.o
 .debug_aranges
                0x00000330       0x20 d:/program files/microchip/xc32/v2.50/bin/bin/../../lib/gcc/pic32mx/4.8.3/micromips\libgcc.a(unwind-sjlj.o)
 .debug_aranges
                0x00000350       0x20 d:/program files/microchip/xc32/v2.50/bin/bin/../../lib/gcc/pic32mx/4.8.3/../../../../pic32mx/lib/micromips\libpic32.a(default-bootstrap-exception-handler.o)
 .debug_aranges
                0x00000370       0x20 d:/program files/microchip/xc32/v2.50/bin/bin/../../lib/gcc/pic32mx/4.8.3/../../../../pic32mx/lib/micromips\libpic32.a(default-on-reset.o)
 .debug_aranges
                0x00000390       0x20 d:/program files/microchip/xc32/v2.50/bin/bin/../../lib/gcc/pic32mx/4.8.3/../../../../pic32mx/lib/micromips\libpic32.a(default-on-bootstrap.o)
 .debug_aranges
                0x000003b0       0x20 d:/program files/microchip/xc32/v2.50/bin/bin/../../lib/gcc/pic32mx/4.8.3/../../../../pic32mx/lib/micromips\libpic32.a(default-general-exception-handler.o)
 .debug_aranges
                0x000003d0       0x20 d:/program files/microchip/xc32/v2.50/bin/bin/../../lib/gcc/pic32mx/4.8.3/../../../../pic32mx/lib/micromips\libpic32.a(defaultinterrupt.o)
 .debug_aranges
                0x000003f0      0x320 d:/program files/microchip/xc32/v2.50/bin/bin/../../lib/gcc/pic32mx/4.8.3/../../../../pic32mx/lib/micromips\libxcpp.a(iostream.o)
 .debug_aranges
                0x00000710       0xe0 d:/program files/microchip/xc32/v2.50/bin/bin/../../lib/gcc/pic32mx/4.8.3/../../../../pic32mx/lib/micromips\libxcpp.a(xthrow.o)
 .debug_aranges
                0x000007f0      0x358 d:/program files/microchip/xc32/v2.50/bin/bin/../../lib/gcc/pic32mx/4.8.3/../../../../pic32mx/lib/micromips\libxcpp.a(wiostrea.o)
 .debug_aranges
                0x00000b48       0xb0 d:/program files/microchip/xc32/v2.50/bin/bin/../../lib/gcc/pic32mx/4.8.3/../../../../pic32mx/lib/micromips\libxcpp.a(locale0.o)
 .debug_aranges
                0x00000bf8       0x20 d:/program files/microchip/xc32/v2.50/bin/bin/../../lib/gcc/pic32mx/4.8.3/../../../../pic32mx/lib/micromips\libxcpp.a(abort.o)
 .debug_aranges
                0x00000c18       0x20 d:/program files/microchip/xc32/v2.50/bin/bin/../../lib/gcc/pic32mx/4.8.3/../../../../pic32mx/lib/micromips\libxcpp.a(abs.o)
 .debug_aranges
                0x00000c38       0x28 d:/program files/microchip/xc32/v2.50/bin/bin/../../lib/gcc/pic32mx/4.8.3/../../../../pic32mx/lib/micromips\libxcpp.a(asctime.o)
 .debug_aranges
                0x00000c60       0x30 d:/program files/microchip/xc32/v2.50/bin/bin/../../lib/gcc/pic32mx/4.8.3/../../../../pic32mx/lib/micromips\libxcpp.a(exit.o)
 .debug_aranges
                0x00000c90       0x30 d:/program files/microchip/xc32/v2.50/bin/bin/../../lib/gcc/pic32mx/4.8.3/../../../../pic32mx/lib/micromips\libxcpp.a(fclose.o)
 .debug_aranges
                0x00000cc0       0x20 d:/program files/microchip/xc32/v2.50/bin/bin/../../lib/gcc/pic32mx/4.8.3/../../../../pic32mx/lib/micromips\libxcpp.a(fflush.o)
 .debug_aranges
                0x00000ce0       0x20 d:/program files/microchip/xc32/v2.50/bin/bin/../../lib/gcc/pic32mx/4.8.3/../../../../pic32mx/lib/micromips\libxcpp.a(fgetc.o)
 .debug_aranges
                0x00000d00       0x20 d:/program files/microchip/xc32/v2.50/bin/bin/../../lib/gcc/pic32mx/4.8.3/../../../../pic32mx/lib/micromips\libxcpp.a(fgetpos.o)
 .debug_aranges
                0x00000d20       0x20 d:/program files/microchip/xc32/v2.50/bin/bin/../../lib/gcc/pic32mx/4.8.3/../../../../pic32mx/lib/micromips\libxcpp.a(fgetwc.o)
 .debug_aranges
                0x00000d40       0x20 d:/program files/microchip/xc32/v2.50/bin/bin/../../lib/gcc/pic32mx/4.8.3/../../../../pic32mx/lib/micromips\libxcpp.a(fputc.o)
 .debug_aranges
                0x00000d60       0x20 d:/program files/microchip/xc32/v2.50/bin/bin/../../lib/gcc/pic32mx/4.8.3/../../../../pic32mx/lib/micromips\libxcpp.a(fputwc.o)
 .debug_aranges
                0x00000d80       0x20 d:/program files/microchip/xc32/v2.50/bin/bin/../../lib/gcc/pic32mx/4.8.3/../../../../pic32mx/lib/micromips\libxcpp.a(free.o)
 .debug_aranges
                0x00000da0       0x20 d:/program files/microchip/xc32/v2.50/bin/bin/../../lib/gcc/pic32mx/4.8.3/../../../../pic32mx/lib/micromips\libxcpp.a(fseek.o)
 .debug_aranges
                0x00000dc0       0x20 d:/program files/microchip/xc32/v2.50/bin/bin/../../lib/gcc/pic32mx/4.8.3/../../../../pic32mx/lib/micromips\libxcpp.a(fsetpos.o)
 .debug_aranges
                0x00000de0       0x20 d:/program files/microchip/xc32/v2.50/bin/bin/../../lib/gcc/pic32mx/4.8.3/../../../../pic32mx/lib/micromips\libxcpp.a(fwrite.o)
 .debug_aranges
                0x00000e00       0x20 d:/program files/microchip/xc32/v2.50/bin/bin/../../lib/gcc/pic32mx/4.8.3/../../../../pic32mx/lib/micromips\libxcpp.a(malloc.o)
 .debug_aranges
                0x00000e20       0x20 d:/program files/microchip/xc32/v2.50/bin/bin/../../lib/gcc/pic32mx/4.8.3/../../../../pic32mx/lib/micromips\libxcpp.a(memchr.o)
 .debug_aranges
                0x00000e40       0x20 d:/program files/microchip/xc32/v2.50/bin/bin/../../lib/gcc/pic32mx/4.8.3/../../../../pic32mx/lib/micromips\libxcpp.a(memmove.o)
 .debug_aranges
                0x00000e60       0x20 d:/program files/microchip/xc32/v2.50/bin/bin/../../lib/gcc/pic32mx/4.8.3/../../../../pic32mx/lib/micromips\libxcpp.a(raise.o)
 .debug_aranges
                0x00000e80       0x20 d:/program files/microchip/xc32/v2.50/bin/bin/../../lib/gcc/pic32mx/4.8.3/../../../../pic32mx/lib/micromips\libxcpp.a(remove.o)
 .debug_aranges
                0x00000ea0       0x50 d:/program files/microchip/xc32/v2.50/bin/bin/../../lib/gcc/pic32mx/4.8.3/../../../../pic32mx/lib/micromips\libxcpp.a(setlocal.o)
 .debug_aranges
                0x00000ef0       0x20 d:/program files/microchip/xc32/v2.50/bin/bin/../../lib/gcc/pic32mx/4.8.3/../../../../pic32mx/lib/micromips\libxcpp.a(setvbuf.o)
 .debug_aranges
                0x00000f10       0x20 d:/program files/microchip/xc32/v2.50/bin/bin/../../lib/gcc/pic32mx/4.8.3/../../../../pic32mx/lib/micromips\libxcpp.a(strcpy.o)
 .debug_aranges
                0x00000f30       0x20 d:/program files/microchip/xc32/v2.50/bin/bin/../../lib/gcc/pic32mx/4.8.3/../../../../pic32mx/lib/micromips\libxcpp.a(ungetc.o)
 .debug_aranges
                0x00000f50       0x20 d:/program files/microchip/xc32/v2.50/bin/bin/../../lib/gcc/pic32mx/4.8.3/../../../../pic32mx/lib/micromips\libxcpp.a(ungetwc.o)
 .debug_aranges
                0x00000f70       0x20 d:/program files/microchip/xc32/v2.50/bin/bin/../../lib/gcc/pic32mx/4.8.3/../../../../pic32mx/lib/micromips\libxcpp.a(wmemcpy.o)
 .debug_aranges
                0x00000f90       0x20 d:/program files/microchip/xc32/v2.50/bin/bin/../../lib/gcc/pic32mx/4.8.3/../../../../pic32mx/lib/micromips\libxcpp.a(xatexit.o)
 .debug_aranges
                0x00000fb0       0x20 d:/program files/microchip/xc32/v2.50/bin/bin/../../lib/gcc/pic32mx/4.8.3/../../../../pic32mx/lib/micromips\libxcpp.a(xcostate.o)
 .debug_aranges
                0x00000fd0       0x20 d:/program files/microchip/xc32/v2.50/bin/bin/../../lib/gcc/pic32mx/4.8.3/../../../../pic32mx/lib/micromips\libxcpp.a(xctype.o)
 .debug_aranges
                0x00000ff0       0x20 d:/program files/microchip/xc32/v2.50/bin/bin/../../lib/gcc/pic32mx/4.8.3/../../../../pic32mx/lib/micromips\libxcpp.a(xdefloc.o)
 .debug_aranges
                0x00001010       0x20 d:/program files/microchip/xc32/v2.50/bin/bin/../../lib/gcc/pic32mx/4.8.3/../../../../pic32mx/lib/micromips\libxcpp.a(xexit.o)
 .debug_aranges
                0x00001030       0x28 d:/program files/microchip/xc32/v2.50/bin/bin/../../lib/gcc/pic32mx/4.8.3/../../../../pic32mx/lib/micromips\libxcpp.a(xfgpos.o)
 .debug_aranges
                0x00001058       0x28 d:/program files/microchip/xc32/v2.50/bin/bin/../../lib/gcc/pic32mx/4.8.3/../../../../pic32mx/lib/micromips\libxcpp.a(xfofind.o)
 .debug_aranges
                0x00001080       0x20 d:/program files/microchip/xc32/v2.50/bin/bin/../../lib/gcc/pic32mx/4.8.3/../../../../pic32mx/lib/micromips\libxcpp.a(xfrprep.o)
 .debug_aranges
                0x000010a0       0x20 d:/program files/microchip/xc32/v2.50/bin/bin/../../lib/gcc/pic32mx/4.8.3/../../../../pic32mx/lib/micromips\libxcpp.a(xfspos.o)
 .debug_aranges
                0x000010c0       0x20 d:/program files/microchip/xc32/v2.50/bin/bin/../../lib/gcc/pic32mx/4.8.3/../../../../pic32mx/lib/micromips\libxcpp.a(xfwprep.o)
 .debug_aranges
                0x000010e0       0x38 d:/program files/microchip/xc32/v2.50/bin/bin/../../lib/gcc/pic32mx/4.8.3/../../../../pic32mx/lib/micromips\libxcpp.a(xgetglob.o)
 .debug_aranges
                0x00001118       0x28 d:/program files/microchip/xc32/v2.50/bin/bin/../../lib/gcc/pic32mx/4.8.3/../../../../pic32mx/lib/micromips\libxcpp.a(xgetloc.o)
 .debug_aranges
                0x00001140       0x20 d:/program files/microchip/xc32/v2.50/bin/bin/../../lib/gcc/pic32mx/4.8.3/../../../../pic32mx/lib/micromips\libxcpp.a(xgetmem.o)
 .debug_aranges
                0x00001160       0x28 d:/program files/microchip/xc32/v2.50/bin/bin/../../lib/gcc/pic32mx/4.8.3/../../../../pic32mx/lib/micromips\libxcpp.a(xmbtowc.o)
 .debug_aranges
                0x00001188       0x20 d:/program files/microchip/xc32/v2.50/bin/bin/../../lib/gcc/pic32mx/4.8.3/../../../../pic32mx/lib/micromips\libxcpp.a(xsetloc.o)
 .debug_aranges
                0x000011a8       0x28 d:/program files/microchip/xc32/v2.50/bin/bin/../../lib/gcc/pic32mx/4.8.3/../../../../pic32mx/lib/micromips\libxcpp.a(xstate.o)
 .debug_aranges
                0x000011d0       0x20 d:/program files/microchip/xc32/v2.50/bin/bin/../../lib/gcc/pic32mx/4.8.3/../../../../pic32mx/lib/micromips\libxcpp.a(xstrftim.o)
 .debug_aranges
                0x000011f0       0x20 d:/program files/microchip/xc32/v2.50/bin/bin/../../lib/gcc/pic32mx/4.8.3/../../../../pic32mx/lib/micromips\libxcpp.a(xtolotab.o)
 .debug_aranges
                0x00001210       0x20 d:/program files/microchip/xc32/v2.50/bin/bin/../../lib/gcc/pic32mx/4.8.3/../../../../pic32mx/lib/micromips\libxcpp.a(xtouptab.o)
 .debug_aranges
                0x00001230       0x20 d:/program files/microchip/xc32/v2.50/bin/bin/../../lib/gcc/pic32mx/4.8.3/../../../../pic32mx/lib/micromips\libxcpp.a(xwcostate.o)
 .debug_aranges
                0x00001250       0x20 d:/program files/microchip/xc32/v2.50/bin/bin/../../lib/gcc/pic32mx/4.8.3/../../../../pic32mx/lib/micromips\libxcpp.a(xwcstate.o)
 .debug_aranges
                0x00001270       0x28 d:/program files/microchip/xc32/v2.50/bin/bin/../../lib/gcc/pic32mx/4.8.3/../../../../pic32mx/lib/micromips\libxcpp.a(xwctomb.o)
 .debug_aranges
                0x00001298       0x20 d:/program files/microchip/xc32/v2.50/bin/bin/../../lib/gcc/pic32mx/4.8.3/../../../../pic32mx/lib/micromips\libxcpp.a(xwctrtab.o)
 .debug_aranges
                0x000012b8       0x20 d:/program files/microchip/xc32/v2.50/bin/bin/../../lib/gcc/pic32mx/4.8.3/../../../../pic32mx/lib/micromips\libxcpp.a(xwctytab.o)
 .debug_aranges
                0x000012d8       0x20 d:/program files/microchip/xc32/v2.50/bin/bin/../../lib/gcc/pic32mx/4.8.3/../../../../pic32mx/lib/micromips\libxcpp.a(xwfrprep.o)
 .debug_aranges
                0x000012f8       0x20 d:/program files/microchip/xc32/v2.50/bin/bin/../../lib/gcc/pic32mx/4.8.3/../../../../pic32mx/lib/micromips\libxcpp.a(xwfwprep.o)
 .debug_aranges
                0x00001318      0x108 d:/program files/microchip/xc32/v2.50/bin/bin/../../lib/gcc/pic32mx/4.8.3/../../../../pic32mx/lib/micromips\libxcpp.a(syserror.o)
 .debug_aranges
                0x00001420       0x20 d:/program files/microchip/xc32/v2.50/bin/bin/../../lib/gcc/pic32mx/4.8.3/../../../../pic32mx/lib/micromips\libxcpp.a(delaop.o)
 .debug_aranges
                0x00001440       0x58 d:/program files/microchip/xc32/v2.50/bin/bin/../../lib/gcc/pic32mx/4.8.3/../../../../pic32mx/lib/micromips\libxcpp.a(ios.o)
 .debug_aranges
                0x00001498       0x20 d:/program files/microchip/xc32/v2.50/bin/bin/../../lib/gcc/pic32mx/4.8.3/../../../../pic32mx/lib/micromips\libxcpp.a(delop3.o)
 .debug_aranges
                0x000014b8       0x20 d:/program files/microchip/xc32/v2.50/bin/bin/../../lib/gcc/pic32mx/4.8.3/../../../../pic32mx/lib/micromips\libxcpp.a(errno.o)
 .debug_aranges
                0x000014d8       0x20 d:/program files/microchip/xc32/v2.50/bin/bin/../../lib/gcc/pic32mx/4.8.3/../../../../pic32mx/lib/micromips\libxcpp.a(getenv.o)
 .debug_aranges
                0x000014f8       0x20 d:/program files/microchip/xc32/v2.50/bin/bin/../../lib/gcc/pic32mx/4.8.3/../../../../pic32mx/lib/micromips\libxcpp.a(localeco.o)
 .debug_aranges
                0x00001518       0x20 d:/program files/microchip/xc32/v2.50/bin/bin/../../lib/gcc/pic32mx/4.8.3/../../../../pic32mx/lib/micromips\libxcpp.a(memcmp.o)
 .debug_aranges
                0x00001538       0x20 d:/program files/microchip/xc32/v2.50/bin/bin/../../lib/gcc/pic32mx/4.8.3/../../../../pic32mx/lib/micromips\libxcpp.a(strcspn.o)
 .debug_aranges
                0x00001558       0x20 d:/program files/microchip/xc32/v2.50/bin/bin/../../lib/gcc/pic32mx/4.8.3/../../../../pic32mx/lib/micromips\libxcpp.a(strerror.o)
 .debug_aranges
                0x00001578       0x28 d:/program files/microchip/xc32/v2.50/bin/bin/../../lib/gcc/pic32mx/4.8.3/../../../../pic32mx/lib/micromips\libxcpp.a(xfindloc.o)
 .debug_aranges
                0x000015a0       0x20 d:/program files/microchip/xc32/v2.50/bin/bin/../../lib/gcc/pic32mx/4.8.3/../../../../pic32mx/lib/micromips\libxcpp.a(xfreeloc.o)
 .debug_aranges
                0x000015c0       0x40 d:/program files/microchip/xc32/v2.50/bin/bin/../../lib/gcc/pic32mx/4.8.3/../../../../pic32mx/lib/micromips\libxcpp.a(xgentime.o)
 .debug_aranges
                0x00001600       0x20 d:/program files/microchip/xc32/v2.50/bin/bin/../../lib/gcc/pic32mx/4.8.3/../../../../pic32mx/lib/micromips\libxcpp.a(xgettime.o)
 .debug_aranges
                0x00001620       0x20 d:/program files/microchip/xc32/v2.50/bin/bin/../../lib/gcc/pic32mx/4.8.3/../../../../pic32mx/lib/micromips\libxcpp.a(xgetzone.o)
 .debug_aranges
                0x00001640       0x30 d:/program files/microchip/xc32/v2.50/bin/bin/../../lib/gcc/pic32mx/4.8.3/../../../../pic32mx/lib/micromips\libxcpp.a(xmakeloc.o)
 .debug_aranges
                0x00001670       0x20 d:/program files/microchip/xc32/v2.50/bin/bin/../../lib/gcc/pic32mx/4.8.3/../../../../pic32mx/lib/micromips\libxcpp.a(xmakesta.o)
 .debug_aranges
                0x00001690       0x20 d:/program files/microchip/xc32/v2.50/bin/bin/../../lib/gcc/pic32mx/4.8.3/../../../../pic32mx/lib/micromips\libxcpp.a(xmakewct.o)
 .debug_aranges
                0x000016b0       0x20 d:/program files/microchip/xc32/v2.50/bin/bin/../../lib/gcc/pic32mx/4.8.3/../../../../pic32mx/lib/micromips\libxcpp.a(xreadloc.o)
 .debug_aranges
                0x000016d0       0x20 d:/program files/microchip/xc32/v2.50/bin/bin/../../lib/gcc/pic32mx/4.8.3/../../../../pic32mx/lib/micromips\libxcpp.a(xstrerro.o)
 .debug_aranges
                0x000016f0       0x20 d:/program files/microchip/xc32/v2.50/bin/bin/../../lib/gcc/pic32mx/4.8.3/../../../../pic32mx/lib/micromips\libxcpp.a(fgets.o)
 .debug_aranges
                0x00001710       0x20 d:/program files/microchip/xc32/v2.50/bin/bin/../../lib/gcc/pic32mx/4.8.3/../../../../pic32mx/lib/micromips\libxcpp.a(fopen.o)
 .debug_aranges
                0x00001730       0x20 d:/program files/microchip/xc32/v2.50/bin/bin/../../lib/gcc/pic32mx/4.8.3/../../../../pic32mx/lib/micromips\libxcpp.a(fputs.o)
 .debug_aranges
                0x00001750       0x20 d:/program files/microchip/xc32/v2.50/bin/bin/../../lib/gcc/pic32mx/4.8.3/../../../../pic32mx/lib/micromips\libxcpp.a(realloc.o)
 .debug_aranges
                0x00001770       0x20 d:/program files/microchip/xc32/v2.50/bin/bin/../../lib/gcc/pic32mx/4.8.3/../../../../pic32mx/lib/micromips\libxcpp.a(strchr.o)
 .debug_aranges
                0x00001790       0x20 d:/program files/microchip/xc32/v2.50/bin/bin/../../lib/gcc/pic32mx/4.8.3/../../../../pic32mx/lib/micromips\libxcpp.a(strncmp.o)
 .debug_aranges
                0x000017b0       0x20 d:/program files/microchip/xc32/v2.50/bin/bin/../../lib/gcc/pic32mx/4.8.3/../../../../pic32mx/lib/micromips\libxcpp.a(strrchr.o)
 .debug_aranges
                0x000017d0       0x20 d:/program files/microchip/xc32/v2.50/bin/bin/../../lib/gcc/pic32mx/4.8.3/../../../../pic32mx/lib/micromips\libxcpp.a(strspn.o)
 .debug_aranges
                0x000017f0       0x20 d:/program files/microchip/xc32/v2.50/bin/bin/../../lib/gcc/pic32mx/4.8.3/../../../../pic32mx/lib/micromips\libxcpp.a(strtol.o)
 .debug_aranges
                0x00001810       0x20 d:/program files/microchip/xc32/v2.50/bin/bin/../../lib/gcc/pic32mx/4.8.3/../../../../pic32mx/lib/micromips\libxcpp.a(xfoprep.o)
 .debug_aranges
                0x00001830       0x28 d:/program files/microchip/xc32/v2.50/bin/bin/../../lib/gcc/pic32mx/4.8.3/../../../../pic32mx/lib/micromips\libxcpp.a(xlocterm.o)
 .debug_aranges
                0x00001858       0x20 d:/program files/microchip/xc32/v2.50/bin/bin/../../lib/gcc/pic32mx/4.8.3/../../../../pic32mx/lib/micromips\libxcpp.a(xstol.o)
 .debug_aranges
                0x00001878       0x28 d:/program files/microchip/xc32/v2.50/bin/bin/../../lib/gcc/pic32mx/4.8.3/../../../../pic32mx/lib/micromips\libxcpp.a(xstoul.o)
 .debug_aranges
                0x000018a0       0x20 d:/program files/microchip/xc32/v2.50/bin/bin/../../lib/gcc/pic32mx/4.8.3/../../../../pic32mx/lib/micromips\libxcpp.a(xfopen.o)
 .debug_aranges
                0x000018c0       0x40 d:/program files/microchip/xc32/v2.50/bin/bin/../../lib/gcc/pic32mx/4.8.3/../../../../pic32mx/lib/micromips\libpic32.a(sbrk.o)
 .debug_aranges
                0x00001900       0x20 d:/program files/microchip/xc32/v2.50/bin/bin/../../lib/gcc/pic32mx/4.8.3/../../../../pic32mx/lib/micromips\libpic32.a(_exit.o)
 .debug_aranges
                0x00001920       0x20 d:/program files/microchip/xc32/v2.50/bin/bin/../../lib/gcc/pic32mx/4.8.3/../../../../pic32mx/lib/micromips\libpic32.a(isatty.o)
 .debug_aranges
                0x00001940       0x20 d:/program files/microchip/xc32/v2.50/bin/bin/../../lib/gcc/pic32mx/4.8.3/../../../../pic32mx/lib/micromips\libpic32.a(read.o)
 .debug_aranges
                0x00001960       0x20 d:/program files/microchip/xc32/v2.50/bin/bin/../../lib/gcc/pic32mx/4.8.3/../../../../pic32mx/lib/micromips\libpic32.a(write.o)
 .debug_aranges
                0x00001980       0x20 d:/program files/microchip/xc32/v2.50/bin/bin/../../lib/gcc/pic32mx/4.8.3/../../../../pic32mx/lib/micromips\libpic32.a(lseek.o)
 .debug_aranges
                0x000019a0       0x20 d:/program files/microchip/xc32/v2.50/bin/bin/../../lib/gcc/pic32mx/4.8.3/../../../../pic32mx/lib/micromips\libpic32.a(close.o)
 .debug_aranges
                0x000019c0       0x20 d:/program files/microchip/xc32/v2.50/bin/bin/../../lib/gcc/pic32mx/4.8.3/../../../../pic32mx/lib/micromips\libpic32.a(open.o)
 .debug_aranges
                0x000019e0       0x20 d:/program files/microchip/xc32/v2.50/bin/bin/../../lib/gcc/pic32mx/4.8.3/../../../../pic32mx/lib/micromips\libpic32.a(unlink.o)
 .debug_aranges
                0x00001a00       0x20 d:/program files/microchip/xc32/v2.50/bin/bin/../../lib/gcc/pic32mx/4.8.3/../../../../pic32mx/lib/micromips\libpic32.a(kill.o)
 .debug_aranges
                0x00001a20       0x20 d:/program files/microchip/xc32/v2.50/bin/bin/../../lib/gcc/pic32mx/4.8.3/../../../../pic32mx/lib/micromips\libpic32.a(getpid.o)
 .debug_aranges
                0x00001a40       0x20 d:/program files/microchip/xc32/v2.50/bin/bin/../../lib/gcc/pic32mx/4.8.3/../../../../pic32mx/lib/micromips\libpic32.a(rmdir.o)
 .debug_aranges
                0x00001a60       0x20 d:/program files/microchip/xc32/v2.50/bin/bin/../../lib/gcc/pic32mx/4.8.3/../../../../pic32mx/lib/micromips\libpic32.a(_mon_putc.o)

.debug_pubnames
 *.elf(.debug_pubnames)
 *(.debug_pubnames)

.debug_info     0x00000000    0x197bf
 *.elf(.debug_info .gnu.linkonce.wi.*)
 *(.debug_info .gnu.linkonce.wi.*)
 .debug_info    0x00000000     0xcd83 build/default/production/main.o
 .debug_info    0x0000cd83      0x108 d:/program files/microchip/xc32/v2.50/bin/bin/../../lib/gcc/pic32mx/4.8.3/../../../../pic32mx/lib/micromips\pic32_software_reset-mm.o
 .debug_info    0x0000ce8b     0x126c d:/program files/microchip/xc32/v2.50/bin/bin/../../lib/gcc/pic32mx/4.8.3/micromips\libgcc.a(unwind-sjlj.o)
 .debug_info    0x0000e0f7       0xf4 d:/program files/microchip/xc32/v2.50/bin/bin/../../lib/gcc/pic32mx/4.8.3/../../../../pic32mx/lib/micromips\libpic32.a(default-bootstrap-exception-handler.o)
 .debug_info    0x0000e1eb       0xcd d:/program files/microchip/xc32/v2.50/bin/bin/../../lib/gcc/pic32mx/4.8.3/../../../../pic32mx/lib/micromips\libpic32.a(default-on-reset.o)
 .debug_info    0x0000e2b8       0xd5 d:/program files/microchip/xc32/v2.50/bin/bin/../../lib/gcc/pic32mx/4.8.3/../../../../pic32mx/lib/micromips\libpic32.a(default-on-bootstrap.o)
 .debug_info    0x0000e38d       0xf0 d:/program files/microchip/xc32/v2.50/bin/bin/../../lib/gcc/pic32mx/4.8.3/../../../../pic32mx/lib/micromips\libpic32.a(default-general-exception-handler.o)
 .debug_info    0x0000e47d       0xe7 d:/program files/microchip/xc32/v2.50/bin/bin/../../lib/gcc/pic32mx/4.8.3/../../../../pic32mx/lib/micromips\libpic32.a(defaultinterrupt.o)
 .debug_info    0x0000e564     0x216a d:/program files/microchip/xc32/v2.50/bin/bin/../../lib/gcc/pic32mx/4.8.3/../../../../pic32mx/lib/micromips\libxcpp.a(iostream.o)
 .debug_info    0x000106ce      0x830 d:/program files/microchip/xc32/v2.50/bin/bin/../../lib/gcc/pic32mx/4.8.3/../../../../pic32mx/lib/micromips\libxcpp.a(xthrow.o)
 .debug_info    0x00010efe     0x2381 d:/program files/microchip/xc32/v2.50/bin/bin/../../lib/gcc/pic32mx/4.8.3/../../../../pic32mx/lib/micromips\libxcpp.a(wiostrea.o)
 .debug_info    0x0001327f      0x800 d:/program files/microchip/xc32/v2.50/bin/bin/../../lib/gcc/pic32mx/4.8.3/../../../../pic32mx/lib/micromips\libxcpp.a(locale0.o)
 .debug_info    0x00013a7f       0xb9 d:/program files/microchip/xc32/v2.50/bin/bin/../../lib/gcc/pic32mx/4.8.3/../../../../pic32mx/lib/micromips\libxcpp.a(abort.o)
 .debug_info    0x00013b38       0xb5 d:/program files/microchip/xc32/v2.50/bin/bin/../../lib/gcc/pic32mx/4.8.3/../../../../pic32mx/lib/micromips\libxcpp.a(abs.o)
 .debug_info    0x00013bed       0xd7 d:/program files/microchip/xc32/v2.50/bin/bin/../../lib/gcc/pic32mx/4.8.3/../../../../pic32mx/lib/micromips\libxcpp.a(asctime.o)
 .debug_info    0x00013cc4       0xe7 d:/program files/microchip/xc32/v2.50/bin/bin/../../lib/gcc/pic32mx/4.8.3/../../../../pic32mx/lib/micromips\libxcpp.a(exit.o)
 .debug_info    0x00013dab       0xfa d:/program files/microchip/xc32/v2.50/bin/bin/../../lib/gcc/pic32mx/4.8.3/../../../../pic32mx/lib/micromips\libxcpp.a(fclose.o)
 .debug_info    0x00013ea5       0xbb d:/program files/microchip/xc32/v2.50/bin/bin/../../lib/gcc/pic32mx/4.8.3/../../../../pic32mx/lib/micromips\libxcpp.a(fflush.o)
 .debug_info    0x00013f60       0xb9 d:/program files/microchip/xc32/v2.50/bin/bin/../../lib/gcc/pic32mx/4.8.3/../../../../pic32mx/lib/micromips\libxcpp.a(fgetc.o)
 .debug_info    0x00014019       0xbd d:/program files/microchip/xc32/v2.50/bin/bin/../../lib/gcc/pic32mx/4.8.3/../../../../pic32mx/lib/micromips\libxcpp.a(fgetpos.o)
 .debug_info    0x000140d6       0xbb d:/program files/microchip/xc32/v2.50/bin/bin/../../lib/gcc/pic32mx/4.8.3/../../../../pic32mx/lib/micromips\libxcpp.a(fgetwc.o)
 .debug_info    0x00014191       0xb9 d:/program files/microchip/xc32/v2.50/bin/bin/../../lib/gcc/pic32mx/4.8.3/../../../../pic32mx/lib/micromips\libxcpp.a(fputc.o)
 .debug_info    0x0001424a       0xbb d:/program files/microchip/xc32/v2.50/bin/bin/../../lib/gcc/pic32mx/4.8.3/../../../../pic32mx/lib/micromips\libxcpp.a(fputwc.o)
 .debug_info    0x00014305       0xb7 d:/program files/microchip/xc32/v2.50/bin/bin/../../lib/gcc/pic32mx/4.8.3/../../../../pic32mx/lib/micromips\libxcpp.a(free.o)
 .debug_info    0x000143bc       0xb9 d:/program files/microchip/xc32/v2.50/bin/bin/../../lib/gcc/pic32mx/4.8.3/../../../../pic32mx/lib/micromips\libxcpp.a(fseek.o)
 .debug_info    0x00014475       0xbd d:/program files/microchip/xc32/v2.50/bin/bin/../../lib/gcc/pic32mx/4.8.3/../../../../pic32mx/lib/micromips\libxcpp.a(fsetpos.o)
 .debug_info    0x00014532       0xbb d:/program files/microchip/xc32/v2.50/bin/bin/../../lib/gcc/pic32mx/4.8.3/../../../../pic32mx/lib/micromips\libxcpp.a(fwrite.o)
 .debug_info    0x000145ed       0xc7 d:/program files/microchip/xc32/v2.50/bin/bin/../../lib/gcc/pic32mx/4.8.3/../../../../pic32mx/lib/micromips\libxcpp.a(malloc.o)
 .debug_info    0x000146b4       0xbb d:/program files/microchip/xc32/v2.50/bin/bin/../../lib/gcc/pic32mx/4.8.3/../../../../pic32mx/lib/micromips\libxcpp.a(memchr.o)
 .debug_info    0x0001476f       0xbd d:/program files/microchip/xc32/v2.50/bin/bin/../../lib/gcc/pic32mx/4.8.3/../../../../pic32mx/lib/micromips\libxcpp.a(memmove.o)
 .debug_info    0x0001482c       0xb9 d:/program files/microchip/xc32/v2.50/bin/bin/../../lib/gcc/pic32mx/4.8.3/../../../../pic32mx/lib/micromips\libxcpp.a(raise.o)
 .debug_info    0x000148e5       0xbb d:/program files/microchip/xc32/v2.50/bin/bin/../../lib/gcc/pic32mx/4.8.3/../../../../pic32mx/lib/micromips\libxcpp.a(remove.o)
 .debug_info    0x000149a0      0x193 d:/program files/microchip/xc32/v2.50/bin/bin/../../lib/gcc/pic32mx/4.8.3/../../../../pic32mx/lib/micromips\libxcpp.a(setlocal.o)
 .debug_info    0x00014b33       0xbd d:/program files/microchip/xc32/v2.50/bin/bin/../../lib/gcc/pic32mx/4.8.3/../../../../pic32mx/lib/micromips\libxcpp.a(setvbuf.o)
 .debug_info    0x00014bf0       0xbb d:/program files/microchip/xc32/v2.50/bin/bin/../../lib/gcc/pic32mx/4.8.3/../../../../pic32mx/lib/micromips\libxcpp.a(strcpy.o)
 .debug_info    0x00014cab       0xbb d:/program files/microchip/xc32/v2.50/bin/bin/../../lib/gcc/pic32mx/4.8.3/../../../../pic32mx/lib/micromips\libxcpp.a(ungetc.o)
 .debug_info    0x00014d66       0xbd d:/program files/microchip/xc32/v2.50/bin/bin/../../lib/gcc/pic32mx/4.8.3/../../../../pic32mx/lib/micromips\libxcpp.a(ungetwc.o)
 .debug_info    0x00014e23       0xbd d:/program files/microchip/xc32/v2.50/bin/bin/../../lib/gcc/pic32mx/4.8.3/../../../../pic32mx/lib/micromips\libxcpp.a(wmemcpy.o)
 .debug_info    0x00014ee0       0xbd d:/program files/microchip/xc32/v2.50/bin/bin/../../lib/gcc/pic32mx/4.8.3/../../../../pic32mx/lib/micromips\libxcpp.a(xatexit.o)
 .debug_info    0x00014f9d       0xc3 d:/program files/microchip/xc32/v2.50/bin/bin/../../lib/gcc/pic32mx/4.8.3/../../../../pic32mx/lib/micromips\libxcpp.a(xcostate.o)
 .debug_info    0x00015060       0xbf d:/program files/microchip/xc32/v2.50/bin/bin/../../lib/gcc/pic32mx/4.8.3/../../../../pic32mx/lib/micromips\libxcpp.a(xctype.o)
 .debug_info    0x0001511f       0xbd d:/program files/microchip/xc32/v2.50/bin/bin/../../lib/gcc/pic32mx/4.8.3/../../../../pic32mx/lib/micromips\libxcpp.a(xdefloc.o)
 .debug_info    0x000151dc       0xb9 d:/program files/microchip/xc32/v2.50/bin/bin/../../lib/gcc/pic32mx/4.8.3/../../../../pic32mx/lib/micromips\libxcpp.a(xexit.o)
 .debug_info    0x00015295       0xd5 d:/program files/microchip/xc32/v2.50/bin/bin/../../lib/gcc/pic32mx/4.8.3/../../../../pic32mx/lib/micromips\libxcpp.a(xfgpos.o)
 .debug_info    0x0001536a       0xd4 d:/program files/microchip/xc32/v2.50/bin/bin/../../lib/gcc/pic32mx/4.8.3/../../../../pic32mx/lib/micromips\libxcpp.a(xfofind.o)
 .debug_info    0x0001543e       0xbd d:/program files/microchip/xc32/v2.50/bin/bin/../../lib/gcc/pic32mx/4.8.3/../../../../pic32mx/lib/micromips\libxcpp.a(xfrprep.o)
 .debug_info    0x000154fb       0xbb d:/program files/microchip/xc32/v2.50/bin/bin/../../lib/gcc/pic32mx/4.8.3/../../../../pic32mx/lib/micromips\libxcpp.a(xfspos.o)
 .debug_info    0x000155b6       0xbd d:/program files/microchip/xc32/v2.50/bin/bin/../../lib/gcc/pic32mx/4.8.3/../../../../pic32mx/lib/micromips\libxcpp.a(xfwprep.o)
 .debug_info    0x00015673      0x156 d:/program files/microchip/xc32/v2.50/bin/bin/../../lib/gcc/pic32mx/4.8.3/../../../../pic32mx/lib/micromips\libxcpp.a(xgetglob.o)
 .debug_info    0x000157c9       0xe2 d:/program files/microchip/xc32/v2.50/bin/bin/../../lib/gcc/pic32mx/4.8.3/../../../../pic32mx/lib/micromips\libxcpp.a(xgetloc.o)
 .debug_info    0x000158ab       0xbd d:/program files/microchip/xc32/v2.50/bin/bin/../../lib/gcc/pic32mx/4.8.3/../../../../pic32mx/lib/micromips\libxcpp.a(xgetmem.o)
 .debug_info    0x00015968       0xd5 d:/program files/microchip/xc32/v2.50/bin/bin/../../lib/gcc/pic32mx/4.8.3/../../../../pic32mx/lib/micromips\libxcpp.a(xmbtowc.o)
 .debug_info    0x00015a3d       0xbd d:/program files/microchip/xc32/v2.50/bin/bin/../../lib/gcc/pic32mx/4.8.3/../../../../pic32mx/lib/micromips\libxcpp.a(xsetloc.o)
 .debug_info    0x00015afa       0xdd d:/program files/microchip/xc32/v2.50/bin/bin/../../lib/gcc/pic32mx/4.8.3/../../../../pic32mx/lib/micromips\libxcpp.a(xstate.o)
 .debug_info    0x00015bd7       0xc1 d:/program files/microchip/xc32/v2.50/bin/bin/../../lib/gcc/pic32mx/4.8.3/../../../../pic32mx/lib/micromips\libxcpp.a(xstrftim.o)
 .debug_info    0x00015c98       0xc3 d:/program files/microchip/xc32/v2.50/bin/bin/../../lib/gcc/pic32mx/4.8.3/../../../../pic32mx/lib/micromips\libxcpp.a(xtolotab.o)
 .debug_info    0x00015d5b       0xc3 d:/program files/microchip/xc32/v2.50/bin/bin/../../lib/gcc/pic32mx/4.8.3/../../../../pic32mx/lib/micromips\libxcpp.a(xtouptab.o)
 .debug_info    0x00015e1e       0xc5 d:/program files/microchip/xc32/v2.50/bin/bin/../../lib/gcc/pic32mx/4.8.3/../../../../pic32mx/lib/micromips\libxcpp.a(xwcostate.o)
 .debug_info    0x00015ee3       0xc3 d:/program files/microchip/xc32/v2.50/bin/bin/../../lib/gcc/pic32mx/4.8.3/../../../../pic32mx/lib/micromips\libxcpp.a(xwcstate.o)
 .debug_info    0x00015fa6       0xd5 d:/program files/microchip/xc32/v2.50/bin/bin/../../lib/gcc/pic32mx/4.8.3/../../../../pic32mx/lib/micromips\libxcpp.a(xwctomb.o)
 .debug_info    0x0001607b       0xc3 d:/program files/microchip/xc32/v2.50/bin/bin/../../lib/gcc/pic32mx/4.8.3/../../../../pic32mx/lib/micromips\libxcpp.a(xwctrtab.o)
 .debug_info    0x0001613e       0xc3 d:/program files/microchip/xc32/v2.50/bin/bin/../../lib/gcc/pic32mx/4.8.3/../../../../pic32mx/lib/micromips\libxcpp.a(xwctytab.o)
 .debug_info    0x00016201       0xbf d:/program files/microchip/xc32/v2.50/bin/bin/../../lib/gcc/pic32mx/4.8.3/../../../../pic32mx/lib/micromips\libxcpp.a(xwfrprep.o)
 .debug_info    0x000162c0       0xbf d:/program files/microchip/xc32/v2.50/bin/bin/../../lib/gcc/pic32mx/4.8.3/../../../../pic32mx/lib/micromips\libxcpp.a(xwfwprep.o)
 .debug_info    0x0001637f      0xab9 d:/program files/microchip/xc32/v2.50/bin/bin/../../lib/gcc/pic32mx/4.8.3/../../../../pic32mx/lib/micromips\libxcpp.a(syserror.o)
 .debug_info    0x00016e38       0xd2 d:/program files/microchip/xc32/v2.50/bin/bin/../../lib/gcc/pic32mx/4.8.3/../../../../pic32mx/lib/micromips\libxcpp.a(delaop.o)
 .debug_info    0x00016f0a      0x5ed d:/program files/microchip/xc32/v2.50/bin/bin/../../lib/gcc/pic32mx/4.8.3/../../../../pic32mx/lib/micromips\libxcpp.a(ios.o)
 .debug_info    0x000174f7      0x129 d:/program files/microchip/xc32/v2.50/bin/bin/../../lib/gcc/pic32mx/4.8.3/../../../../pic32mx/lib/micromips\libxcpp.a(delop3.o)
 .debug_info    0x00017620       0xbd d:/program files/microchip/xc32/v2.50/bin/bin/../../lib/gcc/pic32mx/4.8.3/../../../../pic32mx/lib/micromips\libxcpp.a(errno.o)
 .debug_info    0x000176dd       0xbb d:/program files/microchip/xc32/v2.50/bin/bin/../../lib/gcc/pic32mx/4.8.3/../../../../pic32mx/lib/micromips\libxcpp.a(getenv.o)
 .debug_info    0x00017798       0xc1 d:/program files/microchip/xc32/v2.50/bin/bin/../../lib/gcc/pic32mx/4.8.3/../../../../pic32mx/lib/micromips\libxcpp.a(localeco.o)
 .debug_info    0x00017859       0xbb d:/program files/microchip/xc32/v2.50/bin/bin/../../lib/gcc/pic32mx/4.8.3/../../../../pic32mx/lib/micromips\libxcpp.a(memcmp.o)
 .debug_info    0x00017914       0xbd d:/program files/microchip/xc32/v2.50/bin/bin/../../lib/gcc/pic32mx/4.8.3/../../../../pic32mx/lib/micromips\libxcpp.a(strcspn.o)
 .debug_info    0x000179d1       0xbf d:/program files/microchip/xc32/v2.50/bin/bin/../../lib/gcc/pic32mx/4.8.3/../../../../pic32mx/lib/micromips\libxcpp.a(strerror.o)
 .debug_info    0x00017a90       0xd4 d:/program files/microchip/xc32/v2.50/bin/bin/../../lib/gcc/pic32mx/4.8.3/../../../../pic32mx/lib/micromips\libxcpp.a(xfindloc.o)
 .debug_info    0x00017b64       0xbf d:/program files/microchip/xc32/v2.50/bin/bin/../../lib/gcc/pic32mx/4.8.3/../../../../pic32mx/lib/micromips\libxcpp.a(xfreeloc.o)
 .debug_info    0x00017c23      0x154 d:/program files/microchip/xc32/v2.50/bin/bin/../../lib/gcc/pic32mx/4.8.3/../../../../pic32mx/lib/micromips\libxcpp.a(xgentime.o)
 .debug_info    0x00017d77       0xbf d:/program files/microchip/xc32/v2.50/bin/bin/../../lib/gcc/pic32mx/4.8.3/../../../../pic32mx/lib/micromips\libxcpp.a(xgettime.o)
 .debug_info    0x00017e36       0xd8 d:/program files/microchip/xc32/v2.50/bin/bin/../../lib/gcc/pic32mx/4.8.3/../../../../pic32mx/lib/micromips\libxcpp.a(xgetzone.o)
 .debug_info    0x00017f0e      0x10c d:/program files/microchip/xc32/v2.50/bin/bin/../../lib/gcc/pic32mx/4.8.3/../../../../pic32mx/lib/micromips\libxcpp.a(xmakeloc.o)
 .debug_info    0x0001801a       0xc0 d:/program files/microchip/xc32/v2.50/bin/bin/../../lib/gcc/pic32mx/4.8.3/../../../../pic32mx/lib/micromips\libxcpp.a(xmakesta.o)
 .debug_info    0x000180da       0xbf d:/program files/microchip/xc32/v2.50/bin/bin/../../lib/gcc/pic32mx/4.8.3/../../../../pic32mx/lib/micromips\libxcpp.a(xmakewct.o)
 .debug_info    0x00018199       0xbf d:/program files/microchip/xc32/v2.50/bin/bin/../../lib/gcc/pic32mx/4.8.3/../../../../pic32mx/lib/micromips\libxcpp.a(xreadloc.o)
 .debug_info    0x00018258       0xc8 d:/program files/microchip/xc32/v2.50/bin/bin/../../lib/gcc/pic32mx/4.8.3/../../../../pic32mx/lib/micromips\libxcpp.a(xstrerro.o)
 .debug_info    0x00018320       0xb9 d:/program files/microchip/xc32/v2.50/bin/bin/../../lib/gcc/pic32mx/4.8.3/../../../../pic32mx/lib/micromips\libxcpp.a(fgets.o)
 .debug_info    0x000183d9       0xb9 d:/program files/microchip/xc32/v2.50/bin/bin/../../lib/gcc/pic32mx/4.8.3/../../../../pic32mx/lib/micromips\libxcpp.a(fopen.o)
 .debug_info    0x00018492       0xb9 d:/program files/microchip/xc32/v2.50/bin/bin/../../lib/gcc/pic32mx/4.8.3/../../../../pic32mx/lib/micromips\libxcpp.a(fputs.o)
 .debug_info    0x0001854b       0xcb d:/program files/microchip/xc32/v2.50/bin/bin/../../lib/gcc/pic32mx/4.8.3/../../../../pic32mx/lib/micromips\libxcpp.a(realloc.o)
 .debug_info    0x00018616       0xbb d:/program files/microchip/xc32/v2.50/bin/bin/../../lib/gcc/pic32mx/4.8.3/../../../../pic32mx/lib/micromips\libxcpp.a(strchr.o)
 .debug_info    0x000186d1       0xbd d:/program files/microchip/xc32/v2.50/bin/bin/../../lib/gcc/pic32mx/4.8.3/../../../../pic32mx/lib/micromips\libxcpp.a(strncmp.o)
 .debug_info    0x0001878e       0xbd d:/program files/microchip/xc32/v2.50/bin/bin/../../lib/gcc/pic32mx/4.8.3/../../../../pic32mx/lib/micromips\libxcpp.a(strrchr.o)
 .debug_info    0x0001884b       0xbb d:/program files/microchip/xc32/v2.50/bin/bin/../../lib/gcc/pic32mx/4.8.3/../../../../pic32mx/lib/micromips\libxcpp.a(strspn.o)
 .debug_info    0x00018906       0xbb d:/program files/microchip/xc32/v2.50/bin/bin/../../lib/gcc/pic32mx/4.8.3/../../../../pic32mx/lib/micromips\libxcpp.a(strtol.o)
 .debug_info    0x000189c1       0xbd d:/program files/microchip/xc32/v2.50/bin/bin/../../lib/gcc/pic32mx/4.8.3/../../../../pic32mx/lib/micromips\libxcpp.a(xfoprep.o)
 .debug_info    0x00018a7e       0xd6 d:/program files/microchip/xc32/v2.50/bin/bin/../../lib/gcc/pic32mx/4.8.3/../../../../pic32mx/lib/micromips\libxcpp.a(xlocterm.o)
 .debug_info    0x00018b54       0xba d:/program files/microchip/xc32/v2.50/bin/bin/../../lib/gcc/pic32mx/4.8.3/../../../../pic32mx/lib/micromips\libxcpp.a(xstol.o)
 .debug_info    0x00018c0e       0xd2 d:/program files/microchip/xc32/v2.50/bin/bin/../../lib/gcc/pic32mx/4.8.3/../../../../pic32mx/lib/micromips\libxcpp.a(xstoul.o)
 .debug_info    0x00018ce0       0xbb d:/program files/microchip/xc32/v2.50/bin/bin/../../lib/gcc/pic32mx/4.8.3/../../../../pic32mx/lib/micromips\libxcpp.a(xfopen.o)
 .debug_info    0x00018d9b      0x131 d:/program files/microchip/xc32/v2.50/bin/bin/../../lib/gcc/pic32mx/4.8.3/../../../../pic32mx/lib/micromips\libpic32.a(sbrk.o)
 .debug_info    0x00018ecc       0xbe d:/program files/microchip/xc32/v2.50/bin/bin/../../lib/gcc/pic32mx/4.8.3/../../../../pic32mx/lib/micromips\libpic32.a(_exit.o)
 .debug_info    0x00018f8a       0xc0 d:/program files/microchip/xc32/v2.50/bin/bin/../../lib/gcc/pic32mx/4.8.3/../../../../pic32mx/lib/micromips\libpic32.a(isatty.o)
 .debug_info    0x0001904a       0xbd d:/program files/microchip/xc32/v2.50/bin/bin/../../lib/gcc/pic32mx/4.8.3/../../../../pic32mx/lib/micromips\libpic32.a(read.o)
 .debug_info    0x00019107       0xbf d:/program files/microchip/xc32/v2.50/bin/bin/../../lib/gcc/pic32mx/4.8.3/../../../../pic32mx/lib/micromips\libpic32.a(write.o)
 .debug_info    0x000191c6       0xbe d:/program files/microchip/xc32/v2.50/bin/bin/../../lib/gcc/pic32mx/4.8.3/../../../../pic32mx/lib/micromips\libpic32.a(lseek.o)
 .debug_info    0x00019284       0xbe d:/program files/microchip/xc32/v2.50/bin/bin/../../lib/gcc/pic32mx/4.8.3/../../../../pic32mx/lib/micromips\libpic32.a(close.o)
 .debug_info    0x00019342       0xbc d:/program files/microchip/xc32/v2.50/bin/bin/../../lib/gcc/pic32mx/4.8.3/../../../../pic32mx/lib/micromips\libpic32.a(open.o)
 .debug_info    0x000193fe       0xc0 d:/program files/microchip/xc32/v2.50/bin/bin/../../lib/gcc/pic32mx/4.8.3/../../../../pic32mx/lib/micromips\libpic32.a(unlink.o)
 .debug_info    0x000194be       0xbc d:/program files/microchip/xc32/v2.50/bin/bin/../../lib/gcc/pic32mx/4.8.3/../../../../pic32mx/lib/micromips\libpic32.a(kill.o)
 .debug_info    0x0001957a       0xc0 d:/program files/microchip/xc32/v2.50/bin/bin/../../lib/gcc/pic32mx/4.8.3/../../../../pic32mx/lib/micromips\libpic32.a(getpid.o)
 .debug_info    0x0001963a       0xbe d:/program files/microchip/xc32/v2.50/bin/bin/../../lib/gcc/pic32mx/4.8.3/../../../../pic32mx/lib/micromips\libpic32.a(rmdir.o)
 .debug_info    0x000196f8       0xc7 d:/program files/microchip/xc32/v2.50/bin/bin/../../lib/gcc/pic32mx/4.8.3/../../../../pic32mx/lib/micromips\libpic32.a(_mon_putc.o)

.debug_abbrev   0x00000000     0x2ae2
 *.elf(.debug_abbrev)
 *(.debug_abbrev)
 .debug_abbrev  0x00000000      0xae2 build/default/production/main.o
 .debug_abbrev  0x00000ae2       0x14 d:/program files/microchip/xc32/v2.50/bin/bin/../../lib/gcc/pic32mx/4.8.3/../../../../pic32mx/lib/micromips\pic32_software_reset-mm.o
 .debug_abbrev  0x00000af6      0x3b3 d:/program files/microchip/xc32/v2.50/bin/bin/../../lib/gcc/pic32mx/4.8.3/micromips\libgcc.a(unwind-sjlj.o)
 .debug_abbrev  0x00000ea9       0x28 d:/program files/microchip/xc32/v2.50/bin/bin/../../lib/gcc/pic32mx/4.8.3/../../../../pic32mx/lib/micromips\libpic32.a(default-bootstrap-exception-handler.o)
 .debug_abbrev  0x00000ed1       0x28 d:/program files/microchip/xc32/v2.50/bin/bin/../../lib/gcc/pic32mx/4.8.3/../../../../pic32mx/lib/micromips\libpic32.a(default-on-reset.o)
 .debug_abbrev  0x00000ef9       0x28 d:/program files/microchip/xc32/v2.50/bin/bin/../../lib/gcc/pic32mx/4.8.3/../../../../pic32mx/lib/micromips\libpic32.a(default-on-bootstrap.o)
 .debug_abbrev  0x00000f21       0x28 d:/program files/microchip/xc32/v2.50/bin/bin/../../lib/gcc/pic32mx/4.8.3/../../../../pic32mx/lib/micromips\libpic32.a(default-general-exception-handler.o)
 .debug_abbrev  0x00000f49       0x28 d:/program files/microchip/xc32/v2.50/bin/bin/../../lib/gcc/pic32mx/4.8.3/../../../../pic32mx/lib/micromips\libpic32.a(defaultinterrupt.o)
 .debug_abbrev  0x00000f71      0x293 d:/program files/microchip/xc32/v2.50/bin/bin/../../lib/gcc/pic32mx/4.8.3/../../../../pic32mx/lib/micromips\libxcpp.a(iostream.o)
 .debug_abbrev  0x00001204       0xd4 d:/program files/microchip/xc32/v2.50/bin/bin/../../lib/gcc/pic32mx/4.8.3/../../../../pic32mx/lib/micromips\libxcpp.a(xthrow.o)
 .debug_abbrev  0x000012d8      0x274 d:/program files/microchip/xc32/v2.50/bin/bin/../../lib/gcc/pic32mx/4.8.3/../../../../pic32mx/lib/micromips\libxcpp.a(wiostrea.o)
 .debug_abbrev  0x0000154c      0x18c d:/program files/microchip/xc32/v2.50/bin/bin/../../lib/gcc/pic32mx/4.8.3/../../../../pic32mx/lib/micromips\libxcpp.a(locale0.o)
 .debug_abbrev  0x000016d8       0x28 d:/program files/microchip/xc32/v2.50/bin/bin/../../lib/gcc/pic32mx/4.8.3/../../../../pic32mx/lib/micromips\libxcpp.a(abort.o)
 .debug_abbrev  0x00001700       0x28 d:/program files/microchip/xc32/v2.50/bin/bin/../../lib/gcc/pic32mx/4.8.3/../../../../pic32mx/lib/micromips\libxcpp.a(abs.o)
 .debug_abbrev  0x00001728       0x28 d:/program files/microchip/xc32/v2.50/bin/bin/../../lib/gcc/pic32mx/4.8.3/../../../../pic32mx/lib/micromips\libxcpp.a(asctime.o)
 .debug_abbrev  0x00001750       0x28 d:/program files/microchip/xc32/v2.50/bin/bin/../../lib/gcc/pic32mx/4.8.3/../../../../pic32mx/lib/micromips\libxcpp.a(exit.o)
 .debug_abbrev  0x00001778       0x49 d:/program files/microchip/xc32/v2.50/bin/bin/../../lib/gcc/pic32mx/4.8.3/../../../../pic32mx/lib/micromips\libxcpp.a(fclose.o)
 .debug_abbrev  0x000017c1       0x28 d:/program files/microchip/xc32/v2.50/bin/bin/../../lib/gcc/pic32mx/4.8.3/../../../../pic32mx/lib/micromips\libxcpp.a(fflush.o)
 .debug_abbrev  0x000017e9       0x28 d:/program files/microchip/xc32/v2.50/bin/bin/../../lib/gcc/pic32mx/4.8.3/../../../../pic32mx/lib/micromips\libxcpp.a(fgetc.o)
 .debug_abbrev  0x00001811       0x28 d:/program files/microchip/xc32/v2.50/bin/bin/../../lib/gcc/pic32mx/4.8.3/../../../../pic32mx/lib/micromips\libxcpp.a(fgetpos.o)
 .debug_abbrev  0x00001839       0x28 d:/program files/microchip/xc32/v2.50/bin/bin/../../lib/gcc/pic32mx/4.8.3/../../../../pic32mx/lib/micromips\libxcpp.a(fgetwc.o)
 .debug_abbrev  0x00001861       0x28 d:/program files/microchip/xc32/v2.50/bin/bin/../../lib/gcc/pic32mx/4.8.3/../../../../pic32mx/lib/micromips\libxcpp.a(fputc.o)
 .debug_abbrev  0x00001889       0x28 d:/program files/microchip/xc32/v2.50/bin/bin/../../lib/gcc/pic32mx/4.8.3/../../../../pic32mx/lib/micromips\libxcpp.a(fputwc.o)
 .debug_abbrev  0x000018b1       0x28 d:/program files/microchip/xc32/v2.50/bin/bin/../../lib/gcc/pic32mx/4.8.3/../../../../pic32mx/lib/micromips\libxcpp.a(free.o)
 .debug_abbrev  0x000018d9       0x28 d:/program files/microchip/xc32/v2.50/bin/bin/../../lib/gcc/pic32mx/4.8.3/../../../../pic32mx/lib/micromips\libxcpp.a(fseek.o)
 .debug_abbrev  0x00001901       0x28 d:/program files/microchip/xc32/v2.50/bin/bin/../../lib/gcc/pic32mx/4.8.3/../../../../pic32mx/lib/micromips\libxcpp.a(fsetpos.o)
 .debug_abbrev  0x00001929       0x28 d:/program files/microchip/xc32/v2.50/bin/bin/../../lib/gcc/pic32mx/4.8.3/../../../../pic32mx/lib/micromips\libxcpp.a(fwrite.o)
 .debug_abbrev  0x00001951       0x35 d:/program files/microchip/xc32/v2.50/bin/bin/../../lib/gcc/pic32mx/4.8.3/../../../../pic32mx/lib/micromips\libxcpp.a(malloc.o)
 .debug_abbrev  0x00001986       0x28 d:/program files/microchip/xc32/v2.50/bin/bin/../../lib/gcc/pic32mx/4.8.3/../../../../pic32mx/lib/micromips\libxcpp.a(memchr.o)
 .debug_abbrev  0x000019ae       0x28 d:/program files/microchip/xc32/v2.50/bin/bin/../../lib/gcc/pic32mx/4.8.3/../../../../pic32mx/lib/micromips\libxcpp.a(memmove.o)
 .debug_abbrev  0x000019d6       0x28 d:/program files/microchip/xc32/v2.50/bin/bin/../../lib/gcc/pic32mx/4.8.3/../../../../pic32mx/lib/micromips\libxcpp.a(raise.o)
 .debug_abbrev  0x000019fe       0x28 d:/program files/microchip/xc32/v2.50/bin/bin/../../lib/gcc/pic32mx/4.8.3/../../../../pic32mx/lib/micromips\libxcpp.a(remove.o)
 .debug_abbrev  0x00001a26       0x68 d:/program files/microchip/xc32/v2.50/bin/bin/../../lib/gcc/pic32mx/4.8.3/../../../../pic32mx/lib/micromips\libxcpp.a(setlocal.o)
 .debug_abbrev  0x00001a8e       0x28 d:/program files/microchip/xc32/v2.50/bin/bin/../../lib/gcc/pic32mx/4.8.3/../../../../pic32mx/lib/micromips\libxcpp.a(setvbuf.o)
 .debug_abbrev  0x00001ab6       0x28 d:/program files/microchip/xc32/v2.50/bin/bin/../../lib/gcc/pic32mx/4.8.3/../../../../pic32mx/lib/micromips\libxcpp.a(strcpy.o)
 .debug_abbrev  0x00001ade       0x28 d:/program files/microchip/xc32/v2.50/bin/bin/../../lib/gcc/pic32mx/4.8.3/../../../../pic32mx/lib/micromips\libxcpp.a(ungetc.o)
 .debug_abbrev  0x00001b06       0x28 d:/program files/microchip/xc32/v2.50/bin/bin/../../lib/gcc/pic32mx/4.8.3/../../../../pic32mx/lib/micromips\libxcpp.a(ungetwc.o)
 .debug_abbrev  0x00001b2e       0x28 d:/program files/microchip/xc32/v2.50/bin/bin/../../lib/gcc/pic32mx/4.8.3/../../../../pic32mx/lib/micromips\libxcpp.a(wmemcpy.o)
 .debug_abbrev  0x00001b56       0x28 d:/program files/microchip/xc32/v2.50/bin/bin/../../lib/gcc/pic32mx/4.8.3/../../../../pic32mx/lib/micromips\libxcpp.a(xatexit.o)
 .debug_abbrev  0x00001b7e       0x28 d:/program files/microchip/xc32/v2.50/bin/bin/../../lib/gcc/pic32mx/4.8.3/../../../../pic32mx/lib/micromips\libxcpp.a(xcostate.o)
 .debug_abbrev  0x00001ba6       0x28 d:/program files/microchip/xc32/v2.50/bin/bin/../../lib/gcc/pic32mx/4.8.3/../../../../pic32mx/lib/micromips\libxcpp.a(xctype.o)
 .debug_abbrev  0x00001bce       0x28 d:/program files/microchip/xc32/v2.50/bin/bin/../../lib/gcc/pic32mx/4.8.3/../../../../pic32mx/lib/micromips\libxcpp.a(xdefloc.o)
 .debug_abbrev  0x00001bf6       0x28 d:/program files/microchip/xc32/v2.50/bin/bin/../../lib/gcc/pic32mx/4.8.3/../../../../pic32mx/lib/micromips\libxcpp.a(xexit.o)
 .debug_abbrev  0x00001c1e       0x47 d:/program files/microchip/xc32/v2.50/bin/bin/../../lib/gcc/pic32mx/4.8.3/../../../../pic32mx/lib/micromips\libxcpp.a(xfgpos.o)
 .debug_abbrev  0x00001c65       0x28 d:/program files/microchip/xc32/v2.50/bin/bin/../../lib/gcc/pic32mx/4.8.3/../../../../pic32mx/lib/micromips\libxcpp.a(xfofind.o)
 .debug_abbrev  0x00001c8d       0x28 d:/program files/microchip/xc32/v2.50/bin/bin/../../lib/gcc/pic32mx/4.8.3/../../../../pic32mx/lib/micromips\libxcpp.a(xfrprep.o)
 .debug_abbrev  0x00001cb5       0x28 d:/program files/microchip/xc32/v2.50/bin/bin/../../lib/gcc/pic32mx/4.8.3/../../../../pic32mx/lib/micromips\libxcpp.a(xfspos.o)
 .debug_abbrev  0x00001cdd       0x28 d:/program files/microchip/xc32/v2.50/bin/bin/../../lib/gcc/pic32mx/4.8.3/../../../../pic32mx/lib/micromips\libxcpp.a(xfwprep.o)
 .debug_abbrev  0x00001d05       0x59 d:/program files/microchip/xc32/v2.50/bin/bin/../../lib/gcc/pic32mx/4.8.3/../../../../pic32mx/lib/micromips\libxcpp.a(xgetglob.o)
 .debug_abbrev  0x00001d5e       0x49 d:/program files/microchip/xc32/v2.50/bin/bin/../../lib/gcc/pic32mx/4.8.3/../../../../pic32mx/lib/micromips\libxcpp.a(xgetloc.o)
 .debug_abbrev  0x00001da7       0x28 d:/program files/microchip/xc32/v2.50/bin/bin/../../lib/gcc/pic32mx/4.8.3/../../../../pic32mx/lib/micromips\libxcpp.a(xgetmem.o)
 .debug_abbrev  0x00001dcf       0x3e d:/program files/microchip/xc32/v2.50/bin/bin/../../lib/gcc/pic32mx/4.8.3/../../../../pic32mx/lib/micromips\libxcpp.a(xmbtowc.o)
 .debug_abbrev  0x00001e0d       0x28 d:/program files/microchip/xc32/v2.50/bin/bin/../../lib/gcc/pic32mx/4.8.3/../../../../pic32mx/lib/micromips\libxcpp.a(xsetloc.o)
 .debug_abbrev  0x00001e35       0x28 d:/program files/microchip/xc32/v2.50/bin/bin/../../lib/gcc/pic32mx/4.8.3/../../../../pic32mx/lib/micromips\libxcpp.a(xstate.o)
 .debug_abbrev  0x00001e5d       0x28 d:/program files/microchip/xc32/v2.50/bin/bin/../../lib/gcc/pic32mx/4.8.3/../../../../pic32mx/lib/micromips\libxcpp.a(xstrftim.o)
 .debug_abbrev  0x00001e85       0x28 d:/program files/microchip/xc32/v2.50/bin/bin/../../lib/gcc/pic32mx/4.8.3/../../../../pic32mx/lib/micromips\libxcpp.a(xtolotab.o)
 .debug_abbrev  0x00001ead       0x28 d:/program files/microchip/xc32/v2.50/bin/bin/../../lib/gcc/pic32mx/4.8.3/../../../../pic32mx/lib/micromips\libxcpp.a(xtouptab.o)
 .debug_abbrev  0x00001ed5       0x28 d:/program files/microchip/xc32/v2.50/bin/bin/../../lib/gcc/pic32mx/4.8.3/../../../../pic32mx/lib/micromips\libxcpp.a(xwcostate.o)
 .debug_abbrev  0x00001efd       0x28 d:/program files/microchip/xc32/v2.50/bin/bin/../../lib/gcc/pic32mx/4.8.3/../../../../pic32mx/lib/micromips\libxcpp.a(xwcstate.o)
 .debug_abbrev  0x00001f25       0x28 d:/program files/microchip/xc32/v2.50/bin/bin/../../lib/gcc/pic32mx/4.8.3/../../../../pic32mx/lib/micromips\libxcpp.a(xwctomb.o)
 .debug_abbrev  0x00001f4d       0x28 d:/program files/microchip/xc32/v2.50/bin/bin/../../lib/gcc/pic32mx/4.8.3/../../../../pic32mx/lib/micromips\libxcpp.a(xwctrtab.o)
 .debug_abbrev  0x00001f75       0x28 d:/program files/microchip/xc32/v2.50/bin/bin/../../lib/gcc/pic32mx/4.8.3/../../../../pic32mx/lib/micromips\libxcpp.a(xwctytab.o)
 .debug_abbrev  0x00001f9d       0x28 d:/program files/microchip/xc32/v2.50/bin/bin/../../lib/gcc/pic32mx/4.8.3/../../../../pic32mx/lib/micromips\libxcpp.a(xwfrprep.o)
 .debug_abbrev  0x00001fc5       0x28 d:/program files/microchip/xc32/v2.50/bin/bin/../../lib/gcc/pic32mx/4.8.3/../../../../pic32mx/lib/micromips\libxcpp.a(xwfwprep.o)
 .debug_abbrev  0x00001fed      0x19a d:/program files/microchip/xc32/v2.50/bin/bin/../../lib/gcc/pic32mx/4.8.3/../../../../pic32mx/lib/micromips\libxcpp.a(syserror.o)
 .debug_abbrev  0x00002187       0x2b d:/program files/microchip/xc32/v2.50/bin/bin/../../lib/gcc/pic32mx/4.8.3/../../../../pic32mx/lib/micromips\libxcpp.a(delaop.o)
 .debug_abbrev  0x000021b2      0x174 d:/program files/microchip/xc32/v2.50/bin/bin/../../lib/gcc/pic32mx/4.8.3/../../../../pic32mx/lib/micromips\libxcpp.a(ios.o)
 .debug_abbrev  0x00002326       0x4b d:/program files/microchip/xc32/v2.50/bin/bin/../../lib/gcc/pic32mx/4.8.3/../../../../pic32mx/lib/micromips\libxcpp.a(delop3.o)
 .debug_abbrev  0x00002371       0x28 d:/program files/microchip/xc32/v2.50/bin/bin/../../lib/gcc/pic32mx/4.8.3/../../../../pic32mx/lib/micromips\libxcpp.a(errno.o)
 .debug_abbrev  0x00002399       0x28 d:/program files/microchip/xc32/v2.50/bin/bin/../../lib/gcc/pic32mx/4.8.3/../../../../pic32mx/lib/micromips\libxcpp.a(getenv.o)
 .debug_abbrev  0x000023c1       0x28 d:/program files/microchip/xc32/v2.50/bin/bin/../../lib/gcc/pic32mx/4.8.3/../../../../pic32mx/lib/micromips\libxcpp.a(localeco.o)
 .debug_abbrev  0x000023e9       0x28 d:/program files/microchip/xc32/v2.50/bin/bin/../../lib/gcc/pic32mx/4.8.3/../../../../pic32mx/lib/micromips\libxcpp.a(memcmp.o)
 .debug_abbrev  0x00002411       0x28 d:/program files/microchip/xc32/v2.50/bin/bin/../../lib/gcc/pic32mx/4.8.3/../../../../pic32mx/lib/micromips\libxcpp.a(strcspn.o)
 .debug_abbrev  0x00002439       0x28 d:/program files/microchip/xc32/v2.50/bin/bin/../../lib/gcc/pic32mx/4.8.3/../../../../pic32mx/lib/micromips\libxcpp.a(strerror.o)
 .debug_abbrev  0x00002461       0x28 d:/program files/microchip/xc32/v2.50/bin/bin/../../lib/gcc/pic32mx/4.8.3/../../../../pic32mx/lib/micromips\libxcpp.a(xfindloc.o)
 .debug_abbrev  0x00002489       0x28 d:/program files/microchip/xc32/v2.50/bin/bin/../../lib/gcc/pic32mx/4.8.3/../../../../pic32mx/lib/micromips\libxcpp.a(xfreeloc.o)
 .debug_abbrev  0x000024b1       0x6d d:/program files/microchip/xc32/v2.50/bin/bin/../../lib/gcc/pic32mx/4.8.3/../../../../pic32mx/lib/micromips\libxcpp.a(xgentime.o)
 .debug_abbrev  0x0000251e       0x28 d:/program files/microchip/xc32/v2.50/bin/bin/../../lib/gcc/pic32mx/4.8.3/../../../../pic32mx/lib/micromips\libxcpp.a(xgettime.o)
 .debug_abbrev  0x00002546       0x35 d:/program files/microchip/xc32/v2.50/bin/bin/../../lib/gcc/pic32mx/4.8.3/../../../../pic32mx/lib/micromips\libxcpp.a(xgetzone.o)
 .debug_abbrev  0x0000257b       0x49 d:/program files/microchip/xc32/v2.50/bin/bin/../../lib/gcc/pic32mx/4.8.3/../../../../pic32mx/lib/micromips\libxcpp.a(xmakeloc.o)
 .debug_abbrev  0x000025c4       0x28 d:/program files/microchip/xc32/v2.50/bin/bin/../../lib/gcc/pic32mx/4.8.3/../../../../pic32mx/lib/micromips\libxcpp.a(xmakesta.o)
 .debug_abbrev  0x000025ec       0x28 d:/program files/microchip/xc32/v2.50/bin/bin/../../lib/gcc/pic32mx/4.8.3/../../../../pic32mx/lib/micromips\libxcpp.a(xmakewct.o)
 .debug_abbrev  0x00002614       0x28 d:/program files/microchip/xc32/v2.50/bin/bin/../../lib/gcc/pic32mx/4.8.3/../../../../pic32mx/lib/micromips\libxcpp.a(xreadloc.o)
 .debug_abbrev  0x0000263c       0x35 d:/program files/microchip/xc32/v2.50/bin/bin/../../lib/gcc/pic32mx/4.8.3/../../../../pic32mx/lib/micromips\libxcpp.a(xstrerro.o)
 .debug_abbrev  0x00002671       0x28 d:/program files/microchip/xc32/v2.50/bin/bin/../../lib/gcc/pic32mx/4.8.3/../../../../pic32mx/lib/micromips\libxcpp.a(fgets.o)
 .debug_abbrev  0x00002699       0x28 d:/program files/microchip/xc32/v2.50/bin/bin/../../lib/gcc/pic32mx/4.8.3/../../../../pic32mx/lib/micromips\libxcpp.a(fopen.o)
 .debug_abbrev  0x000026c1       0x28 d:/program files/microchip/xc32/v2.50/bin/bin/../../lib/gcc/pic32mx/4.8.3/../../../../pic32mx/lib/micromips\libxcpp.a(fputs.o)
 .debug_abbrev  0x000026e9       0x35 d:/program files/microchip/xc32/v2.50/bin/bin/../../lib/gcc/pic32mx/4.8.3/../../../../pic32mx/lib/micromips\libxcpp.a(realloc.o)
 .debug_abbrev  0x0000271e       0x28 d:/program files/microchip/xc32/v2.50/bin/bin/../../lib/gcc/pic32mx/4.8.3/../../../../pic32mx/lib/micromips\libxcpp.a(strchr.o)
 .debug_abbrev  0x00002746       0x28 d:/program files/microchip/xc32/v2.50/bin/bin/../../lib/gcc/pic32mx/4.8.3/../../../../pic32mx/lib/micromips\libxcpp.a(strncmp.o)
 .debug_abbrev  0x0000276e       0x28 d:/program files/microchip/xc32/v2.50/bin/bin/../../lib/gcc/pic32mx/4.8.3/../../../../pic32mx/lib/micromips\libxcpp.a(strrchr.o)
 .debug_abbrev  0x00002796       0x28 d:/program files/microchip/xc32/v2.50/bin/bin/../../lib/gcc/pic32mx/4.8.3/../../../../pic32mx/lib/micromips\libxcpp.a(strspn.o)
 .debug_abbrev  0x000027be       0x28 d:/program files/microchip/xc32/v2.50/bin/bin/../../lib/gcc/pic32mx/4.8.3/../../../../pic32mx/lib/micromips\libxcpp.a(strtol.o)
 .debug_abbrev  0x000027e6       0x28 d:/program files/microchip/xc32/v2.50/bin/bin/../../lib/gcc/pic32mx/4.8.3/../../../../pic32mx/lib/micromips\libxcpp.a(xfoprep.o)
 .debug_abbrev  0x0000280e       0x28 d:/program files/microchip/xc32/v2.50/bin/bin/../../lib/gcc/pic32mx/4.8.3/../../../../pic32mx/lib/micromips\libxcpp.a(xlocterm.o)
 .debug_abbrev  0x00002836       0x28 d:/program files/microchip/xc32/v2.50/bin/bin/../../lib/gcc/pic32mx/4.8.3/../../../../pic32mx/lib/micromips\libxcpp.a(xstol.o)
 .debug_abbrev  0x0000285e       0x28 d:/program files/microchip/xc32/v2.50/bin/bin/../../lib/gcc/pic32mx/4.8.3/../../../../pic32mx/lib/micromips\libxcpp.a(xstoul.o)
 .debug_abbrev  0x00002886       0x28 d:/program files/microchip/xc32/v2.50/bin/bin/../../lib/gcc/pic32mx/4.8.3/../../../../pic32mx/lib/micromips\libxcpp.a(xfopen.o)
 .debug_abbrev  0x000028ae       0x54 d:/program files/microchip/xc32/v2.50/bin/bin/../../lib/gcc/pic32mx/4.8.3/../../../../pic32mx/lib/micromips\libpic32.a(sbrk.o)
 .debug_abbrev  0x00002902       0x28 d:/program files/microchip/xc32/v2.50/bin/bin/../../lib/gcc/pic32mx/4.8.3/../../../../pic32mx/lib/micromips\libpic32.a(_exit.o)
 .debug_abbrev  0x0000292a       0x28 d:/program files/microchip/xc32/v2.50/bin/bin/../../lib/gcc/pic32mx/4.8.3/../../../../pic32mx/lib/micromips\libpic32.a(isatty.o)
 .debug_abbrev  0x00002952       0x28 d:/program files/microchip/xc32/v2.50/bin/bin/../../lib/gcc/pic32mx/4.8.3/../../../../pic32mx/lib/micromips\libpic32.a(read.o)
 .debug_abbrev  0x0000297a       0x28 d:/program files/microchip/xc32/v2.50/bin/bin/../../lib/gcc/pic32mx/4.8.3/../../../../pic32mx/lib/micromips\libpic32.a(write.o)
 .debug_abbrev  0x000029a2       0x28 d:/program files/microchip/xc32/v2.50/bin/bin/../../lib/gcc/pic32mx/4.8.3/../../../../pic32mx/lib/micromips\libpic32.a(lseek.o)
 .debug_abbrev  0x000029ca       0x28 d:/program files/microchip/xc32/v2.50/bin/bin/../../lib/gcc/pic32mx/4.8.3/../../../../pic32mx/lib/micromips\libpic32.a(close.o)
 .debug_abbrev  0x000029f2       0x28 d:/program files/microchip/xc32/v2.50/bin/bin/../../lib/gcc/pic32mx/4.8.3/../../../../pic32mx/lib/micromips\libpic32.a(open.o)
 .debug_abbrev  0x00002a1a       0x28 d:/program files/microchip/xc32/v2.50/bin/bin/../../lib/gcc/pic32mx/4.8.3/../../../../pic32mx/lib/micromips\libpic32.a(unlink.o)
 .debug_abbrev  0x00002a42       0x28 d:/program files/microchip/xc32/v2.50/bin/bin/../../lib/gcc/pic32mx/4.8.3/../../../../pic32mx/lib/micromips\libpic32.a(kill.o)
 .debug_abbrev  0x00002a6a       0x28 d:/program files/microchip/xc32/v2.50/bin/bin/../../lib/gcc/pic32mx/4.8.3/../../../../pic32mx/lib/micromips\libpic32.a(getpid.o)
 .debug_abbrev  0x00002a92       0x28 d:/program files/microchip/xc32/v2.50/bin/bin/../../lib/gcc/pic32mx/4.8.3/../../../../pic32mx/lib/micromips\libpic32.a(rmdir.o)
 .debug_abbrev  0x00002aba       0x28 d:/program files/microchip/xc32/v2.50/bin/bin/../../lib/gcc/pic32mx/4.8.3/../../../../pic32mx/lib/micromips\libpic32.a(_mon_putc.o)

.debug_line     0x00000000     0x4f38
 *.elf(.debug_line)
 *(.debug_line)
 .debug_line    0x00000000      0xba9 build/default/production/main.o
 .debug_line    0x00000ba9       0xb6 d:/program files/microchip/xc32/v2.50/bin/bin/../../lib/gcc/pic32mx/4.8.3/../../../../pic32mx/lib/micromips\pic32_software_reset-mm.o
 .debug_line    0x00000c5f      0x231 d:/program files/microchip/xc32/v2.50/bin/bin/../../lib/gcc/pic32mx/4.8.3/micromips\libgcc.a(unwind-sjlj.o)
 .debug_line    0x00000e90       0xa6 d:/program files/microchip/xc32/v2.50/bin/bin/../../lib/gcc/pic32mx/4.8.3/../../../../pic32mx/lib/micromips\libpic32.a(default-bootstrap-exception-handler.o)
 .debug_line    0x00000f36       0x93 d:/program files/microchip/xc32/v2.50/bin/bin/../../lib/gcc/pic32mx/4.8.3/../../../../pic32mx/lib/micromips\libpic32.a(default-on-reset.o)
 .debug_line    0x00000fc9       0x97 d:/program files/microchip/xc32/v2.50/bin/bin/../../lib/gcc/pic32mx/4.8.3/../../../../pic32mx/lib/micromips\libpic32.a(default-on-bootstrap.o)
 .debug_line    0x00001060       0xa4 d:/program files/microchip/xc32/v2.50/bin/bin/../../lib/gcc/pic32mx/4.8.3/../../../../pic32mx/lib/micromips\libpic32.a(default-general-exception-handler.o)
 .debug_line    0x00001104       0xa5 d:/program files/microchip/xc32/v2.50/bin/bin/../../lib/gcc/pic32mx/4.8.3/../../../../pic32mx/lib/micromips\libpic32.a(defaultinterrupt.o)
 .debug_line    0x000011a9      0x228 d:/program files/microchip/xc32/v2.50/bin/bin/../../lib/gcc/pic32mx/4.8.3/../../../../pic32mx/lib/micromips\libxcpp.a(iostream.o)
 .debug_line    0x000013d1      0x138 d:/program files/microchip/xc32/v2.50/bin/bin/../../lib/gcc/pic32mx/4.8.3/../../../../pic32mx/lib/micromips\libxcpp.a(xthrow.o)
 .debug_line    0x00001509      0x228 d:/program files/microchip/xc32/v2.50/bin/bin/../../lib/gcc/pic32mx/4.8.3/../../../../pic32mx/lib/micromips\libxcpp.a(wiostrea.o)
 .debug_line    0x00001731      0x1bd d:/program files/microchip/xc32/v2.50/bin/bin/../../lib/gcc/pic32mx/4.8.3/../../../../pic32mx/lib/micromips\libxcpp.a(locale0.o)
 .debug_line    0x000018ee       0x84 d:/program files/microchip/xc32/v2.50/bin/bin/../../lib/gcc/pic32mx/4.8.3/../../../../pic32mx/lib/micromips\libxcpp.a(abort.o)
 .debug_line    0x00001972       0x82 d:/program files/microchip/xc32/v2.50/bin/bin/../../lib/gcc/pic32mx/4.8.3/../../../../pic32mx/lib/micromips\libxcpp.a(abs.o)
 .debug_line    0x000019f4       0x86 d:/program files/microchip/xc32/v2.50/bin/bin/../../lib/gcc/pic32mx/4.8.3/../../../../pic32mx/lib/micromips\libxcpp.a(asctime.o)
 .debug_line    0x00001a7a       0x83 d:/program files/microchip/xc32/v2.50/bin/bin/../../lib/gcc/pic32mx/4.8.3/../../../../pic32mx/lib/micromips\libxcpp.a(exit.o)
 .debug_line    0x00001afd       0x85 d:/program files/microchip/xc32/v2.50/bin/bin/../../lib/gcc/pic32mx/4.8.3/../../../../pic32mx/lib/micromips\libxcpp.a(fclose.o)
 .debug_line    0x00001b82       0x85 d:/program files/microchip/xc32/v2.50/bin/bin/../../lib/gcc/pic32mx/4.8.3/../../../../pic32mx/lib/micromips\libxcpp.a(fflush.o)
 .debug_line    0x00001c07       0x84 d:/program files/microchip/xc32/v2.50/bin/bin/../../lib/gcc/pic32mx/4.8.3/../../../../pic32mx/lib/micromips\libxcpp.a(fgetc.o)
 .debug_line    0x00001c8b       0x86 d:/program files/microchip/xc32/v2.50/bin/bin/../../lib/gcc/pic32mx/4.8.3/../../../../pic32mx/lib/micromips\libxcpp.a(fgetpos.o)
 .debug_line    0x00001d11       0x85 d:/program files/microchip/xc32/v2.50/bin/bin/../../lib/gcc/pic32mx/4.8.3/../../../../pic32mx/lib/micromips\libxcpp.a(fgetwc.o)
 .debug_line    0x00001d96       0x84 d:/program files/microchip/xc32/v2.50/bin/bin/../../lib/gcc/pic32mx/4.8.3/../../../../pic32mx/lib/micromips\libxcpp.a(fputc.o)
 .debug_line    0x00001e1a       0x85 d:/program files/microchip/xc32/v2.50/bin/bin/../../lib/gcc/pic32mx/4.8.3/../../../../pic32mx/lib/micromips\libxcpp.a(fputwc.o)
 .debug_line    0x00001e9f       0x83 d:/program files/microchip/xc32/v2.50/bin/bin/../../lib/gcc/pic32mx/4.8.3/../../../../pic32mx/lib/micromips\libxcpp.a(free.o)
 .debug_line    0x00001f22       0x84 d:/program files/microchip/xc32/v2.50/bin/bin/../../lib/gcc/pic32mx/4.8.3/../../../../pic32mx/lib/micromips\libxcpp.a(fseek.o)
 .debug_line    0x00001fa6       0x86 d:/program files/microchip/xc32/v2.50/bin/bin/../../lib/gcc/pic32mx/4.8.3/../../../../pic32mx/lib/micromips\libxcpp.a(fsetpos.o)
 .debug_line    0x0000202c       0x85 d:/program files/microchip/xc32/v2.50/bin/bin/../../lib/gcc/pic32mx/4.8.3/../../../../pic32mx/lib/micromips\libxcpp.a(fwrite.o)
 .debug_line    0x000020b1       0x85 d:/program files/microchip/xc32/v2.50/bin/bin/../../lib/gcc/pic32mx/4.8.3/../../../../pic32mx/lib/micromips\libxcpp.a(malloc.o)
 .debug_line    0x00002136       0x85 d:/program files/microchip/xc32/v2.50/bin/bin/../../lib/gcc/pic32mx/4.8.3/../../../../pic32mx/lib/micromips\libxcpp.a(memchr.o)
 .debug_line    0x000021bb       0x86 d:/program files/microchip/xc32/v2.50/bin/bin/../../lib/gcc/pic32mx/4.8.3/../../../../pic32mx/lib/micromips\libxcpp.a(memmove.o)
 .debug_line    0x00002241       0x84 d:/program files/microchip/xc32/v2.50/bin/bin/../../lib/gcc/pic32mx/4.8.3/../../../../pic32mx/lib/micromips\libxcpp.a(raise.o)
 .debug_line    0x000022c5       0x85 d:/program files/microchip/xc32/v2.50/bin/bin/../../lib/gcc/pic32mx/4.8.3/../../../../pic32mx/lib/micromips\libxcpp.a(remove.o)
 .debug_line    0x0000234a       0x87 d:/program files/microchip/xc32/v2.50/bin/bin/../../lib/gcc/pic32mx/4.8.3/../../../../pic32mx/lib/micromips\libxcpp.a(setlocal.o)
 .debug_line    0x000023d1       0x86 d:/program files/microchip/xc32/v2.50/bin/bin/../../lib/gcc/pic32mx/4.8.3/../../../../pic32mx/lib/micromips\libxcpp.a(setvbuf.o)
 .debug_line    0x00002457       0x85 d:/program files/microchip/xc32/v2.50/bin/bin/../../lib/gcc/pic32mx/4.8.3/../../../../pic32mx/lib/micromips\libxcpp.a(strcpy.o)
 .debug_line    0x000024dc       0x85 d:/program files/microchip/xc32/v2.50/bin/bin/../../lib/gcc/pic32mx/4.8.3/../../../../pic32mx/lib/micromips\libxcpp.a(ungetc.o)
 .debug_line    0x00002561       0x86 d:/program files/microchip/xc32/v2.50/bin/bin/../../lib/gcc/pic32mx/4.8.3/../../../../pic32mx/lib/micromips\libxcpp.a(ungetwc.o)
 .debug_line    0x000025e7       0x86 d:/program files/microchip/xc32/v2.50/bin/bin/../../lib/gcc/pic32mx/4.8.3/../../../../pic32mx/lib/micromips\libxcpp.a(wmemcpy.o)
 .debug_line    0x0000266d       0x86 d:/program files/microchip/xc32/v2.50/bin/bin/../../lib/gcc/pic32mx/4.8.3/../../../../pic32mx/lib/micromips\libxcpp.a(xatexit.o)
 .debug_line    0x000026f3       0x87 d:/program files/microchip/xc32/v2.50/bin/bin/../../lib/gcc/pic32mx/4.8.3/../../../../pic32mx/lib/micromips\libxcpp.a(xcostate.o)
 .debug_line    0x0000277a       0x85 d:/program files/microchip/xc32/v2.50/bin/bin/../../lib/gcc/pic32mx/4.8.3/../../../../pic32mx/lib/micromips\libxcpp.a(xctype.o)
 .debug_line    0x000027ff       0x86 d:/program files/microchip/xc32/v2.50/bin/bin/../../lib/gcc/pic32mx/4.8.3/../../../../pic32mx/lib/micromips\libxcpp.a(xdefloc.o)
 .debug_line    0x00002885       0x84 d:/program files/microchip/xc32/v2.50/bin/bin/../../lib/gcc/pic32mx/4.8.3/../../../../pic32mx/lib/micromips\libxcpp.a(xexit.o)
 .debug_line    0x00002909       0x85 d:/program files/microchip/xc32/v2.50/bin/bin/../../lib/gcc/pic32mx/4.8.3/../../../../pic32mx/lib/micromips\libxcpp.a(xfgpos.o)
 .debug_line    0x0000298e        0x0 d:/program files/microchip/xc32/v2.50/bin/bin/../../lib/gcc/pic32mx/4.8.3/../../../../pic32mx/lib/micromips\libxcpp.a(xfiles.o)
 .debug_line    0x0000298e       0x86 d:/program files/microchip/xc32/v2.50/bin/bin/../../lib/gcc/pic32mx/4.8.3/../../../../pic32mx/lib/micromips\libxcpp.a(xfofind.o)
 .debug_line    0x00002a14       0x86 d:/program files/microchip/xc32/v2.50/bin/bin/../../lib/gcc/pic32mx/4.8.3/../../../../pic32mx/lib/micromips\libxcpp.a(xfrprep.o)
 .debug_line    0x00002a9a       0x85 d:/program files/microchip/xc32/v2.50/bin/bin/../../lib/gcc/pic32mx/4.8.3/../../../../pic32mx/lib/micromips\libxcpp.a(xfspos.o)
 .debug_line    0x00002b1f       0x86 d:/program files/microchip/xc32/v2.50/bin/bin/../../lib/gcc/pic32mx/4.8.3/../../../../pic32mx/lib/micromips\libxcpp.a(xfwprep.o)
 .debug_line    0x00002ba5       0x87 d:/program files/microchip/xc32/v2.50/bin/bin/../../lib/gcc/pic32mx/4.8.3/../../../../pic32mx/lib/micromips\libxcpp.a(xgetglob.o)
 .debug_line    0x00002c2c       0x86 d:/program files/microchip/xc32/v2.50/bin/bin/../../lib/gcc/pic32mx/4.8.3/../../../../pic32mx/lib/micromips\libxcpp.a(xgetloc.o)
 .debug_line    0x00002cb2       0x86 d:/program files/microchip/xc32/v2.50/bin/bin/../../lib/gcc/pic32mx/4.8.3/../../../../pic32mx/lib/micromips\libxcpp.a(xgetmem.o)
 .debug_line    0x00002d38       0x86 d:/program files/microchip/xc32/v2.50/bin/bin/../../lib/gcc/pic32mx/4.8.3/../../../../pic32mx/lib/micromips\libxcpp.a(xmbtowc.o)
 .debug_line    0x00002dbe       0x86 d:/program files/microchip/xc32/v2.50/bin/bin/../../lib/gcc/pic32mx/4.8.3/../../../../pic32mx/lib/micromips\libxcpp.a(xsetloc.o)
 .debug_line    0x00002e44       0x85 d:/program files/microchip/xc32/v2.50/bin/bin/../../lib/gcc/pic32mx/4.8.3/../../../../pic32mx/lib/micromips\libxcpp.a(xstate.o)
 .debug_line    0x00002ec9       0x87 d:/program files/microchip/xc32/v2.50/bin/bin/../../lib/gcc/pic32mx/4.8.3/../../../../pic32mx/lib/micromips\libxcpp.a(xstrftim.o)
 .debug_line    0x00002f50       0x87 d:/program files/microchip/xc32/v2.50/bin/bin/../../lib/gcc/pic32mx/4.8.3/../../../../pic32mx/lib/micromips\libxcpp.a(xtolotab.o)
 .debug_line    0x00002fd7       0x87 d:/program files/microchip/xc32/v2.50/bin/bin/../../lib/gcc/pic32mx/4.8.3/../../../../pic32mx/lib/micromips\libxcpp.a(xtouptab.o)
 .debug_line    0x0000305e       0x88 d:/program files/microchip/xc32/v2.50/bin/bin/../../lib/gcc/pic32mx/4.8.3/../../../../pic32mx/lib/micromips\libxcpp.a(xwcostate.o)
 .debug_line    0x000030e6       0x87 d:/program files/microchip/xc32/v2.50/bin/bin/../../lib/gcc/pic32mx/4.8.3/../../../../pic32mx/lib/micromips\libxcpp.a(xwcstate.o)
 .debug_line    0x0000316d       0x86 d:/program files/microchip/xc32/v2.50/bin/bin/../../lib/gcc/pic32mx/4.8.3/../../../../pic32mx/lib/micromips\libxcpp.a(xwctomb.o)
 .debug_line    0x000031f3       0x87 d:/program files/microchip/xc32/v2.50/bin/bin/../../lib/gcc/pic32mx/4.8.3/../../../../pic32mx/lib/micromips\libxcpp.a(xwctrtab.o)
 .debug_line    0x0000327a       0x87 d:/program files/microchip/xc32/v2.50/bin/bin/../../lib/gcc/pic32mx/4.8.3/../../../../pic32mx/lib/micromips\libxcpp.a(xwctytab.o)
 .debug_line    0x00003301       0x87 d:/program files/microchip/xc32/v2.50/bin/bin/../../lib/gcc/pic32mx/4.8.3/../../../../pic32mx/lib/micromips\libxcpp.a(xwfrprep.o)
 .debug_line    0x00003388       0x87 d:/program files/microchip/xc32/v2.50/bin/bin/../../lib/gcc/pic32mx/4.8.3/../../../../pic32mx/lib/micromips\libxcpp.a(xwfwprep.o)
 .debug_line    0x0000340f      0x141 d:/program files/microchip/xc32/v2.50/bin/bin/../../lib/gcc/pic32mx/4.8.3/../../../../pic32mx/lib/micromips\libxcpp.a(syserror.o)
 .debug_line    0x00003550       0x87 d:/program files/microchip/xc32/v2.50/bin/bin/../../lib/gcc/pic32mx/4.8.3/../../../../pic32mx/lib/micromips\libxcpp.a(delaop.o)
 .debug_line    0x000035d7      0x1c2 d:/program files/microchip/xc32/v2.50/bin/bin/../../lib/gcc/pic32mx/4.8.3/../../../../pic32mx/lib/micromips\libxcpp.a(ios.o)
 .debug_line    0x00003799      0x104 d:/program files/microchip/xc32/v2.50/bin/bin/../../lib/gcc/pic32mx/4.8.3/../../../../pic32mx/lib/micromips\libxcpp.a(delop3.o)
 .debug_line    0x0000389d       0x84 d:/program files/microchip/xc32/v2.50/bin/bin/../../lib/gcc/pic32mx/4.8.3/../../../../pic32mx/lib/micromips\libxcpp.a(errno.o)
 .debug_line    0x00003921       0x85 d:/program files/microchip/xc32/v2.50/bin/bin/../../lib/gcc/pic32mx/4.8.3/../../../../pic32mx/lib/micromips\libxcpp.a(getenv.o)
 .debug_line    0x000039a6       0x87 d:/program files/microchip/xc32/v2.50/bin/bin/../../lib/gcc/pic32mx/4.8.3/../../../../pic32mx/lib/micromips\libxcpp.a(localeco.o)
 .debug_line    0x00003a2d       0x85 d:/program files/microchip/xc32/v2.50/bin/bin/../../lib/gcc/pic32mx/4.8.3/../../../../pic32mx/lib/micromips\libxcpp.a(memcmp.o)
 .debug_line    0x00003ab2       0x86 d:/program files/microchip/xc32/v2.50/bin/bin/../../lib/gcc/pic32mx/4.8.3/../../../../pic32mx/lib/micromips\libxcpp.a(strcspn.o)
 .debug_line    0x00003b38       0x87 d:/program files/microchip/xc32/v2.50/bin/bin/../../lib/gcc/pic32mx/4.8.3/../../../../pic32mx/lib/micromips\libxcpp.a(strerror.o)
 .debug_line    0x00003bbf       0x87 d:/program files/microchip/xc32/v2.50/bin/bin/../../lib/gcc/pic32mx/4.8.3/../../../../pic32mx/lib/micromips\libxcpp.a(xfindloc.o)
 .debug_line    0x00003c46       0x87 d:/program files/microchip/xc32/v2.50/bin/bin/../../lib/gcc/pic32mx/4.8.3/../../../../pic32mx/lib/micromips\libxcpp.a(xfreeloc.o)
 .debug_line    0x00003ccd       0x87 d:/program files/microchip/xc32/v2.50/bin/bin/../../lib/gcc/pic32mx/4.8.3/../../../../pic32mx/lib/micromips\libxcpp.a(xgentime.o)
 .debug_line    0x00003d54       0x87 d:/program files/microchip/xc32/v2.50/bin/bin/../../lib/gcc/pic32mx/4.8.3/../../../../pic32mx/lib/micromips\libxcpp.a(xgettime.o)
 .debug_line    0x00003ddb       0x87 d:/program files/microchip/xc32/v2.50/bin/bin/../../lib/gcc/pic32mx/4.8.3/../../../../pic32mx/lib/micromips\libxcpp.a(xgetzone.o)
 .debug_line    0x00003e62        0x0 d:/program files/microchip/xc32/v2.50/bin/bin/../../lib/gcc/pic32mx/4.8.3/../../../../pic32mx/lib/micromips\libxcpp.a(xloctab.o)
 .debug_line    0x00003e62       0x87 d:/program files/microchip/xc32/v2.50/bin/bin/../../lib/gcc/pic32mx/4.8.3/../../../../pic32mx/lib/micromips\libxcpp.a(xmakeloc.o)
 .debug_line    0x00003ee9       0x87 d:/program files/microchip/xc32/v2.50/bin/bin/../../lib/gcc/pic32mx/4.8.3/../../../../pic32mx/lib/micromips\libxcpp.a(xmakesta.o)
 .debug_line    0x00003f70       0x87 d:/program files/microchip/xc32/v2.50/bin/bin/../../lib/gcc/pic32mx/4.8.3/../../../../pic32mx/lib/micromips\libxcpp.a(xmakewct.o)
 .debug_line    0x00003ff7       0x87 d:/program files/microchip/xc32/v2.50/bin/bin/../../lib/gcc/pic32mx/4.8.3/../../../../pic32mx/lib/micromips\libxcpp.a(xreadloc.o)
 .debug_line    0x0000407e       0x87 d:/program files/microchip/xc32/v2.50/bin/bin/../../lib/gcc/pic32mx/4.8.3/../../../../pic32mx/lib/micromips\libxcpp.a(xstrerro.o)
 .debug_line    0x00004105       0x84 d:/program files/microchip/xc32/v2.50/bin/bin/../../lib/gcc/pic32mx/4.8.3/../../../../pic32mx/lib/micromips\libxcpp.a(fgets.o)
 .debug_line    0x00004189       0x84 d:/program files/microchip/xc32/v2.50/bin/bin/../../lib/gcc/pic32mx/4.8.3/../../../../pic32mx/lib/micromips\libxcpp.a(fopen.o)
 .debug_line    0x0000420d       0x84 d:/program files/microchip/xc32/v2.50/bin/bin/../../lib/gcc/pic32mx/4.8.3/../../../../pic32mx/lib/micromips\libxcpp.a(fputs.o)
 .debug_line    0x00004291       0x86 d:/program files/microchip/xc32/v2.50/bin/bin/../../lib/gcc/pic32mx/4.8.3/../../../../pic32mx/lib/micromips\libxcpp.a(realloc.o)
 .debug_line    0x00004317       0x85 d:/program files/microchip/xc32/v2.50/bin/bin/../../lib/gcc/pic32mx/4.8.3/../../../../pic32mx/lib/micromips\libxcpp.a(strchr.o)
 .debug_line    0x0000439c       0x86 d:/program files/microchip/xc32/v2.50/bin/bin/../../lib/gcc/pic32mx/4.8.3/../../../../pic32mx/lib/micromips\libxcpp.a(strncmp.o)
 .debug_line    0x00004422       0x86 d:/program files/microchip/xc32/v2.50/bin/bin/../../lib/gcc/pic32mx/4.8.3/../../../../pic32mx/lib/micromips\libxcpp.a(strrchr.o)
 .debug_line    0x000044a8       0x85 d:/program files/microchip/xc32/v2.50/bin/bin/../../lib/gcc/pic32mx/4.8.3/../../../../pic32mx/lib/micromips\libxcpp.a(strspn.o)
 .debug_line    0x0000452d       0x85 d:/program files/microchip/xc32/v2.50/bin/bin/../../lib/gcc/pic32mx/4.8.3/../../../../pic32mx/lib/micromips\libxcpp.a(strtol.o)
 .debug_line    0x000045b2       0x86 d:/program files/microchip/xc32/v2.50/bin/bin/../../lib/gcc/pic32mx/4.8.3/../../../../pic32mx/lib/micromips\libxcpp.a(xfoprep.o)
 .debug_line    0x00004638       0x87 d:/program files/microchip/xc32/v2.50/bin/bin/../../lib/gcc/pic32mx/4.8.3/../../../../pic32mx/lib/micromips\libxcpp.a(xlocterm.o)
 .debug_line    0x000046bf       0x84 d:/program files/microchip/xc32/v2.50/bin/bin/../../lib/gcc/pic32mx/4.8.3/../../../../pic32mx/lib/micromips\libxcpp.a(xstol.o)
 .debug_line    0x00004743       0x85 d:/program files/microchip/xc32/v2.50/bin/bin/../../lib/gcc/pic32mx/4.8.3/../../../../pic32mx/lib/micromips\libxcpp.a(xstoul.o)
 .debug_line    0x000047c8       0x85 d:/program files/microchip/xc32/v2.50/bin/bin/../../lib/gcc/pic32mx/4.8.3/../../../../pic32mx/lib/micromips\libxcpp.a(xfopen.o)
 .debug_line    0x0000484d       0x87 d:/program files/microchip/xc32/v2.50/bin/bin/../../lib/gcc/pic32mx/4.8.3/../../../../pic32mx/lib/micromips\libpic32.a(sbrk.o)
 .debug_line    0x000048d4       0x88 d:/program files/microchip/xc32/v2.50/bin/bin/../../lib/gcc/pic32mx/4.8.3/../../../../pic32mx/lib/micromips\libpic32.a(_exit.o)
 .debug_line    0x0000495c       0x89 d:/program files/microchip/xc32/v2.50/bin/bin/../../lib/gcc/pic32mx/4.8.3/../../../../pic32mx/lib/micromips\libpic32.a(isatty.o)
 .debug_line    0x000049e5       0x87 d:/program files/microchip/xc32/v2.50/bin/bin/../../lib/gcc/pic32mx/4.8.3/../../../../pic32mx/lib/micromips\libpic32.a(read.o)
 .debug_line    0x00004a6c       0x88 d:/program files/microchip/xc32/v2.50/bin/bin/../../lib/gcc/pic32mx/4.8.3/../../../../pic32mx/lib/micromips\libpic32.a(write.o)
 .debug_line    0x00004af4       0x88 d:/program files/microchip/xc32/v2.50/bin/bin/../../lib/gcc/pic32mx/4.8.3/../../../../pic32mx/lib/micromips\libpic32.a(lseek.o)
 .debug_line    0x00004b7c       0x88 d:/program files/microchip/xc32/v2.50/bin/bin/../../lib/gcc/pic32mx/4.8.3/../../../../pic32mx/lib/micromips\libpic32.a(close.o)
 .debug_line    0x00004c04       0x87 d:/program files/microchip/xc32/v2.50/bin/bin/../../lib/gcc/pic32mx/4.8.3/../../../../pic32mx/lib/micromips\libpic32.a(open.o)
 .debug_line    0x00004c8b       0x89 d:/program files/microchip/xc32/v2.50/bin/bin/../../lib/gcc/pic32mx/4.8.3/../../../../pic32mx/lib/micromips\libpic32.a(unlink.o)
 .debug_line    0x00004d14       0x87 d:/program files/microchip/xc32/v2.50/bin/bin/../../lib/gcc/pic32mx/4.8.3/../../../../pic32mx/lib/micromips\libpic32.a(kill.o)
 .debug_line    0x00004d9b       0x89 d:/program files/microchip/xc32/v2.50/bin/bin/../../lib/gcc/pic32mx/4.8.3/../../../../pic32mx/lib/micromips\libpic32.a(getpid.o)
 .debug_line    0x00004e24        0x0 d:/program files/microchip/xc32/v2.50/bin/bin/../../lib/gcc/pic32mx/4.8.3/../../../../pic32mx/lib/micromips\libpic32.a(xc32_uart.o)
 .debug_line    0x00004e24        0x0 d:/program files/microchip/xc32/v2.50/bin/bin/../../lib/gcc/pic32mx/4.8.3/../../../../pic32mx/lib/micromips\libpic32.a(errno.o)
 .debug_line    0x00004e24       0x88 d:/program files/microchip/xc32/v2.50/bin/bin/../../lib/gcc/pic32mx/4.8.3/../../../../pic32mx/lib/micromips\libpic32.a(rmdir.o)
 .debug_line    0x00004eac       0x8c d:/program files/microchip/xc32/v2.50/bin/bin/../../lib/gcc/pic32mx/4.8.3/../../../../pic32mx/lib/micromips\libpic32.a(_mon_putc.o)

.debug_frame    0x00000000     0x45c4
 *.elf(.debug_frame)
 *(.debug_frame)
 .debug_frame   0x00000000      0xdc4 build/default/production/main.o
 .debug_frame   0x00000dc4      0x210 d:/program files/microchip/xc32/v2.50/bin/bin/../../lib/gcc/pic32mx/4.8.3/micromips\libgcc.a(unwind-sjlj.o)
 .debug_frame   0x00000fd4       0x2c d:/program files/microchip/xc32/v2.50/bin/bin/../../lib/gcc/pic32mx/4.8.3/../../../../pic32mx/lib/micromips\libpic32.a(default-bootstrap-exception-handler.o)
 .debug_frame   0x00001000       0x20 d:/program files/microchip/xc32/v2.50/bin/bin/../../lib/gcc/pic32mx/4.8.3/../../../../pic32mx/lib/micromips\libpic32.a(default-on-reset.o)
 .debug_frame   0x00001020       0x20 d:/program files/microchip/xc32/v2.50/bin/bin/../../lib/gcc/pic32mx/4.8.3/../../../../pic32mx/lib/micromips\libpic32.a(default-on-bootstrap.o)
 .debug_frame   0x00001040       0x2c d:/program files/microchip/xc32/v2.50/bin/bin/../../lib/gcc/pic32mx/4.8.3/../../../../pic32mx/lib/micromips\libpic32.a(default-general-exception-handler.o)
 .debug_frame   0x0000106c       0x20 d:/program files/microchip/xc32/v2.50/bin/bin/../../lib/gcc/pic32mx/4.8.3/../../../../pic32mx/lib/micromips\libpic32.a(defaultinterrupt.o)
 .debug_frame   0x0000108c      0xa60 d:/program files/microchip/xc32/v2.50/bin/bin/../../lib/gcc/pic32mx/4.8.3/../../../../pic32mx/lib/micromips\libxcpp.a(iostream.o)
 .debug_frame   0x00001aec      0x2c0 d:/program files/microchip/xc32/v2.50/bin/bin/../../lib/gcc/pic32mx/4.8.3/../../../../pic32mx/lib/micromips\libxcpp.a(xthrow.o)
 .debug_frame   0x00001dac      0xbe0 d:/program files/microchip/xc32/v2.50/bin/bin/../../lib/gcc/pic32mx/4.8.3/../../../../pic32mx/lib/micromips\libxcpp.a(wiostrea.o)
 .debug_frame   0x0000298c      0x23c d:/program files/microchip/xc32/v2.50/bin/bin/../../lib/gcc/pic32mx/4.8.3/../../../../pic32mx/lib/micromips\libxcpp.a(locale0.o)
 .debug_frame   0x00002bc8       0x28 d:/program files/microchip/xc32/v2.50/bin/bin/../../lib/gcc/pic32mx/4.8.3/../../../../pic32mx/lib/micromips\libxcpp.a(abort.o)
 .debug_frame   0x00002bf0       0x20 d:/program files/microchip/xc32/v2.50/bin/bin/../../lib/gcc/pic32mx/4.8.3/../../../../pic32mx/lib/micromips\libxcpp.a(abs.o)
 .debug_frame   0x00002c10       0x48 d:/program files/microchip/xc32/v2.50/bin/bin/../../lib/gcc/pic32mx/4.8.3/../../../../pic32mx/lib/micromips\libxcpp.a(asctime.o)
 .debug_frame   0x00002c58       0x7c d:/program files/microchip/xc32/v2.50/bin/bin/../../lib/gcc/pic32mx/4.8.3/../../../../pic32mx/lib/micromips\libxcpp.a(exit.o)
 .debug_frame   0x00002cd4       0x74 d:/program files/microchip/xc32/v2.50/bin/bin/../../lib/gcc/pic32mx/4.8.3/../../../../pic32mx/lib/micromips\libxcpp.a(fclose.o)
 .debug_frame   0x00002d48       0x3c d:/program files/microchip/xc32/v2.50/bin/bin/../../lib/gcc/pic32mx/4.8.3/../../../../pic32mx/lib/micromips\libxcpp.a(fflush.o)
 .debug_frame   0x00002d84       0x38 d:/program files/microchip/xc32/v2.50/bin/bin/../../lib/gcc/pic32mx/4.8.3/../../../../pic32mx/lib/micromips\libxcpp.a(fgetc.o)
 .debug_frame   0x00002dbc       0x2c d:/program files/microchip/xc32/v2.50/bin/bin/../../lib/gcc/pic32mx/4.8.3/../../../../pic32mx/lib/micromips\libxcpp.a(fgetpos.o)
 .debug_frame   0x00002de8       0x50 d:/program files/microchip/xc32/v2.50/bin/bin/../../lib/gcc/pic32mx/4.8.3/../../../../pic32mx/lib/micromips\libxcpp.a(fgetwc.o)
 .debug_frame   0x00002e38       0x34 d:/program files/microchip/xc32/v2.50/bin/bin/../../lib/gcc/pic32mx/4.8.3/../../../../pic32mx/lib/micromips\libxcpp.a(fputc.o)
 .debug_frame   0x00002e6c       0x40 d:/program files/microchip/xc32/v2.50/bin/bin/../../lib/gcc/pic32mx/4.8.3/../../../../pic32mx/lib/micromips\libxcpp.a(fputwc.o)
 .debug_frame   0x00002eac       0x20 d:/program files/microchip/xc32/v2.50/bin/bin/../../lib/gcc/pic32mx/4.8.3/../../../../pic32mx/lib/micromips\libxcpp.a(free.o)
 .debug_frame   0x00002ecc       0x2c d:/program files/microchip/xc32/v2.50/bin/bin/../../lib/gcc/pic32mx/4.8.3/../../../../pic32mx/lib/micromips\libxcpp.a(fseek.o)
 .debug_frame   0x00002ef8       0x2c d:/program files/microchip/xc32/v2.50/bin/bin/../../lib/gcc/pic32mx/4.8.3/../../../../pic32mx/lib/micromips\libxcpp.a(fsetpos.o)
 .debug_frame   0x00002f24       0x3c d:/program files/microchip/xc32/v2.50/bin/bin/../../lib/gcc/pic32mx/4.8.3/../../../../pic32mx/lib/micromips\libxcpp.a(fwrite.o)
 .debug_frame   0x00002f60       0x3c d:/program files/microchip/xc32/v2.50/bin/bin/../../lib/gcc/pic32mx/4.8.3/../../../../pic32mx/lib/micromips\libxcpp.a(malloc.o)
 .debug_frame   0x00002f9c       0x20 d:/program files/microchip/xc32/v2.50/bin/bin/../../lib/gcc/pic32mx/4.8.3/../../../../pic32mx/lib/micromips\libxcpp.a(memchr.o)
 .debug_frame   0x00002fbc       0x20 d:/program files/microchip/xc32/v2.50/bin/bin/../../lib/gcc/pic32mx/4.8.3/../../../../pic32mx/lib/micromips\libxcpp.a(memmove.o)
 .debug_frame   0x00002fdc       0x2c d:/program files/microchip/xc32/v2.50/bin/bin/../../lib/gcc/pic32mx/4.8.3/../../../../pic32mx/lib/micromips\libxcpp.a(raise.o)
 .debug_frame   0x00003008       0x2c d:/program files/microchip/xc32/v2.50/bin/bin/../../lib/gcc/pic32mx/4.8.3/../../../../pic32mx/lib/micromips\libxcpp.a(remove.o)
 .debug_frame   0x00003034      0x120 d:/program files/microchip/xc32/v2.50/bin/bin/../../lib/gcc/pic32mx/4.8.3/../../../../pic32mx/lib/micromips\libxcpp.a(setlocal.o)
 .debug_frame   0x00003154       0x38 d:/program files/microchip/xc32/v2.50/bin/bin/../../lib/gcc/pic32mx/4.8.3/../../../../pic32mx/lib/micromips\libxcpp.a(setvbuf.o)
 .debug_frame   0x0000318c       0x20 d:/program files/microchip/xc32/v2.50/bin/bin/../../lib/gcc/pic32mx/4.8.3/../../../../pic32mx/lib/micromips\libxcpp.a(strcpy.o)
 .debug_frame   0x000031ac       0x20 d:/program files/microchip/xc32/v2.50/bin/bin/../../lib/gcc/pic32mx/4.8.3/../../../../pic32mx/lib/micromips\libxcpp.a(ungetc.o)
 .debug_frame   0x000031cc       0x20 d:/program files/microchip/xc32/v2.50/bin/bin/../../lib/gcc/pic32mx/4.8.3/../../../../pic32mx/lib/micromips\libxcpp.a(ungetwc.o)
 .debug_frame   0x000031ec       0x20 d:/program files/microchip/xc32/v2.50/bin/bin/../../lib/gcc/pic32mx/4.8.3/../../../../pic32mx/lib/micromips\libxcpp.a(wmemcpy.o)
 .debug_frame   0x0000320c       0x34 d:/program files/microchip/xc32/v2.50/bin/bin/../../lib/gcc/pic32mx/4.8.3/../../../../pic32mx/lib/micromips\libxcpp.a(xatexit.o)
 .debug_frame   0x00003240       0x2c d:/program files/microchip/xc32/v2.50/bin/bin/../../lib/gcc/pic32mx/4.8.3/../../../../pic32mx/lib/micromips\libxcpp.a(xcostate.o)
 .debug_frame   0x0000326c       0x2c d:/program files/microchip/xc32/v2.50/bin/bin/../../lib/gcc/pic32mx/4.8.3/../../../../pic32mx/lib/micromips\libxcpp.a(xctype.o)
 .debug_frame   0x00003298       0x34 d:/program files/microchip/xc32/v2.50/bin/bin/../../lib/gcc/pic32mx/4.8.3/../../../../pic32mx/lib/micromips\libxcpp.a(xdefloc.o)
 .debug_frame   0x000032cc       0x28 d:/program files/microchip/xc32/v2.50/bin/bin/../../lib/gcc/pic32mx/4.8.3/../../../../pic32mx/lib/micromips\libxcpp.a(xexit.o)
 .debug_frame   0x000032f4       0x40 d:/program files/microchip/xc32/v2.50/bin/bin/../../lib/gcc/pic32mx/4.8.3/../../../../pic32mx/lib/micromips\libxcpp.a(xfgpos.o)
 .debug_frame   0x00003334       0x58 d:/program files/microchip/xc32/v2.50/bin/bin/../../lib/gcc/pic32mx/4.8.3/../../../../pic32mx/lib/micromips\libxcpp.a(xfofind.o)
 .debug_frame   0x0000338c       0x38 d:/program files/microchip/xc32/v2.50/bin/bin/../../lib/gcc/pic32mx/4.8.3/../../../../pic32mx/lib/micromips\libxcpp.a(xfrprep.o)
 .debug_frame   0x000033c4       0x40 d:/program files/microchip/xc32/v2.50/bin/bin/../../lib/gcc/pic32mx/4.8.3/../../../../pic32mx/lib/micromips\libxcpp.a(xfspos.o)
 .debug_frame   0x00003404       0x30 d:/program files/microchip/xc32/v2.50/bin/bin/../../lib/gcc/pic32mx/4.8.3/../../../../pic32mx/lib/micromips\libxcpp.a(xfwprep.o)
 .debug_frame   0x00003434       0x80 d:/program files/microchip/xc32/v2.50/bin/bin/../../lib/gcc/pic32mx/4.8.3/../../../../pic32mx/lib/micromips\libxcpp.a(xgetglob.o)
 .debug_frame   0x000034b4       0x68 d:/program files/microchip/xc32/v2.50/bin/bin/../../lib/gcc/pic32mx/4.8.3/../../../../pic32mx/lib/micromips\libxcpp.a(xgetloc.o)
 .debug_frame   0x0000351c       0x2c d:/program files/microchip/xc32/v2.50/bin/bin/../../lib/gcc/pic32mx/4.8.3/../../../../pic32mx/lib/micromips\libxcpp.a(xgetmem.o)
 .debug_frame   0x00003548       0x3c d:/program files/microchip/xc32/v2.50/bin/bin/../../lib/gcc/pic32mx/4.8.3/../../../../pic32mx/lib/micromips\libxcpp.a(xmbtowc.o)
 .debug_frame   0x00003584       0x48 d:/program files/microchip/xc32/v2.50/bin/bin/../../lib/gcc/pic32mx/4.8.3/../../../../pic32mx/lib/micromips\libxcpp.a(xsetloc.o)
 .debug_frame   0x000035cc       0x48 d:/program files/microchip/xc32/v2.50/bin/bin/../../lib/gcc/pic32mx/4.8.3/../../../../pic32mx/lib/micromips\libxcpp.a(xstate.o)
 .debug_frame   0x00003614       0x44 d:/program files/microchip/xc32/v2.50/bin/bin/../../lib/gcc/pic32mx/4.8.3/../../../../pic32mx/lib/micromips\libxcpp.a(xstrftim.o)
 .debug_frame   0x00003658       0x2c d:/program files/microchip/xc32/v2.50/bin/bin/../../lib/gcc/pic32mx/4.8.3/../../../../pic32mx/lib/micromips\libxcpp.a(xtolotab.o)
 .debug_frame   0x00003684       0x2c d:/program files/microchip/xc32/v2.50/bin/bin/../../lib/gcc/pic32mx/4.8.3/../../../../pic32mx/lib/micromips\libxcpp.a(xtouptab.o)
 .debug_frame   0x000036b0       0x2c d:/program files/microchip/xc32/v2.50/bin/bin/../../lib/gcc/pic32mx/4.8.3/../../../../pic32mx/lib/micromips\libxcpp.a(xwcostate.o)
 .debug_frame   0x000036dc       0x2c d:/program files/microchip/xc32/v2.50/bin/bin/../../lib/gcc/pic32mx/4.8.3/../../../../pic32mx/lib/micromips\libxcpp.a(xwcstate.o)
 .debug_frame   0x00003708       0x70 d:/program files/microchip/xc32/v2.50/bin/bin/../../lib/gcc/pic32mx/4.8.3/../../../../pic32mx/lib/micromips\libxcpp.a(xwctomb.o)
 .debug_frame   0x00003778       0x2c d:/program files/microchip/xc32/v2.50/bin/bin/../../lib/gcc/pic32mx/4.8.3/../../../../pic32mx/lib/micromips\libxcpp.a(xwctrtab.o)
 .debug_frame   0x000037a4       0x2c d:/program files/microchip/xc32/v2.50/bin/bin/../../lib/gcc/pic32mx/4.8.3/../../../../pic32mx/lib/micromips\libxcpp.a(xwctytab.o)
 .debug_frame   0x000037d0       0x38 d:/program files/microchip/xc32/v2.50/bin/bin/../../lib/gcc/pic32mx/4.8.3/../../../../pic32mx/lib/micromips\libxcpp.a(xwfrprep.o)
 .debug_frame   0x00003808       0x30 d:/program files/microchip/xc32/v2.50/bin/bin/../../lib/gcc/pic32mx/4.8.3/../../../../pic32mx/lib/micromips\libxcpp.a(xwfwprep.o)
 .debug_frame   0x00003838      0x2e8 d:/program files/microchip/xc32/v2.50/bin/bin/../../lib/gcc/pic32mx/4.8.3/../../../../pic32mx/lib/micromips\libxcpp.a(syserror.o)
 .debug_frame   0x00003b20       0x2c d:/program files/microchip/xc32/v2.50/bin/bin/../../lib/gcc/pic32mx/4.8.3/../../../../pic32mx/lib/micromips\libxcpp.a(delaop.o)
 .debug_frame   0x00003b4c       0xcc d:/program files/microchip/xc32/v2.50/bin/bin/../../lib/gcc/pic32mx/4.8.3/../../../../pic32mx/lib/micromips\libxcpp.a(ios.o)
 .debug_frame   0x00003c18       0x20 d:/program files/microchip/xc32/v2.50/bin/bin/../../lib/gcc/pic32mx/4.8.3/../../../../pic32mx/lib/micromips\libxcpp.a(delop3.o)
 .debug_frame   0x00003c38       0x2c d:/program files/microchip/xc32/v2.50/bin/bin/../../lib/gcc/pic32mx/4.8.3/../../../../pic32mx/lib/micromips\libxcpp.a(errno.o)
 .debug_frame   0x00003c64       0x20 d:/program files/microchip/xc32/v2.50/bin/bin/../../lib/gcc/pic32mx/4.8.3/../../../../pic32mx/lib/micromips\libxcpp.a(getenv.o)
 .debug_frame   0x00003c84       0x20 d:/program files/microchip/xc32/v2.50/bin/bin/../../lib/gcc/pic32mx/4.8.3/../../../../pic32mx/lib/micromips\libxcpp.a(localeco.o)
 .debug_frame   0x00003ca4       0x20 d:/program files/microchip/xc32/v2.50/bin/bin/../../lib/gcc/pic32mx/4.8.3/../../../../pic32mx/lib/micromips\libxcpp.a(memcmp.o)
 .debug_frame   0x00003cc4       0x20 d:/program files/microchip/xc32/v2.50/bin/bin/../../lib/gcc/pic32mx/4.8.3/../../../../pic32mx/lib/micromips\libxcpp.a(strcspn.o)
 .debug_frame   0x00003ce4       0x2c d:/program files/microchip/xc32/v2.50/bin/bin/../../lib/gcc/pic32mx/4.8.3/../../../../pic32mx/lib/micromips\libxcpp.a(strerror.o)
 .debug_frame   0x00003d10       0x58 d:/program files/microchip/xc32/v2.50/bin/bin/../../lib/gcc/pic32mx/4.8.3/../../../../pic32mx/lib/micromips\libxcpp.a(xfindloc.o)
 .debug_frame   0x00003d68       0x40 d:/program files/microchip/xc32/v2.50/bin/bin/../../lib/gcc/pic32mx/4.8.3/../../../../pic32mx/lib/micromips\libxcpp.a(xfreeloc.o)
 .debug_frame   0x00003da8       0xd8 d:/program files/microchip/xc32/v2.50/bin/bin/../../lib/gcc/pic32mx/4.8.3/../../../../pic32mx/lib/micromips\libxcpp.a(xgentime.o)
 .debug_frame   0x00003e80       0x38 d:/program files/microchip/xc32/v2.50/bin/bin/../../lib/gcc/pic32mx/4.8.3/../../../../pic32mx/lib/micromips\libxcpp.a(xgettime.o)
 .debug_frame   0x00003eb8       0x34 d:/program files/microchip/xc32/v2.50/bin/bin/../../lib/gcc/pic32mx/4.8.3/../../../../pic32mx/lib/micromips\libxcpp.a(xgetzone.o)
 .debug_frame   0x00003eec       0x7c d:/program files/microchip/xc32/v2.50/bin/bin/../../lib/gcc/pic32mx/4.8.3/../../../../pic32mx/lib/micromips\libxcpp.a(xmakeloc.o)
 .debug_frame   0x00003f68       0x38 d:/program files/microchip/xc32/v2.50/bin/bin/../../lib/gcc/pic32mx/4.8.3/../../../../pic32mx/lib/micromips\libxcpp.a(xmakesta.o)
 .debug_frame   0x00003fa0       0x48 d:/program files/microchip/xc32/v2.50/bin/bin/../../lib/gcc/pic32mx/4.8.3/../../../../pic32mx/lib/micromips\libxcpp.a(xmakewct.o)
 .debug_frame   0x00003fe8       0x40 d:/program files/microchip/xc32/v2.50/bin/bin/../../lib/gcc/pic32mx/4.8.3/../../../../pic32mx/lib/micromips\libxcpp.a(xreadloc.o)
 .debug_frame   0x00004028       0x34 d:/program files/microchip/xc32/v2.50/bin/bin/../../lib/gcc/pic32mx/4.8.3/../../../../pic32mx/lib/micromips\libxcpp.a(xstrerro.o)
 .debug_frame   0x0000405c       0x48 d:/program files/microchip/xc32/v2.50/bin/bin/../../lib/gcc/pic32mx/4.8.3/../../../../pic32mx/lib/micromips\libxcpp.a(fgets.o)
 .debug_frame   0x000040a4       0x2c d:/program files/microchip/xc32/v2.50/bin/bin/../../lib/gcc/pic32mx/4.8.3/../../../../pic32mx/lib/micromips\libxcpp.a(fopen.o)
 .debug_frame   0x000040d0       0x3c d:/program files/microchip/xc32/v2.50/bin/bin/../../lib/gcc/pic32mx/4.8.3/../../../../pic32mx/lib/micromips\libxcpp.a(fputs.o)
 .debug_frame   0x0000410c       0x40 d:/program files/microchip/xc32/v2.50/bin/bin/../../lib/gcc/pic32mx/4.8.3/../../../../pic32mx/lib/micromips\libxcpp.a(realloc.o)
 .debug_frame   0x0000414c       0x20 d:/program files/microchip/xc32/v2.50/bin/bin/../../lib/gcc/pic32mx/4.8.3/../../../../pic32mx/lib/micromips\libxcpp.a(strchr.o)
 .debug_frame   0x0000416c       0x20 d:/program files/microchip/xc32/v2.50/bin/bin/../../lib/gcc/pic32mx/4.8.3/../../../../pic32mx/lib/micromips\libxcpp.a(strncmp.o)
 .debug_frame   0x0000418c       0x20 d:/program files/microchip/xc32/v2.50/bin/bin/../../lib/gcc/pic32mx/4.8.3/../../../../pic32mx/lib/micromips\libxcpp.a(strrchr.o)
 .debug_frame   0x000041ac       0x20 d:/program files/microchip/xc32/v2.50/bin/bin/../../lib/gcc/pic32mx/4.8.3/../../../../pic32mx/lib/micromips\libxcpp.a(strspn.o)
 .debug_frame   0x000041cc       0x2c d:/program files/microchip/xc32/v2.50/bin/bin/../../lib/gcc/pic32mx/4.8.3/../../../../pic32mx/lib/micromips\libxcpp.a(strtol.o)
 .debug_frame   0x000041f8       0x3c d:/program files/microchip/xc32/v2.50/bin/bin/../../lib/gcc/pic32mx/4.8.3/../../../../pic32mx/lib/micromips\libxcpp.a(xfoprep.o)
 .debug_frame   0x00004234       0x60 d:/program files/microchip/xc32/v2.50/bin/bin/../../lib/gcc/pic32mx/4.8.3/../../../../pic32mx/lib/micromips\libxcpp.a(xlocterm.o)
 .debug_frame   0x00004294       0x44 d:/program files/microchip/xc32/v2.50/bin/bin/../../lib/gcc/pic32mx/4.8.3/../../../../pic32mx/lib/micromips\libxcpp.a(xstol.o)
 .debug_frame   0x000042d8       0x60 d:/program files/microchip/xc32/v2.50/bin/bin/../../lib/gcc/pic32mx/4.8.3/../../../../pic32mx/lib/micromips\libxcpp.a(xstoul.o)
 .debug_frame   0x00004338       0x2c d:/program files/microchip/xc32/v2.50/bin/bin/../../lib/gcc/pic32mx/4.8.3/../../../../pic32mx/lib/micromips\libxcpp.a(xfopen.o)
 .debug_frame   0x00004364       0xa4 d:/program files/microchip/xc32/v2.50/bin/bin/../../lib/gcc/pic32mx/4.8.3/../../../../pic32mx/lib/micromips\libpic32.a(sbrk.o)
 .debug_frame   0x00004408       0x20 d:/program files/microchip/xc32/v2.50/bin/bin/../../lib/gcc/pic32mx/4.8.3/../../../../pic32mx/lib/micromips\libpic32.a(_exit.o)
 .debug_frame   0x00004428       0x20 d:/program files/microchip/xc32/v2.50/bin/bin/../../lib/gcc/pic32mx/4.8.3/../../../../pic32mx/lib/micromips\libpic32.a(isatty.o)
 .debug_frame   0x00004448       0x38 d:/program files/microchip/xc32/v2.50/bin/bin/../../lib/gcc/pic32mx/4.8.3/../../../../pic32mx/lib/micromips\libpic32.a(read.o)
 .debug_frame   0x00004480       0x38 d:/program files/microchip/xc32/v2.50/bin/bin/../../lib/gcc/pic32mx/4.8.3/../../../../pic32mx/lib/micromips\libpic32.a(write.o)
 .debug_frame   0x000044b8       0x20 d:/program files/microchip/xc32/v2.50/bin/bin/../../lib/gcc/pic32mx/4.8.3/../../../../pic32mx/lib/micromips\libpic32.a(lseek.o)
 .debug_frame   0x000044d8       0x20 d:/program files/microchip/xc32/v2.50/bin/bin/../../lib/gcc/pic32mx/4.8.3/../../../../pic32mx/lib/micromips\libpic32.a(close.o)
 .debug_frame   0x000044f8       0x20 d:/program files/microchip/xc32/v2.50/bin/bin/../../lib/gcc/pic32mx/4.8.3/../../../../pic32mx/lib/micromips\libpic32.a(open.o)
 .debug_frame   0x00004518       0x20 d:/program files/microchip/xc32/v2.50/bin/bin/../../lib/gcc/pic32mx/4.8.3/../../../../pic32mx/lib/micromips\libpic32.a(unlink.o)
 .debug_frame   0x00004538       0x20 d:/program files/microchip/xc32/v2.50/bin/bin/../../lib/gcc/pic32mx/4.8.3/../../../../pic32mx/lib/micromips\libpic32.a(kill.o)
 .debug_frame   0x00004558       0x20 d:/program files/microchip/xc32/v2.50/bin/bin/../../lib/gcc/pic32mx/4.8.3/../../../../pic32mx/lib/micromips\libpic32.a(getpid.o)
 .debug_frame   0x00004578       0x20 d:/program files/microchip/xc32/v2.50/bin/bin/../../lib/gcc/pic32mx/4.8.3/../../../../pic32mx/lib/micromips\libpic32.a(rmdir.o)
 .debug_frame   0x00004598       0x2c d:/program files/microchip/xc32/v2.50/bin/bin/../../lib/gcc/pic32mx/4.8.3/../../../../pic32mx/lib/micromips\libpic32.a(_mon_putc.o)

.debug_str      0x00000000      0x6c0
 *.elf(.debug_str)
 *(.debug_str)
 .debug_str     0x00000000      0x3e2 build/default/production/main.o
 .debug_str     0x000003e2       0x40 d:/program files/microchip/xc32/v2.50/bin/bin/../../lib/gcc/pic32mx/4.8.3/micromips\libgcc.a(unwind-sjlj.o)
 .debug_str     0x00000422        0x0 d:/program files/microchip/xc32/v2.50/bin/bin/../../lib/gcc/pic32mx/4.8.3/../../../../pic32mx/lib/micromips\libpic32.a(default-bootstrap-exception-handler.o)
 .debug_str     0x00000422        0x0 d:/program files/microchip/xc32/v2.50/bin/bin/../../lib/gcc/pic32mx/4.8.3/../../../../pic32mx/lib/micromips\libpic32.a(default-on-reset.o)
 .debug_str     0x00000422        0x0 d:/program files/microchip/xc32/v2.50/bin/bin/../../lib/gcc/pic32mx/4.8.3/../../../../pic32mx/lib/micromips\libpic32.a(default-on-bootstrap.o)
 .debug_str     0x00000422        0x0 d:/program files/microchip/xc32/v2.50/bin/bin/../../lib/gcc/pic32mx/4.8.3/../../../../pic32mx/lib/micromips\libpic32.a(default-general-exception-handler.o)
 .debug_str     0x00000422        0x0 d:/program files/microchip/xc32/v2.50/bin/bin/../../lib/gcc/pic32mx/4.8.3/../../../../pic32mx/lib/micromips\libpic32.a(defaultinterrupt.o)
 .debug_str     0x00000422       0xe7 d:/program files/microchip/xc32/v2.50/bin/bin/../../lib/gcc/pic32mx/4.8.3/../../../../pic32mx/lib/micromips\libxcpp.a(iostream.o)
 .debug_str     0x00000509       0x1a d:/program files/microchip/xc32/v2.50/bin/bin/../../lib/gcc/pic32mx/4.8.3/../../../../pic32mx/lib/micromips\libxcpp.a(xthrow.o)
 .debug_str     0x00000523      0x112 d:/program files/microchip/xc32/v2.50/bin/bin/../../lib/gcc/pic32mx/4.8.3/../../../../pic32mx/lib/micromips\libxcpp.a(wiostrea.o)
 .debug_str     0x00000635       0x12 d:/program files/microchip/xc32/v2.50/bin/bin/../../lib/gcc/pic32mx/4.8.3/../../../../pic32mx/lib/micromips\libxcpp.a(locale0.o)
 .debug_str     0x00000647        0x0 d:/program files/microchip/xc32/v2.50/bin/bin/../../lib/gcc/pic32mx/4.8.3/../../../../pic32mx/lib/micromips\libxcpp.a(abort.o)
 .debug_str     0x00000647        0x0 d:/program files/microchip/xc32/v2.50/bin/bin/../../lib/gcc/pic32mx/4.8.3/../../../../pic32mx/lib/micromips\libxcpp.a(abs.o)
 .debug_str     0x00000647        0x0 d:/program files/microchip/xc32/v2.50/bin/bin/../../lib/gcc/pic32mx/4.8.3/../../../../pic32mx/lib/micromips\libxcpp.a(asctime.o)
 .debug_str     0x00000647        0x0 d:/program files/microchip/xc32/v2.50/bin/bin/../../lib/gcc/pic32mx/4.8.3/../../../../pic32mx/lib/micromips\libxcpp.a(exit.o)
 .debug_str     0x00000647        0x0 d:/program files/microchip/xc32/v2.50/bin/bin/../../lib/gcc/pic32mx/4.8.3/../../../../pic32mx/lib/micromips\libxcpp.a(fclose.o)
 .debug_str     0x00000647        0x0 d:/program files/microchip/xc32/v2.50/bin/bin/../../lib/gcc/pic32mx/4.8.3/../../../../pic32mx/lib/micromips\libxcpp.a(fflush.o)
 .debug_str     0x00000647        0x0 d:/program files/microchip/xc32/v2.50/bin/bin/../../lib/gcc/pic32mx/4.8.3/../../../../pic32mx/lib/micromips\libxcpp.a(fgetc.o)
 .debug_str     0x00000647        0x0 d:/program files/microchip/xc32/v2.50/bin/bin/../../lib/gcc/pic32mx/4.8.3/../../../../pic32mx/lib/micromips\libxcpp.a(fgetpos.o)
 .debug_str     0x00000647        0x0 d:/program files/microchip/xc32/v2.50/bin/bin/../../lib/gcc/pic32mx/4.8.3/../../../../pic32mx/lib/micromips\libxcpp.a(fgetwc.o)
 .debug_str     0x00000647        0x0 d:/program files/microchip/xc32/v2.50/bin/bin/../../lib/gcc/pic32mx/4.8.3/../../../../pic32mx/lib/micromips\libxcpp.a(fputc.o)
 .debug_str     0x00000647        0x0 d:/program files/microchip/xc32/v2.50/bin/bin/../../lib/gcc/pic32mx/4.8.3/../../../../pic32mx/lib/micromips\libxcpp.a(fputwc.o)
 .debug_str     0x00000647        0x0 d:/program files/microchip/xc32/v2.50/bin/bin/../../lib/gcc/pic32mx/4.8.3/../../../../pic32mx/lib/micromips\libxcpp.a(free.o)
 .debug_str     0x00000647        0x0 d:/program files/microchip/xc32/v2.50/bin/bin/../../lib/gcc/pic32mx/4.8.3/../../../../pic32mx/lib/micromips\libxcpp.a(fseek.o)
 .debug_str     0x00000647        0x0 d:/program files/microchip/xc32/v2.50/bin/bin/../../lib/gcc/pic32mx/4.8.3/../../../../pic32mx/lib/micromips\libxcpp.a(fsetpos.o)
 .debug_str     0x00000647        0x0 d:/program files/microchip/xc32/v2.50/bin/bin/../../lib/gcc/pic32mx/4.8.3/../../../../pic32mx/lib/micromips\libxcpp.a(fwrite.o)
 .debug_str     0x00000647        0x0 d:/program files/microchip/xc32/v2.50/bin/bin/../../lib/gcc/pic32mx/4.8.3/../../../../pic32mx/lib/micromips\libxcpp.a(malloc.o)
 .debug_str     0x00000647        0x0 d:/program files/microchip/xc32/v2.50/bin/bin/../../lib/gcc/pic32mx/4.8.3/../../../../pic32mx/lib/micromips\libxcpp.a(memchr.o)
 .debug_str     0x00000647        0x0 d:/program files/microchip/xc32/v2.50/bin/bin/../../lib/gcc/pic32mx/4.8.3/../../../../pic32mx/lib/micromips\libxcpp.a(memmove.o)
 .debug_str     0x00000647        0x0 d:/program files/microchip/xc32/v2.50/bin/bin/../../lib/gcc/pic32mx/4.8.3/../../../../pic32mx/lib/micromips\libxcpp.a(raise.o)
 .debug_str     0x00000647        0x0 d:/program files/microchip/xc32/v2.50/bin/bin/../../lib/gcc/pic32mx/4.8.3/../../../../pic32mx/lib/micromips\libxcpp.a(remove.o)
 .debug_str     0x00000647        0x0 d:/program files/microchip/xc32/v2.50/bin/bin/../../lib/gcc/pic32mx/4.8.3/../../../../pic32mx/lib/micromips\libxcpp.a(setlocal.o)
 .debug_str     0x00000647        0x0 d:/program files/microchip/xc32/v2.50/bin/bin/../../lib/gcc/pic32mx/4.8.3/../../../../pic32mx/lib/micromips\libxcpp.a(setvbuf.o)
 .debug_str     0x00000647        0x0 d:/program files/microchip/xc32/v2.50/bin/bin/../../lib/gcc/pic32mx/4.8.3/../../../../pic32mx/lib/micromips\libxcpp.a(strcpy.o)
 .debug_str     0x00000647        0x0 d:/program files/microchip/xc32/v2.50/bin/bin/../../lib/gcc/pic32mx/4.8.3/../../../../pic32mx/lib/micromips\libxcpp.a(ungetc.o)
 .debug_str     0x00000647        0x0 d:/program files/microchip/xc32/v2.50/bin/bin/../../lib/gcc/pic32mx/4.8.3/../../../../pic32mx/lib/micromips\libxcpp.a(ungetwc.o)
 .debug_str     0x00000647        0x0 d:/program files/microchip/xc32/v2.50/bin/bin/../../lib/gcc/pic32mx/4.8.3/../../../../pic32mx/lib/micromips\libxcpp.a(wmemcpy.o)
 .debug_str     0x00000647        0x0 d:/program files/microchip/xc32/v2.50/bin/bin/../../lib/gcc/pic32mx/4.8.3/../../../../pic32mx/lib/micromips\libxcpp.a(xatexit.o)
 .debug_str     0x00000647        0x0 d:/program files/microchip/xc32/v2.50/bin/bin/../../lib/gcc/pic32mx/4.8.3/../../../../pic32mx/lib/micromips\libxcpp.a(xcostate.o)
 .debug_str     0x00000647        0x0 d:/program files/microchip/xc32/v2.50/bin/bin/../../lib/gcc/pic32mx/4.8.3/../../../../pic32mx/lib/micromips\libxcpp.a(xctype.o)
 .debug_str     0x00000647        0x0 d:/program files/microchip/xc32/v2.50/bin/bin/../../lib/gcc/pic32mx/4.8.3/../../../../pic32mx/lib/micromips\libxcpp.a(xdefloc.o)
 .debug_str     0x00000647        0x0 d:/program files/microchip/xc32/v2.50/bin/bin/../../lib/gcc/pic32mx/4.8.3/../../../../pic32mx/lib/micromips\libxcpp.a(xexit.o)
 .debug_str     0x00000647        0x0 d:/program files/microchip/xc32/v2.50/bin/bin/../../lib/gcc/pic32mx/4.8.3/../../../../pic32mx/lib/micromips\libxcpp.a(xfgpos.o)
 .debug_str     0x00000647        0x0 d:/program files/microchip/xc32/v2.50/bin/bin/../../lib/gcc/pic32mx/4.8.3/../../../../pic32mx/lib/micromips\libxcpp.a(xfiles.o)
 .debug_str     0x00000647        0x0 d:/program files/microchip/xc32/v2.50/bin/bin/../../lib/gcc/pic32mx/4.8.3/../../../../pic32mx/lib/micromips\libxcpp.a(xfofind.o)
 .debug_str     0x00000647        0x0 d:/program files/microchip/xc32/v2.50/bin/bin/../../lib/gcc/pic32mx/4.8.3/../../../../pic32mx/lib/micromips\libxcpp.a(xfrprep.o)
 .debug_str     0x00000647        0x0 d:/program files/microchip/xc32/v2.50/bin/bin/../../lib/gcc/pic32mx/4.8.3/../../../../pic32mx/lib/micromips\libxcpp.a(xfspos.o)
 .debug_str     0x00000647        0x0 d:/program files/microchip/xc32/v2.50/bin/bin/../../lib/gcc/pic32mx/4.8.3/../../../../pic32mx/lib/micromips\libxcpp.a(xfwprep.o)
 .debug_str     0x00000647        0x0 d:/program files/microchip/xc32/v2.50/bin/bin/../../lib/gcc/pic32mx/4.8.3/../../../../pic32mx/lib/micromips\libxcpp.a(xgetglob.o)
 .debug_str     0x00000647        0x0 d:/program files/microchip/xc32/v2.50/bin/bin/../../lib/gcc/pic32mx/4.8.3/../../../../pic32mx/lib/micromips\libxcpp.a(xgetloc.o)
 .debug_str     0x00000647        0x0 d:/program files/microchip/xc32/v2.50/bin/bin/../../lib/gcc/pic32mx/4.8.3/../../../../pic32mx/lib/micromips\libxcpp.a(xgetmem.o)
 .debug_str     0x00000647        0x0 d:/program files/microchip/xc32/v2.50/bin/bin/../../lib/gcc/pic32mx/4.8.3/../../../../pic32mx/lib/micromips\libxcpp.a(xmbtowc.o)
 .debug_str     0x00000647        0x0 d:/program files/microchip/xc32/v2.50/bin/bin/../../lib/gcc/pic32mx/4.8.3/../../../../pic32mx/lib/micromips\libxcpp.a(xsetloc.o)
 .debug_str     0x00000647        0x0 d:/program files/microchip/xc32/v2.50/bin/bin/../../lib/gcc/pic32mx/4.8.3/../../../../pic32mx/lib/micromips\libxcpp.a(xstate.o)
 .debug_str     0x00000647        0x0 d:/program files/microchip/xc32/v2.50/bin/bin/../../lib/gcc/pic32mx/4.8.3/../../../../pic32mx/lib/micromips\libxcpp.a(xstrftim.o)
 .debug_str     0x00000647        0x0 d:/program files/microchip/xc32/v2.50/bin/bin/../../lib/gcc/pic32mx/4.8.3/../../../../pic32mx/lib/micromips\libxcpp.a(xtolotab.o)
 .debug_str     0x00000647        0x0 d:/program files/microchip/xc32/v2.50/bin/bin/../../lib/gcc/pic32mx/4.8.3/../../../../pic32mx/lib/micromips\libxcpp.a(xtouptab.o)
 .debug_str     0x00000647        0x0 d:/program files/microchip/xc32/v2.50/bin/bin/../../lib/gcc/pic32mx/4.8.3/../../../../pic32mx/lib/micromips\libxcpp.a(xwcostate.o)
 .debug_str     0x00000647        0x0 d:/program files/microchip/xc32/v2.50/bin/bin/../../lib/gcc/pic32mx/4.8.3/../../../../pic32mx/lib/micromips\libxcpp.a(xwcstate.o)
 .debug_str     0x00000647        0x0 d:/program files/microchip/xc32/v2.50/bin/bin/../../lib/gcc/pic32mx/4.8.3/../../../../pic32mx/lib/micromips\libxcpp.a(xwctomb.o)
 .debug_str     0x00000647        0x0 d:/program files/microchip/xc32/v2.50/bin/bin/../../lib/gcc/pic32mx/4.8.3/../../../../pic32mx/lib/micromips\libxcpp.a(xwctrtab.o)
 .debug_str     0x00000647        0x0 d:/program files/microchip/xc32/v2.50/bin/bin/../../lib/gcc/pic32mx/4.8.3/../../../../pic32mx/lib/micromips\libxcpp.a(xwctytab.o)
 .debug_str     0x00000647        0x0 d:/program files/microchip/xc32/v2.50/bin/bin/../../lib/gcc/pic32mx/4.8.3/../../../../pic32mx/lib/micromips\libxcpp.a(xwfrprep.o)
 .debug_str     0x00000647        0x0 d:/program files/microchip/xc32/v2.50/bin/bin/../../lib/gcc/pic32mx/4.8.3/../../../../pic32mx/lib/micromips\libxcpp.a(xwfwprep.o)
 .debug_str     0x00000647       0x51 d:/program files/microchip/xc32/v2.50/bin/bin/../../lib/gcc/pic32mx/4.8.3/../../../../pic32mx/lib/micromips\libxcpp.a(syserror.o)
 .debug_str     0x00000698        0x0 d:/program files/microchip/xc32/v2.50/bin/bin/../../lib/gcc/pic32mx/4.8.3/../../../../pic32mx/lib/micromips\libxcpp.a(delaop.o)
 .debug_str     0x00000698       0x28 d:/program files/microchip/xc32/v2.50/bin/bin/../../lib/gcc/pic32mx/4.8.3/../../../../pic32mx/lib/micromips\libxcpp.a(ios.o)
 .debug_str     0x000006c0        0x0 d:/program files/microchip/xc32/v2.50/bin/bin/../../lib/gcc/pic32mx/4.8.3/../../../../pic32mx/lib/micromips\libxcpp.a(delop3.o)
 .debug_str     0x000006c0        0x0 d:/program files/microchip/xc32/v2.50/bin/bin/../../lib/gcc/pic32mx/4.8.3/../../../../pic32mx/lib/micromips\libxcpp.a(errno.o)
 .debug_str     0x000006c0        0x0 d:/program files/microchip/xc32/v2.50/bin/bin/../../lib/gcc/pic32mx/4.8.3/../../../../pic32mx/lib/micromips\libxcpp.a(getenv.o)
 .debug_str     0x000006c0        0x0 d:/program files/microchip/xc32/v2.50/bin/bin/../../lib/gcc/pic32mx/4.8.3/../../../../pic32mx/lib/micromips\libxcpp.a(localeco.o)
 .debug_str     0x000006c0        0x0 d:/program files/microchip/xc32/v2.50/bin/bin/../../lib/gcc/pic32mx/4.8.3/../../../../pic32mx/lib/micromips\libxcpp.a(memcmp.o)
 .debug_str     0x000006c0        0x0 d:/program files/microchip/xc32/v2.50/bin/bin/../../lib/gcc/pic32mx/4.8.3/../../../../pic32mx/lib/micromips\libxcpp.a(strcspn.o)
 .debug_str     0x000006c0        0x0 d:/program files/microchip/xc32/v2.50/bin/bin/../../lib/gcc/pic32mx/4.8.3/../../../../pic32mx/lib/micromips\libxcpp.a(strerror.o)
 .debug_str     0x000006c0        0x0 d:/program files/microchip/xc32/v2.50/bin/bin/../../lib/gcc/pic32mx/4.8.3/../../../../pic32mx/lib/micromips\libxcpp.a(xfindloc.o)
 .debug_str     0x000006c0        0x0 d:/program files/microchip/xc32/v2.50/bin/bin/../../lib/gcc/pic32mx/4.8.3/../../../../pic32mx/lib/micromips\libxcpp.a(xfreeloc.o)
 .debug_str     0x000006c0        0x0 d:/program files/microchip/xc32/v2.50/bin/bin/../../lib/gcc/pic32mx/4.8.3/../../../../pic32mx/lib/micromips\libxcpp.a(xgentime.o)
 .debug_str     0x000006c0        0x0 d:/program files/microchip/xc32/v2.50/bin/bin/../../lib/gcc/pic32mx/4.8.3/../../../../pic32mx/lib/micromips\libxcpp.a(xgettime.o)
 .debug_str     0x000006c0        0x0 d:/program files/microchip/xc32/v2.50/bin/bin/../../lib/gcc/pic32mx/4.8.3/../../../../pic32mx/lib/micromips\libxcpp.a(xgetzone.o)
 .debug_str     0x000006c0        0x0 d:/program files/microchip/xc32/v2.50/bin/bin/../../lib/gcc/pic32mx/4.8.3/../../../../pic32mx/lib/micromips\libxcpp.a(xloctab.o)
 .debug_str     0x000006c0        0x0 d:/program files/microchip/xc32/v2.50/bin/bin/../../lib/gcc/pic32mx/4.8.3/../../../../pic32mx/lib/micromips\libxcpp.a(xmakeloc.o)
 .debug_str     0x000006c0        0x0 d:/program files/microchip/xc32/v2.50/bin/bin/../../lib/gcc/pic32mx/4.8.3/../../../../pic32mx/lib/micromips\libxcpp.a(xmakesta.o)
 .debug_str     0x000006c0        0x0 d:/program files/microchip/xc32/v2.50/bin/bin/../../lib/gcc/pic32mx/4.8.3/../../../../pic32mx/lib/micromips\libxcpp.a(xmakewct.o)
 .debug_str     0x000006c0        0x0 d:/program files/microchip/xc32/v2.50/bin/bin/../../lib/gcc/pic32mx/4.8.3/../../../../pic32mx/lib/micromips\libxcpp.a(xreadloc.o)
 .debug_str     0x000006c0        0x0 d:/program files/microchip/xc32/v2.50/bin/bin/../../lib/gcc/pic32mx/4.8.3/../../../../pic32mx/lib/micromips\libxcpp.a(xstrerro.o)
 .debug_str     0x000006c0        0x0 d:/program files/microchip/xc32/v2.50/bin/bin/../../lib/gcc/pic32mx/4.8.3/../../../../pic32mx/lib/micromips\libxcpp.a(fgets.o)
 .debug_str     0x000006c0        0x0 d:/program files/microchip/xc32/v2.50/bin/bin/../../lib/gcc/pic32mx/4.8.3/../../../../pic32mx/lib/micromips\libxcpp.a(fopen.o)
 .debug_str     0x000006c0        0x0 d:/program files/microchip/xc32/v2.50/bin/bin/../../lib/gcc/pic32mx/4.8.3/../../../../pic32mx/lib/micromips\libxcpp.a(fputs.o)
 .debug_str     0x000006c0        0x0 d:/program files/microchip/xc32/v2.50/bin/bin/../../lib/gcc/pic32mx/4.8.3/../../../../pic32mx/lib/micromips\libxcpp.a(realloc.o)
 .debug_str     0x000006c0        0x0 d:/program files/microchip/xc32/v2.50/bin/bin/../../lib/gcc/pic32mx/4.8.3/../../../../pic32mx/lib/micromips\libxcpp.a(strchr.o)
 .debug_str     0x000006c0        0x0 d:/program files/microchip/xc32/v2.50/bin/bin/../../lib/gcc/pic32mx/4.8.3/../../../../pic32mx/lib/micromips\libxcpp.a(strncmp.o)
 .debug_str     0x000006c0        0x0 d:/program files/microchip/xc32/v2.50/bin/bin/../../lib/gcc/pic32mx/4.8.3/../../../../pic32mx/lib/micromips\libxcpp.a(strrchr.o)
 .debug_str     0x000006c0        0x0 d:/program files/microchip/xc32/v2.50/bin/bin/../../lib/gcc/pic32mx/4.8.3/../../../../pic32mx/lib/micromips\libxcpp.a(strspn.o)
 .debug_str     0x000006c0        0x0 d:/program files/microchip/xc32/v2.50/bin/bin/../../lib/gcc/pic32mx/4.8.3/../../../../pic32mx/lib/micromips\libxcpp.a(strtol.o)
 .debug_str     0x000006c0        0x0 d:/program files/microchip/xc32/v2.50/bin/bin/../../lib/gcc/pic32mx/4.8.3/../../../../pic32mx/lib/micromips\libxcpp.a(xfoprep.o)
 .debug_str     0x000006c0        0x0 d:/program files/microchip/xc32/v2.50/bin/bin/../../lib/gcc/pic32mx/4.8.3/../../../../pic32mx/lib/micromips\libxcpp.a(xlocterm.o)
 .debug_str     0x000006c0        0x0 d:/program files/microchip/xc32/v2.50/bin/bin/../../lib/gcc/pic32mx/4.8.3/../../../../pic32mx/lib/micromips\libxcpp.a(xstol.o)
 .debug_str     0x000006c0        0x0 d:/program files/microchip/xc32/v2.50/bin/bin/../../lib/gcc/pic32mx/4.8.3/../../../../pic32mx/lib/micromips\libxcpp.a(xstoul.o)
 .debug_str     0x000006c0        0x0 d:/program files/microchip/xc32/v2.50/bin/bin/../../lib/gcc/pic32mx/4.8.3/../../../../pic32mx/lib/micromips\libxcpp.a(xfopen.o)
 .debug_str     0x000006c0        0x0 d:/program files/microchip/xc32/v2.50/bin/bin/../../lib/gcc/pic32mx/4.8.3/../../../../pic32mx/lib/micromips\libpic32.a(sbrk.o)
 .debug_str     0x000006c0        0x0 d:/program files/microchip/xc32/v2.50/bin/bin/../../lib/gcc/pic32mx/4.8.3/../../../../pic32mx/lib/micromips\libpic32.a(_exit.o)
 .debug_str     0x000006c0        0x0 d:/program files/microchip/xc32/v2.50/bin/bin/../../lib/gcc/pic32mx/4.8.3/../../../../pic32mx/lib/micromips\libpic32.a(isatty.o)
 .debug_str     0x000006c0        0x0 d:/program files/microchip/xc32/v2.50/bin/bin/../../lib/gcc/pic32mx/4.8.3/../../../../pic32mx/lib/micromips\libpic32.a(read.o)
 .debug_str     0x000006c0        0x0 d:/program files/microchip/xc32/v2.50/bin/bin/../../lib/gcc/pic32mx/4.8.3/../../../../pic32mx/lib/micromips\libpic32.a(write.o)
 .debug_str     0x000006c0        0x0 d:/program files/microchip/xc32/v2.50/bin/bin/../../lib/gcc/pic32mx/4.8.3/../../../../pic32mx/lib/micromips\libpic32.a(lseek.o)
 .debug_str     0x000006c0        0x0 d:/program files/microchip/xc32/v2.50/bin/bin/../../lib/gcc/pic32mx/4.8.3/../../../../pic32mx/lib/micromips\libpic32.a(close.o)
 .debug_str     0x000006c0        0x0 d:/program files/microchip/xc32/v2.50/bin/bin/../../lib/gcc/pic32mx/4.8.3/../../../../pic32mx/lib/micromips\libpic32.a(open.o)
 .debug_str     0x000006c0        0x0 d:/program files/microchip/xc32/v2.50/bin/bin/../../lib/gcc/pic32mx/4.8.3/../../../../pic32mx/lib/micromips\libpic32.a(unlink.o)
 .debug_str     0x000006c0        0x0 d:/program files/microchip/xc32/v2.50/bin/bin/../../lib/gcc/pic32mx/4.8.3/../../../../pic32mx/lib/micromips\libpic32.a(kill.o)
 .debug_str     0x000006c0        0x0 d:/program files/microchip/xc32/v2.50/bin/bin/../../lib/gcc/pic32mx/4.8.3/../../../../pic32mx/lib/micromips\libpic32.a(getpid.o)
 .debug_str     0x000006c0        0x0 d:/program files/microchip/xc32/v2.50/bin/bin/../../lib/gcc/pic32mx/4.8.3/../../../../pic32mx/lib/micromips\libpic32.a(xc32_uart.o)
 .debug_str     0x000006c0        0x0 d:/program files/microchip/xc32/v2.50/bin/bin/../../lib/gcc/pic32mx/4.8.3/../../../../pic32mx/lib/micromips\libpic32.a(errno.o)
 .debug_str     0x000006c0        0x0 d:/program files/microchip/xc32/v2.50/bin/bin/../../lib/gcc/pic32mx/4.8.3/../../../../pic32mx/lib/micromips\libpic32.a(rmdir.o)
 .debug_str     0x000006c0        0x0 d:/program files/microchip/xc32/v2.50/bin/bin/../../lib/gcc/pic32mx/4.8.3/../../../../pic32mx/lib/micromips\libpic32.a(_mon_putc.o)

.debug_loc      0x00000000      0xa16
 *.elf(.debug_loc)
 *(.debug_loc)
 .debug_loc     0x00000000      0x8c2 d:/program files/microchip/xc32/v2.50/bin/bin/../../lib/gcc/pic32mx/4.8.3/micromips\libgcc.a(unwind-sjlj.o)
 .debug_loc     0x000008c2       0x2c d:/program files/microchip/xc32/v2.50/bin/bin/../../lib/gcc/pic32mx/4.8.3/../../../../pic32mx/lib/micromips\libpic32.a(default-bootstrap-exception-handler.o)
 .debug_loc     0x000008ee       0x2c d:/program files/microchip/xc32/v2.50/bin/bin/../../lib/gcc/pic32mx/4.8.3/../../../../pic32mx/lib/micromips\libpic32.a(default-general-exception-handler.o)
 .debug_loc     0x0000091a       0x78 d:/program files/microchip/xc32/v2.50/bin/bin/../../lib/gcc/pic32mx/4.8.3/../../../../pic32mx/lib/micromips\libpic32.a(sbrk.o)
 .debug_loc     0x00000992       0x20 d:/program files/microchip/xc32/v2.50/bin/bin/../../lib/gcc/pic32mx/4.8.3/../../../../pic32mx/lib/micromips\libpic32.a(read.o)
 .debug_loc     0x000009b2       0x44 d:/program files/microchip/xc32/v2.50/bin/bin/../../lib/gcc/pic32mx/4.8.3/../../../../pic32mx/lib/micromips\libpic32.a(write.o)
 .debug_loc     0x000009f6       0x20 d:/program files/microchip/xc32/v2.50/bin/bin/../../lib/gcc/pic32mx/4.8.3/../../../../pic32mx/lib/micromips\libpic32.a(_mon_putc.o)

.debug_macinfo
 *.elf(.debug_macinfo)
 *(.debug_macinfo)

.debug_weaknames
 *.elf(.debug_weaknames)
 *(.debug_weaknames)

.debug_funcnames
 *.elf(.debug_funcnames)
 *(.debug_funcnames)

.debug_typenames
 *.elf(.debug_typenames)
 *(.debug_typenames)

.debug_varnames
 *.elf(.debug_varnames)
 *(.debug_varnames)

.debug_pubtypes
 *.elf(.debug_pubtypes)
 *(.debug_pubtypes)

.debug_ranges   0x00000000     0x1428
 *.elf(.debug_ranges)
 *(.debug_ranges)
 .debug_ranges  0x00000000      0x300 build/default/production/main.o
 .debug_ranges  0x00000300       0xb8 d:/program files/microchip/xc32/v2.50/bin/bin/../../lib/gcc/pic32mx/4.8.3/micromips\libgcc.a(unwind-sjlj.o)
 .debug_ranges  0x000003b8       0x10 d:/program files/microchip/xc32/v2.50/bin/bin/../../lib/gcc/pic32mx/4.8.3/../../../../pic32mx/lib/micromips\libpic32.a(default-bootstrap-exception-handler.o)
 .debug_ranges  0x000003c8       0x10 d:/program files/microchip/xc32/v2.50/bin/bin/../../lib/gcc/pic32mx/4.8.3/../../../../pic32mx/lib/micromips\libpic32.a(default-on-reset.o)
 .debug_ranges  0x000003d8       0x10 d:/program files/microchip/xc32/v2.50/bin/bin/../../lib/gcc/pic32mx/4.8.3/../../../../pic32mx/lib/micromips\libpic32.a(default-on-bootstrap.o)
 .debug_ranges  0x000003e8       0x10 d:/program files/microchip/xc32/v2.50/bin/bin/../../lib/gcc/pic32mx/4.8.3/../../../../pic32mx/lib/micromips\libpic32.a(default-general-exception-handler.o)
 .debug_ranges  0x000003f8       0x10 d:/program files/microchip/xc32/v2.50/bin/bin/../../lib/gcc/pic32mx/4.8.3/../../../../pic32mx/lib/micromips\libpic32.a(defaultinterrupt.o)
 .debug_ranges  0x00000408      0x310 d:/program files/microchip/xc32/v2.50/bin/bin/../../lib/gcc/pic32mx/4.8.3/../../../../pic32mx/lib/micromips\libxcpp.a(iostream.o)
 .debug_ranges  0x00000718       0xd0 d:/program files/microchip/xc32/v2.50/bin/bin/../../lib/gcc/pic32mx/4.8.3/../../../../pic32mx/lib/micromips\libxcpp.a(xthrow.o)
 .debug_ranges  0x000007e8      0x348 d:/program files/microchip/xc32/v2.50/bin/bin/../../lib/gcc/pic32mx/4.8.3/../../../../pic32mx/lib/micromips\libxcpp.a(wiostrea.o)
 .debug_ranges  0x00000b30       0xa0 d:/program files/microchip/xc32/v2.50/bin/bin/../../lib/gcc/pic32mx/4.8.3/../../../../pic32mx/lib/micromips\libxcpp.a(locale0.o)
 .debug_ranges  0x00000bd0       0x10 d:/program files/microchip/xc32/v2.50/bin/bin/../../lib/gcc/pic32mx/4.8.3/../../../../pic32mx/lib/micromips\libxcpp.a(abort.o)
 .debug_ranges  0x00000be0       0x10 d:/program files/microchip/xc32/v2.50/bin/bin/../../lib/gcc/pic32mx/4.8.3/../../../../pic32mx/lib/micromips\libxcpp.a(abs.o)
 .debug_ranges  0x00000bf0       0x18 d:/program files/microchip/xc32/v2.50/bin/bin/../../lib/gcc/pic32mx/4.8.3/../../../../pic32mx/lib/micromips\libxcpp.a(asctime.o)
 .debug_ranges  0x00000c08       0x20 d:/program files/microchip/xc32/v2.50/bin/bin/../../lib/gcc/pic32mx/4.8.3/../../../../pic32mx/lib/micromips\libxcpp.a(exit.o)
 .debug_ranges  0x00000c28       0x20 d:/program files/microchip/xc32/v2.50/bin/bin/../../lib/gcc/pic32mx/4.8.3/../../../../pic32mx/lib/micromips\libxcpp.a(fclose.o)
 .debug_ranges  0x00000c48       0x10 d:/program files/microchip/xc32/v2.50/bin/bin/../../lib/gcc/pic32mx/4.8.3/../../../../pic32mx/lib/micromips\libxcpp.a(fflush.o)
 .debug_ranges  0x00000c58       0x10 d:/program files/microchip/xc32/v2.50/bin/bin/../../lib/gcc/pic32mx/4.8.3/../../../../pic32mx/lib/micromips\libxcpp.a(fgetc.o)
 .debug_ranges  0x00000c68       0x10 d:/program files/microchip/xc32/v2.50/bin/bin/../../lib/gcc/pic32mx/4.8.3/../../../../pic32mx/lib/micromips\libxcpp.a(fgetpos.o)
 .debug_ranges  0x00000c78       0x10 d:/program files/microchip/xc32/v2.50/bin/bin/../../lib/gcc/pic32mx/4.8.3/../../../../pic32mx/lib/micromips\libxcpp.a(fgetwc.o)
 .debug_ranges  0x00000c88       0x10 d:/program files/microchip/xc32/v2.50/bin/bin/../../lib/gcc/pic32mx/4.8.3/../../../../pic32mx/lib/micromips\libxcpp.a(fputc.o)
 .debug_ranges  0x00000c98       0x10 d:/program files/microchip/xc32/v2.50/bin/bin/../../lib/gcc/pic32mx/4.8.3/../../../../pic32mx/lib/micromips\libxcpp.a(fputwc.o)
 .debug_ranges  0x00000ca8       0x10 d:/program files/microchip/xc32/v2.50/bin/bin/../../lib/gcc/pic32mx/4.8.3/../../../../pic32mx/lib/micromips\libxcpp.a(free.o)
 .debug_ranges  0x00000cb8       0x10 d:/program files/microchip/xc32/v2.50/bin/bin/../../lib/gcc/pic32mx/4.8.3/../../../../pic32mx/lib/micromips\libxcpp.a(fseek.o)
 .debug_ranges  0x00000cc8       0x10 d:/program files/microchip/xc32/v2.50/bin/bin/../../lib/gcc/pic32mx/4.8.3/../../../../pic32mx/lib/micromips\libxcpp.a(fsetpos.o)
 .debug_ranges  0x00000cd8       0x10 d:/program files/microchip/xc32/v2.50/bin/bin/../../lib/gcc/pic32mx/4.8.3/../../../../pic32mx/lib/micromips\libxcpp.a(fwrite.o)
 .debug_ranges  0x00000ce8       0x10 d:/program files/microchip/xc32/v2.50/bin/bin/../../lib/gcc/pic32mx/4.8.3/../../../../pic32mx/lib/micromips\libxcpp.a(malloc.o)
 .debug_ranges  0x00000cf8       0x10 d:/program files/microchip/xc32/v2.50/bin/bin/../../lib/gcc/pic32mx/4.8.3/../../../../pic32mx/lib/micromips\libxcpp.a(memchr.o)
 .debug_ranges  0x00000d08       0x10 d:/program files/microchip/xc32/v2.50/bin/bin/../../lib/gcc/pic32mx/4.8.3/../../../../pic32mx/lib/micromips\libxcpp.a(memmove.o)
 .debug_ranges  0x00000d18       0x10 d:/program files/microchip/xc32/v2.50/bin/bin/../../lib/gcc/pic32mx/4.8.3/../../../../pic32mx/lib/micromips\libxcpp.a(raise.o)
 .debug_ranges  0x00000d28       0x10 d:/program files/microchip/xc32/v2.50/bin/bin/../../lib/gcc/pic32mx/4.8.3/../../../../pic32mx/lib/micromips\libxcpp.a(remove.o)
 .debug_ranges  0x00000d38       0x40 d:/program files/microchip/xc32/v2.50/bin/bin/../../lib/gcc/pic32mx/4.8.3/../../../../pic32mx/lib/micromips\libxcpp.a(setlocal.o)
 .debug_ranges  0x00000d78       0x10 d:/program files/microchip/xc32/v2.50/bin/bin/../../lib/gcc/pic32mx/4.8.3/../../../../pic32mx/lib/micromips\libxcpp.a(setvbuf.o)
 .debug_ranges  0x00000d88       0x10 d:/program files/microchip/xc32/v2.50/bin/bin/../../lib/gcc/pic32mx/4.8.3/../../../../pic32mx/lib/micromips\libxcpp.a(strcpy.o)
 .debug_ranges  0x00000d98       0x10 d:/program files/microchip/xc32/v2.50/bin/bin/../../lib/gcc/pic32mx/4.8.3/../../../../pic32mx/lib/micromips\libxcpp.a(ungetc.o)
 .debug_ranges  0x00000da8       0x10 d:/program files/microchip/xc32/v2.50/bin/bin/../../lib/gcc/pic32mx/4.8.3/../../../../pic32mx/lib/micromips\libxcpp.a(ungetwc.o)
 .debug_ranges  0x00000db8       0x10 d:/program files/microchip/xc32/v2.50/bin/bin/../../lib/gcc/pic32mx/4.8.3/../../../../pic32mx/lib/micromips\libxcpp.a(wmemcpy.o)
 .debug_ranges  0x00000dc8       0x10 d:/program files/microchip/xc32/v2.50/bin/bin/../../lib/gcc/pic32mx/4.8.3/../../../../pic32mx/lib/micromips\libxcpp.a(xatexit.o)
 .debug_ranges  0x00000dd8       0x10 d:/program files/microchip/xc32/v2.50/bin/bin/../../lib/gcc/pic32mx/4.8.3/../../../../pic32mx/lib/micromips\libxcpp.a(xcostate.o)
 .debug_ranges  0x00000de8       0x10 d:/program files/microchip/xc32/v2.50/bin/bin/../../lib/gcc/pic32mx/4.8.3/../../../../pic32mx/lib/micromips\libxcpp.a(xctype.o)
 .debug_ranges  0x00000df8       0x10 d:/program files/microchip/xc32/v2.50/bin/bin/../../lib/gcc/pic32mx/4.8.3/../../../../pic32mx/lib/micromips\libxcpp.a(xdefloc.o)
 .debug_ranges  0x00000e08       0x10 d:/program files/microchip/xc32/v2.50/bin/bin/../../lib/gcc/pic32mx/4.8.3/../../../../pic32mx/lib/micromips\libxcpp.a(xexit.o)
 .debug_ranges  0x00000e18       0x18 d:/program files/microchip/xc32/v2.50/bin/bin/../../lib/gcc/pic32mx/4.8.3/../../../../pic32mx/lib/micromips\libxcpp.a(xfgpos.o)
 .debug_ranges  0x00000e30       0x18 d:/program files/microchip/xc32/v2.50/bin/bin/../../lib/gcc/pic32mx/4.8.3/../../../../pic32mx/lib/micromips\libxcpp.a(xfofind.o)
 .debug_ranges  0x00000e48       0x10 d:/program files/microchip/xc32/v2.50/bin/bin/../../lib/gcc/pic32mx/4.8.3/../../../../pic32mx/lib/micromips\libxcpp.a(xfrprep.o)
 .debug_ranges  0x00000e58       0x10 d:/program files/microchip/xc32/v2.50/bin/bin/../../lib/gcc/pic32mx/4.8.3/../../../../pic32mx/lib/micromips\libxcpp.a(xfspos.o)
 .debug_ranges  0x00000e68       0x10 d:/program files/microchip/xc32/v2.50/bin/bin/../../lib/gcc/pic32mx/4.8.3/../../../../pic32mx/lib/micromips\libxcpp.a(xfwprep.o)
 .debug_ranges  0x00000e78       0x28 d:/program files/microchip/xc32/v2.50/bin/bin/../../lib/gcc/pic32mx/4.8.3/../../../../pic32mx/lib/micromips\libxcpp.a(xgetglob.o)
 .debug_ranges  0x00000ea0       0x18 d:/program files/microchip/xc32/v2.50/bin/bin/../../lib/gcc/pic32mx/4.8.3/../../../../pic32mx/lib/micromips\libxcpp.a(xgetloc.o)
 .debug_ranges  0x00000eb8       0x10 d:/program files/microchip/xc32/v2.50/bin/bin/../../lib/gcc/pic32mx/4.8.3/../../../../pic32mx/lib/micromips\libxcpp.a(xgetmem.o)
 .debug_ranges  0x00000ec8       0x18 d:/program files/microchip/xc32/v2.50/bin/bin/../../lib/gcc/pic32mx/4.8.3/../../../../pic32mx/lib/micromips\libxcpp.a(xmbtowc.o)
 .debug_ranges  0x00000ee0       0x10 d:/program files/microchip/xc32/v2.50/bin/bin/../../lib/gcc/pic32mx/4.8.3/../../../../pic32mx/lib/micromips\libxcpp.a(xsetloc.o)
 .debug_ranges  0x00000ef0       0x18 d:/program files/microchip/xc32/v2.50/bin/bin/../../lib/gcc/pic32mx/4.8.3/../../../../pic32mx/lib/micromips\libxcpp.a(xstate.o)
 .debug_ranges  0x00000f08       0x10 d:/program files/microchip/xc32/v2.50/bin/bin/../../lib/gcc/pic32mx/4.8.3/../../../../pic32mx/lib/micromips\libxcpp.a(xstrftim.o)
 .debug_ranges  0x00000f18       0x10 d:/program files/microchip/xc32/v2.50/bin/bin/../../lib/gcc/pic32mx/4.8.3/../../../../pic32mx/lib/micromips\libxcpp.a(xtolotab.o)
 .debug_ranges  0x00000f28       0x10 d:/program files/microchip/xc32/v2.50/bin/bin/../../lib/gcc/pic32mx/4.8.3/../../../../pic32mx/lib/micromips\libxcpp.a(xtouptab.o)
 .debug_ranges  0x00000f38       0x10 d:/program files/microchip/xc32/v2.50/bin/bin/../../lib/gcc/pic32mx/4.8.3/../../../../pic32mx/lib/micromips\libxcpp.a(xwcostate.o)
 .debug_ranges  0x00000f48       0x10 d:/program files/microchip/xc32/v2.50/bin/bin/../../lib/gcc/pic32mx/4.8.3/../../../../pic32mx/lib/micromips\libxcpp.a(xwcstate.o)
 .debug_ranges  0x00000f58       0x18 d:/program files/microchip/xc32/v2.50/bin/bin/../../lib/gcc/pic32mx/4.8.3/../../../../pic32mx/lib/micromips\libxcpp.a(xwctomb.o)
 .debug_ranges  0x00000f70       0x10 d:/program files/microchip/xc32/v2.50/bin/bin/../../lib/gcc/pic32mx/4.8.3/../../../../pic32mx/lib/micromips\libxcpp.a(xwctrtab.o)
 .debug_ranges  0x00000f80       0x10 d:/program files/microchip/xc32/v2.50/bin/bin/../../lib/gcc/pic32mx/4.8.3/../../../../pic32mx/lib/micromips\libxcpp.a(xwctytab.o)
 .debug_ranges  0x00000f90       0x10 d:/program files/microchip/xc32/v2.50/bin/bin/../../lib/gcc/pic32mx/4.8.3/../../../../pic32mx/lib/micromips\libxcpp.a(xwfrprep.o)
 .debug_ranges  0x00000fa0       0x10 d:/program files/microchip/xc32/v2.50/bin/bin/../../lib/gcc/pic32mx/4.8.3/../../../../pic32mx/lib/micromips\libxcpp.a(xwfwprep.o)
 .debug_ranges  0x00000fb0       0xf8 d:/program files/microchip/xc32/v2.50/bin/bin/../../lib/gcc/pic32mx/4.8.3/../../../../pic32mx/lib/micromips\libxcpp.a(syserror.o)
 .debug_ranges  0x000010a8       0x10 d:/program files/microchip/xc32/v2.50/bin/bin/../../lib/gcc/pic32mx/4.8.3/../../../../pic32mx/lib/micromips\libxcpp.a(delaop.o)
 .debug_ranges  0x000010b8       0x48 d:/program files/microchip/xc32/v2.50/bin/bin/../../lib/gcc/pic32mx/4.8.3/../../../../pic32mx/lib/micromips\libxcpp.a(ios.o)
 .debug_ranges  0x00001100       0x10 d:/program files/microchip/xc32/v2.50/bin/bin/../../lib/gcc/pic32mx/4.8.3/../../../../pic32mx/lib/micromips\libxcpp.a(delop3.o)
 .debug_ranges  0x00001110       0x10 d:/program files/microchip/xc32/v2.50/bin/bin/../../lib/gcc/pic32mx/4.8.3/../../../../pic32mx/lib/micromips\libxcpp.a(errno.o)
 .debug_ranges  0x00001120       0x10 d:/program files/microchip/xc32/v2.50/bin/bin/../../lib/gcc/pic32mx/4.8.3/../../../../pic32mx/lib/micromips\libxcpp.a(getenv.o)
 .debug_ranges  0x00001130       0x10 d:/program files/microchip/xc32/v2.50/bin/bin/../../lib/gcc/pic32mx/4.8.3/../../../../pic32mx/lib/micromips\libxcpp.a(localeco.o)
 .debug_ranges  0x00001140       0x10 d:/program files/microchip/xc32/v2.50/bin/bin/../../lib/gcc/pic32mx/4.8.3/../../../../pic32mx/lib/micromips\libxcpp.a(memcmp.o)
 .debug_ranges  0x00001150       0x10 d:/program files/microchip/xc32/v2.50/bin/bin/../../lib/gcc/pic32mx/4.8.3/../../../../pic32mx/lib/micromips\libxcpp.a(strcspn.o)
 .debug_ranges  0x00001160       0x10 d:/program files/microchip/xc32/v2.50/bin/bin/../../lib/gcc/pic32mx/4.8.3/../../../../pic32mx/lib/micromips\libxcpp.a(strerror.o)
 .debug_ranges  0x00001170       0x18 d:/program files/microchip/xc32/v2.50/bin/bin/../../lib/gcc/pic32mx/4.8.3/../../../../pic32mx/lib/micromips\libxcpp.a(xfindloc.o)
 .debug_ranges  0x00001188       0x10 d:/program files/microchip/xc32/v2.50/bin/bin/../../lib/gcc/pic32mx/4.8.3/../../../../pic32mx/lib/micromips\libxcpp.a(xfreeloc.o)
 .debug_ranges  0x00001198       0x30 d:/program files/microchip/xc32/v2.50/bin/bin/../../lib/gcc/pic32mx/4.8.3/../../../../pic32mx/lib/micromips\libxcpp.a(xgentime.o)
 .debug_ranges  0x000011c8       0x10 d:/program files/microchip/xc32/v2.50/bin/bin/../../lib/gcc/pic32mx/4.8.3/../../../../pic32mx/lib/micromips\libxcpp.a(xgettime.o)
 .debug_ranges  0x000011d8       0x10 d:/program files/microchip/xc32/v2.50/bin/bin/../../lib/gcc/pic32mx/4.8.3/../../../../pic32mx/lib/micromips\libxcpp.a(xgetzone.o)
 .debug_ranges  0x000011e8       0x20 d:/program files/microchip/xc32/v2.50/bin/bin/../../lib/gcc/pic32mx/4.8.3/../../../../pic32mx/lib/micromips\libxcpp.a(xmakeloc.o)
 .debug_ranges  0x00001208       0x10 d:/program files/microchip/xc32/v2.50/bin/bin/../../lib/gcc/pic32mx/4.8.3/../../../../pic32mx/lib/micromips\libxcpp.a(xmakesta.o)
 .debug_ranges  0x00001218       0x10 d:/program files/microchip/xc32/v2.50/bin/bin/../../lib/gcc/pic32mx/4.8.3/../../../../pic32mx/lib/micromips\libxcpp.a(xmakewct.o)
 .debug_ranges  0x00001228       0x10 d:/program files/microchip/xc32/v2.50/bin/bin/../../lib/gcc/pic32mx/4.8.3/../../../../pic32mx/lib/micromips\libxcpp.a(xreadloc.o)
 .debug_ranges  0x00001238       0x10 d:/program files/microchip/xc32/v2.50/bin/bin/../../lib/gcc/pic32mx/4.8.3/../../../../pic32mx/lib/micromips\libxcpp.a(xstrerro.o)
 .debug_ranges  0x00001248       0x10 d:/program files/microchip/xc32/v2.50/bin/bin/../../lib/gcc/pic32mx/4.8.3/../../../../pic32mx/lib/micromips\libxcpp.a(fgets.o)
 .debug_ranges  0x00001258       0x10 d:/program files/microchip/xc32/v2.50/bin/bin/../../lib/gcc/pic32mx/4.8.3/../../../../pic32mx/lib/micromips\libxcpp.a(fopen.o)
 .debug_ranges  0x00001268       0x10 d:/program files/microchip/xc32/v2.50/bin/bin/../../lib/gcc/pic32mx/4.8.3/../../../../pic32mx/lib/micromips\libxcpp.a(fputs.o)
 .debug_ranges  0x00001278       0x10 d:/program files/microchip/xc32/v2.50/bin/bin/../../lib/gcc/pic32mx/4.8.3/../../../../pic32mx/lib/micromips\libxcpp.a(realloc.o)
 .debug_ranges  0x00001288       0x10 d:/program files/microchip/xc32/v2.50/bin/bin/../../lib/gcc/pic32mx/4.8.3/../../../../pic32mx/lib/micromips\libxcpp.a(strchr.o)
 .debug_ranges  0x00001298       0x10 d:/program files/microchip/xc32/v2.50/bin/bin/../../lib/gcc/pic32mx/4.8.3/../../../../pic32mx/lib/micromips\libxcpp.a(strncmp.o)
 .debug_ranges  0x000012a8       0x10 d:/program files/microchip/xc32/v2.50/bin/bin/../../lib/gcc/pic32mx/4.8.3/../../../../pic32mx/lib/micromips\libxcpp.a(strrchr.o)
 .debug_ranges  0x000012b8       0x10 d:/program files/microchip/xc32/v2.50/bin/bin/../../lib/gcc/pic32mx/4.8.3/../../../../pic32mx/lib/micromips\libxcpp.a(strspn.o)
 .debug_ranges  0x000012c8       0x10 d:/program files/microchip/xc32/v2.50/bin/bin/../../lib/gcc/pic32mx/4.8.3/../../../../pic32mx/lib/micromips\libxcpp.a(strtol.o)
 .debug_ranges  0x000012d8       0x10 d:/program files/microchip/xc32/v2.50/bin/bin/../../lib/gcc/pic32mx/4.8.3/../../../../pic32mx/lib/micromips\libxcpp.a(xfoprep.o)
 .debug_ranges  0x000012e8       0x18 d:/program files/microchip/xc32/v2.50/bin/bin/../../lib/gcc/pic32mx/4.8.3/../../../../pic32mx/lib/micromips\libxcpp.a(xlocterm.o)
 .debug_ranges  0x00001300       0x10 d:/program files/microchip/xc32/v2.50/bin/bin/../../lib/gcc/pic32mx/4.8.3/../../../../pic32mx/lib/micromips\libxcpp.a(xstol.o)
 .debug_ranges  0x00001310       0x18 d:/program files/microchip/xc32/v2.50/bin/bin/../../lib/gcc/pic32mx/4.8.3/../../../../pic32mx/lib/micromips\libxcpp.a(xstoul.o)
 .debug_ranges  0x00001328       0x10 d:/program files/microchip/xc32/v2.50/bin/bin/../../lib/gcc/pic32mx/4.8.3/../../../../pic32mx/lib/micromips\libxcpp.a(xfopen.o)
 .debug_ranges  0x00001338       0x30 d:/program files/microchip/xc32/v2.50/bin/bin/../../lib/gcc/pic32mx/4.8.3/../../../../pic32mx/lib/micromips\libpic32.a(sbrk.o)
 .debug_ranges  0x00001368       0x10 d:/program files/microchip/xc32/v2.50/bin/bin/../../lib/gcc/pic32mx/4.8.3/../../../../pic32mx/lib/micromips\libpic32.a(_exit.o)
 .debug_ranges  0x00001378       0x10 d:/program files/microchip/xc32/v2.50/bin/bin/../../lib/gcc/pic32mx/4.8.3/../../../../pic32mx/lib/micromips\libpic32.a(isatty.o)
 .debug_ranges  0x00001388       0x10 d:/program files/microchip/xc32/v2.50/bin/bin/../../lib/gcc/pic32mx/4.8.3/../../../../pic32mx/lib/micromips\libpic32.a(read.o)
 .debug_ranges  0x00001398       0x10 d:/program files/microchip/xc32/v2.50/bin/bin/../../lib/gcc/pic32mx/4.8.3/../../../../pic32mx/lib/micromips\libpic32.a(write.o)
 .debug_ranges  0x000013a8       0x10 d:/program files/microchip/xc32/v2.50/bin/bin/../../lib/gcc/pic32mx/4.8.3/../../../../pic32mx/lib/micromips\libpic32.a(lseek.o)
 .debug_ranges  0x000013b8       0x10 d:/program files/microchip/xc32/v2.50/bin/bin/../../lib/gcc/pic32mx/4.8.3/../../../../pic32mx/lib/micromips\libpic32.a(close.o)
 .debug_ranges  0x000013c8       0x10 d:/program files/microchip/xc32/v2.50/bin/bin/../../lib/gcc/pic32mx/4.8.3/../../../../pic32mx/lib/micromips\libpic32.a(open.o)
 .debug_ranges  0x000013d8       0x10 d:/program files/microchip/xc32/v2.50/bin/bin/../../lib/gcc/pic32mx/4.8.3/../../../../pic32mx/lib/micromips\libpic32.a(unlink.o)
 .debug_ranges  0x000013e8       0x10 d:/program files/microchip/xc32/v2.50/bin/bin/../../lib/gcc/pic32mx/4.8.3/../../../../pic32mx/lib/micromips\libpic32.a(kill.o)
 .debug_ranges  0x000013f8       0x10 d:/program files/microchip/xc32/v2.50/bin/bin/../../lib/gcc/pic32mx/4.8.3/../../../../pic32mx/lib/micromips\libpic32.a(getpid.o)
 .debug_ranges  0x00001408       0x10 d:/program files/microchip/xc32/v2.50/bin/bin/../../lib/gcc/pic32mx/4.8.3/../../../../pic32mx/lib/micromips\libpic32.a(rmdir.o)
 .debug_ranges  0x00001418       0x10 d:/program files/microchip/xc32/v2.50/bin/bin/../../lib/gcc/pic32mx/4.8.3/../../../../pic32mx/lib/micromips\libpic32.a(_mon_putc.o)

.gnu.attributes
                0x00000000       0x10
 *(.gnu.attributes)
 .gnu.attributes
                0x00000000       0x10 d:/program files/microchip/xc32/v2.50/bin/bin/../../lib/gcc/pic32mx/4.8.3/micromips/crtbegin.o
 .gnu.attributes
                0x00000010       0x10 build/default/production/main.o
 .gnu.attributes
                0x00000020       0x10 d:/program files/microchip/xc32/v2.50/bin/bin/../../lib/gcc/pic32mx/4.8.3/../../../../pic32mx/lib/micromips\libsupc++.a(class_type_info.o)
 .gnu.attributes
                0x00000030       0x10 d:/program files/microchip/xc32/v2.50/bin/bin/../../lib/gcc/pic32mx/4.8.3/../../../../pic32mx/lib/micromips\libsupc++.a(del_op.o)
 .gnu.attributes
                0x00000040       0x10 d:/program files/microchip/xc32/v2.50/bin/bin/../../lib/gcc/pic32mx/4.8.3/../../../../pic32mx/lib/micromips\libsupc++.a(eh_alloc.o)
 .gnu.attributes
                0x00000050       0x10 d:/program files/microchip/xc32/v2.50/bin/bin/../../lib/gcc/pic32mx/4.8.3/../../../../pic32mx/lib/micromips\libsupc++.a(eh_catch.o)
 .gnu.attributes
                0x00000060       0x10 d:/program files/microchip/xc32/v2.50/bin/bin/../../lib/gcc/pic32mx/4.8.3/../../../../pic32mx/lib/micromips\libsupc++.a(eh_exception.o)
 .gnu.attributes
                0x00000070       0x10 d:/program files/microchip/xc32/v2.50/bin/bin/../../lib/gcc/pic32mx/4.8.3/../../../../pic32mx/lib/micromips\libsupc++.a(eh_globals.o)
 .gnu.attributes
                0x00000080       0x10 d:/program files/microchip/xc32/v2.50/bin/bin/../../lib/gcc/pic32mx/4.8.3/../../../../pic32mx/lib/micromips\libsupc++.a(eh_personality.o)
 .gnu.attributes
                0x00000090       0x10 d:/program files/microchip/xc32/v2.50/bin/bin/../../lib/gcc/pic32mx/4.8.3/../../../../pic32mx/lib/micromips\libsupc++.a(eh_terminate.o)
 .gnu.attributes
                0x000000a0       0x10 d:/program files/microchip/xc32/v2.50/bin/bin/../../lib/gcc/pic32mx/4.8.3/../../../../pic32mx/lib/micromips\libsupc++.a(eh_throw.o)
 .gnu.attributes
                0x000000b0       0x10 d:/program files/microchip/xc32/v2.50/bin/bin/../../lib/gcc/pic32mx/4.8.3/../../../../pic32mx/lib/micromips\libsupc++.a(eh_unex_handler.o)
 .gnu.attributes
                0x000000c0       0x10 d:/program files/microchip/xc32/v2.50/bin/bin/../../lib/gcc/pic32mx/4.8.3/../../../../pic32mx/lib/micromips\libsupc++.a(new_op.o)
 .gnu.attributes
                0x000000d0       0x10 d:/program files/microchip/xc32/v2.50/bin/bin/../../lib/gcc/pic32mx/4.8.3/../../../../pic32mx/lib/micromips\libsupc++.a(si_class_type_info.o)
 .gnu.attributes
                0x000000e0       0x10 d:/program files/microchip/xc32/v2.50/bin/bin/../../lib/gcc/pic32mx/4.8.3/../../../../pic32mx/lib/micromips\libsupc++.a(tinfo.o)
 .gnu.attributes
                0x000000f0       0x10 d:/program files/microchip/xc32/v2.50/bin/bin/../../lib/gcc/pic32mx/4.8.3/../../../../pic32mx/lib/micromips\libsupc++.a(pure.o)
 .gnu.attributes
                0x00000100       0x10 d:/program files/microchip/xc32/v2.50/bin/bin/../../lib/gcc/pic32mx/4.8.3/../../../../pic32mx/lib/micromips\libsupc++.a(eh_call.o)
 .gnu.attributes
                0x00000110       0x10 d:/program files/microchip/xc32/v2.50/bin/bin/../../lib/gcc/pic32mx/4.8.3/../../../../pic32mx/lib/micromips\libsupc++.a(eh_term_handler.o)
 .gnu.attributes
                0x00000120       0x10 d:/program files/microchip/xc32/v2.50/bin/bin/../../lib/gcc/pic32mx/4.8.3/../../../../pic32mx/lib/micromips\libsupc++.a(new_handler.o)
 .gnu.attributes
                0x00000130       0x10 d:/program files/microchip/xc32/v2.50/bin/bin/../../lib/gcc/pic32mx/4.8.3/micromips\libgcc.a(unwind-sjlj.o)
 .gnu.attributes
                0x00000140       0x10 d:/program files/microchip/xc32/v2.50/bin/bin/../../lib/gcc/pic32mx/4.8.3/../../../../pic32mx/lib/micromips\libpic32.a(default-bootstrap-exception-handler.o)
 .gnu.attributes
                0x00000150       0x10 d:/program files/microchip/xc32/v2.50/bin/bin/../../lib/gcc/pic32mx/4.8.3/../../../../pic32mx/lib/micromips\libpic32.a(default-on-reset.o)
 .gnu.attributes
                0x00000160       0x10 d:/program files/microchip/xc32/v2.50/bin/bin/../../lib/gcc/pic32mx/4.8.3/../../../../pic32mx/lib/micromips\libpic32.a(default-on-bootstrap.o)
 .gnu.attributes
                0x00000170       0x10 d:/program files/microchip/xc32/v2.50/bin/bin/../../lib/gcc/pic32mx/4.8.3/../../../../pic32mx/lib/micromips\libpic32.a(default-general-exception-handler.o)
 .gnu.attributes
                0x00000180       0x10 d:/program files/microchip/xc32/v2.50/bin/bin/../../lib/gcc/pic32mx/4.8.3/../../../../pic32mx/lib/micromips\libpic32.a(defaultinterrupt.o)
 .gnu.attributes
                0x00000190       0x10 d:/program files/microchip/xc32/v2.50/bin/bin/../../lib/gcc/pic32mx/4.8.3/../../../../pic32mx/lib/micromips\libxcpp.a(iostream.o)
 .gnu.attributes
                0x000001a0       0x10 d:/program files/microchip/xc32/v2.50/bin/bin/../../lib/gcc/pic32mx/4.8.3/../../../../pic32mx/lib/micromips\libxcpp.a(xthrow.o)
 .gnu.attributes
                0x000001b0       0x10 d:/program files/microchip/xc32/v2.50/bin/bin/../../lib/gcc/pic32mx/4.8.3/../../../../pic32mx/lib/micromips\libxcpp.a(wiostrea.o)
 .gnu.attributes
                0x000001c0       0x10 d:/program files/microchip/xc32/v2.50/bin/bin/../../lib/gcc/pic32mx/4.8.3/../../../../pic32mx/lib/micromips\libxcpp.a(locale0.o)
 .gnu.attributes
                0x000001d0       0x10 d:/program files/microchip/xc32/v2.50/bin/bin/../../lib/gcc/pic32mx/4.8.3/../../../../pic32mx/lib/micromips\libxcpp.a(abort.o)
 .gnu.attributes
                0x000001e0       0x10 d:/program files/microchip/xc32/v2.50/bin/bin/../../lib/gcc/pic32mx/4.8.3/../../../../pic32mx/lib/micromips\libxcpp.a(abs.o)
 .gnu.attributes
                0x000001f0       0x10 d:/program files/microchip/xc32/v2.50/bin/bin/../../lib/gcc/pic32mx/4.8.3/../../../../pic32mx/lib/micromips\libxcpp.a(asctime.o)
 .gnu.attributes
                0x00000200       0x10 d:/program files/microchip/xc32/v2.50/bin/bin/../../lib/gcc/pic32mx/4.8.3/../../../../pic32mx/lib/micromips\libxcpp.a(exit.o)
 .gnu.attributes
                0x00000210       0x10 d:/program files/microchip/xc32/v2.50/bin/bin/../../lib/gcc/pic32mx/4.8.3/../../../../pic32mx/lib/micromips\libxcpp.a(fclose.o)
 .gnu.attributes
                0x00000220       0x10 d:/program files/microchip/xc32/v2.50/bin/bin/../../lib/gcc/pic32mx/4.8.3/../../../../pic32mx/lib/micromips\libxcpp.a(fflush.o)
 .gnu.attributes
                0x00000230       0x10 d:/program files/microchip/xc32/v2.50/bin/bin/../../lib/gcc/pic32mx/4.8.3/../../../../pic32mx/lib/micromips\libxcpp.a(fgetc.o)
 .gnu.attributes
                0x00000240       0x10 d:/program files/microchip/xc32/v2.50/bin/bin/../../lib/gcc/pic32mx/4.8.3/../../../../pic32mx/lib/micromips\libxcpp.a(fgetpos.o)
 .gnu.attributes
                0x00000250       0x10 d:/program files/microchip/xc32/v2.50/bin/bin/../../lib/gcc/pic32mx/4.8.3/../../../../pic32mx/lib/micromips\libxcpp.a(fgetwc.o)
 .gnu.attributes
                0x00000260       0x10 d:/program files/microchip/xc32/v2.50/bin/bin/../../lib/gcc/pic32mx/4.8.3/../../../../pic32mx/lib/micromips\libxcpp.a(fputc.o)
 .gnu.attributes
                0x00000270       0x10 d:/program files/microchip/xc32/v2.50/bin/bin/../../lib/gcc/pic32mx/4.8.3/../../../../pic32mx/lib/micromips\libxcpp.a(fputwc.o)
 .gnu.attributes
                0x00000280       0x10 d:/program files/microchip/xc32/v2.50/bin/bin/../../lib/gcc/pic32mx/4.8.3/../../../../pic32mx/lib/micromips\libxcpp.a(free.o)
 .gnu.attributes
                0x00000290       0x10 d:/program files/microchip/xc32/v2.50/bin/bin/../../lib/gcc/pic32mx/4.8.3/../../../../pic32mx/lib/micromips\libxcpp.a(fseek.o)
 .gnu.attributes
                0x000002a0       0x10 d:/program files/microchip/xc32/v2.50/bin/bin/../../lib/gcc/pic32mx/4.8.3/../../../../pic32mx/lib/micromips\libxcpp.a(fsetpos.o)
 .gnu.attributes
                0x000002b0       0x10 d:/program files/microchip/xc32/v2.50/bin/bin/../../lib/gcc/pic32mx/4.8.3/../../../../pic32mx/lib/micromips\libxcpp.a(fwrite.o)
 .gnu.attributes
                0x000002c0       0x10 d:/program files/microchip/xc32/v2.50/bin/bin/../../lib/gcc/pic32mx/4.8.3/../../../../pic32mx/lib/micromips\libxcpp.a(malloc.o)
 .gnu.attributes
                0x000002d0       0x10 d:/program files/microchip/xc32/v2.50/bin/bin/../../lib/gcc/pic32mx/4.8.3/../../../../pic32mx/lib/micromips\libxcpp.a(memchr.o)
 .gnu.attributes
                0x000002e0       0x10 d:/program files/microchip/xc32/v2.50/bin/bin/../../lib/gcc/pic32mx/4.8.3/../../../../pic32mx/lib/micromips\libxcpp.a(memmove.o)
 .gnu.attributes
                0x000002f0       0x10 d:/program files/microchip/xc32/v2.50/bin/bin/../../lib/gcc/pic32mx/4.8.3/../../../../pic32mx/lib/micromips\libxcpp.a(raise.o)
 .gnu.attributes
                0x00000300       0x10 d:/program files/microchip/xc32/v2.50/bin/bin/../../lib/gcc/pic32mx/4.8.3/../../../../pic32mx/lib/micromips\libxcpp.a(remove.o)
 .gnu.attributes
                0x00000310       0x10 d:/program files/microchip/xc32/v2.50/bin/bin/../../lib/gcc/pic32mx/4.8.3/../../../../pic32mx/lib/micromips\libxcpp.a(setlocal.o)
 .gnu.attributes
                0x00000320       0x10 d:/program files/microchip/xc32/v2.50/bin/bin/../../lib/gcc/pic32mx/4.8.3/../../../../pic32mx/lib/micromips\libxcpp.a(setvbuf.o)
 .gnu.attributes
                0x00000330       0x10 d:/program files/microchip/xc32/v2.50/bin/bin/../../lib/gcc/pic32mx/4.8.3/../../../../pic32mx/lib/micromips\libxcpp.a(strcpy.o)
 .gnu.attributes
                0x00000340       0x10 d:/program files/microchip/xc32/v2.50/bin/bin/../../lib/gcc/pic32mx/4.8.3/../../../../pic32mx/lib/micromips\libxcpp.a(ungetc.o)
 .gnu.attributes
                0x00000350       0x10 d:/program files/microchip/xc32/v2.50/bin/bin/../../lib/gcc/pic32mx/4.8.3/../../../../pic32mx/lib/micromips\libxcpp.a(ungetwc.o)
 .gnu.attributes
                0x00000360       0x10 d:/program files/microchip/xc32/v2.50/bin/bin/../../lib/gcc/pic32mx/4.8.3/../../../../pic32mx/lib/micromips\libxcpp.a(wmemcpy.o)
 .gnu.attributes
                0x00000370       0x10 d:/program files/microchip/xc32/v2.50/bin/bin/../../lib/gcc/pic32mx/4.8.3/../../../../pic32mx/lib/micromips\libxcpp.a(xatexit.o)
 .gnu.attributes
                0x00000380       0x10 d:/program files/microchip/xc32/v2.50/bin/bin/../../lib/gcc/pic32mx/4.8.3/../../../../pic32mx/lib/micromips\libxcpp.a(xcostate.o)
 .gnu.attributes
                0x00000390       0x10 d:/program files/microchip/xc32/v2.50/bin/bin/../../lib/gcc/pic32mx/4.8.3/../../../../pic32mx/lib/micromips\libxcpp.a(xctype.o)
 .gnu.attributes
                0x000003a0       0x10 d:/program files/microchip/xc32/v2.50/bin/bin/../../lib/gcc/pic32mx/4.8.3/../../../../pic32mx/lib/micromips\libxcpp.a(xdefloc.o)
 .gnu.attributes
                0x000003b0       0x10 d:/program files/microchip/xc32/v2.50/bin/bin/../../lib/gcc/pic32mx/4.8.3/../../../../pic32mx/lib/micromips\libxcpp.a(xexit.o)
 .gnu.attributes
                0x000003c0       0x10 d:/program files/microchip/xc32/v2.50/bin/bin/../../lib/gcc/pic32mx/4.8.3/../../../../pic32mx/lib/micromips\libxcpp.a(xfgpos.o)
 .gnu.attributes
                0x000003d0       0x10 d:/program files/microchip/xc32/v2.50/bin/bin/../../lib/gcc/pic32mx/4.8.3/../../../../pic32mx/lib/micromips\libxcpp.a(xfiles.o)
 .gnu.attributes
                0x000003e0       0x10 d:/program files/microchip/xc32/v2.50/bin/bin/../../lib/gcc/pic32mx/4.8.3/../../../../pic32mx/lib/micromips\libxcpp.a(xfofind.o)
 .gnu.attributes
                0x000003f0       0x10 d:/program files/microchip/xc32/v2.50/bin/bin/../../lib/gcc/pic32mx/4.8.3/../../../../pic32mx/lib/micromips\libxcpp.a(xfrprep.o)
 .gnu.attributes
                0x00000400       0x10 d:/program files/microchip/xc32/v2.50/bin/bin/../../lib/gcc/pic32mx/4.8.3/../../../../pic32mx/lib/micromips\libxcpp.a(xfspos.o)
 .gnu.attributes
                0x00000410       0x10 d:/program files/microchip/xc32/v2.50/bin/bin/../../lib/gcc/pic32mx/4.8.3/../../../../pic32mx/lib/micromips\libxcpp.a(xfwprep.o)
 .gnu.attributes
                0x00000420       0x10 d:/program files/microchip/xc32/v2.50/bin/bin/../../lib/gcc/pic32mx/4.8.3/../../../../pic32mx/lib/micromips\libxcpp.a(xgetglob.o)
 .gnu.attributes
                0x00000430       0x10 d:/program files/microchip/xc32/v2.50/bin/bin/../../lib/gcc/pic32mx/4.8.3/../../../../pic32mx/lib/micromips\libxcpp.a(xgetloc.o)
 .gnu.attributes
                0x00000440       0x10 d:/program files/microchip/xc32/v2.50/bin/bin/../../lib/gcc/pic32mx/4.8.3/../../../../pic32mx/lib/micromips\libxcpp.a(xgetmem.o)
 .gnu.attributes
                0x00000450       0x10 d:/program files/microchip/xc32/v2.50/bin/bin/../../lib/gcc/pic32mx/4.8.3/../../../../pic32mx/lib/micromips\libxcpp.a(xmbtowc.o)
 .gnu.attributes
                0x00000460       0x10 d:/program files/microchip/xc32/v2.50/bin/bin/../../lib/gcc/pic32mx/4.8.3/../../../../pic32mx/lib/micromips\libxcpp.a(xsetloc.o)
 .gnu.attributes
                0x00000470       0x10 d:/program files/microchip/xc32/v2.50/bin/bin/../../lib/gcc/pic32mx/4.8.3/../../../../pic32mx/lib/micromips\libxcpp.a(xstate.o)
 .gnu.attributes
                0x00000480       0x10 d:/program files/microchip/xc32/v2.50/bin/bin/../../lib/gcc/pic32mx/4.8.3/../../../../pic32mx/lib/micromips\libxcpp.a(xstrftim.o)
 .gnu.attributes
                0x00000490       0x10 d:/program files/microchip/xc32/v2.50/bin/bin/../../lib/gcc/pic32mx/4.8.3/../../../../pic32mx/lib/micromips\libxcpp.a(xtolotab.o)
 .gnu.attributes
                0x000004a0       0x10 d:/program files/microchip/xc32/v2.50/bin/bin/../../lib/gcc/pic32mx/4.8.3/../../../../pic32mx/lib/micromips\libxcpp.a(xtouptab.o)
 .gnu.attributes
                0x000004b0       0x10 d:/program files/microchip/xc32/v2.50/bin/bin/../../lib/gcc/pic32mx/4.8.3/../../../../pic32mx/lib/micromips\libxcpp.a(xwcostate.o)
 .gnu.attributes
                0x000004c0       0x10 d:/program files/microchip/xc32/v2.50/bin/bin/../../lib/gcc/pic32mx/4.8.3/../../../../pic32mx/lib/micromips\libxcpp.a(xwcstate.o)
 .gnu.attributes
                0x000004d0       0x10 d:/program files/microchip/xc32/v2.50/bin/bin/../../lib/gcc/pic32mx/4.8.3/../../../../pic32mx/lib/micromips\libxcpp.a(xwctomb.o)
 .gnu.attributes
                0x000004e0       0x10 d:/program files/microchip/xc32/v2.50/bin/bin/../../lib/gcc/pic32mx/4.8.3/../../../../pic32mx/lib/micromips\libxcpp.a(xwctrtab.o)
 .gnu.attributes
                0x000004f0       0x10 d:/program files/microchip/xc32/v2.50/bin/bin/../../lib/gcc/pic32mx/4.8.3/../../../../pic32mx/lib/micromips\libxcpp.a(xwctytab.o)
 .gnu.attributes
                0x00000500       0x10 d:/program files/microchip/xc32/v2.50/bin/bin/../../lib/gcc/pic32mx/4.8.3/../../../../pic32mx/lib/micromips\libxcpp.a(xwfrprep.o)
 .gnu.attributes
                0x00000510       0x10 d:/program files/microchip/xc32/v2.50/bin/bin/../../lib/gcc/pic32mx/4.8.3/../../../../pic32mx/lib/micromips\libxcpp.a(xwfwprep.o)
 .gnu.attributes
                0x00000520       0x10 d:/program files/microchip/xc32/v2.50/bin/bin/../../lib/gcc/pic32mx/4.8.3/../../../../pic32mx/lib/micromips\libxcpp.a(syserror.o)
 .gnu.attributes
                0x00000530       0x10 d:/program files/microchip/xc32/v2.50/bin/bin/../../lib/gcc/pic32mx/4.8.3/../../../../pic32mx/lib/micromips\libxcpp.a(delaop.o)
 .gnu.attributes
                0x00000540       0x10 d:/program files/microchip/xc32/v2.50/bin/bin/../../lib/gcc/pic32mx/4.8.3/../../../../pic32mx/lib/micromips\libxcpp.a(ios.o)
 .gnu.attributes
                0x00000550       0x10 d:/program files/microchip/xc32/v2.50/bin/bin/../../lib/gcc/pic32mx/4.8.3/../../../../pic32mx/lib/micromips\libxcpp.a(delop3.o)
 .gnu.attributes
                0x00000560       0x10 d:/program files/microchip/xc32/v2.50/bin/bin/../../lib/gcc/pic32mx/4.8.3/../../../../pic32mx/lib/micromips\libxcpp.a(errno.o)
 .gnu.attributes
                0x00000570       0x10 d:/program files/microchip/xc32/v2.50/bin/bin/../../lib/gcc/pic32mx/4.8.3/../../../../pic32mx/lib/micromips\libxcpp.a(getenv.o)
 .gnu.attributes
                0x00000580       0x10 d:/program files/microchip/xc32/v2.50/bin/bin/../../lib/gcc/pic32mx/4.8.3/../../../../pic32mx/lib/micromips\libxcpp.a(localeco.o)
 .gnu.attributes
                0x00000590       0x10 d:/program files/microchip/xc32/v2.50/bin/bin/../../lib/gcc/pic32mx/4.8.3/../../../../pic32mx/lib/micromips\libxcpp.a(memcmp.o)
 .gnu.attributes
                0x000005a0       0x10 d:/program files/microchip/xc32/v2.50/bin/bin/../../lib/gcc/pic32mx/4.8.3/../../../../pic32mx/lib/micromips\libxcpp.a(strcspn.o)
 .gnu.attributes
                0x000005b0       0x10 d:/program files/microchip/xc32/v2.50/bin/bin/../../lib/gcc/pic32mx/4.8.3/../../../../pic32mx/lib/micromips\libxcpp.a(strerror.o)
 .gnu.attributes
                0x000005c0       0x10 d:/program files/microchip/xc32/v2.50/bin/bin/../../lib/gcc/pic32mx/4.8.3/../../../../pic32mx/lib/micromips\libxcpp.a(xfindloc.o)
 .gnu.attributes
                0x000005d0       0x10 d:/program files/microchip/xc32/v2.50/bin/bin/../../lib/gcc/pic32mx/4.8.3/../../../../pic32mx/lib/micromips\libxcpp.a(xfreeloc.o)
 .gnu.attributes
                0x000005e0       0x10 d:/program files/microchip/xc32/v2.50/bin/bin/../../lib/gcc/pic32mx/4.8.3/../../../../pic32mx/lib/micromips\libxcpp.a(xgentime.o)
 .gnu.attributes
                0x000005f0       0x10 d:/program files/microchip/xc32/v2.50/bin/bin/../../lib/gcc/pic32mx/4.8.3/../../../../pic32mx/lib/micromips\libxcpp.a(xgettime.o)
 .gnu.attributes
                0x00000600       0x10 d:/program files/microchip/xc32/v2.50/bin/bin/../../lib/gcc/pic32mx/4.8.3/../../../../pic32mx/lib/micromips\libxcpp.a(xgetzone.o)
 .gnu.attributes
                0x00000610       0x10 d:/program files/microchip/xc32/v2.50/bin/bin/../../lib/gcc/pic32mx/4.8.3/../../../../pic32mx/lib/micromips\libxcpp.a(xloctab.o)
 .gnu.attributes
                0x00000620       0x10 d:/program files/microchip/xc32/v2.50/bin/bin/../../lib/gcc/pic32mx/4.8.3/../../../../pic32mx/lib/micromips\libxcpp.a(xmakeloc.o)
 .gnu.attributes
                0x00000630       0x10 d:/program files/microchip/xc32/v2.50/bin/bin/../../lib/gcc/pic32mx/4.8.3/../../../../pic32mx/lib/micromips\libxcpp.a(xmakesta.o)
 .gnu.attributes
                0x00000640       0x10 d:/program files/microchip/xc32/v2.50/bin/bin/../../lib/gcc/pic32mx/4.8.3/../../../../pic32mx/lib/micromips\libxcpp.a(xmakewct.o)
 .gnu.attributes
                0x00000650       0x10 d:/program files/microchip/xc32/v2.50/bin/bin/../../lib/gcc/pic32mx/4.8.3/../../../../pic32mx/lib/micromips\libxcpp.a(xreadloc.o)
 .gnu.attributes
                0x00000660       0x10 d:/program files/microchip/xc32/v2.50/bin/bin/../../lib/gcc/pic32mx/4.8.3/../../../../pic32mx/lib/micromips\libxcpp.a(xstrerro.o)
 .gnu.attributes
                0x00000670       0x10 d:/program files/microchip/xc32/v2.50/bin/bin/../../lib/gcc/pic32mx/4.8.3/../../../../pic32mx/lib/micromips\libxcpp.a(fgets.o)
 .gnu.attributes
                0x00000680       0x10 d:/program files/microchip/xc32/v2.50/bin/bin/../../lib/gcc/pic32mx/4.8.3/../../../../pic32mx/lib/micromips\libxcpp.a(fopen.o)
 .gnu.attributes
                0x00000690       0x10 d:/program files/microchip/xc32/v2.50/bin/bin/../../lib/gcc/pic32mx/4.8.3/../../../../pic32mx/lib/micromips\libxcpp.a(fputs.o)
 .gnu.attributes
                0x000006a0       0x10 d:/program files/microchip/xc32/v2.50/bin/bin/../../lib/gcc/pic32mx/4.8.3/../../../../pic32mx/lib/micromips\libxcpp.a(realloc.o)
 .gnu.attributes
                0x000006b0       0x10 d:/program files/microchip/xc32/v2.50/bin/bin/../../lib/gcc/pic32mx/4.8.3/../../../../pic32mx/lib/micromips\libxcpp.a(strchr.o)
 .gnu.attributes
                0x000006c0       0x10 d:/program files/microchip/xc32/v2.50/bin/bin/../../lib/gcc/pic32mx/4.8.3/../../../../pic32mx/lib/micromips\libxcpp.a(strncmp.o)
 .gnu.attributes
                0x000006d0       0x10 d:/program files/microchip/xc32/v2.50/bin/bin/../../lib/gcc/pic32mx/4.8.3/../../../../pic32mx/lib/micromips\libxcpp.a(strrchr.o)
 .gnu.attributes
                0x000006e0       0x10 d:/program files/microchip/xc32/v2.50/bin/bin/../../lib/gcc/pic32mx/4.8.3/../../../../pic32mx/lib/micromips\libxcpp.a(strspn.o)
 .gnu.attributes
                0x000006f0       0x10 d:/program files/microchip/xc32/v2.50/bin/bin/../../lib/gcc/pic32mx/4.8.3/../../../../pic32mx/lib/micromips\libxcpp.a(strtol.o)
 .gnu.attributes
                0x00000700       0x10 d:/program files/microchip/xc32/v2.50/bin/bin/../../lib/gcc/pic32mx/4.8.3/../../../../pic32mx/lib/micromips\libxcpp.a(xfoprep.o)
 .gnu.attributes
                0x00000710       0x10 d:/program files/microchip/xc32/v2.50/bin/bin/../../lib/gcc/pic32mx/4.8.3/../../../../pic32mx/lib/micromips\libxcpp.a(xlocterm.o)
 .gnu.attributes
                0x00000720       0x10 d:/program files/microchip/xc32/v2.50/bin/bin/../../lib/gcc/pic32mx/4.8.3/../../../../pic32mx/lib/micromips\libxcpp.a(xstol.o)
 .gnu.attributes
                0x00000730       0x10 d:/program files/microchip/xc32/v2.50/bin/bin/../../lib/gcc/pic32mx/4.8.3/../../../../pic32mx/lib/micromips\libxcpp.a(xstoul.o)
 .gnu.attributes
                0x00000740       0x10 d:/program files/microchip/xc32/v2.50/bin/bin/../../lib/gcc/pic32mx/4.8.3/../../../../pic32mx/lib/micromips\libxcpp.a(xfopen.o)
 .gnu.attributes
                0x00000750       0x10 d:/program files/microchip/xc32/v2.50/bin/bin/../../lib/gcc/pic32mx/4.8.3/../../../../pic32mx/lib/micromips\libsupc++.a(vmi_class_type_info.o)
 .gnu.attributes
                0x00000760       0x10 d:/program files/microchip/xc32/v2.50/bin/bin/../../lib/gcc/pic32mx/4.8.3/../../../../pic32mx/lib/micromips\libpic32.a(sbrk.o)
 .gnu.attributes
                0x00000770       0x10 d:/program files/microchip/xc32/v2.50/bin/bin/../../lib/gcc/pic32mx/4.8.3/../../../../pic32mx/lib/micromips\libpic32.a(_exit.o)
 .gnu.attributes
                0x00000780       0x10 d:/program files/microchip/xc32/v2.50/bin/bin/../../lib/gcc/pic32mx/4.8.3/../../../../pic32mx/lib/micromips\libpic32.a(isatty.o)
 .gnu.attributes
                0x00000790       0x10 d:/program files/microchip/xc32/v2.50/bin/bin/../../lib/gcc/pic32mx/4.8.3/../../../../pic32mx/lib/micromips\libpic32.a(read.o)
 .gnu.attributes
                0x000007a0       0x10 d:/program files/microchip/xc32/v2.50/bin/bin/../../lib/gcc/pic32mx/4.8.3/../../../../pic32mx/lib/micromips\libpic32.a(write.o)
 .gnu.attributes
                0x000007b0       0x10 d:/program files/microchip/xc32/v2.50/bin/bin/../../lib/gcc/pic32mx/4.8.3/../../../../pic32mx/lib/micromips\libpic32.a(lseek.o)
 .gnu.attributes
                0x000007c0       0x10 d:/program files/microchip/xc32/v2.50/bin/bin/../../lib/gcc/pic32mx/4.8.3/../../../../pic32mx/lib/micromips\libpic32.a(close.o)
 .gnu.attributes
                0x000007d0       0x10 d:/program files/microchip/xc32/v2.50/bin/bin/../../lib/gcc/pic32mx/4.8.3/../../../../pic32mx/lib/micromips\libpic32.a(open.o)
 .gnu.attributes
                0x000007e0       0x10 d:/program files/microchip/xc32/v2.50/bin/bin/../../lib/gcc/pic32mx/4.8.3/../../../../pic32mx/lib/micromips\libpic32.a(unlink.o)
 .gnu.attributes
                0x000007f0       0x10 d:/program files/microchip/xc32/v2.50/bin/bin/../../lib/gcc/pic32mx/4.8.3/../../../../pic32mx/lib/micromips\libpic32.a(kill.o)
 .gnu.attributes
                0x00000800       0x10 d:/program files/microchip/xc32/v2.50/bin/bin/../../lib/gcc/pic32mx/4.8.3/../../../../pic32mx/lib/micromips\libpic32.a(getpid.o)
 .gnu.attributes
                0x00000810       0x10 d:/program files/microchip/xc32/v2.50/bin/bin/../../lib/gcc/pic32mx/4.8.3/../../../../pic32mx/lib/micromips\libpic32.a(xc32_uart.o)
 .gnu.attributes
                0x00000820       0x10 d:/program files/microchip/xc32/v2.50/bin/bin/../../lib/gcc/pic32mx/4.8.3/../../../../pic32mx/lib/micromips\libpic32.a(errno.o)
 .gnu.attributes
                0x00000830       0x10 d:/program files/microchip/xc32/v2.50/bin/bin/../../lib/gcc/pic32mx/4.8.3/../../../../pic32mx/lib/micromips\libpic32.a(rmdir.o)
 .gnu.attributes
                0x00000840       0x10 d:/program files/microchip/xc32/v2.50/bin/bin/../../lib/gcc/pic32mx/4.8.3/../../../../pic32mx/lib/micromips\libpic32.a(_mon_putc.o)
 .gnu.attributes
                0x00000850       0x10 d:/program files/microchip/xc32/v2.50/bin/bin/../../lib/gcc/pic32mx/4.8.3/micromips/crtend.o
LOAD d:/program files/microchip/xc32/v2.50/bin/bin/../../lib/gcc/pic32mx/4.8.3/micromips\libgcc.a
START GROUP
LOAD d:/program files/microchip/xc32/v2.50/bin/bin/../../lib/gcc/pic32mx/4.8.3/../../../../pic32mx/lib/micromips\libpic32.a
LOAD d:/program files/microchip/xc32/v2.50/bin/bin/../../lib/gcc/pic32mx/4.8.3/../../../../pic32mx/lib/micromips\libdebug.a
LOAD d:/program files/microchip/xc32/v2.50/bin/bin/../../lib/gcc/pic32mx/4.8.3/../../../../pic32mx/lib/micromips\libxcpp.a
LOAD d:/program files/microchip/xc32/v2.50/bin/bin/../../lib/gcc/pic32mx/4.8.3/../../../../pic32mx/lib/micromips\libsupc++.a
LOAD d:/program files/microchip/xc32/v2.50/bin/bin/../../lib/gcc/pic32mx/4.8.3/../../../../pic32mx/lib/micromips\libpic32.a
LOAD d:/program files/microchip/xc32/v2.50/bin/bin/../../lib/gcc/pic32mx/4.8.3/../../../../pic32mx/lib/micromips\libm.a
LOAD d:/program files/microchip/xc32/v2.50/bin/bin/../../lib/gcc/pic32mx/4.8.3/../../../../pic32mx/lib/micromips\libe.a
LOAD d:/program files/microchip/xc32/v2.50/bin/bin/../../lib/gcc/pic32mx/4.8.3/../../../../pic32mx/lib/micromips\libdsp.a
LOAD d:/program files/microchip/xc32/v2.50/bin/bin/../../lib/gcc/pic32mx/4.8.3/micromips\libgcc.a
LOAD d:/program files/microchip/xc32/v2.50/bin/bin/../../lib/gcc/pic32mx/4.8.3/../../../../pic32mx/lib/micromips\libpic32.a
END GROUP
LOAD d:/program files/microchip/xc32/v2.50/bin/bin/../../lib/gcc/pic32mx/4.8.3/micromips\libgcc.a
LOAD d:/program files/microchip/xc32/v2.50/bin/bin/../../lib/gcc/pic32mx/4.8.3/micromips/crtend.o
LOAD d:/program files/microchip/xc32/v2.50/bin/bin/../../lib/gcc/pic32mx/4.8.3/micromips/crtn.o
OUTPUT(dist/default/production/code_cpp.X.production.elf elf32-tradlittlemips)
LOAD stack
LOAD data_init

.reginfo        0x00000000       0x18
 .reginfo       0x00000000       0x18 d:/program files/microchip/xc32/v2.50/bin/bin/../../lib/gcc/pic32mx/4.8.3/micromips/crti.o

.stack          0x80001d88      0x400
 .stack         0x80001d88      0x400 stack

.bss._ZL16emergency_buffer.emergency_buffer
                0x800003c0      0x800
 .bss._ZL16emergency_buffer.emergency_buffer
                0x800003c0      0x800 d:/program files/microchip/xc32/v2.50/bin/bin/../../lib/gcc/pic32mx/4.8.3/../../../../pic32mx/lib/micromips\libsupc++.a(eh_alloc.o)

.data           0x80000bc0      0x30c
 .data          0x80000bc0      0x30c d:/program files/microchip/xc32/v2.50/bin/bin/../../lib/gcc/pic32mx/4.8.3/../../../../pic32mx/lib/micromips\libxcpp.a(xloctab.o)
                0x80000bc0                _Loctab

.bss            0x80000ecc      0x404
 .bss           0x80000ecc      0x20c d:/program files/microchip/xc32/v2.50/bin/bin/../../lib/gcc/pic32mx/4.8.3/../../../../pic32mx/lib/micromips\libxcpp.a(wiostrea.o)
                0x80000ecc                std::wclog
                0x80000f04                std::wcerr
                0x80000f3c                std::wcout
                0x80000f74                std::wcin
 .bss           0x800010d8      0x1f8 d:/program files/microchip/xc32/v2.50/bin/bin/../../lib/gcc/pic32mx/4.8.3/../../../../pic32mx/lib/micromips\libxcpp.a(iostream.o)
                0x800010d8                std::clog
                0x80001110                std::cerr
                0x800011a4                std::cout
                0x800011dc                std::cin

.data           0x800012d0      0x380
 .data          0x800012d0      0x1e4 d:/program files/microchip/xc32/v2.50/bin/bin/../../lib/gcc/pic32mx/4.8.3/../../../../pic32mx/lib/micromips\libxcpp.a(setlocal.o)
                0x800012ec                _Clocale
 .data          0x800014b4      0x19c d:/program files/microchip/xc32/v2.50/bin/bin/../../lib/gcc/pic32mx/4.8.3/../../../../pic32mx/lib/micromips\libxcpp.a(xfiles.o)
                0x800014b4                _PJP_C_Copyright
                0x80001510                stderr
                0x80001514                stdout
                0x80001518                stdin
                0x8000151c                _Files
                0x8000156c                _Stderr
                0x800015b8                _Stdout
                0x80001604                _Stdin

.bss            0x80001650      0x144
 .bss           0x80001650      0x144 d:/program files/microchip/xc32/v2.50/bin/bin/../../lib/gcc/pic32mx/4.8.3/../../../../pic32mx/lib/micromips\libxcpp.a(exit.o)
                0x80001650                _Atcount0

.bss._ZL17dependents_buffer.dependents_buffer
                0x80001798      0x100
 .bss._ZL17dependents_buffer.dependents_buffer
                0x80001798      0x100 d:/program files/microchip/xc32/v2.50/bin/bin/../../lib/gcc/pic32mx/4.8.3/../../../../pic32mx/lib/micromips\libsupc++.a(eh_alloc.o)

.data           0x80001898       0xa8
 .data          0x80001898       0xa8 d:/program files/microchip/xc32/v2.50/bin/bin/../../lib/gcc/pic32mx/4.8.3/../../../../pic32mx/lib/micromips\libxcpp.a(asctime.o)
                0x80001898                _Times
                0x800018ec                _CTinfo

.bss            0x80001940       0x68
 .bss           0x80001940       0x68 d:/program files/microchip/xc32/v2.50/bin/bin/../../lib/gcc/pic32mx/4.8.3/../../../../pic32mx/lib/micromips\libxcpp.a(xlocterm.o)

.data           0x800019a8       0x60
 .data          0x800019a8       0x60 d:/program files/microchip/xc32/v2.50/bin/bin/../../lib/gcc/pic32mx/4.8.3/../../../../pic32mx/lib/micromips\libxcpp.a(iostream.o)
                0x800019a8                _PJP_CPP_Copyright
                0x80001a04                std::ios_base::Init::_Init_cnt

.bss            0x80001a08       0x50
 .bss           0x80001a08       0x50 d:/program files/microchip/xc32/v2.50/bin/bin/../../lib/gcc/pic32mx/4.8.3/../../../../pic32mx/lib/micromips\libxcpp.a(ios.o)
                0x80001a40                std::_Fpz
                0x80001a50                std::ios_base::_Index

.data           0x80001a58       0x50
 .data          0x80001a58       0x50 d:/program files/microchip/xc32/v2.50/bin/bin/../../lib/gcc/pic32mx/4.8.3/../../../../pic32mx/lib/micromips\libxcpp.a(localeco.o)
                0x80001a58                _Locale

.bss            0x80001aa8       0x8c
 .bss           0x80001aa8       0x48 d:/program files/microchip/xc32/v2.50/bin/bin/../../lib/gcc/pic32mx/4.8.3/../../../../pic32mx/lib/micromips\libxcpp.a(xstate.o)
                0x80001aa8                _Tls_setup__Mbstate
                0x80001aac                _Mbstate
                0x80001aec                _Tls_setup__Mbcurmax
 .bss           0x80001af0       0x44 d:/program files/microchip/xc32/v2.50/bin/bin/../../lib/gcc/pic32mx/4.8.3/../../../../pic32mx/lib/micromips\libxcpp.a(xcostate.o)
                0x80001af0                _Tls_setup__Costate
                0x80001af4                _Costate

.bss            0x80001b34       0x88
 .bss           0x80001b34       0x44 d:/program files/microchip/xc32/v2.50/bin/bin/../../lib/gcc/pic32mx/4.8.3/../../../../pic32mx/lib/micromips\libxcpp.a(xwcostate.o)
                0x80001b34                _Tls_setup__WCostate
                0x80001b38                _WCostate
 .bss           0x80001b78       0x44 d:/program files/microchip/xc32/v2.50/bin/bin/../../lib/gcc/pic32mx/4.8.3/../../../../pic32mx/lib/micromips\libxcpp.a(xwcstate.o)
                0x80001b78                _Tls_setup__Wcstate
                0x80001b7c                _Wcstate

.bss            0x80001bbc       0x24
 .bss           0x80001bbc       0x24 d:/program files/microchip/xc32/v2.50/bin/bin/../../lib/gcc/pic32mx/4.8.3/../../../../pic32mx/lib/micromips\libxcpp.a(locale0.o)
                0x80001bbc                std::codecvt<char32_t, char, _Mbstatet>::id
                0x80001bc0                std::codecvt<char16_t, char, _Mbstatet>::id
                0x80001bc4                std::codecvt<wchar_t, char, _Mbstatet>::id
                0x80001bc8                std::ctype<wchar_t>::id
                0x80001bcc                std::ctype<char>::id
                0x80001bd0                std::locale::id::_Id_cnt
                0x80001bd4                std::locale::_Locimp::_Clocptr

.data           0x80001be0       0x24
 .data          0x80001be0       0x24 d:/program files/microchip/xc32/v2.50/bin/bin/../../lib/gcc/pic32mx/4.8.3/../../../../pic32mx/lib/micromips\libxcpp.a(xgetzone.o)

.bss            0x80001c04       0x44
 .bss           0x80001c04       0x24 d:/program files/microchip/xc32/v2.50/bin/bin/../../lib/gcc/pic32mx/4.8.3/../../../../pic32mx/lib/micromips\libpic32.a(sbrk.o)
                0x80001c20                _maxbrk
                0x80001c24                _minbrk
 .bss           0x80001c28       0x20 d:/program files/microchip/xc32/v2.50/bin/bin/../../lib/gcc/pic32mx/4.8.3/micromips/crtbegin.o

.bss            0x80001c48       0x3c
 .bss           0x80001c48       0x20 d:/program files/microchip/xc32/v2.50/bin/bin/../../lib/gcc/pic32mx/4.8.3/../../../../pic32mx/lib/micromips\libxcpp.a(asctime.o)
                0x80001c64                _Tls_setup__Times
 .bss           0x80001c68       0x1c d:/program files/microchip/xc32/v2.50/bin/bin/../../lib/gcc/pic32mx/4.8.3/../../../../pic32mx/lib/micromips\libxcpp.a(syserror.o)

.bss            0x80001c84       0x10
 .bss           0x80001c84       0x10 d:/program files/microchip/xc32/v2.50/bin/bin/../../lib/gcc/pic32mx/4.8.3/../../../../pic32mx/lib/micromips\libxcpp.a(xfiles.o)

.data           0x80001c94        0xc
 .data          0x80001c94        0xc d:/program files/microchip/xc32/v2.50/bin/bin/../../lib/gcc/pic32mx/4.8.3/../../../../pic32mx/lib/micromips\libxcpp.a(exit.o)
                0x80001c94                _Atcount
                0x80001c98                _Atfuns

.bss            0x80001ca0        0xc
 .bss           0x80001ca0        0xc d:/program files/microchip/xc32/v2.50/bin/bin/../../lib/gcc/pic32mx/4.8.3/../../../../pic32mx/lib/micromips\libxcpp.a(xstrerro.o)

.bss._ZL10eh_globals.eh_globals
                0x80001cac        0x8
 .bss._ZL10eh_globals.eh_globals
                0x80001cac        0x8 d:/program files/microchip/xc32/v2.50/bin/bin/../../lib/gcc/pic32mx/4.8.3/../../../../pic32mx/lib/micromips\libsupc++.a(eh_globals.o)

.gnu.linkonce.b._ZZNSt13basic_filebufIcSt11char_traitsIcEE5_InitEP10_Dnk_filetNS2_7_InitflEE7_Stinit
                0x80001cb4        0x8
 .gnu.linkonce.b._ZZNSt13basic_filebufIcSt11char_traitsIcEE5_InitEP10_Dnk_filetNS2_7_InitflEE7_Stinit
                0x80001cb4        0x8 d:/program files/microchip/xc32/v2.50/bin/bin/../../lib/gcc/pic32mx/4.8.3/../../../../pic32mx/lib/micromips\libxcpp.a(iostream.o)
                0x80001cb4                std::basic_filebuf<char, std::char_traits<char> >::_Init(_Dnk_filet*, std::basic_filebuf<char, std::char_traits<char> >::_Initfl)::_Stinit

.gnu.linkonce.b._ZGVNSt7codecvtIcc9_MbstatetE2idE
                0x80001cc0        0x8
 .gnu.linkonce.b._ZGVNSt7codecvtIcc9_MbstatetE2idE
                0x80001cc0        0x8 d:/program files/microchip/xc32/v2.50/bin/bin/../../lib/gcc/pic32mx/4.8.3/../../../../pic32mx/lib/micromips\libxcpp.a(iostream.o)
                0x80001cc0                guard variable for std::codecvt<char, char, _Mbstatet>::id

.gnu.linkonce.b._ZZNSt13basic_filebufIwSt11char_traitsIwEE5_InitEP10_Dnk_filetNS2_7_InitflEE7_Stinit
                0x80001cc8        0x8
 .gnu.linkonce.b._ZZNSt13basic_filebufIwSt11char_traitsIwEE5_InitEP10_Dnk_filetNS2_7_InitflEE7_Stinit
                0x80001cc8        0x8 d:/program files/microchip/xc32/v2.50/bin/bin/../../lib/gcc/pic32mx/4.8.3/../../../../pic32mx/lib/micromips\libxcpp.a(wiostrea.o)
                0x80001cc8                std::basic_filebuf<wchar_t, std::char_traits<wchar_t> >::_Init(_Dnk_filet*, std::basic_filebuf<wchar_t, std::char_traits<wchar_t> >::_Initfl)::_Stinit

.bss            0x80001cd0       0x10
 .bss           0x80001cd0        0x8 d:/program files/microchip/xc32/v2.50/bin/bin/../../lib/gcc/pic32mx/4.8.3/../../../../pic32mx/lib/micromips\libxcpp.a(malloc.o)
                0x80001cd0                _Aldata
 .bss           0x80001cd8        0x8 d:/program files/microchip/xc32/v2.50/bin/bin/../../lib/gcc/pic32mx/4.8.3/../../../../pic32mx/lib/micromips\libxcpp.a(setlocal.o)

.bss            0x80001ce0       0x10
 .bss           0x80001ce0        0x8 d:/program files/microchip/xc32/v2.50/bin/bin/../../lib/gcc/pic32mx/4.8.3/../../../../pic32mx/lib/micromips\libxcpp.a(xgetglob.o)
 .bss           0x80001ce8        0x8 d:/program files/microchip/xc32/v2.50/bin/bin/../../lib/gcc/pic32mx/4.8.3/../../../../pic32mx/lib/micromips\libxcpp.a(errno.o)
                0x80001ce8                _Tls_setup__Errno
                0x80001cec                _Errno

.bss            0x80001cf0        0x8
 .bss           0x80001cf0        0x8 d:/program files/microchip/xc32/v2.50/bin/bin/../../lib/gcc/pic32mx/4.8.3/../../../../pic32mx/lib/micromips\libxcpp.a(xgetzone.o)

.data           0x800003bc        0x4
 .data          0x800003bc        0x4 d:/program files/microchip/xc32/v2.50/bin/bin/../../lib/gcc/pic32mx/4.8.3/micromips/crtbegin.o

.bss._ZL15dependents_used.dependents_used
                0x80001794        0x4
 .bss._ZL15dependents_used.dependents_used
                0x80001794        0x4 d:/program files/microchip/xc32/v2.50/bin/bin/../../lib/gcc/pic32mx/4.8.3/../../../../pic32mx/lib/micromips\libsupc++.a(eh_alloc.o)

.bss._ZL14emergency_used.emergency_used
                0x80001cbc        0x4
 .bss._ZL14emergency_used.emergency_used
                0x80001cbc        0x4 d:/program files/microchip/xc32/v2.50/bin/bin/../../lib/gcc/pic32mx/4.8.3/../../../../pic32mx/lib/micromips\libsupc++.a(eh_alloc.o)

.data._ZN10__cxxabiv120__unexpected_handlerE.__unexpected_handler
                0x80001cf8        0x4
 .data._ZN10__cxxabiv120__unexpected_handlerE.__unexpected_handler
                0x80001cf8        0x4 d:/program files/microchip/xc32/v2.50/bin/bin/../../lib/gcc/pic32mx/4.8.3/../../../../pic32mx/lib/micromips\libsupc++.a(eh_unex_handler.o)
                0x80001cf8                __cxxabiv1::__unexpected_handler

.data._ZN10__cxxabiv119__terminate_handlerE.__terminate_handler
                0x80001cfc        0x4
 .data._ZN10__cxxabiv119__terminate_handlerE.__terminate_handler
                0x80001cfc        0x4 d:/program files/microchip/xc32/v2.50/bin/bin/../../lib/gcc/pic32mx/4.8.3/../../../../pic32mx/lib/micromips\libsupc++.a(eh_term_handler.o)
                0x80001cfc                __cxxabiv1::__terminate_handler

.bss.__new_handler.__new_handler
                0x80001d00        0x4
 .bss.__new_handler.__new_handler
                0x80001d00        0x4 d:/program files/microchip/xc32/v2.50/bin/bin/../../lib/gcc/pic32mx/4.8.3/../../../../pic32mx/lib/micromips\libsupc++.a(new_handler.o)
                0x80001d00                __new_handler

.bss            0x80001d04        0x4
 .bss           0x80001d04        0x4 d:/program files/microchip/xc32/v2.50/bin/bin/../../lib/gcc/pic32mx/4.8.3/micromips\libgcc.a(unwind-sjlj.o)

.gnu.linkonce.b._ZNSt9_FacetptrISt7codecvtIcc9_MbstatetEE6_PsaveE
                0x80001d08        0x4
 .gnu.linkonce.b._ZNSt9_FacetptrISt7codecvtIcc9_MbstatetEE6_PsaveE
                0x80001d08        0x4 d:/program files/microchip/xc32/v2.50/bin/bin/../../lib/gcc/pic32mx/4.8.3/../../../../pic32mx/lib/micromips\libxcpp.a(iostream.o)
                0x80001d08                std::_Facetptr<std::codecvt<char, char, _Mbstatet> >::_Psave

.gnu.linkonce.b._ZNSt7codecvtIcc9_MbstatetE2idE
                0x80001d0c        0x4
 .gnu.linkonce.b._ZNSt7codecvtIcc9_MbstatetE2idE
                0x80001d0c        0x4 d:/program files/microchip/xc32/v2.50/bin/bin/../../lib/gcc/pic32mx/4.8.3/../../../../pic32mx/lib/micromips\libxcpp.a(iostream.o)
                0x80001d0c                std::codecvt<char, char, _Mbstatet>::id

.gnu.linkonce.b._ZNSt9_FacetptrISt5ctypeIcEE6_PsaveE
                0x80001d10        0x4
 .gnu.linkonce.b._ZNSt9_FacetptrISt5ctypeIcEE6_PsaveE
                0x80001d10        0x4 d:/program files/microchip/xc32/v2.50/bin/bin/../../lib/gcc/pic32mx/4.8.3/../../../../pic32mx/lib/micromips\libxcpp.a(iostream.o)
                0x80001d10                std::_Facetptr<std::ctype<char> >::_Psave

.data           0x80001d14        0x4
 .data          0x80001d14        0x4 d:/program files/microchip/xc32/v2.50/bin/bin/../../lib/gcc/pic32mx/4.8.3/../../../../pic32mx/lib/micromips\libxcpp.a(wiostrea.o)
                0x80001d14                std::_Winit::_Init_cnt

.gnu.linkonce.b._ZNSt9_FacetptrISt7codecvtIwc9_MbstatetEE6_PsaveE
                0x80001d18        0x4
 .gnu.linkonce.b._ZNSt9_FacetptrISt7codecvtIwc9_MbstatetEE6_PsaveE
                0x80001d18        0x4 d:/program files/microchip/xc32/v2.50/bin/bin/../../lib/gcc/pic32mx/4.8.3/../../../../pic32mx/lib/micromips\libxcpp.a(wiostrea.o)
                0x80001d18                std::_Facetptr<std::codecvt<wchar_t, char, _Mbstatet> >::_Psave

.gnu.linkonce.b._ZNSt9_FacetptrISt5ctypeIwEE6_PsaveE
                0x80001d1c        0x4
 .gnu.linkonce.b._ZNSt9_FacetptrISt5ctypeIwEE6_PsaveE
                0x80001d1c        0x4 d:/program files/microchip/xc32/v2.50/bin/bin/../../lib/gcc/pic32mx/4.8.3/../../../../pic32mx/lib/micromips\libxcpp.a(wiostrea.o)
                0x80001d1c                std::_Facetptr<std::ctype<wchar_t> >::_Psave

.data           0x80001d20        0x8
 .data          0x80001d20        0x4 d:/program files/microchip/xc32/v2.50/bin/bin/../../lib/gcc/pic32mx/4.8.3/../../../../pic32mx/lib/micromips\libxcpp.a(malloc.o)
                0x80001d20                _Size_block
 .data          0x80001d24        0x4 d:/program files/microchip/xc32/v2.50/bin/bin/../../lib/gcc/pic32mx/4.8.3/../../../../pic32mx/lib/micromips\libxcpp.a(xctype.o)
                0x80001d24                _Ctype

.bss            0x80001d28        0x4
 .bss           0x80001d28        0x4 d:/program files/microchip/xc32/v2.50/bin/bin/../../lib/gcc/pic32mx/4.8.3/../../../../pic32mx/lib/micromips\libxcpp.a(xctype.o)
                0x80001d28                _Tls_setup__Ctype

.data           0x80001d2c        0x4
 .data          0x80001d2c        0x4 d:/program files/microchip/xc32/v2.50/bin/bin/../../lib/gcc/pic32mx/4.8.3/../../../../pic32mx/lib/micromips\libxcpp.a(xtolotab.o)
                0x80001d2c                _Tolotab

.bss            0x80001d30        0x4
 .bss           0x80001d30        0x4 d:/program files/microchip/xc32/v2.50/bin/bin/../../lib/gcc/pic32mx/4.8.3/../../../../pic32mx/lib/micromips\libxcpp.a(xtolotab.o)
                0x80001d30                _Tls_setup__Tolotab

.data           0x80001d34        0x4
 .data          0x80001d34        0x4 d:/program files/microchip/xc32/v2.50/bin/bin/../../lib/gcc/pic32mx/4.8.3/../../../../pic32mx/lib/micromips\libxcpp.a(xtouptab.o)
                0x80001d34                _Touptab

.bss            0x80001d38        0x4
 .bss           0x80001d38        0x4 d:/program files/microchip/xc32/v2.50/bin/bin/../../lib/gcc/pic32mx/4.8.3/../../../../pic32mx/lib/micromips\libxcpp.a(xtouptab.o)
                0x80001d38                _Tls_setup__Touptab

.data           0x80001d3c        0x4
 .data          0x80001d3c        0x4 d:/program files/microchip/xc32/v2.50/bin/bin/../../lib/gcc/pic32mx/4.8.3/../../../../pic32mx/lib/micromips\libxcpp.a(xwctrtab.o)
                0x80001d3c                _Wctrans

.bss            0x80001d40        0x4
 .bss           0x80001d40        0x4 d:/program files/microchip/xc32/v2.50/bin/bin/../../lib/gcc/pic32mx/4.8.3/../../../../pic32mx/lib/micromips\libxcpp.a(xwctrtab.o)
                0x80001d40                _Tls_setup__Wctrans

.data           0x80001d44        0x4
 .data          0x80001d44        0x4 d:/program files/microchip/xc32/v2.50/bin/bin/../../lib/gcc/pic32mx/4.8.3/../../../../pic32mx/lib/micromips\libxcpp.a(xwctytab.o)
                0x80001d44                _Wctype

.bss            0x80001d48        0x8
 .bss           0x80001d48        0x4 d:/program files/microchip/xc32/v2.50/bin/bin/../../lib/gcc/pic32mx/4.8.3/../../../../pic32mx/lib/micromips\libxcpp.a(xwctytab.o)
                0x80001d48                _Tls_setup__Wctype
 .bss           0x80001d4c        0x4 d:/program files/microchip/xc32/v2.50/bin/bin/../../lib/gcc/pic32mx/4.8.3/../../../../pic32mx/lib/micromips\libxcpp.a(localeco.o)
                0x80001d4c                _Tls_setup__Locale

.bss.errno      0x80001d50        0x4
 .bss.errno     0x80001d50        0x4 d:/program files/microchip/xc32/v2.50/bin/bin/../../lib/gcc/pic32mx/4.8.3/../../../../pic32mx/lib/micromips\libpic32.a(errno.o)
                0x80001d50                errno

.data           0x80001d54        0x4
 .data          0x80001d54        0x4 d:/program files/microchip/xc32/v2.50/bin/bin/../../lib/gcc/pic32mx/4.8.3/micromips/crtend.o

.bss%z1         0x00000000        0x0
 .bss           0x00000000        0x0 d:/program files/microchip/xc32/v2.50/bin/bin/../../lib/gcc/pic32mx/4.8.3/micromips/crtn.o

.data%z2        0x00000000        0x0
 .data          0x00000000        0x0 d:/program files/microchip/xc32/v2.50/bin/bin/../../lib/gcc/pic32mx/4.8.3/micromips/crtn.o

.tm_clone_table%z3
                0x00000000        0x0
 .tm_clone_table
                0x00000000        0x0 d:/program files/microchip/xc32/v2.50/bin/bin/../../lib/gcc/pic32mx/4.8.3/micromips/crtend.o
                0x00000000                __TMC_END__

.bss            0x80001d58        0x2
 .bss           0x80001d58        0x1 d:/program files/microchip/xc32/v2.50/bin/bin/../../lib/gcc/pic32mx/4.8.3/../../../../pic32mx/lib/micromips\libxcpp.a(fclose.o)
 .bss           0x80001d59        0x1 d:/program files/microchip/xc32/v2.50/bin/bin/../../lib/gcc/pic32mx/4.8.3/../../../../pic32mx/lib/micromips\libxcpp.a(xgetloc.o)

.data           0x80001d5a        0x2
 .data          0x80001d5a        0x1 d:/program files/microchip/xc32/v2.50/bin/bin/../../lib/gcc/pic32mx/4.8.3/../../../../pic32mx/lib/micromips\libxcpp.a(xstate.o)
                0x80001d5a                _Mbcurmax
 .data          0x80001d5b        0x1 d:/program files/microchip/xc32/v2.50/bin/bin/../../lib/gcc/pic32mx/4.8.3/../../../../pic32mx/lib/micromips\libxcpp.a(ios.o)
                0x80001d5b                std::ios_base::_Sync

.bss%z4         0x00000000        0x0
 .bss           0x00000000        0x0 d:/program files/microchip/xc32/v2.50/bin/bin/../../lib/gcc/pic32mx/4.8.3/micromips/crtend.o

.bss%z5         0x00000000        0x0
 .bss           0x00000000        0x0 d:/program files/microchip/xc32/v2.50/bin/bin/../../lib/gcc/pic32mx/4.8.3/../../../../pic32mx/lib/micromips\libpic32.a(_mon_putc.o)

.data%z6        0x00000000        0x0
 .data          0x00000000        0x0 d:/program files/microchip/xc32/v2.50/bin/bin/../../lib/gcc/pic32mx/4.8.3/../../../../pic32mx/lib/micromips\libpic32.a(_mon_putc.o)

.bss%z7         0x00000000        0x0
 .bss           0x00000000        0x0 d:/program files/microchip/xc32/v2.50/bin/bin/../../lib/gcc/pic32mx/4.8.3/../../../../pic32mx/lib/micromips\libpic32.a(rmdir.o)

.data%z8        0x00000000        0x0
 .data          0x00000000        0x0 d:/program files/microchip/xc32/v2.50/bin/bin/../../lib/gcc/pic32mx/4.8.3/../../../../pic32mx/lib/micromips\libpic32.a(rmdir.o)

.bss%z9         0x00000000        0x0
 .bss           0x00000000        0x0 d:/program files/microchip/xc32/v2.50/bin/bin/../../lib/gcc/pic32mx/4.8.3/../../../../pic32mx/lib/micromips\libpic32.a(errno.o)

.data%z10       0x00000000        0x0
 .data          0x00000000        0x0 d:/program files/microchip/xc32/v2.50/bin/bin/../../lib/gcc/pic32mx/4.8.3/../../../../pic32mx/lib/micromips\libpic32.a(errno.o)

.bss%z11        0x00000000        0x0
 .bss           0x00000000        0x0 d:/program files/microchip/xc32/v2.50/bin/bin/../../lib/gcc/pic32mx/4.8.3/../../../../pic32mx/lib/micromips\libpic32.a(xc32_uart.o)

.data%z12       0x00000000        0x0
 .data          0x00000000        0x0 d:/program files/microchip/xc32/v2.50/bin/bin/../../lib/gcc/pic32mx/4.8.3/../../../../pic32mx/lib/micromips\libpic32.a(xc32_uart.o)

.bss%z13        0x00000000        0x0
 .bss           0x00000000        0x0 d:/program files/microchip/xc32/v2.50/bin/bin/../../lib/gcc/pic32mx/4.8.3/../../../../pic32mx/lib/micromips\libpic32.a(getpid.o)

.data%z14       0x00000000        0x0
 .data          0x00000000        0x0 d:/program files/microchip/xc32/v2.50/bin/bin/../../lib/gcc/pic32mx/4.8.3/../../../../pic32mx/lib/micromips\libpic32.a(getpid.o)

.bss%z15        0x00000000        0x0
 .bss           0x00000000        0x0 d:/program files/microchip/xc32/v2.50/bin/bin/../../lib/gcc/pic32mx/4.8.3/../../../../pic32mx/lib/micromips\libpic32.a(kill.o)

.data%z16       0x00000000        0x0
 .data          0x00000000        0x0 d:/program files/microchip/xc32/v2.50/bin/bin/../../lib/gcc/pic32mx/4.8.3/../../../../pic32mx/lib/micromips\libpic32.a(kill.o)

.bss%z17        0x00000000        0x0
 .bss           0x00000000        0x0 d:/program files/microchip/xc32/v2.50/bin/bin/../../lib/gcc/pic32mx/4.8.3/../../../../pic32mx/lib/micromips\libpic32.a(unlink.o)

.data%z18       0x00000000        0x0
 .data          0x00000000        0x0 d:/program files/microchip/xc32/v2.50/bin/bin/../../lib/gcc/pic32mx/4.8.3/../../../../pic32mx/lib/micromips\libpic32.a(unlink.o)

.bss%z19        0x00000000        0x0
 .bss           0x00000000        0x0 d:/program files/microchip/xc32/v2.50/bin/bin/../../lib/gcc/pic32mx/4.8.3/../../../../pic32mx/lib/micromips\libpic32.a(open.o)

.data%z20       0x00000000        0x0
 .data          0x00000000        0x0 d:/program files/microchip/xc32/v2.50/bin/bin/../../lib/gcc/pic32mx/4.8.3/../../../../pic32mx/lib/micromips\libpic32.a(open.o)

.bss%z21        0x00000000        0x0
 .bss           0x00000000        0x0 d:/program files/microchip/xc32/v2.50/bin/bin/../../lib/gcc/pic32mx/4.8.3/../../../../pic32mx/lib/micromips\libpic32.a(close.o)

.data%z22       0x00000000        0x0
 .data          0x00000000        0x0 d:/program files/microchip/xc32/v2.50/bin/bin/../../lib/gcc/pic32mx/4.8.3/../../../../pic32mx/lib/micromips\libpic32.a(close.o)

.bss%z23        0x00000000        0x0
 .bss           0x00000000        0x0 d:/program files/microchip/xc32/v2.50/bin/bin/../../lib/gcc/pic32mx/4.8.3/../../../../pic32mx/lib/micromips\libpic32.a(lseek.o)

.data%z24       0x00000000        0x0
 .data          0x00000000        0x0 d:/program files/microchip/xc32/v2.50/bin/bin/../../lib/gcc/pic32mx/4.8.3/../../../../pic32mx/lib/micromips\libpic32.a(lseek.o)

.bss%z25        0x00000000        0x0
 .bss           0x00000000        0x0 d:/program files/microchip/xc32/v2.50/bin/bin/../../lib/gcc/pic32mx/4.8.3/../../../../pic32mx/lib/micromips\libpic32.a(write.o)

.data%z26       0x00000000        0x0
 .data          0x00000000        0x0 d:/program files/microchip/xc32/v2.50/bin/bin/../../lib/gcc/pic32mx/4.8.3/../../../../pic32mx/lib/micromips\libpic32.a(write.o)

.bss%z27        0x00000000        0x0
 .bss           0x00000000        0x0 d:/program files/microchip/xc32/v2.50/bin/bin/../../lib/gcc/pic32mx/4.8.3/../../../../pic32mx/lib/micromips\libpic32.a(read.o)

.data%z28       0x00000000        0x0
 .data          0x00000000        0x0 d:/program files/microchip/xc32/v2.50/bin/bin/../../lib/gcc/pic32mx/4.8.3/../../../../pic32mx/lib/micromips\libpic32.a(read.o)

.bss%z29        0x00000000        0x0
 .bss           0x00000000        0x0 d:/program files/microchip/xc32/v2.50/bin/bin/../../lib/gcc/pic32mx/4.8.3/../../../../pic32mx/lib/micromips\libpic32.a(isatty.o)

.data%z30       0x00000000        0x0
 .data          0x00000000        0x0 d:/program files/microchip/xc32/v2.50/bin/bin/../../lib/gcc/pic32mx/4.8.3/../../../../pic32mx/lib/micromips\libpic32.a(isatty.o)

.bss%z31        0x00000000        0x0
 .bss           0x00000000        0x0 d:/program files/microchip/xc32/v2.50/bin/bin/../../lib/gcc/pic32mx/4.8.3/../../../../pic32mx/lib/micromips\libpic32.a(_exit.o)

.data%z32       0x00000000        0x0
 .data          0x00000000        0x0 d:/program files/microchip/xc32/v2.50/bin/bin/../../lib/gcc/pic32mx/4.8.3/../../../../pic32mx/lib/micromips\libpic32.a(_exit.o)

.data%z33       0x00000000        0x0
 .data          0x00000000        0x0 d:/program files/microchip/xc32/v2.50/bin/bin/../../lib/gcc/pic32mx/4.8.3/../../../../pic32mx/lib/micromips\libpic32.a(sbrk.o)

.bss%z34        0x00000000        0x0
 .bss           0x00000000        0x0 d:/program files/microchip/xc32/v2.50/bin/bin/../../lib/gcc/pic32mx/4.8.3/../../../../pic32mx/lib/micromips\libsupc++.a(vmi_class_type_info.o)

.data%z35       0x00000000        0x0
 .data          0x00000000        0x0 d:/program files/microchip/xc32/v2.50/bin/bin/../../lib/gcc/pic32mx/4.8.3/../../../../pic32mx/lib/micromips\libsupc++.a(vmi_class_type_info.o)

.bss%z36        0x00000000        0x0
 .bss           0x00000000        0x0 d:/program files/microchip/xc32/v2.50/bin/bin/../../lib/gcc/pic32mx/4.8.3/../../../../pic32mx/lib/micromips\libxcpp.a(xfopen.o)

.data%z37       0x00000000        0x0
 .data          0x00000000        0x0 d:/program files/microchip/xc32/v2.50/bin/bin/../../lib/gcc/pic32mx/4.8.3/../../../../pic32mx/lib/micromips\libxcpp.a(xfopen.o)

.bss%z38        0x00000000        0x0
 .bss           0x00000000        0x0 d:/program files/microchip/xc32/v2.50/bin/bin/../../lib/gcc/pic32mx/4.8.3/../../../../pic32mx/lib/micromips\libxcpp.a(xstoul.o)

.data%z39       0x00000000        0x0
 .data          0x00000000        0x0 d:/program files/microchip/xc32/v2.50/bin/bin/../../lib/gcc/pic32mx/4.8.3/../../../../pic32mx/lib/micromips\libxcpp.a(xstoul.o)

.bss%z40        0x00000000        0x0
 .bss           0x00000000        0x0 d:/program files/microchip/xc32/v2.50/bin/bin/../../lib/gcc/pic32mx/4.8.3/../../../../pic32mx/lib/micromips\libxcpp.a(xstol.o)

.data%z41       0x00000000        0x0
 .data          0x00000000        0x0 d:/program files/microchip/xc32/v2.50/bin/bin/../../lib/gcc/pic32mx/4.8.3/../../../../pic32mx/lib/micromips\libxcpp.a(xstol.o)

.data%z42       0x00000000        0x0
 .data          0x00000000        0x0 d:/program files/microchip/xc32/v2.50/bin/bin/../../lib/gcc/pic32mx/4.8.3/../../../../pic32mx/lib/micromips\libxcpp.a(xlocterm.o)

.bss%z43        0x00000000        0x0
 .bss           0x00000000        0x0 d:/program files/microchip/xc32/v2.50/bin/bin/../../lib/gcc/pic32mx/4.8.3/../../../../pic32mx/lib/micromips\libxcpp.a(xfoprep.o)

.data%z44       0x00000000        0x0
 .data          0x00000000        0x0 d:/program files/microchip/xc32/v2.50/bin/bin/../../lib/gcc/pic32mx/4.8.3/../../../../pic32mx/lib/micromips\libxcpp.a(xfoprep.o)

.bss%z45        0x00000000        0x0
 .bss           0x00000000        0x0 d:/program files/microchip/xc32/v2.50/bin/bin/../../lib/gcc/pic32mx/4.8.3/../../../../pic32mx/lib/micromips\libxcpp.a(strtol.o)

.data%z46       0x00000000        0x0
 .data          0x00000000        0x0 d:/program files/microchip/xc32/v2.50/bin/bin/../../lib/gcc/pic32mx/4.8.3/../../../../pic32mx/lib/micromips\libxcpp.a(strtol.o)

.bss%z47        0x00000000        0x0
 .bss           0x00000000        0x0 d:/program files/microchip/xc32/v2.50/bin/bin/../../lib/gcc/pic32mx/4.8.3/../../../../pic32mx/lib/micromips\libxcpp.a(strspn.o)

.data%z48       0x00000000        0x0
 .data          0x00000000        0x0 d:/program files/microchip/xc32/v2.50/bin/bin/../../lib/gcc/pic32mx/4.8.3/../../../../pic32mx/lib/micromips\libxcpp.a(strspn.o)

.bss%z49        0x00000000        0x0
 .bss           0x00000000        0x0 d:/program files/microchip/xc32/v2.50/bin/bin/../../lib/gcc/pic32mx/4.8.3/../../../../pic32mx/lib/micromips\libxcpp.a(strrchr.o)

.data%z50       0x00000000        0x0
 .data          0x00000000        0x0 d:/program files/microchip/xc32/v2.50/bin/bin/../../lib/gcc/pic32mx/4.8.3/../../../../pic32mx/lib/micromips\libxcpp.a(strrchr.o)

.bss%z51        0x00000000        0x0
 .bss           0x00000000        0x0 d:/program files/microchip/xc32/v2.50/bin/bin/../../lib/gcc/pic32mx/4.8.3/../../../../pic32mx/lib/micromips\libxcpp.a(strncmp.o)

.data%z52       0x00000000        0x0
 .data          0x00000000        0x0 d:/program files/microchip/xc32/v2.50/bin/bin/../../lib/gcc/pic32mx/4.8.3/../../../../pic32mx/lib/micromips\libxcpp.a(strncmp.o)

.bss%z53        0x00000000        0x0
 .bss           0x00000000        0x0 d:/program files/microchip/xc32/v2.50/bin/bin/../../lib/gcc/pic32mx/4.8.3/../../../../pic32mx/lib/micromips\libxcpp.a(strchr.o)

.data%z54       0x00000000        0x0
 .data          0x00000000        0x0 d:/program files/microchip/xc32/v2.50/bin/bin/../../lib/gcc/pic32mx/4.8.3/../../../../pic32mx/lib/micromips\libxcpp.a(strchr.o)

.bss%z55        0x00000000        0x0
 .bss           0x00000000        0x0 d:/program files/microchip/xc32/v2.50/bin/bin/../../lib/gcc/pic32mx/4.8.3/../../../../pic32mx/lib/micromips\libxcpp.a(realloc.o)

.data%z56       0x00000000        0x0
 .data          0x00000000        0x0 d:/program files/microchip/xc32/v2.50/bin/bin/../../lib/gcc/pic32mx/4.8.3/../../../../pic32mx/lib/micromips\libxcpp.a(realloc.o)

.bss%z57        0x00000000        0x0
 .bss           0x00000000        0x0 d:/program files/microchip/xc32/v2.50/bin/bin/../../lib/gcc/pic32mx/4.8.3/../../../../pic32mx/lib/micromips\libxcpp.a(fputs.o)

.data%z58       0x00000000        0x0
 .data          0x00000000        0x0 d:/program files/microchip/xc32/v2.50/bin/bin/../../lib/gcc/pic32mx/4.8.3/../../../../pic32mx/lib/micromips\libxcpp.a(fputs.o)

.bss%z59        0x00000000        0x0
 .bss           0x00000000        0x0 d:/program files/microchip/xc32/v2.50/bin/bin/../../lib/gcc/pic32mx/4.8.3/../../../../pic32mx/lib/micromips\libxcpp.a(fopen.o)

.data%z60       0x00000000        0x0
 .data          0x00000000        0x0 d:/program files/microchip/xc32/v2.50/bin/bin/../../lib/gcc/pic32mx/4.8.3/../../../../pic32mx/lib/micromips\libxcpp.a(fopen.o)

.bss%z61        0x00000000        0x0
 .bss           0x00000000        0x0 d:/program files/microchip/xc32/v2.50/bin/bin/../../lib/gcc/pic32mx/4.8.3/../../../../pic32mx/lib/micromips\libxcpp.a(fgets.o)

.data%z62       0x00000000        0x0
 .data          0x00000000        0x0 d:/program files/microchip/xc32/v2.50/bin/bin/../../lib/gcc/pic32mx/4.8.3/../../../../pic32mx/lib/micromips\libxcpp.a(fgets.o)

.data%z63       0x00000000        0x0
 .data          0x00000000        0x0 d:/program files/microchip/xc32/v2.50/bin/bin/../../lib/gcc/pic32mx/4.8.3/../../../../pic32mx/lib/micromips\libxcpp.a(xstrerro.o)

.bss%z64        0x00000000        0x0
 .bss           0x00000000        0x0 d:/program files/microchip/xc32/v2.50/bin/bin/../../lib/gcc/pic32mx/4.8.3/../../../../pic32mx/lib/micromips\libxcpp.a(xreadloc.o)

.data%z65       0x00000000        0x0
 .data          0x00000000        0x0 d:/program files/microchip/xc32/v2.50/bin/bin/../../lib/gcc/pic32mx/4.8.3/../../../../pic32mx/lib/micromips\libxcpp.a(xreadloc.o)

.bss%z66        0x00000000        0x0
 .bss           0x00000000        0x0 d:/program files/microchip/xc32/v2.50/bin/bin/../../lib/gcc/pic32mx/4.8.3/../../../../pic32mx/lib/micromips\libxcpp.a(xmakewct.o)

.data%z67       0x00000000        0x0
 .data          0x00000000        0x0 d:/program files/microchip/xc32/v2.50/bin/bin/../../lib/gcc/pic32mx/4.8.3/../../../../pic32mx/lib/micromips\libxcpp.a(xmakewct.o)

.bss%z68        0x00000000        0x0
 .bss           0x00000000        0x0 d:/program files/microchip/xc32/v2.50/bin/bin/../../lib/gcc/pic32mx/4.8.3/../../../../pic32mx/lib/micromips\libxcpp.a(xmakesta.o)

.data%z69       0x00000000        0x0
 .data          0x00000000        0x0 d:/program files/microchip/xc32/v2.50/bin/bin/../../lib/gcc/pic32mx/4.8.3/../../../../pic32mx/lib/micromips\libxcpp.a(xmakesta.o)

.bss%z70        0x00000000        0x0
 .bss           0x00000000        0x0 d:/program files/microchip/xc32/v2.50/bin/bin/../../lib/gcc/pic32mx/4.8.3/../../../../pic32mx/lib/micromips\libxcpp.a(xmakeloc.o)

.data%z71       0x00000000        0x0
 .data          0x00000000        0x0 d:/program files/microchip/xc32/v2.50/bin/bin/../../lib/gcc/pic32mx/4.8.3/../../../../pic32mx/lib/micromips\libxcpp.a(xmakeloc.o)

.bss%z72        0x00000000        0x0
 .bss           0x00000000        0x0 d:/program files/microchip/xc32/v2.50/bin/bin/../../lib/gcc/pic32mx/4.8.3/../../../../pic32mx/lib/micromips\libxcpp.a(xloctab.o)

.bss%z73        0x00000000        0x0
 .bss           0x00000000        0x0 d:/program files/microchip/xc32/v2.50/bin/bin/../../lib/gcc/pic32mx/4.8.3/../../../../pic32mx/lib/micromips\libxcpp.a(xgettime.o)

.data%z74       0x00000000        0x0
 .data          0x00000000        0x0 d:/program files/microchip/xc32/v2.50/bin/bin/../../lib/gcc/pic32mx/4.8.3/../../../../pic32mx/lib/micromips\libxcpp.a(xgettime.o)

.bss%z75        0x00000000        0x0
 .bss           0x00000000        0x0 d:/program files/microchip/xc32/v2.50/bin/bin/../../lib/gcc/pic32mx/4.8.3/../../../../pic32mx/lib/micromips\libxcpp.a(xgentime.o)

.data%z76       0x00000000        0x0
 .data          0x00000000        0x0 d:/program files/microchip/xc32/v2.50/bin/bin/../../lib/gcc/pic32mx/4.8.3/../../../../pic32mx/lib/micromips\libxcpp.a(xgentime.o)

.bss%z77        0x00000000        0x0
 .bss           0x00000000        0x0 d:/program files/microchip/xc32/v2.50/bin/bin/../../lib/gcc/pic32mx/4.8.3/../../../../pic32mx/lib/micromips\libxcpp.a(xfreeloc.o)

.data%z78       0x00000000        0x0
 .data          0x00000000        0x0 d:/program files/microchip/xc32/v2.50/bin/bin/../../lib/gcc/pic32mx/4.8.3/../../../../pic32mx/lib/micromips\libxcpp.a(xfreeloc.o)

.bss%z79        0x00000000        0x0
 .bss           0x00000000        0x0 d:/program files/microchip/xc32/v2.50/bin/bin/../../lib/gcc/pic32mx/4.8.3/../../../../pic32mx/lib/micromips\libxcpp.a(xfindloc.o)

.data%z80       0x00000000        0x0
 .data          0x00000000        0x0 d:/program files/microchip/xc32/v2.50/bin/bin/../../lib/gcc/pic32mx/4.8.3/../../../../pic32mx/lib/micromips\libxcpp.a(xfindloc.o)

.bss%z81        0x00000000        0x0
 .bss           0x00000000        0x0 d:/program files/microchip/xc32/v2.50/bin/bin/../../lib/gcc/pic32mx/4.8.3/../../../../pic32mx/lib/micromips\libxcpp.a(strerror.o)

.data%z82       0x00000000        0x0
 .data          0x00000000        0x0 d:/program files/microchip/xc32/v2.50/bin/bin/../../lib/gcc/pic32mx/4.8.3/../../../../pic32mx/lib/micromips\libxcpp.a(strerror.o)

.bss%z83        0x00000000        0x0
 .bss           0x00000000        0x0 d:/program files/microchip/xc32/v2.50/bin/bin/../../lib/gcc/pic32mx/4.8.3/../../../../pic32mx/lib/micromips\libxcpp.a(strcspn.o)

.data%z84       0x00000000        0x0
 .data          0x00000000        0x0 d:/program files/microchip/xc32/v2.50/bin/bin/../../lib/gcc/pic32mx/4.8.3/../../../../pic32mx/lib/micromips\libxcpp.a(strcspn.o)

.bss%z85        0x00000000        0x0
 .bss           0x00000000        0x0 d:/program files/microchip/xc32/v2.50/bin/bin/../../lib/gcc/pic32mx/4.8.3/../../../../pic32mx/lib/micromips\libxcpp.a(memcmp.o)

.data%z86       0x00000000        0x0
 .data          0x00000000        0x0 d:/program files/microchip/xc32/v2.50/bin/bin/../../lib/gcc/pic32mx/4.8.3/../../../../pic32mx/lib/micromips\libxcpp.a(memcmp.o)

.bss%z87        0x00000000        0x0
 .bss           0x00000000        0x0 d:/program files/microchip/xc32/v2.50/bin/bin/../../lib/gcc/pic32mx/4.8.3/../../../../pic32mx/lib/micromips\libxcpp.a(getenv.o)

.data%z88       0x00000000        0x0
 .data          0x00000000        0x0 d:/program files/microchip/xc32/v2.50/bin/bin/../../lib/gcc/pic32mx/4.8.3/../../../../pic32mx/lib/micromips\libxcpp.a(getenv.o)

.data%z89       0x00000000        0x0
 .data          0x00000000        0x0 d:/program files/microchip/xc32/v2.50/bin/bin/../../lib/gcc/pic32mx/4.8.3/../../../../pic32mx/lib/micromips\libxcpp.a(errno.o)

.bss%z90        0x00000000        0x0
 .bss           0x00000000        0x0 d:/program files/microchip/xc32/v2.50/bin/bin/../../lib/gcc/pic32mx/4.8.3/../../../../pic32mx/lib/micromips\libxcpp.a(delop3.o)

.data%z91       0x00000000        0x0
 .data          0x00000000        0x0 d:/program files/microchip/xc32/v2.50/bin/bin/../../lib/gcc/pic32mx/4.8.3/../../../../pic32mx/lib/micromips\libxcpp.a(delop3.o)

.bss%z92        0x00000000        0x0
 .bss           0x00000000        0x0 d:/program files/microchip/xc32/v2.50/bin/bin/../../lib/gcc/pic32mx/4.8.3/../../../../pic32mx/lib/micromips\libxcpp.a(delaop.o)

.data%z93       0x00000000        0x0
 .data          0x00000000        0x0 d:/program files/microchip/xc32/v2.50/bin/bin/../../lib/gcc/pic32mx/4.8.3/../../../../pic32mx/lib/micromips\libxcpp.a(delaop.o)

.data%z94       0x00000000        0x0
 .data          0x00000000        0x0 d:/program files/microchip/xc32/v2.50/bin/bin/../../lib/gcc/pic32mx/4.8.3/../../../../pic32mx/lib/micromips\libxcpp.a(syserror.o)

.bss%z95        0x00000000        0x0
 .bss           0x00000000        0x0 d:/program files/microchip/xc32/v2.50/bin/bin/../../lib/gcc/pic32mx/4.8.3/../../../../pic32mx/lib/micromips\libxcpp.a(xwfwprep.o)

.data%z96       0x00000000        0x0
 .data          0x00000000        0x0 d:/program files/microchip/xc32/v2.50/bin/bin/../../lib/gcc/pic32mx/4.8.3/../../../../pic32mx/lib/micromips\libxcpp.a(xwfwprep.o)

.bss%z97        0x00000000        0x0
 .bss           0x00000000        0x0 d:/program files/microchip/xc32/v2.50/bin/bin/../../lib/gcc/pic32mx/4.8.3/../../../../pic32mx/lib/micromips\libxcpp.a(xwfrprep.o)

.data%z98       0x00000000        0x0
 .data          0x00000000        0x0 d:/program files/microchip/xc32/v2.50/bin/bin/../../lib/gcc/pic32mx/4.8.3/../../../../pic32mx/lib/micromips\libxcpp.a(xwfrprep.o)

.bss%z99        0x00000000        0x0
 .bss           0x00000000        0x0 d:/program files/microchip/xc32/v2.50/bin/bin/../../lib/gcc/pic32mx/4.8.3/../../../../pic32mx/lib/micromips\libxcpp.a(xwctomb.o)

.data%z100      0x00000000        0x0
 .data          0x00000000        0x0 d:/program files/microchip/xc32/v2.50/bin/bin/../../lib/gcc/pic32mx/4.8.3/../../../../pic32mx/lib/micromips\libxcpp.a(xwctomb.o)

.data%z101      0x00000000        0x0
 .data          0x00000000        0x0 d:/program files/microchip/xc32/v2.50/bin/bin/../../lib/gcc/pic32mx/4.8.3/../../../../pic32mx/lib/micromips\libxcpp.a(xwcstate.o)

.data%z102      0x00000000        0x0
 .data          0x00000000        0x0 d:/program files/microchip/xc32/v2.50/bin/bin/../../lib/gcc/pic32mx/4.8.3/../../../../pic32mx/lib/micromips\libxcpp.a(xwcostate.o)

.bss%z103       0x00000000        0x0
 .bss           0x00000000        0x0 d:/program files/microchip/xc32/v2.50/bin/bin/../../lib/gcc/pic32mx/4.8.3/../../../../pic32mx/lib/micromips\libxcpp.a(xstrftim.o)

.data%z104      0x00000000        0x0
 .data          0x00000000        0x0 d:/program files/microchip/xc32/v2.50/bin/bin/../../lib/gcc/pic32mx/4.8.3/../../../../pic32mx/lib/micromips\libxcpp.a(xstrftim.o)

.bss%z105       0x00000000        0x0
 .bss           0x00000000        0x0 d:/program files/microchip/xc32/v2.50/bin/bin/../../lib/gcc/pic32mx/4.8.3/../../../../pic32mx/lib/micromips\libxcpp.a(xsetloc.o)

.data%z106      0x00000000        0x0
 .data          0x00000000        0x0 d:/program files/microchip/xc32/v2.50/bin/bin/../../lib/gcc/pic32mx/4.8.3/../../../../pic32mx/lib/micromips\libxcpp.a(xsetloc.o)

.bss%z107       0x00000000        0x0
 .bss           0x00000000        0x0 d:/program files/microchip/xc32/v2.50/bin/bin/../../lib/gcc/pic32mx/4.8.3/../../../../pic32mx/lib/micromips\libxcpp.a(xmbtowc.o)

.data%z108      0x00000000        0x0
 .data          0x00000000        0x0 d:/program files/microchip/xc32/v2.50/bin/bin/../../lib/gcc/pic32mx/4.8.3/../../../../pic32mx/lib/micromips\libxcpp.a(xmbtowc.o)

.bss%z109       0x00000000        0x0
 .bss           0x00000000        0x0 d:/program files/microchip/xc32/v2.50/bin/bin/../../lib/gcc/pic32mx/4.8.3/../../../../pic32mx/lib/micromips\libxcpp.a(xgetmem.o)

.data%z110      0x00000000        0x0
 .data          0x00000000        0x0 d:/program files/microchip/xc32/v2.50/bin/bin/../../lib/gcc/pic32mx/4.8.3/../../../../pic32mx/lib/micromips\libxcpp.a(xgetmem.o)

.data%z111      0x00000000        0x0
 .data          0x00000000        0x0 d:/program files/microchip/xc32/v2.50/bin/bin/../../lib/gcc/pic32mx/4.8.3/../../../../pic32mx/lib/micromips\libxcpp.a(xgetloc.o)

.data%z112      0x00000000        0x0
 .data          0x00000000        0x0 d:/program files/microchip/xc32/v2.50/bin/bin/../../lib/gcc/pic32mx/4.8.3/../../../../pic32mx/lib/micromips\libxcpp.a(xgetglob.o)

.bss%z113       0x00000000        0x0
 .bss           0x00000000        0x0 d:/program files/microchip/xc32/v2.50/bin/bin/../../lib/gcc/pic32mx/4.8.3/../../../../pic32mx/lib/micromips\libxcpp.a(xfwprep.o)

.data%z114      0x00000000        0x0
 .data          0x00000000        0x0 d:/program files/microchip/xc32/v2.50/bin/bin/../../lib/gcc/pic32mx/4.8.3/../../../../pic32mx/lib/micromips\libxcpp.a(xfwprep.o)

.bss%z115       0x00000000        0x0
 .bss           0x00000000        0x0 d:/program files/microchip/xc32/v2.50/bin/bin/../../lib/gcc/pic32mx/4.8.3/../../../../pic32mx/lib/micromips\libxcpp.a(xfspos.o)

.data%z116      0x00000000        0x0
 .data          0x00000000        0x0 d:/program files/microchip/xc32/v2.50/bin/bin/../../lib/gcc/pic32mx/4.8.3/../../../../pic32mx/lib/micromips\libxcpp.a(xfspos.o)

.bss%z117       0x00000000        0x0
 .bss           0x00000000        0x0 d:/program files/microchip/xc32/v2.50/bin/bin/../../lib/gcc/pic32mx/4.8.3/../../../../pic32mx/lib/micromips\libxcpp.a(xfrprep.o)

.data%z118      0x00000000        0x0
 .data          0x00000000        0x0 d:/program files/microchip/xc32/v2.50/bin/bin/../../lib/gcc/pic32mx/4.8.3/../../../../pic32mx/lib/micromips\libxcpp.a(xfrprep.o)

.bss%z119       0x00000000        0x0
 .bss           0x00000000        0x0 d:/program files/microchip/xc32/v2.50/bin/bin/../../lib/gcc/pic32mx/4.8.3/../../../../pic32mx/lib/micromips\libxcpp.a(xfofind.o)

.data%z120      0x00000000        0x0
 .data          0x00000000        0x0 d:/program files/microchip/xc32/v2.50/bin/bin/../../lib/gcc/pic32mx/4.8.3/../../../../pic32mx/lib/micromips\libxcpp.a(xfofind.o)

.bss%z121       0x00000000        0x0
 .bss           0x00000000        0x0 d:/program files/microchip/xc32/v2.50/bin/bin/../../lib/gcc/pic32mx/4.8.3/../../../../pic32mx/lib/micromips\libxcpp.a(xfgpos.o)

.data%z122      0x00000000        0x0
 .data          0x00000000        0x0 d:/program files/microchip/xc32/v2.50/bin/bin/../../lib/gcc/pic32mx/4.8.3/../../../../pic32mx/lib/micromips\libxcpp.a(xfgpos.o)

.bss%z123       0x00000000        0x0
 .bss           0x00000000        0x0 d:/program files/microchip/xc32/v2.50/bin/bin/../../lib/gcc/pic32mx/4.8.3/../../../../pic32mx/lib/micromips\libxcpp.a(xexit.o)

.data%z124      0x00000000        0x0
 .data          0x00000000        0x0 d:/program files/microchip/xc32/v2.50/bin/bin/../../lib/gcc/pic32mx/4.8.3/../../../../pic32mx/lib/micromips\libxcpp.a(xexit.o)

.bss%z125       0x00000000        0x0
 .bss           0x00000000        0x0 d:/program files/microchip/xc32/v2.50/bin/bin/../../lib/gcc/pic32mx/4.8.3/../../../../pic32mx/lib/micromips\libxcpp.a(xdefloc.o)

.data%z126      0x00000000        0x0
 .data          0x00000000        0x0 d:/program files/microchip/xc32/v2.50/bin/bin/../../lib/gcc/pic32mx/4.8.3/../../../../pic32mx/lib/micromips\libxcpp.a(xdefloc.o)

.data%z127      0x00000000        0x0
 .data          0x00000000        0x0 d:/program files/microchip/xc32/v2.50/bin/bin/../../lib/gcc/pic32mx/4.8.3/../../../../pic32mx/lib/micromips\libxcpp.a(xcostate.o)

.bss%z128       0x00000000        0x0
 .bss           0x00000000        0x0 d:/program files/microchip/xc32/v2.50/bin/bin/../../lib/gcc/pic32mx/4.8.3/../../../../pic32mx/lib/micromips\libxcpp.a(xatexit.o)

.data%z129      0x00000000        0x0
 .data          0x00000000        0x0 d:/program files/microchip/xc32/v2.50/bin/bin/../../lib/gcc/pic32mx/4.8.3/../../../../pic32mx/lib/micromips\libxcpp.a(xatexit.o)

.bss%z130       0x00000000        0x0
 .bss           0x00000000        0x0 d:/program files/microchip/xc32/v2.50/bin/bin/../../lib/gcc/pic32mx/4.8.3/../../../../pic32mx/lib/micromips\libxcpp.a(wmemcpy.o)

.data%z131      0x00000000        0x0
 .data          0x00000000        0x0 d:/program files/microchip/xc32/v2.50/bin/bin/../../lib/gcc/pic32mx/4.8.3/../../../../pic32mx/lib/micromips\libxcpp.a(wmemcpy.o)

.bss%z132       0x00000000        0x0
 .bss           0x00000000        0x0 d:/program files/microchip/xc32/v2.50/bin/bin/../../lib/gcc/pic32mx/4.8.3/../../../../pic32mx/lib/micromips\libxcpp.a(ungetwc.o)

.data%z133      0x00000000        0x0
 .data          0x00000000        0x0 d:/program files/microchip/xc32/v2.50/bin/bin/../../lib/gcc/pic32mx/4.8.3/../../../../pic32mx/lib/micromips\libxcpp.a(ungetwc.o)

.bss%z134       0x00000000        0x0
 .bss           0x00000000        0x0 d:/program files/microchip/xc32/v2.50/bin/bin/../../lib/gcc/pic32mx/4.8.3/../../../../pic32mx/lib/micromips\libxcpp.a(ungetc.o)

.data%z135      0x00000000        0x0
 .data          0x00000000        0x0 d:/program files/microchip/xc32/v2.50/bin/bin/../../lib/gcc/pic32mx/4.8.3/../../../../pic32mx/lib/micromips\libxcpp.a(ungetc.o)

.bss%z136       0x00000000        0x0
 .bss           0x00000000        0x0 d:/program files/microchip/xc32/v2.50/bin/bin/../../lib/gcc/pic32mx/4.8.3/../../../../pic32mx/lib/micromips\libxcpp.a(strcpy.o)

.data%z137      0x00000000        0x0
 .data          0x00000000        0x0 d:/program files/microchip/xc32/v2.50/bin/bin/../../lib/gcc/pic32mx/4.8.3/../../../../pic32mx/lib/micromips\libxcpp.a(strcpy.o)

.bss%z138       0x00000000        0x0
 .bss           0x00000000        0x0 d:/program files/microchip/xc32/v2.50/bin/bin/../../lib/gcc/pic32mx/4.8.3/../../../../pic32mx/lib/micromips\libxcpp.a(setvbuf.o)

.data%z139      0x00000000        0x0
 .data          0x00000000        0x0 d:/program files/microchip/xc32/v2.50/bin/bin/../../lib/gcc/pic32mx/4.8.3/../../../../pic32mx/lib/micromips\libxcpp.a(setvbuf.o)

.bss%z140       0x00000000        0x0
 .bss           0x00000000        0x0 d:/program files/microchip/xc32/v2.50/bin/bin/../../lib/gcc/pic32mx/4.8.3/../../../../pic32mx/lib/micromips\libxcpp.a(remove.o)

.data%z141      0x00000000        0x0
 .data          0x00000000        0x0 d:/program files/microchip/xc32/v2.50/bin/bin/../../lib/gcc/pic32mx/4.8.3/../../../../pic32mx/lib/micromips\libxcpp.a(remove.o)

.bss%z142       0x00000000        0x0
 .bss           0x00000000        0x0 d:/program files/microchip/xc32/v2.50/bin/bin/../../lib/gcc/pic32mx/4.8.3/../../../../pic32mx/lib/micromips\libxcpp.a(raise.o)

.data%z143      0x00000000        0x0
 .data          0x00000000        0x0 d:/program files/microchip/xc32/v2.50/bin/bin/../../lib/gcc/pic32mx/4.8.3/../../../../pic32mx/lib/micromips\libxcpp.a(raise.o)

.bss%z144       0x00000000        0x0
 .bss           0x00000000        0x0 d:/program files/microchip/xc32/v2.50/bin/bin/../../lib/gcc/pic32mx/4.8.3/../../../../pic32mx/lib/micromips\libxcpp.a(memmove.o)

.data%z145      0x00000000        0x0
 .data          0x00000000        0x0 d:/program files/microchip/xc32/v2.50/bin/bin/../../lib/gcc/pic32mx/4.8.3/../../../../pic32mx/lib/micromips\libxcpp.a(memmove.o)

.bss%z146       0x00000000        0x0
 .bss           0x00000000        0x0 d:/program files/microchip/xc32/v2.50/bin/bin/../../lib/gcc/pic32mx/4.8.3/../../../../pic32mx/lib/micromips\libxcpp.a(memchr.o)

.data%z147      0x00000000        0x0
 .data          0x00000000        0x0 d:/program files/microchip/xc32/v2.50/bin/bin/../../lib/gcc/pic32mx/4.8.3/../../../../pic32mx/lib/micromips\libxcpp.a(memchr.o)

.bss%z148       0x00000000        0x0
 .bss           0x00000000        0x0 d:/program files/microchip/xc32/v2.50/bin/bin/../../lib/gcc/pic32mx/4.8.3/../../../../pic32mx/lib/micromips\libxcpp.a(fwrite.o)

.data%z149      0x00000000        0x0
 .data          0x00000000        0x0 d:/program files/microchip/xc32/v2.50/bin/bin/../../lib/gcc/pic32mx/4.8.3/../../../../pic32mx/lib/micromips\libxcpp.a(fwrite.o)

.bss%z150       0x00000000        0x0
 .bss           0x00000000        0x0 d:/program files/microchip/xc32/v2.50/bin/bin/../../lib/gcc/pic32mx/4.8.3/../../../../pic32mx/lib/micromips\libxcpp.a(fsetpos.o)

.data%z151      0x00000000        0x0
 .data          0x00000000        0x0 d:/program files/microchip/xc32/v2.50/bin/bin/../../lib/gcc/pic32mx/4.8.3/../../../../pic32mx/lib/micromips\libxcpp.a(fsetpos.o)

.bss%z152       0x00000000        0x0
 .bss           0x00000000        0x0 d:/program files/microchip/xc32/v2.50/bin/bin/../../lib/gcc/pic32mx/4.8.3/../../../../pic32mx/lib/micromips\libxcpp.a(fseek.o)

.data%z153      0x00000000        0x0
 .data          0x00000000        0x0 d:/program files/microchip/xc32/v2.50/bin/bin/../../lib/gcc/pic32mx/4.8.3/../../../../pic32mx/lib/micromips\libxcpp.a(fseek.o)

.bss%z154       0x00000000        0x0
 .bss           0x00000000        0x0 d:/program files/microchip/xc32/v2.50/bin/bin/../../lib/gcc/pic32mx/4.8.3/../../../../pic32mx/lib/micromips\libxcpp.a(free.o)

.data%z155      0x00000000        0x0
 .data          0x00000000        0x0 d:/program files/microchip/xc32/v2.50/bin/bin/../../lib/gcc/pic32mx/4.8.3/../../../../pic32mx/lib/micromips\libxcpp.a(free.o)

.bss%z156       0x00000000        0x0
 .bss           0x00000000        0x0 d:/program files/microchip/xc32/v2.50/bin/bin/../../lib/gcc/pic32mx/4.8.3/../../../../pic32mx/lib/micromips\libxcpp.a(fputwc.o)

.data%z157      0x00000000        0x0
 .data          0x00000000        0x0 d:/program files/microchip/xc32/v2.50/bin/bin/../../lib/gcc/pic32mx/4.8.3/../../../../pic32mx/lib/micromips\libxcpp.a(fputwc.o)

.bss%z158       0x00000000        0x0
 .bss           0x00000000        0x0 d:/program files/microchip/xc32/v2.50/bin/bin/../../lib/gcc/pic32mx/4.8.3/../../../../pic32mx/lib/micromips\libxcpp.a(fputc.o)

.data%z159      0x00000000        0x0
 .data          0x00000000        0x0 d:/program files/microchip/xc32/v2.50/bin/bin/../../lib/gcc/pic32mx/4.8.3/../../../../pic32mx/lib/micromips\libxcpp.a(fputc.o)

.bss%z160       0x00000000        0x0
 .bss           0x00000000        0x0 d:/program files/microchip/xc32/v2.50/bin/bin/../../lib/gcc/pic32mx/4.8.3/../../../../pic32mx/lib/micromips\libxcpp.a(fgetwc.o)

.data%z161      0x00000000        0x0
 .data          0x00000000        0x0 d:/program files/microchip/xc32/v2.50/bin/bin/../../lib/gcc/pic32mx/4.8.3/../../../../pic32mx/lib/micromips\libxcpp.a(fgetwc.o)

.bss%z162       0x00000000        0x0
 .bss           0x00000000        0x0 d:/program files/microchip/xc32/v2.50/bin/bin/../../lib/gcc/pic32mx/4.8.3/../../../../pic32mx/lib/micromips\libxcpp.a(fgetpos.o)

.data%z163      0x00000000        0x0
 .data          0x00000000        0x0 d:/program files/microchip/xc32/v2.50/bin/bin/../../lib/gcc/pic32mx/4.8.3/../../../../pic32mx/lib/micromips\libxcpp.a(fgetpos.o)

.bss%z164       0x00000000        0x0
 .bss           0x00000000        0x0 d:/program files/microchip/xc32/v2.50/bin/bin/../../lib/gcc/pic32mx/4.8.3/../../../../pic32mx/lib/micromips\libxcpp.a(fgetc.o)

.data%z165      0x00000000        0x0
 .data          0x00000000        0x0 d:/program files/microchip/xc32/v2.50/bin/bin/../../lib/gcc/pic32mx/4.8.3/../../../../pic32mx/lib/micromips\libxcpp.a(fgetc.o)

.bss%z166       0x00000000        0x0
 .bss           0x00000000        0x0 d:/program files/microchip/xc32/v2.50/bin/bin/../../lib/gcc/pic32mx/4.8.3/../../../../pic32mx/lib/micromips\libxcpp.a(fflush.o)

.data%z167      0x00000000        0x0
 .data          0x00000000        0x0 d:/program files/microchip/xc32/v2.50/bin/bin/../../lib/gcc/pic32mx/4.8.3/../../../../pic32mx/lib/micromips\libxcpp.a(fflush.o)

.data%z168      0x00000000        0x0
 .data          0x00000000        0x0 d:/program files/microchip/xc32/v2.50/bin/bin/../../lib/gcc/pic32mx/4.8.3/../../../../pic32mx/lib/micromips\libxcpp.a(fclose.o)

.bss%z169       0x00000000        0x0
 .bss           0x00000000        0x0 d:/program files/microchip/xc32/v2.50/bin/bin/../../lib/gcc/pic32mx/4.8.3/../../../../pic32mx/lib/micromips\libxcpp.a(abs.o)

.data%z170      0x00000000        0x0
 .data          0x00000000        0x0 d:/program files/microchip/xc32/v2.50/bin/bin/../../lib/gcc/pic32mx/4.8.3/../../../../pic32mx/lib/micromips\libxcpp.a(abs.o)

.bss%z171       0x00000000        0x0
 .bss           0x00000000        0x0 d:/program files/microchip/xc32/v2.50/bin/bin/../../lib/gcc/pic32mx/4.8.3/../../../../pic32mx/lib/micromips\libxcpp.a(abort.o)

.data%z172      0x00000000        0x0
 .data          0x00000000        0x0 d:/program files/microchip/xc32/v2.50/bin/bin/../../lib/gcc/pic32mx/4.8.3/../../../../pic32mx/lib/micromips\libxcpp.a(abort.o)

.data%z173      0x00000000        0x0
 .data          0x00000000        0x0 d:/program files/microchip/xc32/v2.50/bin/bin/../../lib/gcc/pic32mx/4.8.3/../../../../pic32mx/lib/micromips\libxcpp.a(locale0.o)

.bss%z174       0x00000000        0x0
 .bss           0x00000000        0x0 d:/program files/microchip/xc32/v2.50/bin/bin/../../lib/gcc/pic32mx/4.8.3/../../../../pic32mx/lib/micromips\libxcpp.a(xthrow.o)

.data%z175      0x00000000        0x0
 .data          0x00000000        0x0 d:/program files/microchip/xc32/v2.50/bin/bin/../../lib/gcc/pic32mx/4.8.3/../../../../pic32mx/lib/micromips\libxcpp.a(xthrow.o)

.bss%z176       0x00000000        0x0
 .bss           0x00000000        0x0 d:/program files/microchip/xc32/v2.50/bin/bin/../../lib/gcc/pic32mx/4.8.3/../../../../pic32mx/lib/micromips\libpic32.a(defaultinterrupt.o)

.data%z177      0x00000000        0x0
 .data          0x00000000        0x0 d:/program files/microchip/xc32/v2.50/bin/bin/../../lib/gcc/pic32mx/4.8.3/../../../../pic32mx/lib/micromips\libpic32.a(defaultinterrupt.o)

.bss%z178       0x00000000        0x0
 .bss           0x00000000        0x0 d:/program files/microchip/xc32/v2.50/bin/bin/../../lib/gcc/pic32mx/4.8.3/../../../../pic32mx/lib/micromips\libpic32.a(default-general-exception-handler.o)

.data%z179      0x00000000        0x0
 .data          0x00000000        0x0 d:/program files/microchip/xc32/v2.50/bin/bin/../../lib/gcc/pic32mx/4.8.3/../../../../pic32mx/lib/micromips\libpic32.a(default-general-exception-handler.o)

.bss%z180       0x00000000        0x0
 .bss           0x00000000        0x0 d:/program files/microchip/xc32/v2.50/bin/bin/../../lib/gcc/pic32mx/4.8.3/../../../../pic32mx/lib/micromips\libpic32.a(vector101.o)

.data%z181      0x00000000        0x0
 .data          0x00000000        0x0 d:/program files/microchip/xc32/v2.50/bin/bin/../../lib/gcc/pic32mx/4.8.3/../../../../pic32mx/lib/micromips\libpic32.a(vector101.o)

.bss%z182       0x00000000        0x0
 .bss           0x00000000        0x0 d:/program files/microchip/xc32/v2.50/bin/bin/../../lib/gcc/pic32mx/4.8.3/../../../../pic32mx/lib/micromips\libpic32.a(vector100.o)

.data%z183      0x00000000        0x0
 .data          0x00000000        0x0 d:/program files/microchip/xc32/v2.50/bin/bin/../../lib/gcc/pic32mx/4.8.3/../../../../pic32mx/lib/micromips\libpic32.a(vector100.o)

.bss%z184       0x00000000        0x0
 .bss           0x00000000        0x0 d:/program files/microchip/xc32/v2.50/bin/bin/../../lib/gcc/pic32mx/4.8.3/../../../../pic32mx/lib/micromips\libpic32.a(vector99.o)

.data%z185      0x00000000        0x0
 .data          0x00000000        0x0 d:/program files/microchip/xc32/v2.50/bin/bin/../../lib/gcc/pic32mx/4.8.3/../../../../pic32mx/lib/micromips\libpic32.a(vector99.o)

.bss%z186       0x00000000        0x0
 .bss           0x00000000        0x0 d:/program files/microchip/xc32/v2.50/bin/bin/../../lib/gcc/pic32mx/4.8.3/../../../../pic32mx/lib/micromips\libpic32.a(vector98.o)

.data%z187      0x00000000        0x0
 .data          0x00000000        0x0 d:/program files/microchip/xc32/v2.50/bin/bin/../../lib/gcc/pic32mx/4.8.3/../../../../pic32mx/lib/micromips\libpic32.a(vector98.o)

.bss%z188       0x00000000        0x0
 .bss           0x00000000        0x0 d:/program files/microchip/xc32/v2.50/bin/bin/../../lib/gcc/pic32mx/4.8.3/../../../../pic32mx/lib/micromips\libpic32.a(vector97.o)

.data%z189      0x00000000        0x0
 .data          0x00000000        0x0 d:/program files/microchip/xc32/v2.50/bin/bin/../../lib/gcc/pic32mx/4.8.3/../../../../pic32mx/lib/micromips\libpic32.a(vector97.o)

.bss%z190       0x00000000        0x0
 .bss           0x00000000        0x0 d:/program files/microchip/xc32/v2.50/bin/bin/../../lib/gcc/pic32mx/4.8.3/../../../../pic32mx/lib/micromips\libpic32.a(vector96.o)

.data%z191      0x00000000        0x0
 .data          0x00000000        0x0 d:/program files/microchip/xc32/v2.50/bin/bin/../../lib/gcc/pic32mx/4.8.3/../../../../pic32mx/lib/micromips\libpic32.a(vector96.o)

.bss%z192       0x00000000        0x0
 .bss           0x00000000        0x0 d:/program files/microchip/xc32/v2.50/bin/bin/../../lib/gcc/pic32mx/4.8.3/../../../../pic32mx/lib/micromips\libpic32.a(vector95.o)

.data%z193      0x00000000        0x0
 .data          0x00000000        0x0 d:/program files/microchip/xc32/v2.50/bin/bin/../../lib/gcc/pic32mx/4.8.3/../../../../pic32mx/lib/micromips\libpic32.a(vector95.o)

.bss%z194       0x00000000        0x0
 .bss           0x00000000        0x0 d:/program files/microchip/xc32/v2.50/bin/bin/../../lib/gcc/pic32mx/4.8.3/../../../../pic32mx/lib/micromips\libpic32.a(vector94.o)

.data%z195      0x00000000        0x0
 .data          0x00000000        0x0 d:/program files/microchip/xc32/v2.50/bin/bin/../../lib/gcc/pic32mx/4.8.3/../../../../pic32mx/lib/micromips\libpic32.a(vector94.o)

.bss%z196       0x00000000        0x0
 .bss           0x00000000        0x0 d:/program files/microchip/xc32/v2.50/bin/bin/../../lib/gcc/pic32mx/4.8.3/../../../../pic32mx/lib/micromips\libpic32.a(vector93.o)

.data%z197      0x00000000        0x0
 .data          0x00000000        0x0 d:/program files/microchip/xc32/v2.50/bin/bin/../../lib/gcc/pic32mx/4.8.3/../../../../pic32mx/lib/micromips\libpic32.a(vector93.o)

.bss%z198       0x00000000        0x0
 .bss           0x00000000        0x0 d:/program files/microchip/xc32/v2.50/bin/bin/../../lib/gcc/pic32mx/4.8.3/../../../../pic32mx/lib/micromips\libpic32.a(vector92.o)

.data%z199      0x00000000        0x0
 .data          0x00000000        0x0 d:/program files/microchip/xc32/v2.50/bin/bin/../../lib/gcc/pic32mx/4.8.3/../../../../pic32mx/lib/micromips\libpic32.a(vector92.o)

.bss%z200       0x00000000        0x0
 .bss           0x00000000        0x0 d:/program files/microchip/xc32/v2.50/bin/bin/../../lib/gcc/pic32mx/4.8.3/../../../../pic32mx/lib/micromips\libpic32.a(vector91.o)

.data%z201      0x00000000        0x0
 .data          0x00000000        0x0 d:/program files/microchip/xc32/v2.50/bin/bin/../../lib/gcc/pic32mx/4.8.3/../../../../pic32mx/lib/micromips\libpic32.a(vector91.o)

.bss%z202       0x00000000        0x0
 .bss           0x00000000        0x0 d:/program files/microchip/xc32/v2.50/bin/bin/../../lib/gcc/pic32mx/4.8.3/../../../../pic32mx/lib/micromips\libpic32.a(vector90.o)

.data%z203      0x00000000        0x0
 .data          0x00000000        0x0 d:/program files/microchip/xc32/v2.50/bin/bin/../../lib/gcc/pic32mx/4.8.3/../../../../pic32mx/lib/micromips\libpic32.a(vector90.o)

.bss%z204       0x00000000        0x0
 .bss           0x00000000        0x0 d:/program files/microchip/xc32/v2.50/bin/bin/../../lib/gcc/pic32mx/4.8.3/../../../../pic32mx/lib/micromips\libpic32.a(vector89.o)

.data%z205      0x00000000        0x0
 .data          0x00000000        0x0 d:/program files/microchip/xc32/v2.50/bin/bin/../../lib/gcc/pic32mx/4.8.3/../../../../pic32mx/lib/micromips\libpic32.a(vector89.o)

.bss%z206       0x00000000        0x0
 .bss           0x00000000        0x0 d:/program files/microchip/xc32/v2.50/bin/bin/../../lib/gcc/pic32mx/4.8.3/../../../../pic32mx/lib/micromips\libpic32.a(vector88.o)

.data%z207      0x00000000        0x0
 .data          0x00000000        0x0 d:/program files/microchip/xc32/v2.50/bin/bin/../../lib/gcc/pic32mx/4.8.3/../../../../pic32mx/lib/micromips\libpic32.a(vector88.o)

.bss%z208       0x00000000        0x0
 .bss           0x00000000        0x0 d:/program files/microchip/xc32/v2.50/bin/bin/../../lib/gcc/pic32mx/4.8.3/../../../../pic32mx/lib/micromips\libpic32.a(vector87.o)

.data%z209      0x00000000        0x0
 .data          0x00000000        0x0 d:/program files/microchip/xc32/v2.50/bin/bin/../../lib/gcc/pic32mx/4.8.3/../../../../pic32mx/lib/micromips\libpic32.a(vector87.o)

.bss%z210       0x00000000        0x0
 .bss           0x00000000        0x0 d:/program files/microchip/xc32/v2.50/bin/bin/../../lib/gcc/pic32mx/4.8.3/../../../../pic32mx/lib/micromips\libpic32.a(vector86.o)

.data%z211      0x00000000        0x0
 .data          0x00000000        0x0 d:/program files/microchip/xc32/v2.50/bin/bin/../../lib/gcc/pic32mx/4.8.3/../../../../pic32mx/lib/micromips\libpic32.a(vector86.o)

.bss%z212       0x00000000        0x0
 .bss           0x00000000        0x0 d:/program files/microchip/xc32/v2.50/bin/bin/../../lib/gcc/pic32mx/4.8.3/../../../../pic32mx/lib/micromips\libpic32.a(vector85.o)

.data%z213      0x00000000        0x0
 .data          0x00000000        0x0 d:/program files/microchip/xc32/v2.50/bin/bin/../../lib/gcc/pic32mx/4.8.3/../../../../pic32mx/lib/micromips\libpic32.a(vector85.o)

.bss%z214       0x00000000        0x0
 .bss           0x00000000        0x0 d:/program files/microchip/xc32/v2.50/bin/bin/../../lib/gcc/pic32mx/4.8.3/../../../../pic32mx/lib/micromips\libpic32.a(vector84.o)

.data%z215      0x00000000        0x0
 .data          0x00000000        0x0 d:/program files/microchip/xc32/v2.50/bin/bin/../../lib/gcc/pic32mx/4.8.3/../../../../pic32mx/lib/micromips\libpic32.a(vector84.o)

.bss%z216       0x00000000        0x0
 .bss           0x00000000        0x0 d:/program files/microchip/xc32/v2.50/bin/bin/../../lib/gcc/pic32mx/4.8.3/../../../../pic32mx/lib/micromips\libpic32.a(vector83.o)

.data%z217      0x00000000        0x0
 .data          0x00000000        0x0 d:/program files/microchip/xc32/v2.50/bin/bin/../../lib/gcc/pic32mx/4.8.3/../../../../pic32mx/lib/micromips\libpic32.a(vector83.o)

.bss%z218       0x00000000        0x0
 .bss           0x00000000        0x0 d:/program files/microchip/xc32/v2.50/bin/bin/../../lib/gcc/pic32mx/4.8.3/../../../../pic32mx/lib/micromips\libpic32.a(vector82.o)

.data%z219      0x00000000        0x0
 .data          0x00000000        0x0 d:/program files/microchip/xc32/v2.50/bin/bin/../../lib/gcc/pic32mx/4.8.3/../../../../pic32mx/lib/micromips\libpic32.a(vector82.o)

.bss%z220       0x00000000        0x0
 .bss           0x00000000        0x0 d:/program files/microchip/xc32/v2.50/bin/bin/../../lib/gcc/pic32mx/4.8.3/../../../../pic32mx/lib/micromips\libpic32.a(vector81.o)

.data%z221      0x00000000        0x0
 .data          0x00000000        0x0 d:/program files/microchip/xc32/v2.50/bin/bin/../../lib/gcc/pic32mx/4.8.3/../../../../pic32mx/lib/micromips\libpic32.a(vector81.o)

.bss%z222       0x00000000        0x0
 .bss           0x00000000        0x0 d:/program files/microchip/xc32/v2.50/bin/bin/../../lib/gcc/pic32mx/4.8.3/../../../../pic32mx/lib/micromips\libpic32.a(vector80.o)

.data%z223      0x00000000        0x0
 .data          0x00000000        0x0 d:/program files/microchip/xc32/v2.50/bin/bin/../../lib/gcc/pic32mx/4.8.3/../../../../pic32mx/lib/micromips\libpic32.a(vector80.o)

.bss%z224       0x00000000        0x0
 .bss           0x00000000        0x0 d:/program files/microchip/xc32/v2.50/bin/bin/../../lib/gcc/pic32mx/4.8.3/../../../../pic32mx/lib/micromips\libpic32.a(vector79.o)

.data%z225      0x00000000        0x0
 .data          0x00000000        0x0 d:/program files/microchip/xc32/v2.50/bin/bin/../../lib/gcc/pic32mx/4.8.3/../../../../pic32mx/lib/micromips\libpic32.a(vector79.o)

.bss%z226       0x00000000        0x0
 .bss           0x00000000        0x0 d:/program files/microchip/xc32/v2.50/bin/bin/../../lib/gcc/pic32mx/4.8.3/../../../../pic32mx/lib/micromips\libpic32.a(vector78.o)

.data%z227      0x00000000        0x0
 .data          0x00000000        0x0 d:/program files/microchip/xc32/v2.50/bin/bin/../../lib/gcc/pic32mx/4.8.3/../../../../pic32mx/lib/micromips\libpic32.a(vector78.o)

.bss%z228       0x00000000        0x0
 .bss           0x00000000        0x0 d:/program files/microchip/xc32/v2.50/bin/bin/../../lib/gcc/pic32mx/4.8.3/../../../../pic32mx/lib/micromips\libpic32.a(vector77.o)

.data%z229      0x00000000        0x0
 .data          0x00000000        0x0 d:/program files/microchip/xc32/v2.50/bin/bin/../../lib/gcc/pic32mx/4.8.3/../../../../pic32mx/lib/micromips\libpic32.a(vector77.o)

.bss%z230       0x00000000        0x0
 .bss           0x00000000        0x0 d:/program files/microchip/xc32/v2.50/bin/bin/../../lib/gcc/pic32mx/4.8.3/../../../../pic32mx/lib/micromips\libpic32.a(vector76.o)

.data%z231      0x00000000        0x0
 .data          0x00000000        0x0 d:/program files/microchip/xc32/v2.50/bin/bin/../../lib/gcc/pic32mx/4.8.3/../../../../pic32mx/lib/micromips\libpic32.a(vector76.o)

.bss%z232       0x00000000        0x0
 .bss           0x00000000        0x0 d:/program files/microchip/xc32/v2.50/bin/bin/../../lib/gcc/pic32mx/4.8.3/../../../../pic32mx/lib/micromips\libpic32.a(vector75.o)

.data%z233      0x00000000        0x0
 .data          0x00000000        0x0 d:/program files/microchip/xc32/v2.50/bin/bin/../../lib/gcc/pic32mx/4.8.3/../../../../pic32mx/lib/micromips\libpic32.a(vector75.o)

.bss%z234       0x00000000        0x0
 .bss           0x00000000        0x0 d:/program files/microchip/xc32/v2.50/bin/bin/../../lib/gcc/pic32mx/4.8.3/../../../../pic32mx/lib/micromips\libpic32.a(vector74.o)

.data%z235      0x00000000        0x0
 .data          0x00000000        0x0 d:/program files/microchip/xc32/v2.50/bin/bin/../../lib/gcc/pic32mx/4.8.3/../../../../pic32mx/lib/micromips\libpic32.a(vector74.o)

.bss%z236       0x00000000        0x0
 .bss           0x00000000        0x0 d:/program files/microchip/xc32/v2.50/bin/bin/../../lib/gcc/pic32mx/4.8.3/../../../../pic32mx/lib/micromips\libpic32.a(vector73.o)

.data%z237      0x00000000        0x0
 .data          0x00000000        0x0 d:/program files/microchip/xc32/v2.50/bin/bin/../../lib/gcc/pic32mx/4.8.3/../../../../pic32mx/lib/micromips\libpic32.a(vector73.o)

.bss%z238       0x00000000        0x0
 .bss           0x00000000        0x0 d:/program files/microchip/xc32/v2.50/bin/bin/../../lib/gcc/pic32mx/4.8.3/../../../../pic32mx/lib/micromips\libpic32.a(vector72.o)

.data%z239      0x00000000        0x0
 .data          0x00000000        0x0 d:/program files/microchip/xc32/v2.50/bin/bin/../../lib/gcc/pic32mx/4.8.3/../../../../pic32mx/lib/micromips\libpic32.a(vector72.o)

.bss%z240       0x00000000        0x0
 .bss           0x00000000        0x0 d:/program files/microchip/xc32/v2.50/bin/bin/../../lib/gcc/pic32mx/4.8.3/../../../../pic32mx/lib/micromips\libpic32.a(vector71.o)

.data%z241      0x00000000        0x0
 .data          0x00000000        0x0 d:/program files/microchip/xc32/v2.50/bin/bin/../../lib/gcc/pic32mx/4.8.3/../../../../pic32mx/lib/micromips\libpic32.a(vector71.o)

.bss%z242       0x00000000        0x0
 .bss           0x00000000        0x0 d:/program files/microchip/xc32/v2.50/bin/bin/../../lib/gcc/pic32mx/4.8.3/../../../../pic32mx/lib/micromips\libpic32.a(vector70.o)

.data%z243      0x00000000        0x0
 .data          0x00000000        0x0 d:/program files/microchip/xc32/v2.50/bin/bin/../../lib/gcc/pic32mx/4.8.3/../../../../pic32mx/lib/micromips\libpic32.a(vector70.o)

.bss%z244       0x00000000        0x0
 .bss           0x00000000        0x0 d:/program files/microchip/xc32/v2.50/bin/bin/../../lib/gcc/pic32mx/4.8.3/../../../../pic32mx/lib/micromips\libpic32.a(vector69.o)

.data%z245      0x00000000        0x0
 .data          0x00000000        0x0 d:/program files/microchip/xc32/v2.50/bin/bin/../../lib/gcc/pic32mx/4.8.3/../../../../pic32mx/lib/micromips\libpic32.a(vector69.o)

.bss%z246       0x00000000        0x0
 .bss           0x00000000        0x0 d:/program files/microchip/xc32/v2.50/bin/bin/../../lib/gcc/pic32mx/4.8.3/../../../../pic32mx/lib/micromips\libpic32.a(vector68.o)

.data%z247      0x00000000        0x0
 .data          0x00000000        0x0 d:/program files/microchip/xc32/v2.50/bin/bin/../../lib/gcc/pic32mx/4.8.3/../../../../pic32mx/lib/micromips\libpic32.a(vector68.o)

.bss%z248       0x00000000        0x0
 .bss           0x00000000        0x0 d:/program files/microchip/xc32/v2.50/bin/bin/../../lib/gcc/pic32mx/4.8.3/../../../../pic32mx/lib/micromips\libpic32.a(vector67.o)

.data%z249      0x00000000        0x0
 .data          0x00000000        0x0 d:/program files/microchip/xc32/v2.50/bin/bin/../../lib/gcc/pic32mx/4.8.3/../../../../pic32mx/lib/micromips\libpic32.a(vector67.o)

.bss%z250       0x00000000        0x0
 .bss           0x00000000        0x0 d:/program files/microchip/xc32/v2.50/bin/bin/../../lib/gcc/pic32mx/4.8.3/../../../../pic32mx/lib/micromips\libpic32.a(vector66.o)

.data%z251      0x00000000        0x0
 .data          0x00000000        0x0 d:/program files/microchip/xc32/v2.50/bin/bin/../../lib/gcc/pic32mx/4.8.3/../../../../pic32mx/lib/micromips\libpic32.a(vector66.o)

.bss%z252       0x00000000        0x0
 .bss           0x00000000        0x0 d:/program files/microchip/xc32/v2.50/bin/bin/../../lib/gcc/pic32mx/4.8.3/../../../../pic32mx/lib/micromips\libpic32.a(vector65.o)

.data%z253      0x00000000        0x0
 .data          0x00000000        0x0 d:/program files/microchip/xc32/v2.50/bin/bin/../../lib/gcc/pic32mx/4.8.3/../../../../pic32mx/lib/micromips\libpic32.a(vector65.o)

.bss%z254       0x00000000        0x0
 .bss           0x00000000        0x0 d:/program files/microchip/xc32/v2.50/bin/bin/../../lib/gcc/pic32mx/4.8.3/../../../../pic32mx/lib/micromips\libpic32.a(vector64.o)

.data%z255      0x00000000        0x0
 .data          0x00000000        0x0 d:/program files/microchip/xc32/v2.50/bin/bin/../../lib/gcc/pic32mx/4.8.3/../../../../pic32mx/lib/micromips\libpic32.a(vector64.o)

.bss%z256       0x00000000        0x0
 .bss           0x00000000        0x0 d:/program files/microchip/xc32/v2.50/bin/bin/../../lib/gcc/pic32mx/4.8.3/../../../../pic32mx/lib/micromips\libpic32.a(vector63.o)

.data%z257      0x00000000        0x0
 .data          0x00000000        0x0 d:/program files/microchip/xc32/v2.50/bin/bin/../../lib/gcc/pic32mx/4.8.3/../../../../pic32mx/lib/micromips\libpic32.a(vector63.o)

.bss%z258       0x00000000        0x0
 .bss           0x00000000        0x0 d:/program files/microchip/xc32/v2.50/bin/bin/../../lib/gcc/pic32mx/4.8.3/../../../../pic32mx/lib/micromips\libpic32.a(vector62.o)

.data%z259      0x00000000        0x0
 .data          0x00000000        0x0 d:/program files/microchip/xc32/v2.50/bin/bin/../../lib/gcc/pic32mx/4.8.3/../../../../pic32mx/lib/micromips\libpic32.a(vector62.o)

.bss%z260       0x00000000        0x0
 .bss           0x00000000        0x0 d:/program files/microchip/xc32/v2.50/bin/bin/../../lib/gcc/pic32mx/4.8.3/../../../../pic32mx/lib/micromips\libpic32.a(vector61.o)

.data%z261      0x00000000        0x0
 .data          0x00000000        0x0 d:/program files/microchip/xc32/v2.50/bin/bin/../../lib/gcc/pic32mx/4.8.3/../../../../pic32mx/lib/micromips\libpic32.a(vector61.o)

.bss%z262       0x00000000        0x0
 .bss           0x00000000        0x0 d:/program files/microchip/xc32/v2.50/bin/bin/../../lib/gcc/pic32mx/4.8.3/../../../../pic32mx/lib/micromips\libpic32.a(vector60.o)

.data%z263      0x00000000        0x0
 .data          0x00000000        0x0 d:/program files/microchip/xc32/v2.50/bin/bin/../../lib/gcc/pic32mx/4.8.3/../../../../pic32mx/lib/micromips\libpic32.a(vector60.o)

.bss%z264       0x00000000        0x0
 .bss           0x00000000        0x0 d:/program files/microchip/xc32/v2.50/bin/bin/../../lib/gcc/pic32mx/4.8.3/../../../../pic32mx/lib/micromips\libpic32.a(vector59.o)

.data%z265      0x00000000        0x0
 .data          0x00000000        0x0 d:/program files/microchip/xc32/v2.50/bin/bin/../../lib/gcc/pic32mx/4.8.3/../../../../pic32mx/lib/micromips\libpic32.a(vector59.o)

.bss%z266       0x00000000        0x0
 .bss           0x00000000        0x0 d:/program files/microchip/xc32/v2.50/bin/bin/../../lib/gcc/pic32mx/4.8.3/../../../../pic32mx/lib/micromips\libpic32.a(vector58.o)

.data%z267      0x00000000        0x0
 .data          0x00000000        0x0 d:/program files/microchip/xc32/v2.50/bin/bin/../../lib/gcc/pic32mx/4.8.3/../../../../pic32mx/lib/micromips\libpic32.a(vector58.o)

.bss%z268       0x00000000        0x0
 .bss           0x00000000        0x0 d:/program files/microchip/xc32/v2.50/bin/bin/../../lib/gcc/pic32mx/4.8.3/../../../../pic32mx/lib/micromips\libpic32.a(vector57.o)

.data%z269      0x00000000        0x0
 .data          0x00000000        0x0 d:/program files/microchip/xc32/v2.50/bin/bin/../../lib/gcc/pic32mx/4.8.3/../../../../pic32mx/lib/micromips\libpic32.a(vector57.o)

.bss%z270       0x00000000        0x0
 .bss           0x00000000        0x0 d:/program files/microchip/xc32/v2.50/bin/bin/../../lib/gcc/pic32mx/4.8.3/../../../../pic32mx/lib/micromips\libpic32.a(vector56.o)

.data%z271      0x00000000        0x0
 .data          0x00000000        0x0 d:/program files/microchip/xc32/v2.50/bin/bin/../../lib/gcc/pic32mx/4.8.3/../../../../pic32mx/lib/micromips\libpic32.a(vector56.o)

.bss%z272       0x00000000        0x0
 .bss           0x00000000        0x0 d:/program files/microchip/xc32/v2.50/bin/bin/../../lib/gcc/pic32mx/4.8.3/../../../../pic32mx/lib/micromips\libpic32.a(vector55.o)

.data%z273      0x00000000        0x0
 .data          0x00000000        0x0 d:/program files/microchip/xc32/v2.50/bin/bin/../../lib/gcc/pic32mx/4.8.3/../../../../pic32mx/lib/micromips\libpic32.a(vector55.o)

.bss%z274       0x00000000        0x0
 .bss           0x00000000        0x0 d:/program files/microchip/xc32/v2.50/bin/bin/../../lib/gcc/pic32mx/4.8.3/../../../../pic32mx/lib/micromips\libpic32.a(vector54.o)

.data%z275      0x00000000        0x0
 .data          0x00000000        0x0 d:/program files/microchip/xc32/v2.50/bin/bin/../../lib/gcc/pic32mx/4.8.3/../../../../pic32mx/lib/micromips\libpic32.a(vector54.o)

.bss%z276       0x00000000        0x0
 .bss           0x00000000        0x0 d:/program files/microchip/xc32/v2.50/bin/bin/../../lib/gcc/pic32mx/4.8.3/../../../../pic32mx/lib/micromips\libpic32.a(vector53.o)

.data%z277      0x00000000        0x0
 .data          0x00000000        0x0 d:/program files/microchip/xc32/v2.50/bin/bin/../../lib/gcc/pic32mx/4.8.3/../../../../pic32mx/lib/micromips\libpic32.a(vector53.o)

.bss%z278       0x00000000        0x0
 .bss           0x00000000        0x0 d:/program files/microchip/xc32/v2.50/bin/bin/../../lib/gcc/pic32mx/4.8.3/../../../../pic32mx/lib/micromips\libpic32.a(vector52.o)

.data%z279      0x00000000        0x0
 .data          0x00000000        0x0 d:/program files/microchip/xc32/v2.50/bin/bin/../../lib/gcc/pic32mx/4.8.3/../../../../pic32mx/lib/micromips\libpic32.a(vector52.o)

.bss%z280       0x00000000        0x0
 .bss           0x00000000        0x0 d:/program files/microchip/xc32/v2.50/bin/bin/../../lib/gcc/pic32mx/4.8.3/../../../../pic32mx/lib/micromips\libpic32.a(vector51.o)

.data%z281      0x00000000        0x0
 .data          0x00000000        0x0 d:/program files/microchip/xc32/v2.50/bin/bin/../../lib/gcc/pic32mx/4.8.3/../../../../pic32mx/lib/micromips\libpic32.a(vector51.o)

.bss%z282       0x00000000        0x0
 .bss           0x00000000        0x0 d:/program files/microchip/xc32/v2.50/bin/bin/../../lib/gcc/pic32mx/4.8.3/../../../../pic32mx/lib/micromips\libpic32.a(vector50.o)

.data%z283      0x00000000        0x0
 .data          0x00000000        0x0 d:/program files/microchip/xc32/v2.50/bin/bin/../../lib/gcc/pic32mx/4.8.3/../../../../pic32mx/lib/micromips\libpic32.a(vector50.o)

.bss%z284       0x00000000        0x0
 .bss           0x00000000        0x0 d:/program files/microchip/xc32/v2.50/bin/bin/../../lib/gcc/pic32mx/4.8.3/../../../../pic32mx/lib/micromips\libpic32.a(vector49.o)

.data%z285      0x00000000        0x0
 .data          0x00000000        0x0 d:/program files/microchip/xc32/v2.50/bin/bin/../../lib/gcc/pic32mx/4.8.3/../../../../pic32mx/lib/micromips\libpic32.a(vector49.o)

.bss%z286       0x00000000        0x0
 .bss           0x00000000        0x0 d:/program files/microchip/xc32/v2.50/bin/bin/../../lib/gcc/pic32mx/4.8.3/../../../../pic32mx/lib/micromips\libpic32.a(vector48.o)

.data%z287      0x00000000        0x0
 .data          0x00000000        0x0 d:/program files/microchip/xc32/v2.50/bin/bin/../../lib/gcc/pic32mx/4.8.3/../../../../pic32mx/lib/micromips\libpic32.a(vector48.o)

.bss%z288       0x00000000        0x0
 .bss           0x00000000        0x0 d:/program files/microchip/xc32/v2.50/bin/bin/../../lib/gcc/pic32mx/4.8.3/../../../../pic32mx/lib/micromips\libpic32.a(vector47.o)

.data%z289      0x00000000        0x0
 .data          0x00000000        0x0 d:/program files/microchip/xc32/v2.50/bin/bin/../../lib/gcc/pic32mx/4.8.3/../../../../pic32mx/lib/micromips\libpic32.a(vector47.o)

.bss%z290       0x00000000        0x0
 .bss           0x00000000        0x0 d:/program files/microchip/xc32/v2.50/bin/bin/../../lib/gcc/pic32mx/4.8.3/../../../../pic32mx/lib/micromips\libpic32.a(vector46.o)

.data%z291      0x00000000        0x0
 .data          0x00000000        0x0 d:/program files/microchip/xc32/v2.50/bin/bin/../../lib/gcc/pic32mx/4.8.3/../../../../pic32mx/lib/micromips\libpic32.a(vector46.o)

.bss%z292       0x00000000        0x0
 .bss           0x00000000        0x0 d:/program files/microchip/xc32/v2.50/bin/bin/../../lib/gcc/pic32mx/4.8.3/../../../../pic32mx/lib/micromips\libpic32.a(vector45.o)

.data%z293      0x00000000        0x0
 .data          0x00000000        0x0 d:/program files/microchip/xc32/v2.50/bin/bin/../../lib/gcc/pic32mx/4.8.3/../../../../pic32mx/lib/micromips\libpic32.a(vector45.o)

.bss%z294       0x00000000        0x0
 .bss           0x00000000        0x0 d:/program files/microchip/xc32/v2.50/bin/bin/../../lib/gcc/pic32mx/4.8.3/../../../../pic32mx/lib/micromips\libpic32.a(vector44.o)

.data%z295      0x00000000        0x0
 .data          0x00000000        0x0 d:/program files/microchip/xc32/v2.50/bin/bin/../../lib/gcc/pic32mx/4.8.3/../../../../pic32mx/lib/micromips\libpic32.a(vector44.o)

.bss%z296       0x00000000        0x0
 .bss           0x00000000        0x0 d:/program files/microchip/xc32/v2.50/bin/bin/../../lib/gcc/pic32mx/4.8.3/../../../../pic32mx/lib/micromips\libpic32.a(vector43.o)

.data%z297      0x00000000        0x0
 .data          0x00000000        0x0 d:/program files/microchip/xc32/v2.50/bin/bin/../../lib/gcc/pic32mx/4.8.3/../../../../pic32mx/lib/micromips\libpic32.a(vector43.o)

.bss%z298       0x00000000        0x0
 .bss           0x00000000        0x0 d:/program files/microchip/xc32/v2.50/bin/bin/../../lib/gcc/pic32mx/4.8.3/../../../../pic32mx/lib/micromips\libpic32.a(vector42.o)

.data%z299      0x00000000        0x0
 .data          0x00000000        0x0 d:/program files/microchip/xc32/v2.50/bin/bin/../../lib/gcc/pic32mx/4.8.3/../../../../pic32mx/lib/micromips\libpic32.a(vector42.o)

.bss%z300       0x00000000        0x0
 .bss           0x00000000        0x0 d:/program files/microchip/xc32/v2.50/bin/bin/../../lib/gcc/pic32mx/4.8.3/../../../../pic32mx/lib/micromips\libpic32.a(vector41.o)

.data%z301      0x00000000        0x0
 .data          0x00000000        0x0 d:/program files/microchip/xc32/v2.50/bin/bin/../../lib/gcc/pic32mx/4.8.3/../../../../pic32mx/lib/micromips\libpic32.a(vector41.o)

.bss%z302       0x00000000        0x0
 .bss           0x00000000        0x0 d:/program files/microchip/xc32/v2.50/bin/bin/../../lib/gcc/pic32mx/4.8.3/../../../../pic32mx/lib/micromips\libpic32.a(vector40.o)

.data%z303      0x00000000        0x0
 .data          0x00000000        0x0 d:/program files/microchip/xc32/v2.50/bin/bin/../../lib/gcc/pic32mx/4.8.3/../../../../pic32mx/lib/micromips\libpic32.a(vector40.o)

.bss%z304       0x00000000        0x0
 .bss           0x00000000        0x0 d:/program files/microchip/xc32/v2.50/bin/bin/../../lib/gcc/pic32mx/4.8.3/../../../../pic32mx/lib/micromips\libpic32.a(vector39.o)

.data%z305      0x00000000        0x0
 .data          0x00000000        0x0 d:/program files/microchip/xc32/v2.50/bin/bin/../../lib/gcc/pic32mx/4.8.3/../../../../pic32mx/lib/micromips\libpic32.a(vector39.o)

.bss%z306       0x00000000        0x0
 .bss           0x00000000        0x0 d:/program files/microchip/xc32/v2.50/bin/bin/../../lib/gcc/pic32mx/4.8.3/../../../../pic32mx/lib/micromips\libpic32.a(vector38.o)

.data%z307      0x00000000        0x0
 .data          0x00000000        0x0 d:/program files/microchip/xc32/v2.50/bin/bin/../../lib/gcc/pic32mx/4.8.3/../../../../pic32mx/lib/micromips\libpic32.a(vector38.o)

.bss%z308       0x00000000        0x0
 .bss           0x00000000        0x0 d:/program files/microchip/xc32/v2.50/bin/bin/../../lib/gcc/pic32mx/4.8.3/../../../../pic32mx/lib/micromips\libpic32.a(vector37.o)

.data%z309      0x00000000        0x0
 .data          0x00000000        0x0 d:/program files/microchip/xc32/v2.50/bin/bin/../../lib/gcc/pic32mx/4.8.3/../../../../pic32mx/lib/micromips\libpic32.a(vector37.o)

.bss%z310       0x00000000        0x0
 .bss           0x00000000        0x0 d:/program files/microchip/xc32/v2.50/bin/bin/../../lib/gcc/pic32mx/4.8.3/../../../../pic32mx/lib/micromips\libpic32.a(vector36.o)

.data%z311      0x00000000        0x0
 .data          0x00000000        0x0 d:/program files/microchip/xc32/v2.50/bin/bin/../../lib/gcc/pic32mx/4.8.3/../../../../pic32mx/lib/micromips\libpic32.a(vector36.o)

.bss%z312       0x00000000        0x0
 .bss           0x00000000        0x0 d:/program files/microchip/xc32/v2.50/bin/bin/../../lib/gcc/pic32mx/4.8.3/../../../../pic32mx/lib/micromips\libpic32.a(vector35.o)

.data%z313      0x00000000        0x0
 .data          0x00000000        0x0 d:/program files/microchip/xc32/v2.50/bin/bin/../../lib/gcc/pic32mx/4.8.3/../../../../pic32mx/lib/micromips\libpic32.a(vector35.o)

.bss%z314       0x00000000        0x0
 .bss           0x00000000        0x0 d:/program files/microchip/xc32/v2.50/bin/bin/../../lib/gcc/pic32mx/4.8.3/../../../../pic32mx/lib/micromips\libpic32.a(vector34.o)

.data%z315      0x00000000        0x0
 .data          0x00000000        0x0 d:/program files/microchip/xc32/v2.50/bin/bin/../../lib/gcc/pic32mx/4.8.3/../../../../pic32mx/lib/micromips\libpic32.a(vector34.o)

.bss%z316       0x00000000        0x0
 .bss           0x00000000        0x0 d:/program files/microchip/xc32/v2.50/bin/bin/../../lib/gcc/pic32mx/4.8.3/../../../../pic32mx/lib/micromips\libpic32.a(vector33.o)

.data%z317      0x00000000        0x0
 .data          0x00000000        0x0 d:/program files/microchip/xc32/v2.50/bin/bin/../../lib/gcc/pic32mx/4.8.3/../../../../pic32mx/lib/micromips\libpic32.a(vector33.o)

.bss%z318       0x00000000        0x0
 .bss           0x00000000        0x0 d:/program files/microchip/xc32/v2.50/bin/bin/../../lib/gcc/pic32mx/4.8.3/../../../../pic32mx/lib/micromips\libpic32.a(vector32.o)

.data%z319      0x00000000        0x0
 .data          0x00000000        0x0 d:/program files/microchip/xc32/v2.50/bin/bin/../../lib/gcc/pic32mx/4.8.3/../../../../pic32mx/lib/micromips\libpic32.a(vector32.o)

.bss%z320       0x00000000        0x0
 .bss           0x00000000        0x0 d:/program files/microchip/xc32/v2.50/bin/bin/../../lib/gcc/pic32mx/4.8.3/../../../../pic32mx/lib/micromips\libpic32.a(vector31.o)

.data%z321      0x00000000        0x0
 .data          0x00000000        0x0 d:/program files/microchip/xc32/v2.50/bin/bin/../../lib/gcc/pic32mx/4.8.3/../../../../pic32mx/lib/micromips\libpic32.a(vector31.o)

.bss%z322       0x00000000        0x0
 .bss           0x00000000        0x0 d:/program files/microchip/xc32/v2.50/bin/bin/../../lib/gcc/pic32mx/4.8.3/../../../../pic32mx/lib/micromips\libpic32.a(vector30.o)

.data%z323      0x00000000        0x0
 .data          0x00000000        0x0 d:/program files/microchip/xc32/v2.50/bin/bin/../../lib/gcc/pic32mx/4.8.3/../../../../pic32mx/lib/micromips\libpic32.a(vector30.o)

.bss%z324       0x00000000        0x0
 .bss           0x00000000        0x0 d:/program files/microchip/xc32/v2.50/bin/bin/../../lib/gcc/pic32mx/4.8.3/../../../../pic32mx/lib/micromips\libpic32.a(vector29.o)

.data%z325      0x00000000        0x0
 .data          0x00000000        0x0 d:/program files/microchip/xc32/v2.50/bin/bin/../../lib/gcc/pic32mx/4.8.3/../../../../pic32mx/lib/micromips\libpic32.a(vector29.o)

.bss%z326       0x00000000        0x0
 .bss           0x00000000        0x0 d:/program files/microchip/xc32/v2.50/bin/bin/../../lib/gcc/pic32mx/4.8.3/../../../../pic32mx/lib/micromips\libpic32.a(vector28.o)

.data%z327      0x00000000        0x0
 .data          0x00000000        0x0 d:/program files/microchip/xc32/v2.50/bin/bin/../../lib/gcc/pic32mx/4.8.3/../../../../pic32mx/lib/micromips\libpic32.a(vector28.o)

.bss%z328       0x00000000        0x0
 .bss           0x00000000        0x0 d:/program files/microchip/xc32/v2.50/bin/bin/../../lib/gcc/pic32mx/4.8.3/../../../../pic32mx/lib/micromips\libpic32.a(vector27.o)

.data%z329      0x00000000        0x0
 .data          0x00000000        0x0 d:/program files/microchip/xc32/v2.50/bin/bin/../../lib/gcc/pic32mx/4.8.3/../../../../pic32mx/lib/micromips\libpic32.a(vector27.o)

.bss%z330       0x00000000        0x0
 .bss           0x00000000        0x0 d:/program files/microchip/xc32/v2.50/bin/bin/../../lib/gcc/pic32mx/4.8.3/../../../../pic32mx/lib/micromips\libpic32.a(vector26.o)

.data%z331      0x00000000        0x0
 .data          0x00000000        0x0 d:/program files/microchip/xc32/v2.50/bin/bin/../../lib/gcc/pic32mx/4.8.3/../../../../pic32mx/lib/micromips\libpic32.a(vector26.o)

.bss%z332       0x00000000        0x0
 .bss           0x00000000        0x0 d:/program files/microchip/xc32/v2.50/bin/bin/../../lib/gcc/pic32mx/4.8.3/../../../../pic32mx/lib/micromips\libpic32.a(vector25.o)

.data%z333      0x00000000        0x0
 .data          0x00000000        0x0 d:/program files/microchip/xc32/v2.50/bin/bin/../../lib/gcc/pic32mx/4.8.3/../../../../pic32mx/lib/micromips\libpic32.a(vector25.o)

.bss%z334       0x00000000        0x0
 .bss           0x00000000        0x0 d:/program files/microchip/xc32/v2.50/bin/bin/../../lib/gcc/pic32mx/4.8.3/../../../../pic32mx/lib/micromips\libpic32.a(vector24.o)

.data%z335      0x00000000        0x0
 .data          0x00000000        0x0 d:/program files/microchip/xc32/v2.50/bin/bin/../../lib/gcc/pic32mx/4.8.3/../../../../pic32mx/lib/micromips\libpic32.a(vector24.o)

.bss%z336       0x00000000        0x0
 .bss           0x00000000        0x0 d:/program files/microchip/xc32/v2.50/bin/bin/../../lib/gcc/pic32mx/4.8.3/../../../../pic32mx/lib/micromips\libpic32.a(vector23.o)

.data%z337      0x00000000        0x0
 .data          0x00000000        0x0 d:/program files/microchip/xc32/v2.50/bin/bin/../../lib/gcc/pic32mx/4.8.3/../../../../pic32mx/lib/micromips\libpic32.a(vector23.o)

.bss%z338       0x00000000        0x0
 .bss           0x00000000        0x0 d:/program files/microchip/xc32/v2.50/bin/bin/../../lib/gcc/pic32mx/4.8.3/../../../../pic32mx/lib/micromips\libpic32.a(vector22.o)

.data%z339      0x00000000        0x0
 .data          0x00000000        0x0 d:/program files/microchip/xc32/v2.50/bin/bin/../../lib/gcc/pic32mx/4.8.3/../../../../pic32mx/lib/micromips\libpic32.a(vector22.o)

.bss%z340       0x00000000        0x0
 .bss           0x00000000        0x0 d:/program files/microchip/xc32/v2.50/bin/bin/../../lib/gcc/pic32mx/4.8.3/../../../../pic32mx/lib/micromips\libpic32.a(vector21.o)

.data%z341      0x00000000        0x0
 .data          0x00000000        0x0 d:/program files/microchip/xc32/v2.50/bin/bin/../../lib/gcc/pic32mx/4.8.3/../../../../pic32mx/lib/micromips\libpic32.a(vector21.o)

.bss%z342       0x00000000        0x0
 .bss           0x00000000        0x0 d:/program files/microchip/xc32/v2.50/bin/bin/../../lib/gcc/pic32mx/4.8.3/../../../../pic32mx/lib/micromips\libpic32.a(vector20.o)

.data%z343      0x00000000        0x0
 .data          0x00000000        0x0 d:/program files/microchip/xc32/v2.50/bin/bin/../../lib/gcc/pic32mx/4.8.3/../../../../pic32mx/lib/micromips\libpic32.a(vector20.o)

.bss%z344       0x00000000        0x0
 .bss           0x00000000        0x0 d:/program files/microchip/xc32/v2.50/bin/bin/../../lib/gcc/pic32mx/4.8.3/../../../../pic32mx/lib/micromips\libpic32.a(vector19.o)

.data%z345      0x00000000        0x0
 .data          0x00000000        0x0 d:/program files/microchip/xc32/v2.50/bin/bin/../../lib/gcc/pic32mx/4.8.3/../../../../pic32mx/lib/micromips\libpic32.a(vector19.o)

.bss%z346       0x00000000        0x0
 .bss           0x00000000        0x0 d:/program files/microchip/xc32/v2.50/bin/bin/../../lib/gcc/pic32mx/4.8.3/../../../../pic32mx/lib/micromips\libpic32.a(vector18.o)

.data%z347      0x00000000        0x0
 .data          0x00000000        0x0 d:/program files/microchip/xc32/v2.50/bin/bin/../../lib/gcc/pic32mx/4.8.3/../../../../pic32mx/lib/micromips\libpic32.a(vector18.o)

.bss%z348       0x00000000        0x0
 .bss           0x00000000        0x0 d:/program files/microchip/xc32/v2.50/bin/bin/../../lib/gcc/pic32mx/4.8.3/../../../../pic32mx/lib/micromips\libpic32.a(vector17.o)

.data%z349      0x00000000        0x0
 .data          0x00000000        0x0 d:/program files/microchip/xc32/v2.50/bin/bin/../../lib/gcc/pic32mx/4.8.3/../../../../pic32mx/lib/micromips\libpic32.a(vector17.o)

.bss%z350       0x00000000        0x0
 .bss           0x00000000        0x0 d:/program files/microchip/xc32/v2.50/bin/bin/../../lib/gcc/pic32mx/4.8.3/../../../../pic32mx/lib/micromips\libpic32.a(vector16.o)

.data%z351      0x00000000        0x0
 .data          0x00000000        0x0 d:/program files/microchip/xc32/v2.50/bin/bin/../../lib/gcc/pic32mx/4.8.3/../../../../pic32mx/lib/micromips\libpic32.a(vector16.o)

.bss%z352       0x00000000        0x0
 .bss           0x00000000        0x0 d:/program files/microchip/xc32/v2.50/bin/bin/../../lib/gcc/pic32mx/4.8.3/../../../../pic32mx/lib/micromips\libpic32.a(vector15.o)

.data%z353      0x00000000        0x0
 .data          0x00000000        0x0 d:/program files/microchip/xc32/v2.50/bin/bin/../../lib/gcc/pic32mx/4.8.3/../../../../pic32mx/lib/micromips\libpic32.a(vector15.o)

.bss%z354       0x00000000        0x0
 .bss           0x00000000        0x0 d:/program files/microchip/xc32/v2.50/bin/bin/../../lib/gcc/pic32mx/4.8.3/../../../../pic32mx/lib/micromips\libpic32.a(vector14.o)

.data%z355      0x00000000        0x0
 .data          0x00000000        0x0 d:/program files/microchip/xc32/v2.50/bin/bin/../../lib/gcc/pic32mx/4.8.3/../../../../pic32mx/lib/micromips\libpic32.a(vector14.o)

.bss%z356       0x00000000        0x0
 .bss           0x00000000        0x0 d:/program files/microchip/xc32/v2.50/bin/bin/../../lib/gcc/pic32mx/4.8.3/../../../../pic32mx/lib/micromips\libpic32.a(vector13.o)

.data%z357      0x00000000        0x0
 .data          0x00000000        0x0 d:/program files/microchip/xc32/v2.50/bin/bin/../../lib/gcc/pic32mx/4.8.3/../../../../pic32mx/lib/micromips\libpic32.a(vector13.o)

.bss%z358       0x00000000        0x0
 .bss           0x00000000        0x0 d:/program files/microchip/xc32/v2.50/bin/bin/../../lib/gcc/pic32mx/4.8.3/../../../../pic32mx/lib/micromips\libpic32.a(vector12.o)

.data%z359      0x00000000        0x0
 .data          0x00000000        0x0 d:/program files/microchip/xc32/v2.50/bin/bin/../../lib/gcc/pic32mx/4.8.3/../../../../pic32mx/lib/micromips\libpic32.a(vector12.o)

.bss%z360       0x00000000        0x0
 .bss           0x00000000        0x0 d:/program files/microchip/xc32/v2.50/bin/bin/../../lib/gcc/pic32mx/4.8.3/../../../../pic32mx/lib/micromips\libpic32.a(vector11.o)

.data%z361      0x00000000        0x0
 .data          0x00000000        0x0 d:/program files/microchip/xc32/v2.50/bin/bin/../../lib/gcc/pic32mx/4.8.3/../../../../pic32mx/lib/micromips\libpic32.a(vector11.o)

.bss%z362       0x00000000        0x0
 .bss           0x00000000        0x0 d:/program files/microchip/xc32/v2.50/bin/bin/../../lib/gcc/pic32mx/4.8.3/../../../../pic32mx/lib/micromips\libpic32.a(vector10.o)

.data%z363      0x00000000        0x0
 .data          0x00000000        0x0 d:/program files/microchip/xc32/v2.50/bin/bin/../../lib/gcc/pic32mx/4.8.3/../../../../pic32mx/lib/micromips\libpic32.a(vector10.o)

.bss%z364       0x00000000        0x0
 .bss           0x00000000        0x0 d:/program files/microchip/xc32/v2.50/bin/bin/../../lib/gcc/pic32mx/4.8.3/../../../../pic32mx/lib/micromips\libpic32.a(vector9.o)

.data%z365      0x00000000        0x0
 .data          0x00000000        0x0 d:/program files/microchip/xc32/v2.50/bin/bin/../../lib/gcc/pic32mx/4.8.3/../../../../pic32mx/lib/micromips\libpic32.a(vector9.o)

.bss%z366       0x00000000        0x0
 .bss           0x00000000        0x0 d:/program files/microchip/xc32/v2.50/bin/bin/../../lib/gcc/pic32mx/4.8.3/../../../../pic32mx/lib/micromips\libpic32.a(vector8.o)

.data%z367      0x00000000        0x0
 .data          0x00000000        0x0 d:/program files/microchip/xc32/v2.50/bin/bin/../../lib/gcc/pic32mx/4.8.3/../../../../pic32mx/lib/micromips\libpic32.a(vector8.o)

.bss%z368       0x00000000        0x0
 .bss           0x00000000        0x0 d:/program files/microchip/xc32/v2.50/bin/bin/../../lib/gcc/pic32mx/4.8.3/../../../../pic32mx/lib/micromips\libpic32.a(vector7.o)

.data%z369      0x00000000        0x0
 .data          0x00000000        0x0 d:/program files/microchip/xc32/v2.50/bin/bin/../../lib/gcc/pic32mx/4.8.3/../../../../pic32mx/lib/micromips\libpic32.a(vector7.o)

.bss%z370       0x00000000        0x0
 .bss           0x00000000        0x0 d:/program files/microchip/xc32/v2.50/bin/bin/../../lib/gcc/pic32mx/4.8.3/../../../../pic32mx/lib/micromips\libpic32.a(vector6.o)

.data%z371      0x00000000        0x0
 .data          0x00000000        0x0 d:/program files/microchip/xc32/v2.50/bin/bin/../../lib/gcc/pic32mx/4.8.3/../../../../pic32mx/lib/micromips\libpic32.a(vector6.o)

.bss%z372       0x00000000        0x0
 .bss           0x00000000        0x0 d:/program files/microchip/xc32/v2.50/bin/bin/../../lib/gcc/pic32mx/4.8.3/../../../../pic32mx/lib/micromips\libpic32.a(vector5.o)

.data%z373      0x00000000        0x0
 .data          0x00000000        0x0 d:/program files/microchip/xc32/v2.50/bin/bin/../../lib/gcc/pic32mx/4.8.3/../../../../pic32mx/lib/micromips\libpic32.a(vector5.o)

.bss%z374       0x00000000        0x0
 .bss           0x00000000        0x0 d:/program files/microchip/xc32/v2.50/bin/bin/../../lib/gcc/pic32mx/4.8.3/../../../../pic32mx/lib/micromips\libpic32.a(vector4.o)

.data%z375      0x00000000        0x0
 .data          0x00000000        0x0 d:/program files/microchip/xc32/v2.50/bin/bin/../../lib/gcc/pic32mx/4.8.3/../../../../pic32mx/lib/micromips\libpic32.a(vector4.o)

.bss%z376       0x00000000        0x0
 .bss           0x00000000        0x0 d:/program files/microchip/xc32/v2.50/bin/bin/../../lib/gcc/pic32mx/4.8.3/../../../../pic32mx/lib/micromips\libpic32.a(vector3.o)

.data%z377      0x00000000        0x0
 .data          0x00000000        0x0 d:/program files/microchip/xc32/v2.50/bin/bin/../../lib/gcc/pic32mx/4.8.3/../../../../pic32mx/lib/micromips\libpic32.a(vector3.o)

.bss%z378       0x00000000        0x0
 .bss           0x00000000        0x0 d:/program files/microchip/xc32/v2.50/bin/bin/../../lib/gcc/pic32mx/4.8.3/../../../../pic32mx/lib/micromips\libpic32.a(vector2.o)

.data%z379      0x00000000        0x0
 .data          0x00000000        0x0 d:/program files/microchip/xc32/v2.50/bin/bin/../../lib/gcc/pic32mx/4.8.3/../../../../pic32mx/lib/micromips\libpic32.a(vector2.o)

.bss%z380       0x00000000        0x0
 .bss           0x00000000        0x0 d:/program files/microchip/xc32/v2.50/bin/bin/../../lib/gcc/pic32mx/4.8.3/../../../../pic32mx/lib/micromips\libpic32.a(vector1.o)

.data%z381      0x00000000        0x0
 .data          0x00000000        0x0 d:/program files/microchip/xc32/v2.50/bin/bin/../../lib/gcc/pic32mx/4.8.3/../../../../pic32mx/lib/micromips\libpic32.a(vector1.o)

.bss%z382       0x00000000        0x0
 .bss           0x00000000        0x0 d:/program files/microchip/xc32/v2.50/bin/bin/../../lib/gcc/pic32mx/4.8.3/../../../../pic32mx/lib/micromips\libpic32.a(vector0.o)

.data%z383      0x00000000        0x0
 .data          0x00000000        0x0 d:/program files/microchip/xc32/v2.50/bin/bin/../../lib/gcc/pic32mx/4.8.3/../../../../pic32mx/lib/micromips\libpic32.a(vector0.o)

.bss%z384       0x00000000        0x0
 .bss           0x00000000        0x0 d:/program files/microchip/xc32/v2.50/bin/bin/../../lib/gcc/pic32mx/4.8.3/../../../../pic32mx/lib/micromips\libpic32.a(general-exception.o)

.data%z385      0x00000000        0x0
 .data          0x00000000        0x0 d:/program files/microchip/xc32/v2.50/bin/bin/../../lib/gcc/pic32mx/4.8.3/../../../../pic32mx/lib/micromips\libpic32.a(general-exception.o)

.bss%z386       0x00000000        0x0
 .bss           0x00000000        0x0 d:/program files/microchip/xc32/v2.50/bin/bin/../../lib/gcc/pic32mx/4.8.3/../../../../pic32mx/lib/micromips\libpic32.a(pic32_data_init.o)

.data%z387      0x00000000        0x0
 .data          0x00000000        0x0 d:/program files/microchip/xc32/v2.50/bin/bin/../../lib/gcc/pic32mx/4.8.3/../../../../pic32mx/lib/micromips\libpic32.a(pic32_data_init.o)

.bss%z388       0x00000000        0x0
 .bss           0x00000000        0x0 d:/program files/microchip/xc32/v2.50/bin/bin/../../lib/gcc/pic32mx/4.8.3/../../../../pic32mx/lib/micromips\libpic32.a(default-nmi-handler.o)

.data%z389      0x00000000        0x0
 .data          0x00000000        0x0 d:/program files/microchip/xc32/v2.50/bin/bin/../../lib/gcc/pic32mx/4.8.3/../../../../pic32mx/lib/micromips\libpic32.a(default-nmi-handler.o)

.bss%z390       0x00000000        0x0
 .bss           0x00000000        0x0 d:/program files/microchip/xc32/v2.50/bin/bin/../../lib/gcc/pic32mx/4.8.3/../../../../pic32mx/lib/micromips\libpic32.a(default-on-bootstrap.o)

.data%z391      0x00000000        0x0
 .data          0x00000000        0x0 d:/program files/microchip/xc32/v2.50/bin/bin/../../lib/gcc/pic32mx/4.8.3/../../../../pic32mx/lib/micromips\libpic32.a(default-on-bootstrap.o)

.bss%z392       0x00000000        0x0
 .bss           0x00000000        0x0 d:/program files/microchip/xc32/v2.50/bin/bin/../../lib/gcc/pic32mx/4.8.3/../../../../pic32mx/lib/micromips\libpic32.a(default-on-reset.o)

.data%z393      0x00000000        0x0
 .data          0x00000000        0x0 d:/program files/microchip/xc32/v2.50/bin/bin/../../lib/gcc/pic32mx/4.8.3/../../../../pic32mx/lib/micromips\libpic32.a(default-on-reset.o)

.bss%z394       0x00000000        0x0
 .bss           0x00000000        0x0 d:/program files/microchip/xc32/v2.50/bin/bin/../../lib/gcc/pic32mx/4.8.3/../../../../pic32mx/lib/micromips\libpic32.a(default-bootstrap-exception-handler.o)

.data%z395      0x00000000        0x0
 .data          0x00000000        0x0 d:/program files/microchip/xc32/v2.50/bin/bin/../../lib/gcc/pic32mx/4.8.3/../../../../pic32mx/lib/micromips\libpic32.a(default-bootstrap-exception-handler.o)

.bss%z396       0x00000000        0x0
 .bss           0x00000000        0x0 d:/program files/microchip/xc32/v2.50/bin/bin/../../lib/gcc/pic32mx/4.8.3/../../../../pic32mx/lib/micromips\libpic32.a(strlen.o)

.data%z397      0x00000000        0x0
 .data          0x00000000        0x0 d:/program files/microchip/xc32/v2.50/bin/bin/../../lib/gcc/pic32mx/4.8.3/../../../../pic32mx/lib/micromips\libpic32.a(strlen.o)

.bss%z398       0x00000000        0x0
 .bss           0x00000000        0x0 d:/program files/microchip/xc32/v2.50/bin/bin/../../lib/gcc/pic32mx/4.8.3/../../../../pic32mx/lib/micromips\libpic32.a(strcmp.o)

.data%z399      0x00000000        0x0
 .data          0x00000000        0x0 d:/program files/microchip/xc32/v2.50/bin/bin/../../lib/gcc/pic32mx/4.8.3/../../../../pic32mx/lib/micromips\libpic32.a(strcmp.o)

.bss%z400       0x00000000        0x0
 .bss           0x00000000        0x0 d:/program files/microchip/xc32/v2.50/bin/bin/../../lib/gcc/pic32mx/4.8.3/../../../../pic32mx/lib/micromips\libpic32.a(memset.o)

.data%z401      0x00000000        0x0
 .data          0x00000000        0x0 d:/program files/microchip/xc32/v2.50/bin/bin/../../lib/gcc/pic32mx/4.8.3/../../../../pic32mx/lib/micromips\libpic32.a(memset.o)

.bss%z402       0x00000000        0x0
 .bss           0x00000000        0x0 d:/program files/microchip/xc32/v2.50/bin/bin/../../lib/gcc/pic32mx/4.8.3/../../../../pic32mx/lib/micromips\libpic32.a(memcpy.o)

.data%z403      0x00000000        0x0
 .data          0x00000000        0x0 d:/program files/microchip/xc32/v2.50/bin/bin/../../lib/gcc/pic32mx/4.8.3/../../../../pic32mx/lib/micromips\libpic32.a(memcpy.o)

.data%z404      0x00000000        0x0
 .data          0x00000000        0x0 d:/program files/microchip/xc32/v2.50/bin/bin/../../lib/gcc/pic32mx/4.8.3/micromips\libgcc.a(unwind-sjlj.o)

.bss%z405       0x00000000        0x0
 .bss           0x00000000        0x0 d:/program files/microchip/xc32/v2.50/bin/bin/../../lib/gcc/pic32mx/4.8.3/../../../../pic32mx/lib/micromips\pic32_software_reset-mm.o

.data%z406      0x00000000        0x0
 .data          0x00000000        0x0 d:/program files/microchip/xc32/v2.50/bin/bin/../../lib/gcc/pic32mx/4.8.3/../../../../pic32mx/lib/micromips\pic32_software_reset-mm.o

.bss%z407       0x00000000        0x0
 .bss           0x00000000        0x0 C:\Users\hoang\AppData\Local\Temp\ccFXkMDy.o

.data%z408      0x00000000        0x0
 .data          0x00000000        0x0 C:\Users\hoang\AppData\Local\Temp\ccFXkMDy.o

.bss%z409       0x00000000        0x0
 .bss           0x00000000        0x0 C:\Users\hoang\AppData\Local\Temp\cclKKak0.o

.data%z410      0x00000000        0x0
 .data          0x00000000        0x0 C:\Users\hoang\AppData\Local\Temp\cclKKak0.o

.bss%z411       0x00000000        0x0
 .bss           0x00000000        0x0 C:\Users\hoang\AppData\Local\Temp\ccMoW1mQ.o

.data%z412      0x00000000        0x0
 .data          0x00000000        0x0 C:\Users\hoang\AppData\Local\Temp\ccMoW1mQ.o

.bss%z413       0x00000000        0x0
 .bss           0x00000000        0x0 d:/program files/microchip/xc32/v2.50/bin/bin/../../lib/gcc/pic32mx/4.8.3/../../../../pic32mx/lib/micromips\libsupc++.a(new_handler.o)

.data%z414      0x00000000        0x0
 .data          0x00000000        0x0 d:/program files/microchip/xc32/v2.50/bin/bin/../../lib/gcc/pic32mx/4.8.3/../../../../pic32mx/lib/micromips\libsupc++.a(new_handler.o)

.bss%z415       0x00000000        0x0
 .bss           0x00000000        0x0 d:/program files/microchip/xc32/v2.50/bin/bin/../../lib/gcc/pic32mx/4.8.3/../../../../pic32mx/lib/micromips\libsupc++.a(eh_term_handler.o)

.data%z416      0x00000000        0x0
 .data          0x00000000        0x0 d:/program files/microchip/xc32/v2.50/bin/bin/../../lib/gcc/pic32mx/4.8.3/../../../../pic32mx/lib/micromips\libsupc++.a(eh_term_handler.o)

.bss%z417       0x00000000        0x0
 .bss           0x00000000        0x0 d:/program files/microchip/xc32/v2.50/bin/bin/../../lib/gcc/pic32mx/4.8.3/../../../../pic32mx/lib/micromips\libsupc++.a(eh_call.o)

.data%z418      0x00000000        0x0
 .data          0x00000000        0x0 d:/program files/microchip/xc32/v2.50/bin/bin/../../lib/gcc/pic32mx/4.8.3/../../../../pic32mx/lib/micromips\libsupc++.a(eh_call.o)

.bss%z419       0x00000000        0x0
 .bss           0x00000000        0x0 d:/program files/microchip/xc32/v2.50/bin/bin/../../lib/gcc/pic32mx/4.8.3/../../../../pic32mx/lib/micromips\libsupc++.a(pure.o)

.data%z420      0x00000000        0x0
 .data          0x00000000        0x0 d:/program files/microchip/xc32/v2.50/bin/bin/../../lib/gcc/pic32mx/4.8.3/../../../../pic32mx/lib/micromips\libsupc++.a(pure.o)

.bss%z421       0x00000000        0x0
 .bss           0x00000000        0x0 d:/program files/microchip/xc32/v2.50/bin/bin/../../lib/gcc/pic32mx/4.8.3/../../../../pic32mx/lib/micromips\libsupc++.a(tinfo.o)

.data%z422      0x00000000        0x0
 .data          0x00000000        0x0 d:/program files/microchip/xc32/v2.50/bin/bin/../../lib/gcc/pic32mx/4.8.3/../../../../pic32mx/lib/micromips\libsupc++.a(tinfo.o)

.bss%z423       0x00000000        0x0
 .bss           0x00000000        0x0 d:/program files/microchip/xc32/v2.50/bin/bin/../../lib/gcc/pic32mx/4.8.3/../../../../pic32mx/lib/micromips\libsupc++.a(si_class_type_info.o)

.data%z424      0x00000000        0x0
 .data          0x00000000        0x0 d:/program files/microchip/xc32/v2.50/bin/bin/../../lib/gcc/pic32mx/4.8.3/../../../../pic32mx/lib/micromips\libsupc++.a(si_class_type_info.o)

.bss%z425       0x00000000        0x0
 .bss           0x00000000        0x0 d:/program files/microchip/xc32/v2.50/bin/bin/../../lib/gcc/pic32mx/4.8.3/../../../../pic32mx/lib/micromips\libsupc++.a(new_op.o)

.data%z426      0x00000000        0x0
 .data          0x00000000        0x0 d:/program files/microchip/xc32/v2.50/bin/bin/../../lib/gcc/pic32mx/4.8.3/../../../../pic32mx/lib/micromips\libsupc++.a(new_op.o)

.bss%z427       0x00000000        0x0
 .bss           0x00000000        0x0 d:/program files/microchip/xc32/v2.50/bin/bin/../../lib/gcc/pic32mx/4.8.3/../../../../pic32mx/lib/micromips\libsupc++.a(eh_unex_handler.o)

.data%z428      0x00000000        0x0
 .data          0x00000000        0x0 d:/program files/microchip/xc32/v2.50/bin/bin/../../lib/gcc/pic32mx/4.8.3/../../../../pic32mx/lib/micromips\libsupc++.a(eh_unex_handler.o)

.bss%z429       0x00000000        0x0
 .bss           0x00000000        0x0 d:/program files/microchip/xc32/v2.50/bin/bin/../../lib/gcc/pic32mx/4.8.3/../../../../pic32mx/lib/micromips\libsupc++.a(eh_throw.o)

.data%z430      0x00000000        0x0
 .data          0x00000000        0x0 d:/program files/microchip/xc32/v2.50/bin/bin/../../lib/gcc/pic32mx/4.8.3/../../../../pic32mx/lib/micromips\libsupc++.a(eh_throw.o)

.bss%z431       0x00000000        0x0
 .bss           0x00000000        0x0 d:/program files/microchip/xc32/v2.50/bin/bin/../../lib/gcc/pic32mx/4.8.3/../../../../pic32mx/lib/micromips\libsupc++.a(eh_terminate.o)

.data%z432      0x00000000        0x0
 .data          0x00000000        0x0 d:/program files/microchip/xc32/v2.50/bin/bin/../../lib/gcc/pic32mx/4.8.3/../../../../pic32mx/lib/micromips\libsupc++.a(eh_terminate.o)

.bss%z433       0x00000000        0x0
 .bss           0x00000000        0x0 d:/program files/microchip/xc32/v2.50/bin/bin/../../lib/gcc/pic32mx/4.8.3/../../../../pic32mx/lib/micromips\libsupc++.a(eh_personality.o)

.data%z434      0x00000000        0x0
 .data          0x00000000        0x0 d:/program files/microchip/xc32/v2.50/bin/bin/../../lib/gcc/pic32mx/4.8.3/../../../../pic32mx/lib/micromips\libsupc++.a(eh_personality.o)

.bss%z435       0x00000000        0x0
 .bss           0x00000000        0x0 d:/program files/microchip/xc32/v2.50/bin/bin/../../lib/gcc/pic32mx/4.8.3/../../../../pic32mx/lib/micromips\libsupc++.a(eh_globals.o)

.data%z436      0x00000000        0x0
 .data          0x00000000        0x0 d:/program files/microchip/xc32/v2.50/bin/bin/../../lib/gcc/pic32mx/4.8.3/../../../../pic32mx/lib/micromips\libsupc++.a(eh_globals.o)

.bss%z437       0x00000000        0x0
 .bss           0x00000000        0x0 d:/program files/microchip/xc32/v2.50/bin/bin/../../lib/gcc/pic32mx/4.8.3/../../../../pic32mx/lib/micromips\libsupc++.a(eh_exception.o)

.data%z438      0x00000000        0x0
 .data          0x00000000        0x0 d:/program files/microchip/xc32/v2.50/bin/bin/../../lib/gcc/pic32mx/4.8.3/../../../../pic32mx/lib/micromips\libsupc++.a(eh_exception.o)

.bss%z439       0x00000000        0x0
 .bss           0x00000000        0x0 d:/program files/microchip/xc32/v2.50/bin/bin/../../lib/gcc/pic32mx/4.8.3/../../../../pic32mx/lib/micromips\libsupc++.a(eh_catch.o)

.data%z440      0x00000000        0x0
 .data          0x00000000        0x0 d:/program files/microchip/xc32/v2.50/bin/bin/../../lib/gcc/pic32mx/4.8.3/../../../../pic32mx/lib/micromips\libsupc++.a(eh_catch.o)

.bss%z441       0x00000000        0x0
 .bss           0x00000000        0x0 d:/program files/microchip/xc32/v2.50/bin/bin/../../lib/gcc/pic32mx/4.8.3/../../../../pic32mx/lib/micromips\libsupc++.a(eh_alloc.o)

.data%z442      0x00000000        0x0
 .data          0x00000000        0x0 d:/program files/microchip/xc32/v2.50/bin/bin/../../lib/gcc/pic32mx/4.8.3/../../../../pic32mx/lib/micromips\libsupc++.a(eh_alloc.o)

.bss%z443       0x00000000        0x0
 .bss           0x00000000        0x0 d:/program files/microchip/xc32/v2.50/bin/bin/../../lib/gcc/pic32mx/4.8.3/../../../../pic32mx/lib/micromips\libsupc++.a(del_op.o)

.data%z444      0x00000000        0x0
 .data          0x00000000        0x0 d:/program files/microchip/xc32/v2.50/bin/bin/../../lib/gcc/pic32mx/4.8.3/../../../../pic32mx/lib/micromips\libsupc++.a(del_op.o)

.bss%z445       0x00000000        0x0
 .bss           0x00000000        0x0 d:/program files/microchip/xc32/v2.50/bin/bin/../../lib/gcc/pic32mx/4.8.3/../../../../pic32mx/lib/micromips\libsupc++.a(class_type_info.o)

.data%z446      0x00000000        0x0
 .data          0x00000000        0x0 d:/program files/microchip/xc32/v2.50/bin/bin/../../lib/gcc/pic32mx/4.8.3/../../../../pic32mx/lib/micromips\libsupc++.a(class_type_info.o)

.bss%z447       0x00000000        0x0
 .bss           0x00000000        0x0 build/default/production/main.o

.data%z448      0x00000000        0x0
 .data          0x00000000        0x0 build/default/production/main.o

.tm_clone_table%z449
                0x00000000        0x0
 .tm_clone_table
                0x00000000        0x0 d:/program files/microchip/xc32/v2.50/bin/bin/../../lib/gcc/pic32mx/4.8.3/micromips/crtbegin.o

.bss%z450       0x00000000        0x0
 .bss           0x00000000        0x0 d:/program files/microchip/xc32/v2.50/bin/bin/../../lib/gcc/pic32mx/4.8.3/micromips/crti.o

.data%z451      0x00000000        0x0
 .data          0x00000000        0x0 d:/program files/microchip/xc32/v2.50/bin/bin/../../lib/gcc/pic32mx/4.8.3/micromips/crti.o

.text._ZNSt6_WinitC2Ev
                0x9d009320     0x12fc
 .text._ZNSt6_WinitC2Ev
                0x9d009320     0x12fc d:/program files/microchip/xc32/v2.50/bin/bin/../../lib/gcc/pic32mx/4.8.3/../../../../pic32mx/lib/micromips\libxcpp.a(wiostrea.o)
                0x9d009321                std::_Winit::_Winit()
                0x9d009321                std::_Winit::_Winit()

.text._ZNSt8ios_base4InitC2Ev
                0x9d00a61c     0x1254
 .text._ZNSt8ios_base4InitC2Ev
                0x9d00a61c     0x1254 d:/program files/microchip/xc32/v2.50/bin/bin/../../lib/gcc/pic32mx/4.8.3/../../../../pic32mx/lib/micromips\libxcpp.a(iostream.o)
                0x9d00a61d                std::ios_base::Init::Init()
                0x9d00a61d                std::ios_base::Init::Init()

.dinit          0x9d00b870      0xfb0
 .dinit         0x9d00b870      0xfb0 data_init

.text._ZNSt8ios_base4InitD2Ev
                0x9d00c820      0xc84
 .text._ZNSt8ios_base4InitD2Ev
                0x9d00c820      0xc84 d:/program files/microchip/xc32/v2.50/bin/bin/../../lib/gcc/pic32mx/4.8.3/../../../../pic32mx/lib/micromips\libxcpp.a(iostream.o)
                0x9d00c821                std::ios_base::Init::~Init()
                0x9d00c821                std::ios_base::Init::~Init()

.text._ZNSt6_WinitD2Ev
                0x9d00d4a4      0xb74
 .text._ZNSt6_WinitD2Ev
                0x9d00d4a4      0xb74 d:/program files/microchip/xc32/v2.50/bin/bin/../../lib/gcc/pic32mx/4.8.3/../../../../pic32mx/lib/micromips\libxcpp.a(wiostrea.o)
                0x9d00d4a5                std::_Winit::~_Winit()
                0x9d00d4a5                std::_Winit::~_Winit()

.rodata         0x9d00e018      0xb24
 .rodata        0x9d00e018      0xb24 d:/program files/microchip/xc32/v2.50/bin/bin/../../lib/gcc/pic32mx/4.8.3/../../../../pic32mx/lib/micromips\libxcpp.a(xstrerro.o)

.text._Gentime  0x9d00eb3c      0x820
 .text._Gentime
                0x9d00eb3c      0x820 d:/program files/microchip/xc32/v2.50/bin/bin/../../lib/gcc/pic32mx/4.8.3/../../../../pic32mx/lib/micromips\libxcpp.a(xgentime.o)
                0x9d00eb3d                _Gentime

.text._Strerror
                0x9d00f35c      0x4f4
 .text._Strerror
                0x9d00f35c      0x4f4 d:/program files/microchip/xc32/v2.50/bin/bin/../../lib/gcc/pic32mx/4.8.3/../../../../pic32mx/lib/micromips\libxcpp.a(xstrerro.o)
                0x9d00f35d                _Strerror

.text._Makeloc  0x9d00f850      0x4b8
 .text._Makeloc
                0x9d00f850      0x4b8 d:/program files/microchip/xc32/v2.50/bin/bin/../../lib/gcc/pic32mx/4.8.3/../../../../pic32mx/lib/micromips\libxcpp.a(xmakeloc.o)
                0x9d00f851                _Makeloc

.text._ZNK10__cxxabiv121__vmi_class_type_info12__do_dyncastElNS_17__class_type_info10__sub_kindEPKS1_PKvS4_S6_RNS1_16__dyncast_resultE
                0x9d00fd08      0x408
 .text._ZNK10__cxxabiv121__vmi_class_type_info12__do_dyncastElNS_17__class_type_info10__sub_kindEPKS1_PKvS4_S6_RNS1_16__dyncast_resultE
                0x9d00fd08      0x408 d:/program files/microchip/xc32/v2.50/bin/bin/../../lib/gcc/pic32mx/4.8.3/../../../../pic32mx/lib/micromips\libsupc++.a(vmi_class_type_info.o)
                0x9d00fd09                __cxxabiv1::__vmi_class_type_info::__do_dyncast(long, __cxxabiv1::__class_type_info::__sub_kind, __cxxabiv1::__class_type_info const*, void const*, __cxxabiv1::__class_type_info const*, void const*, __cxxabiv1::__class_type_info::__dyncast_result&) const

.text._ZSt16_Xoverflow_errorPKc
                0x9d010110      0x3ac
 .text._ZSt16_Xoverflow_errorPKc
                0x9d010110      0x3ac d:/program files/microchip/xc32/v2.50/bin/bin/../../lib/gcc/pic32mx/4.8.3/../../../../pic32mx/lib/micromips\libxcpp.a(xthrow.o)
                0x9d010111                std::_Xoverflow_error(char const*)

.text._ZSt15_Xruntime_errorPKc
                0x9d0104bc      0x39c
 .text._ZSt15_Xruntime_errorPKc
                0x9d0104bc      0x39c d:/program files/microchip/xc32/v2.50/bin/bin/../../lib/gcc/pic32mx/4.8.3/../../../../pic32mx/lib/micromips\libxcpp.a(xthrow.o)
                0x9d0104bd                std::_Xruntime_error(char const*)

.text._Setloc   0x9d010858      0x384
 .text._Setloc  0x9d010858      0x384 d:/program files/microchip/xc32/v2.50/bin/bin/../../lib/gcc/pic32mx/4.8.3/../../../../pic32mx/lib/micromips\libxcpp.a(xsetloc.o)
                0x9d010859                _Setloc

.text           0x9d010bdc      0x310
 .text          0x9d010bdc      0x310 d:/program files/microchip/xc32/v2.50/bin/bin/../../lib/gcc/pic32mx/4.8.3/micromips\libgcc.a(unwind-sjlj.o)
                0x9d010d09                _Unwind_SjLj_Register
                0x9d010d19                _Unwind_SjLj_Unregister
                0x9d010d25                _Unwind_GetGR
                0x9d010d31                _Unwind_GetCFA
                0x9d010d41                _Unwind_SetGR
                0x9d010d4d                _Unwind_GetIP
                0x9d010d55                _Unwind_GetIPInfo
                0x9d010d65                _Unwind_SetIP
                0x9d010d6d                _Unwind_GetLanguageSpecificData
                0x9d010d75                _Unwind_GetRegionStart
                0x9d010d79                _Unwind_FindEnclosingFunction
                0x9d010d7d                _Unwind_GetDataRelBase
                0x9d010d81                _Unwind_GetTextRelBase
                0x9d010d85                _Unwind_SjLj_RaiseException
                0x9d010dfd                _Unwind_SjLj_ForcedUnwind
                0x9d010e2d                _Unwind_SjLj_Resume
                0x9d010e61                _Unwind_SjLj_Resume_or_Rethrow
                0x9d010e91                _Unwind_DeleteException
                0x9d010ea9                _Unwind_Backtrace

.rodata         0x9d010eec      0x2fc
 .rodata        0x9d010eec      0x2fc d:/program files/microchip/xc32/v2.50/bin/bin/../../lib/gcc/pic32mx/4.8.3/../../../../pic32mx/lib/micromips\libxcpp.a(xloctab.o)

.text._Makewct  0x9d0111e8      0x22c
 .text._Makewct
                0x9d0111e8      0x22c d:/program files/microchip/xc32/v2.50/bin/bin/../../lib/gcc/pic32mx/4.8.3/../../../../pic32mx/lib/micromips\libxcpp.a(xmakewct.o)
                0x9d0111e9                _Makewct

.text._Makestab
                0x9d011414      0x228
 .text._Makestab
                0x9d011414      0x228 d:/program files/microchip/xc32/v2.50/bin/bin/../../lib/gcc/pic32mx/4.8.3/../../../../pic32mx/lib/micromips\libxcpp.a(xmakesta.o)
                0x9d011415                _Makestab

.rodata         0x9d01163c      0x408
 .rodata        0x9d01163c      0x204 d:/program files/microchip/xc32/v2.50/bin/bin/../../lib/gcc/pic32mx/4.8.3/../../../../pic32mx/lib/micromips\libxcpp.a(xctype.o)
 .rodata        0x9d011840      0x204 d:/program files/microchip/xc32/v2.50/bin/bin/../../lib/gcc/pic32mx/4.8.3/../../../../pic32mx/lib/micromips\libxcpp.a(xtolotab.o)

.rodata         0x9d011a44      0x204
 .rodata        0x9d011a44      0x204 d:/program files/microchip/xc32/v2.50/bin/bin/../../lib/gcc/pic32mx/4.8.3/../../../../pic32mx/lib/micromips\libxcpp.a(xtouptab.o)

.text._Stoulx   0x9d011c48      0x1f0
 .text._Stoulx  0x9d011c48      0x1f0 d:/program files/microchip/xc32/v2.50/bin/bin/../../lib/gcc/pic32mx/4.8.3/../../../../pic32mx/lib/micromips\libxcpp.a(xstoul.o)
                0x9d011c49                _Stoulx

.rodata         0x9d011e38      0x1e4
 .rodata        0x9d011e38      0x1e4 d:/program files/microchip/xc32/v2.50/bin/bin/../../lib/gcc/pic32mx/4.8.3/../../../../pic32mx/lib/micromips\libxcpp.a(xwctytab.o)

.text._Mbtowcx  0x9d01201c      0x1c8
 .text._Mbtowcx
                0x9d01201c      0x1c8 d:/program files/microchip/xc32/v2.50/bin/bin/../../lib/gcc/pic32mx/4.8.3/../../../../pic32mx/lib/micromips\libxcpp.a(xmbtowc.o)
                0x9d01201d                _Mbtowcx

.text.realloc   0x9d0121e4      0x1c4
 .text.realloc  0x9d0121e4      0x1c4 d:/program files/microchip/xc32/v2.50/bin/bin/../../lib/gcc/pic32mx/4.8.3/../../../../pic32mx/lib/micromips\libxcpp.a(realloc.o)
                0x9d0121e5                realloc

.text           0x9d0123a8      0x1b4
 .text          0x9d0123a8      0x1b4 d:/program files/microchip/xc32/v2.50/bin/bin/../../lib/gcc/pic32mx/4.8.3/micromips/crtbegin.o

.text.__cxa_call_unexpected
                0x9d01255c      0x1b4
 .text.__cxa_call_unexpected
                0x9d01255c      0x1b4 d:/program files/microchip/xc32/v2.50/bin/bin/../../lib/gcc/pic32mx/4.8.3/../../../../pic32mx/lib/micromips\libsupc++.a(eh_personality.o)
                0x9d01255d                __cxa_call_unexpected

.text._Wctombx  0x9d012710      0x1b0
 .text._Wctombx
                0x9d012710      0x1b0 d:/program files/microchip/xc32/v2.50/bin/bin/../../lib/gcc/pic32mx/4.8.3/../../../../pic32mx/lib/micromips\libxcpp.a(xwctomb.o)
                0x9d012711                _Wctombx

.text._Getlname
                0x9d0128c0      0x18c
 .text._Getlname
                0x9d0128c0      0x18c d:/program files/microchip/xc32/v2.50/bin/bin/../../lib/gcc/pic32mx/4.8.3/../../../../pic32mx/lib/micromips\libxcpp.a(setlocal.o)
                0x9d0128c1                _Getlname

.text._ZNK10__cxxabiv121__vmi_class_type_info11__do_upcastEPKNS_17__class_type_infoEPKvRNS1_15__upcast_resultE
                0x9d012a4c      0x18c
 .text._ZNK10__cxxabiv121__vmi_class_type_info11__do_upcastEPKNS_17__class_type_infoEPKvRNS1_15__upcast_resultE
                0x9d012a4c      0x18c d:/program files/microchip/xc32/v2.50/bin/bin/../../lib/gcc/pic32mx/4.8.3/../../../../pic32mx/lib/micromips\libsupc++.a(vmi_class_type_info.o)
                0x9d012a4d                __cxxabiv1::__vmi_class_type_info::__do_upcast(__cxxabiv1::__class_type_info const*, void const*, __cxxabiv1::__class_type_info::__upcast_result&) const

.text._CStrftime
                0x9d012bd8      0x184
 .text._CStrftime
                0x9d012bd8      0x184 d:/program files/microchip/xc32/v2.50/bin/bin/../../lib/gcc/pic32mx/4.8.3/../../../../pic32mx/lib/micromips\libxcpp.a(xstrftim.o)
                0x9d012bd9                _CStrftime

.text.fgetwc    0x9d000000      0x170
 .text.fgetwc   0x9d000000      0x170 d:/program files/microchip/xc32/v2.50/bin/bin/../../lib/gcc/pic32mx/4.8.3/../../../../pic32mx/lib/micromips\libxcpp.a(fgetwc.o)
                0x9d000001                fgetwc

.text._Freeloc  0x9d012d5c      0x16c
 .text._Freeloc
                0x9d012d5c      0x16c d:/program files/microchip/xc32/v2.50/bin/bin/../../lib/gcc/pic32mx/4.8.3/../../../../pic32mx/lib/micromips\libxcpp.a(xfreeloc.o)
                0x9d012d5d                _Freeloc

.text.malloc    0x9d012ec8      0x15c
 .text.malloc   0x9d012ec8      0x15c d:/program files/microchip/xc32/v2.50/bin/bin/../../lib/gcc/pic32mx/4.8.3/../../../../pic32mx/lib/micromips\libxcpp.a(malloc.o)
                0x9d012ec9                malloc

.text.initcloc  0x9d013024      0x148
 .text.initcloc
                0x9d013024      0x148 d:/program files/microchip/xc32/v2.50/bin/bin/../../lib/gcc/pic32mx/4.8.3/../../../../pic32mx/lib/micromips\libxcpp.a(setlocal.o)

.text._Getzone  0x9d01316c      0x148
 .text._Getzone
                0x9d01316c      0x148 d:/program files/microchip/xc32/v2.50/bin/bin/../../lib/gcc/pic32mx/4.8.3/../../../../pic32mx/lib/micromips\libxcpp.a(xgetzone.o)
                0x9d01316d                _Getzone

.text.fputwc    0x9d0132b4      0x140
 .text.fputwc   0x9d0132b4      0x140 d:/program files/microchip/xc32/v2.50/bin/bin/../../lib/gcc/pic32mx/4.8.3/../../../../pic32mx/lib/micromips\libxcpp.a(fputwc.o)
                0x9d0132b5                fputwc

.text._ZNSt8_LocinfoC2ERKSs
                0x9d0133f4      0x13c
 .text._ZNSt8_LocinfoC2ERKSs
                0x9d0133f4      0x13c d:/program files/microchip/xc32/v2.50/bin/bin/../../lib/gcc/pic32mx/4.8.3/../../../../pic32mx/lib/micromips\libxcpp.a(locale0.o)
                0x9d0133f5                std::_Locinfo::_Locinfo(std::string const&)
                0x9d0133f5                std::_Locinfo::_Locinfo(std::string const&)

.text.ISOwkyr   0x9d013530      0x138
 .text.ISOwkyr  0x9d013530      0x138 d:/program files/microchip/xc32/v2.50/bin/bin/../../lib/gcc/pic32mx/4.8.3/../../../../pic32mx/lib/micromips\libxcpp.a(xgentime.o)

.text.fwrite    0x9d013668      0x134
 .text.fwrite   0x9d013668      0x134 d:/program files/microchip/xc32/v2.50/bin/bin/../../lib/gcc/pic32mx/4.8.3/../../../../pic32mx/lib/micromips\libxcpp.a(fwrite.o)
                0x9d013669                fwrite

.text._Findloc  0x9d01379c      0x134
 .text._Findloc
                0x9d01379c      0x134 d:/program files/microchip/xc32/v2.50/bin/bin/../../lib/gcc/pic32mx/4.8.3/../../../../pic32mx/lib/micromips\libxcpp.a(xfindloc.o)
                0x9d01379d                _Findloc

.text._Locterm  0x9d0138d0      0x130
 .text._Locterm
                0x9d0138d0      0x130 d:/program files/microchip/xc32/v2.50/bin/bin/../../lib/gcc/pic32mx/4.8.3/../../../../pic32mx/lib/micromips\libxcpp.a(xlocterm.o)
                0x9d0138d1                _Locterm

.rodata         0x9d013a00      0x12c
 .rodata        0x9d013a00      0x12c d:/program files/microchip/xc32/v2.50/bin/bin/../../lib/gcc/pic32mx/4.8.3/../../../../pic32mx/lib/micromips\libxcpp.a(asctime.o)

.text._Foprep   0x9d013b2c      0x12c
 .text._Foprep  0x9d013b2c      0x12c d:/program files/microchip/xc32/v2.50/bin/bin/../../lib/gcc/pic32mx/4.8.3/../../../../pic32mx/lib/micromips\libxcpp.a(xfoprep.o)
                0x9d013b2d                _Foprep

.text           0x9d013c58      0x124
 .text          0x9d013c58      0x124 d:/program files/microchip/xc32/v2.50/bin/bin/../../lib/gcc/pic32mx/4.8.3/../../../../pic32mx/lib/micromips\libpic32.a(memcpy.o)
                0x9d013c59                memcpy

.text._GLOBAL__sub_I__ZNSt8ios_base4Init9_Init_cntE
                0x9d013d7c      0x124
 .text._GLOBAL__sub_I__ZNSt8ios_base4Init9_Init_cntE
                0x9d013d7c      0x124 d:/program files/microchip/xc32/v2.50/bin/bin/../../lib/gcc/pic32mx/4.8.3/../../../../pic32mx/lib/micromips\libxcpp.a(iostream.o)

.text._Fspos    0x9d013ea0      0x118
 .text._Fspos   0x9d013ea0      0x118 d:/program files/microchip/xc32/v2.50/bin/bin/../../lib/gcc/pic32mx/4.8.3/../../../../pic32mx/lib/micromips\libxcpp.a(xfspos.o)
                0x9d013ea1                _Fspos

.text._sbrk_init
                0x9d013fb8      0x118
 .text._sbrk_init
                0x9d013fb8      0x118 d:/program files/microchip/xc32/v2.50/bin/bin/../../lib/gcc/pic32mx/4.8.3/../../../../pic32mx/lib/micromips\libpic32.a(sbrk.o)
                0x9d013fb9                _sbrk_init

.text._ZL28read_encoded_value_with_basehjPKhPj
                0x9d0140d0      0x114
 .text._ZL28read_encoded_value_with_basehjPKhPj
                0x9d0140d0      0x114 d:/program files/microchip/xc32/v2.50/bin/bin/../../lib/gcc/pic32mx/4.8.3/../../../../pic32mx/lib/micromips\libsupc++.a(eh_personality.o)

.text._ZNSt8_LocinfoC2EPKc
                0x9d0141e4      0x114
 .text._ZNSt8_LocinfoC2EPKc
                0x9d0141e4      0x114 d:/program files/microchip/xc32/v2.50/bin/bin/../../lib/gcc/pic32mx/4.8.3/../../../../pic32mx/lib/micromips\libxcpp.a(locale0.o)
                0x9d0141e5                std::_Locinfo::_Locinfo(char const*)
                0x9d0141e5                std::_Locinfo::_Locinfo(char const*)

.text           0x9d0142f8      0x110
 .text          0x9d0142f8      0x110 d:/program files/microchip/xc32/v2.50/bin/bin/../../lib/gcc/pic32mx/4.8.3/../../../../pic32mx/lib/micromips\libpic32.a(strlen.o)
                0x9d0142f9                strlen

.text._Getnloc  0x9d014408      0x10c
 .text._Getnloc
                0x9d014408      0x10c d:/program files/microchip/xc32/v2.50/bin/bin/../../lib/gcc/pic32mx/4.8.3/../../../../pic32mx/lib/micromips\libxcpp.a(setlocal.o)
                0x9d014409                _Getnloc

.text._Getloc   0x9d014514      0x10c
 .text._Getloc  0x9d014514      0x10c d:/program files/microchip/xc32/v2.50/bin/bin/../../lib/gcc/pic32mx/4.8.3/../../../../pic32mx/lib/micromips\libxcpp.a(xgetloc.o)
                0x9d014515                _Getloc

.text.fgets     0x9d014620      0x108
 .text.fgets    0x9d014620      0x108 d:/program files/microchip/xc32/v2.50/bin/bin/../../lib/gcc/pic32mx/4.8.3/../../../../pic32mx/lib/micromips\libxcpp.a(fgets.o)
                0x9d014621                fgets

.text._GLOBAL__sub_I__ZNSt6_Winit9_Init_cntE
                0x9d014728      0x104
 .text._GLOBAL__sub_I__ZNSt6_Winit9_Init_cntE
                0x9d014728      0x104 d:/program files/microchip/xc32/v2.50/bin/bin/../../lib/gcc/pic32mx/4.8.3/../../../../pic32mx/lib/micromips\libxcpp.a(wiostrea.o)

.text.fputs     0x9d01482c       0xfc
 .text.fputs    0x9d01482c       0xfc d:/program files/microchip/xc32/v2.50/bin/bin/../../lib/gcc/pic32mx/4.8.3/../../../../pic32mx/lib/micromips\libxcpp.a(fputs.o)
                0x9d01482d                fputs

.text._Stolx    0x9d014928       0xfc
 .text._Stolx   0x9d014928       0xfc d:/program files/microchip/xc32/v2.50/bin/bin/../../lib/gcc/pic32mx/4.8.3/../../../../pic32mx/lib/micromips\libxcpp.a(xstol.o)
                0x9d014929                _Stolx

.text._Frprep   0x9d014a24       0xf8
 .text._Frprep  0x9d014a24       0xf8 d:/program files/microchip/xc32/v2.50/bin/bin/../../lib/gcc/pic32mx/4.8.3/../../../../pic32mx/lib/micromips\libxcpp.a(xfrprep.o)
                0x9d014a25                _Frprep

.text._ZL28check_compact_exception_specPKSt9type_infoPvPKhij
                0x9d014b1c       0xf4
 .text._ZL28check_compact_exception_specPKSt9type_infoPvPKhij
                0x9d014b1c       0xf4 d:/program files/microchip/xc32/v2.50/bin/bin/../../lib/gcc/pic32mx/4.8.3/../../../../pic32mx/lib/micromips\libsupc++.a(eh_personality.o)

.text._Readloc  0x9d014c10       0xf0
 .text._Readloc
                0x9d014c10       0xf0 d:/program files/microchip/xc32/v2.50/bin/bin/../../lib/gcc/pic32mx/4.8.3/../../../../pic32mx/lib/micromips\libxcpp.a(xreadloc.o)
                0x9d014c11                _Readloc

.text.getera.isra.1
                0x9d014d00       0xec
 .text.getera.isra.1
                0x9d014d00       0xec d:/program files/microchip/xc32/v2.50/bin/bin/../../lib/gcc/pic32mx/4.8.3/../../../../pic32mx/lib/micromips\libxcpp.a(xgentime.o)

.text           0x9d014dec       0xe8
 .text          0x9d014dec       0xe8 build/default/production/main.o
                0x9d014ded                main

.text._Fwprep   0x9d014ed4       0xe8
 .text._Fwprep  0x9d014ed4       0xe8 d:/program files/microchip/xc32/v2.50/bin/bin/../../lib/gcc/pic32mx/4.8.3/../../../../pic32mx/lib/micromips\libxcpp.a(xfwprep.o)
                0x9d014ed5                _Fwprep

.text.setlocale
                0x9d014fbc       0xdc
 .text.setlocale
                0x9d014fbc       0xdc d:/program files/microchip/xc32/v2.50/bin/bin/../../lib/gcc/pic32mx/4.8.3/../../../../pic32mx/lib/micromips\libxcpp.a(setlocal.o)
                0x9d014fbd                setlocale

.text           0x9d015098       0xd8
 .text          0x9d015098       0xd8 d:/program files/microchip/xc32/v2.50/bin/bin/../../lib/gcc/pic32mx/4.8.3/../../../../pic32mx/lib/micromips\libpic32.a(strcmp.o)
                0x9d015099                strcmp

.text._WFrprep  0x9d015170       0xd8
 .text._WFrprep
                0x9d015170       0xd8 d:/program files/microchip/xc32/v2.50/bin/bin/../../lib/gcc/pic32mx/4.8.3/../../../../pic32mx/lib/micromips\libxcpp.a(xwfrprep.o)
                0x9d015171                _WFrprep

.text._Z41__static_initialization_and_destruction_0ii.part.82
                0x9d015248       0xd0
 .text._Z41__static_initialization_and_destruction_0ii.part.82
                0x9d015248       0xd0 d:/program files/microchip/xc32/v2.50/bin/bin/../../lib/gcc/pic32mx/4.8.3/../../../../pic32mx/lib/micromips\libxcpp.a(wiostrea.o)

.text._WFwprep  0x9d015318       0xd0
 .text._WFwprep
                0x9d015318       0xd0 d:/program files/microchip/xc32/v2.50/bin/bin/../../lib/gcc/pic32mx/4.8.3/../../../../pic32mx/lib/micromips\libxcpp.a(xwfwprep.o)
                0x9d015319                _WFwprep

.text._ZNSt6locale5_InitEv
                0x9d0153e8       0xcc
 .text._ZNSt6locale5_InitEv
                0x9d0153e8       0xcc d:/program files/microchip/xc32/v2.50/bin/bin/../../lib/gcc/pic32mx/4.8.3/../../../../pic32mx/lib/micromips\libxcpp.a(locale0.o)
                0x9d0153e9                std::locale::_Init()

.text.read      0x9d0154b4       0xcc
 .text.read     0x9d0154b4       0xcc d:/program files/microchip/xc32/v2.50/bin/bin/../../lib/gcc/pic32mx/4.8.3/../../../../pic32mx/lib/micromips\libpic32.a(read.o)
                0x9d0154b5                read

.text._ZNK10__cxxabiv120__si_class_type_info12__do_dyncastElNS_17__class_type_info10__sub_kindEPKS1_PKvS4_S6_RNS1_16__dyncast_resultE
                0x9d015580       0xc8
 .text._ZNK10__cxxabiv120__si_class_type_info12__do_dyncastElNS_17__class_type_info10__sub_kindEPKS1_PKvS4_S6_RNS1_16__dyncast_resultE
                0x9d015580       0xc8 d:/program files/microchip/xc32/v2.50/bin/bin/../../lib/gcc/pic32mx/4.8.3/../../../../pic32mx/lib/micromips\libsupc++.a(si_class_type_info.o)
                0x9d015581                __cxxabiv1::__si_class_type_info::__do_dyncast(long, __cxxabiv1::__class_type_info::__sub_kind, __cxxabiv1::__class_type_info const*, void const*, __cxxabiv1::__class_type_info const*, void const*, __cxxabiv1::__class_type_info::__dyncast_result&) const

.text.setvbuf   0x9d015648       0xc8
 .text.setvbuf  0x9d015648       0xc8 d:/program files/microchip/xc32/v2.50/bin/bin/../../lib/gcc/pic32mx/4.8.3/../../../../pic32mx/lib/micromips\libxcpp.a(setvbuf.o)
                0x9d015649                setvbuf

.text.fflush    0x9d015710       0xbc
 .text.fflush   0x9d015710       0xbc d:/program files/microchip/xc32/v2.50/bin/bin/../../lib/gcc/pic32mx/4.8.3/../../../../pic32mx/lib/micromips\libxcpp.a(fflush.o)
                0x9d015711                fflush

.text._ZL17parse_lsda_headerP15_Unwind_ContextPKhP16lsda_header_info
                0x9d0157cc       0xb8
 .text._ZL17parse_lsda_headerP15_Unwind_ContextPKhP16lsda_header_info
                0x9d0157cc       0xb8 d:/program files/microchip/xc32/v2.50/bin/bin/../../lib/gcc/pic32mx/4.8.3/../../../../pic32mx/lib/micromips\libsupc++.a(eh_personality.o)

.text._Z41__static_initialization_and_destruction_0ii.part.82
                0x9d015884       0xb8
 .text._Z41__static_initialization_and_destruction_0ii.part.82
                0x9d015884       0xb8 d:/program files/microchip/xc32/v2.50/bin/bin/../../lib/gcc/pic32mx/4.8.3/../../../../pic32mx/lib/micromips\libxcpp.a(iostream.o)

.text._ZNK10__cxxabiv121__vmi_class_type_info20__do_find_public_srcElPKvPKNS_17__class_type_infoES2_
                0x9d01593c       0xb4
 .text._ZNK10__cxxabiv121__vmi_class_type_info20__do_find_public_srcElPKvPKNS_17__class_type_infoES2_
                0x9d01593c       0xb4 d:/program files/microchip/xc32/v2.50/bin/bin/../../lib/gcc/pic32mx/4.8.3/../../../../pic32mx/lib/micromips\libsupc++.a(vmi_class_type_info.o)
                0x9d01593d                __cxxabiv1::__vmi_class_type_info::__do_find_public_src(long, void const*, __cxxabiv1::__class_type_info const*, void const*) const

.text._ZNSt8ios_baseD2Ev
                0x9d0159f0       0xac
 .text._ZNSt8ios_baseD2Ev
                0x9d0159f0       0xac d:/program files/microchip/xc32/v2.50/bin/bin/../../lib/gcc/pic32mx/4.8.3/../../../../pic32mx/lib/micromips\libxcpp.a(ios.o)
                0x9d0159f1                std::ios_base::~ios_base()
                0x9d0159f1                std::ios_base::~ios_base()

.text._mon_putc
                0x9d015a9c       0xac
 .text._mon_putc
                0x9d015a9c       0xac d:/program files/microchip/xc32/v2.50/bin/bin/../../lib/gcc/pic32mx/4.8.3/../../../../pic32mx/lib/micromips\libpic32.a(_mon_putc.o)
                0x9d015a9d                _mon_putc

.text._Atrealloc
                0x9d015b48       0xa8
 .text._Atrealloc
                0x9d015b48       0xa8 d:/program files/microchip/xc32/v2.50/bin/bin/../../lib/gcc/pic32mx/4.8.3/../../../../pic32mx/lib/micromips\libxcpp.a(exit.o)
                0x9d015b49                _Atrealloc

.text.exit      0x9d015bf0       0x9c
 .text.exit     0x9d015bf0       0x9c d:/program files/microchip/xc32/v2.50/bin/bin/../../lib/gcc/pic32mx/4.8.3/../../../../pic32mx/lib/micromips\libxcpp.a(exit.o)
                0x9d015bf1                exit

.text.free      0x9d015c8c       0x9c
 .text.free     0x9d015c8c       0x9c d:/program files/microchip/xc32/v2.50/bin/bin/../../lib/gcc/pic32mx/4.8.3/../../../../pic32mx/lib/micromips\libxcpp.a(free.o)
                0x9d015c8d                free

.text.cmp_era_date
                0x9d015d28       0x9c
 .text.cmp_era_date
                0x9d015d28       0x9c d:/program files/microchip/xc32/v2.50/bin/bin/../../lib/gcc/pic32mx/4.8.3/../../../../pic32mx/lib/micromips\libxcpp.a(xgentime.o)

.text.fclose    0x9d015dc4       0x98
 .text.fclose   0x9d015dc4       0x98 d:/program files/microchip/xc32/v2.50/bin/bin/../../lib/gcc/pic32mx/4.8.3/../../../../pic32mx/lib/micromips\libxcpp.a(fclose.o)
                0x9d015dc5                fclose

.text._Fgpos    0x9d015e5c       0x98
 .text._Fgpos   0x9d015e5c       0x98 d:/program files/microchip/xc32/v2.50/bin/bin/../../lib/gcc/pic32mx/4.8.3/../../../../pic32mx/lib/micromips\libxcpp.a(xfgpos.o)
                0x9d015e5d                _Fgpos

.text.__cxa_end_catch
                0x9d015ef4       0x90
 .text.__cxa_end_catch
                0x9d015ef4       0x90 d:/program files/microchip/xc32/v2.50/bin/bin/../../lib/gcc/pic32mx/4.8.3/../../../../pic32mx/lib/micromips\libsupc++.a(eh_catch.o)
                0x9d015ef5                __cxa_end_catch

.text._ZNSoC1ESt14_Uninitializedb.isra.51.constprop.90
                0x9d015f84       0x90
 .text._ZNSoC1ESt14_Uninitializedb.isra.51.constprop.90
                0x9d015f84       0x90 d:/program files/microchip/xc32/v2.50/bin/bin/../../lib/gcc/pic32mx/4.8.3/../../../../pic32mx/lib/micromips\libxcpp.a(iostream.o)

.text._ZNSt13basic_ostreamIwSt11char_traitsIwEEC1ESt14_Uninitializedb.isra.53.constprop.90
                0x9d016014       0x90
 .text._ZNSt13basic_ostreamIwSt11char_traitsIwEEC1ESt14_Uninitializedb.isra.53.constprop.90
                0x9d016014       0x90 d:/program files/microchip/xc32/v2.50/bin/bin/../../lib/gcc/pic32mx/4.8.3/../../../../pic32mx/lib/micromips\libxcpp.a(wiostrea.o)

.text.unescape  0x9d0160a4       0x90
 .text.unescape
                0x9d0160a4       0x90 d:/program files/microchip/xc32/v2.50/bin/bin/../../lib/gcc/pic32mx/4.8.3/../../../../pic32mx/lib/micromips\libxcpp.a(xmakeloc.o)

.rodata         0x9d016134       0x8c
 .rodata        0x9d016134       0x8c d:/program files/microchip/xc32/v2.50/bin/bin/../../lib/gcc/pic32mx/4.8.3/../../../../pic32mx/lib/micromips\libxcpp.a(iostream.o)

.text._ZSt18_Xinvalid_argumentPKc
                0x9d0161c0       0x8c
 .text._ZSt18_Xinvalid_argumentPKc
                0x9d0161c0       0x8c d:/program files/microchip/xc32/v2.50/bin/bin/../../lib/gcc/pic32mx/4.8.3/../../../../pic32mx/lib/micromips\libxcpp.a(xthrow.o)
                0x9d0161c1                std::_Xinvalid_argument(char const*)

.text._ZSt14_Xlength_errorPKc
                0x9d01624c       0x8c
 .text._ZSt14_Xlength_errorPKc
                0x9d01624c       0x8c d:/program files/microchip/xc32/v2.50/bin/bin/../../lib/gcc/pic32mx/4.8.3/../../../../pic32mx/lib/micromips\libxcpp.a(xthrow.o)
                0x9d01624d                std::_Xlength_error(char const*)

.text._ZSt14_Xout_of_rangePKc
                0x9d0162d8       0x8c
 .text._ZSt14_Xout_of_rangePKc
                0x9d0162d8       0x8c d:/program files/microchip/xc32/v2.50/bin/bin/../../lib/gcc/pic32mx/4.8.3/../../../../pic32mx/lib/micromips\libxcpp.a(xthrow.o)
                0x9d0162d9                std::_Xout_of_range(char const*)

.rodata         0x9d016364      0x118
 .rodata        0x9d016364       0x8c d:/program files/microchip/xc32/v2.50/bin/bin/../../lib/gcc/pic32mx/4.8.3/../../../../pic32mx/lib/micromips\libxcpp.a(wiostrea.o)
 .rodata        0x9d0163f0       0x8c d:/program files/microchip/xc32/v2.50/bin/bin/../../lib/gcc/pic32mx/4.8.3/../../../../pic32mx/lib/micromips\libxcpp.a(xdefloc.o)

.rodata         0x9d01647c       0x88
 .rodata        0x9d01647c       0x88 build/default/production/main.o

.text._Wctomb   0x9d016504       0x88
 .text._Wctomb  0x9d016504       0x88 d:/program files/microchip/xc32/v2.50/bin/bin/../../lib/gcc/pic32mx/4.8.3/../../../../pic32mx/lib/micromips\libxcpp.a(xwctomb.o)
                0x9d016505                _Wctomb

.text.getval.isra.0
                0x9d01658c       0x84
 .text.getval.isra.0
                0x9d01658c       0x84 d:/program files/microchip/xc32/v2.50/bin/bin/../../lib/gcc/pic32mx/4.8.3/../../../../pic32mx/lib/micromips\libxcpp.a(xgentime.o)

.text._sbrk     0x9d016610       0x84
 .text._sbrk    0x9d016610       0x84 d:/program files/microchip/xc32/v2.50/bin/bin/../../lib/gcc/pic32mx/4.8.3/../../../../pic32mx/lib/micromips\libpic32.a(sbrk.o)
                0x9d016611                _sbrk

.text.__cxa_begin_catch
                0x9d016694       0x80
 .text.__cxa_begin_catch
                0x9d016694       0x80 d:/program files/microchip/xc32/v2.50/bin/bin/../../lib/gcc/pic32mx/4.8.3/../../../../pic32mx/lib/micromips\libsupc++.a(eh_catch.o)
                0x9d016695                __cxa_begin_catch

.text.general_exception
                0x9d016714       0x80
 .text.general_exception
                0x9d016714       0x80 d:/program files/microchip/xc32/v2.50/bin/bin/../../lib/gcc/pic32mx/4.8.3/../../../../pic32mx/lib/micromips\libpic32.a(general-exception.o)
                0x9d016715                _general_exception_context

.rodata         0x9d016794       0x80
 .rodata        0x9d016794       0x80 d:/program files/microchip/xc32/v2.50/bin/bin/../../lib/gcc/pic32mx/4.8.3/../../../../pic32mx/lib/micromips\libxcpp.a(xlocterm.o)

.text           0x9d016814       0x7c
 .text          0x9d016814       0x7c d:/program files/microchip/xc32/v2.50/bin/bin/../../lib/gcc/pic32mx/4.8.3/../../../../pic32mx/lib/micromips\libpic32.a(memset.o)
                0x9d016815                memset

.text._ZNK10__cxxabiv117__class_type_info12__do_dyncastElNS0_10__sub_kindEPKS0_PKvS3_S5_RNS0_16__dyncast_resultE
                0x9d016890       0x78
 .text._ZNK10__cxxabiv117__class_type_info12__do_dyncastElNS0_10__sub_kindEPKS0_PKvS3_S5_RNS0_16__dyncast_resultE
                0x9d016890       0x78 d:/program files/microchip/xc32/v2.50/bin/bin/../../lib/gcc/pic32mx/4.8.3/../../../../pic32mx/lib/micromips\libsupc++.a(class_type_info.o)
                0x9d016891                __cxxabiv1::__class_type_info::__do_dyncast(long, __cxxabiv1::__class_type_info::__sub_kind, __cxxabiv1::__class_type_info const*, void const*, __cxxabiv1::__class_type_info const*, void const*, __cxxabiv1::__class_type_info::__dyncast_result&) const

.text._ZNSt6locale7_LocimpD2Ev
                0x9d016908       0x78
 .text._ZNSt6locale7_LocimpD2Ev
                0x9d016908       0x78 d:/program files/microchip/xc32/v2.50/bin/bin/../../lib/gcc/pic32mx/4.8.3/../../../../pic32mx/lib/micromips\libxcpp.a(locale0.o)
                0x9d016909                std::locale::_Locimp::~_Locimp()
                0x9d016909                std::locale::_Locimp::~_Locimp()

.text.fputc     0x9d016980       0x78
 .text.fputc    0x9d016980       0x78 d:/program files/microchip/xc32/v2.50/bin/bin/../../lib/gcc/pic32mx/4.8.3/../../../../pic32mx/lib/micromips\libxcpp.a(fputc.o)
                0x9d016981                fputc

.text._ZL21base_of_encoded_valuehP15_Unwind_Context
                0x9d00018c       0x74
 .text._ZL21base_of_encoded_valuehP15_Unwind_Context
                0x9d00018c       0x74 d:/program files/microchip/xc32/v2.50/bin/bin/../../lib/gcc/pic32mx/4.8.3/../../../../pic32mx/lib/micromips\libsupc++.a(eh_personality.o)

.text.__cxa_throw
                0x9d0169f8       0x74
 .text.__cxa_throw
                0x9d0169f8       0x74 d:/program files/microchip/xc32/v2.50/bin/bin/../../lib/gcc/pic32mx/4.8.3/../../../../pic32mx/lib/micromips\libsupc++.a(eh_throw.o)
                0x9d0169f9                __cxa_throw

.text           0x9d016a6c       0x74
 .text          0x9d016a6c       0x74 d:/program files/microchip/xc32/v2.50/bin/bin/../../lib/gcc/pic32mx/4.8.3/../../../../pic32mx/lib/micromips\libpic32.a(pic32_data_init.o)
                0x9d016a6d                __pic32_data_init

.text.__cxa_allocate_exception
                0x9d016ae0       0x6c
 .text.__cxa_allocate_exception
                0x9d016ae0       0x6c d:/program files/microchip/xc32/v2.50/bin/bin/../../lib/gcc/pic32mx/4.8.3/../../../../pic32mx/lib/micromips\libsupc++.a(eh_alloc.o)
                0x9d016ae1                __cxa_allocate_exception

.text._ZL21size_of_encoded_valueh
                0x9d016b4c       0x6c
 .text._ZL21size_of_encoded_valueh
                0x9d016b4c       0x6c d:/program files/microchip/xc32/v2.50/bin/bin/../../lib/gcc/pic32mx/4.8.3/../../../../pic32mx/lib/micromips\libsupc++.a(eh_personality.o)

.rodata         0x9d016bb8       0x6c
 .rodata        0x9d016bb8       0x6c d:/program files/microchip/xc32/v2.50/bin/bin/../../lib/gcc/pic32mx/4.8.3/../../../../pic32mx/lib/micromips\libxcpp.a(setlocal.o)

.text._Defloc   0x9d016c24       0x6c
 .text._Defloc  0x9d016c24       0x6c d:/program files/microchip/xc32/v2.50/bin/bin/../../lib/gcc/pic32mx/4.8.3/../../../../pic32mx/lib/micromips\libxcpp.a(xdefloc.o)
                0x9d016c25                _Defloc

.rodata         0x9d016c90       0x6c
 .rodata        0x9d016c90       0x6c d:/program files/microchip/xc32/v2.50/bin/bin/../../lib/gcc/pic32mx/4.8.3/../../../../pic32mx/lib/micromips\libxcpp.a(syserror.o)

.text.__cxa_rethrow
                0x9d016cfc       0x68
 .text.__cxa_rethrow
                0x9d016cfc       0x68 d:/program files/microchip/xc32/v2.50/bin/bin/../../lib/gcc/pic32mx/4.8.3/../../../../pic32mx/lib/micromips\libsupc++.a(eh_throw.o)
                0x9d016cfd                __cxa_rethrow

.text._Atexit   0x9d016d64       0x68
 .text._Atexit  0x9d016d64       0x68 d:/program files/microchip/xc32/v2.50/bin/bin/../../lib/gcc/pic32mx/4.8.3/../../../../pic32mx/lib/micromips\libxcpp.a(xatexit.o)
                0x9d016d65                _Atexit

.text.fgetc     0x9d016dcc       0x64
 .text.fgetc    0x9d016dcc       0x64 d:/program files/microchip/xc32/v2.50/bin/bin/../../lib/gcc/pic32mx/4.8.3/../../../../pic32mx/lib/micromips\libxcpp.a(fgetc.o)
                0x9d016dcd                fgetc

.text._Fofree   0x9d016e30       0x64
 .text._Fofree  0x9d016e30       0x64 d:/program files/microchip/xc32/v2.50/bin/bin/../../lib/gcc/pic32mx/4.8.3/../../../../pic32mx/lib/micromips\libxcpp.a(xfofind.o)
                0x9d016e31                _Fofree

.text._ZNK10__cxxabiv117__class_type_info10__do_catchEPKSt9type_infoPPvj
                0x9d016e94       0x60
 .text._ZNK10__cxxabiv117__class_type_info10__do_catchEPKSt9type_infoPPvj
                0x9d016e94       0x60 d:/program files/microchip/xc32/v2.50/bin/bin/../../lib/gcc/pic32mx/4.8.3/../../../../pic32mx/lib/micromips\libsupc++.a(class_type_info.o)
                0x9d016e95                __cxxabiv1::__class_type_info::__do_catch(std::type_info const*, void**, unsigned int) const

.text.__cxa_allocate_dependent_exception
                0x9d016ef4       0x60
 .text.__cxa_allocate_dependent_exception
                0x9d016ef4       0x60 d:/program files/microchip/xc32/v2.50/bin/bin/../../lib/gcc/pic32mx/4.8.3/../../../../pic32mx/lib/micromips\libsupc++.a(eh_alloc.o)
                0x9d016ef5                __cxa_allocate_dependent_exception

.text._Znwm     0x9d016f54       0x60
 .text._Znwm    0x9d016f54       0x60 d:/program files/microchip/xc32/v2.50/bin/bin/../../lib/gcc/pic32mx/4.8.3/../../../../pic32mx/lib/micromips\libsupc++.a(new_op.o)
                0x9d016f55                operator new(unsigned long)

.text._ZNSt6locale5emptyEv
                0x9d016fb4       0x60
 .text._ZNSt6locale5emptyEv
                0x9d016fb4       0x60 d:/program files/microchip/xc32/v2.50/bin/bin/../../lib/gcc/pic32mx/4.8.3/../../../../pic32mx/lib/micromips\libxcpp.a(locale0.o)
                0x9d016fb5                std::locale::empty()

.text._GLOBAL__sub_I__ZSt16generic_categoryv
                0x9d017014       0x60
 .text._GLOBAL__sub_I__ZSt16generic_categoryv
                0x9d017014       0x60 d:/program files/microchip/xc32/v2.50/bin/bin/../../lib/gcc/pic32mx/4.8.3/../../../../pic32mx/lib/micromips\libxcpp.a(syserror.o)

.text._Fopen    0x9d017074       0x5c
 .text._Fopen   0x9d017074       0x5c d:/program files/microchip/xc32/v2.50/bin/bin/../../lib/gcc/pic32mx/4.8.3/../../../../pic32mx/lib/micromips\libxcpp.a(xfopen.o)
                0x9d017075                _Fopen

.text.write     0x9d0170d0       0x5c
 .text.write    0x9d0170d0       0x5c d:/program files/microchip/xc32/v2.50/bin/bin/../../lib/gcc/pic32mx/4.8.3/../../../../pic32mx/lib/micromips\libpic32.a(write.o)
                0x9d0170d1                write

.text._ZN10__cxxabiv111__terminateEPFvvE
                0x9d01712c       0x58
 .text._ZN10__cxxabiv111__terminateEPFvvE
                0x9d01712c       0x58 d:/program files/microchip/xc32/v2.50/bin/bin/../../lib/gcc/pic32mx/4.8.3/../../../../pic32mx/lib/micromips\libsupc++.a(eh_terminate.o)
                0x9d01712d                __cxxabiv1::__terminate(void (*)())

.text._Fofind   0x9d017184       0x58
 .text._Fofind  0x9d017184       0x58 d:/program files/microchip/xc32/v2.50/bin/bin/../../lib/gcc/pic32mx/4.8.3/../../../../pic32mx/lib/micromips\libxcpp.a(xfofind.o)
                0x9d017185                _Fofind

.text._Gettime  0x9d0171dc       0x58
 .text._Gettime
                0x9d0171dc       0x58 d:/program files/microchip/xc32/v2.50/bin/bin/../../lib/gcc/pic32mx/4.8.3/../../../../pic32mx/lib/micromips\libxcpp.a(xgettime.o)
                0x9d0171dd                _Gettime

.text._ZL20check_exception_specP16lsda_header_infoPKSt9type_infoPvl
                0x9d017234       0x54
 .text._ZL20check_exception_specP16lsda_header_infoPKSt9type_infoPvl
                0x9d017234       0x54 d:/program files/microchip/xc32/v2.50/bin/bin/../../lib/gcc/pic32mx/4.8.3/../../../../pic32mx/lib/micromips\libsupc++.a(eh_personality.o)

.text.__cxa_free_exception
                0x9d017288       0x50
 .text.__cxa_free_exception
                0x9d017288       0x50 d:/program files/microchip/xc32/v2.50/bin/bin/../../lib/gcc/pic32mx/4.8.3/../../../../pic32mx/lib/micromips\libsupc++.a(eh_alloc.o)
                0x9d017289                __cxa_free_exception

.text.__cxa_free_dependent_exception
                0x9d0172d8       0x50
 .text.__cxa_free_dependent_exception
                0x9d0172d8       0x50 d:/program files/microchip/xc32/v2.50/bin/bin/../../lib/gcc/pic32mx/4.8.3/../../../../pic32mx/lib/micromips\libsupc++.a(eh_alloc.o)
                0x9d0172d9                __cxa_free_dependent_exception

.text._ZL23__gxx_exception_cleanup19_Unwind_Reason_CodeP17_Unwind_Exception
                0x9d017328       0x50
 .text._ZL23__gxx_exception_cleanup19_Unwind_Reason_CodeP17_Unwind_Exception
                0x9d017328       0x50 d:/program files/microchip/xc32/v2.50/bin/bin/../../lib/gcc/pic32mx/4.8.3/../../../../pic32mx/lib/micromips\libsupc++.a(eh_throw.o)

.text._ZNK10__cxxabiv120__si_class_type_info20__do_find_public_srcElPKvPKNS_17__class_type_infoES2_
                0x9d017378       0x50
 .text._ZNK10__cxxabiv120__si_class_type_info20__do_find_public_srcElPKvPKNS_17__class_type_infoES2_
                0x9d017378       0x50 d:/program files/microchip/xc32/v2.50/bin/bin/../../lib/gcc/pic32mx/4.8.3/../../../../pic32mx/lib/micromips\libsupc++.a(si_class_type_info.o)
                0x9d017379                __cxxabiv1::__si_class_type_info::__do_find_public_src(long, void const*, __cxxabiv1::__class_type_info const*, void const*) const

.text._ZNSt6locale5facet9_RegisterEv
                0x9d0173c8       0x50
 .text._ZNSt6locale5facet9_RegisterEv
                0x9d0173c8       0x50 d:/program files/microchip/xc32/v2.50/bin/bin/../../lib/gcc/pic32mx/4.8.3/../../../../pic32mx/lib/micromips\libxcpp.a(locale0.o)
                0x9d0173c9                std::locale::facet::_Register()

.text.atexit    0x9d017418       0x50
 .text.atexit   0x9d017418       0x50 d:/program files/microchip/xc32/v2.50/bin/bin/../../lib/gcc/pic32mx/4.8.3/../../../../pic32mx/lib/micromips\libxcpp.a(exit.o)
                0x9d017419                atexit

.text.ungetc    0x9d017468       0x50
 .text.ungetc   0x9d017468       0x50 d:/program files/microchip/xc32/v2.50/bin/bin/../../lib/gcc/pic32mx/4.8.3/../../../../pic32mx/lib/micromips\libxcpp.a(ungetc.o)
                0x9d017469                ungetc

.rodata         0x9d0174b8       0x50
 .rodata        0x9d0174b8       0x50 d:/program files/microchip/xc32/v2.50/bin/bin/../../lib/gcc/pic32mx/4.8.3/../../../../pic32mx/lib/micromips\libxcpp.a(xstoul.o)

.text._Fac_tidy
                0x9d017508       0x4c
 .text._Fac_tidy
                0x9d017508       0x4c d:/program files/microchip/xc32/v2.50/bin/bin/../../lib/gcc/pic32mx/4.8.3/../../../../pic32mx/lib/micromips\libxcpp.a(locale0.o)
                0x9d017509                _Fac_tidy

.text.__cxa_call_terminate
                0x9d017554       0x48
 .text.__cxa_call_terminate
                0x9d017554       0x48 d:/program files/microchip/xc32/v2.50/bin/bin/../../lib/gcc/pic32mx/4.8.3/../../../../pic32mx/lib/micromips\libsupc++.a(eh_call.o)
                0x9d017555                __cxa_call_terminate

.text._ZSt9_AllocateIcEPT_mS1_.isra.62
                0x9d01759c       0x48
 .text._ZSt9_AllocateIcEPT_mS1_.isra.62
                0x9d01759c       0x48 d:/program files/microchip/xc32/v2.50/bin/bin/../../lib/gcc/pic32mx/4.8.3/../../../../pic32mx/lib/micromips\libxcpp.a(iostream.o)

.text._ZNSt15basic_streambufIcSt11char_traitsIcEED2Ev.isra.49
                0x9d0175e4       0x48
 .text._ZNSt15basic_streambufIcSt11char_traitsIcEED2Ev.isra.49
                0x9d0175e4       0x48 d:/program files/microchip/xc32/v2.50/bin/bin/../../lib/gcc/pic32mx/4.8.3/../../../../pic32mx/lib/micromips\libxcpp.a(iostream.o)

.text._ZSt9_AllocateIcEPT_mS1_.isra.12
                0x9d01762c       0x48
 .text._ZSt9_AllocateIcEPT_mS1_.isra.12
                0x9d01762c       0x48 d:/program files/microchip/xc32/v2.50/bin/bin/../../lib/gcc/pic32mx/4.8.3/../../../../pic32mx/lib/micromips\libxcpp.a(xthrow.o)

.text._ZSt9_AllocateIcEPT_mS1_.isra.64
                0x9d017674       0x48
 .text._ZSt9_AllocateIcEPT_mS1_.isra.64
                0x9d017674       0x48 d:/program files/microchip/xc32/v2.50/bin/bin/../../lib/gcc/pic32mx/4.8.3/../../../../pic32mx/lib/micromips\libxcpp.a(wiostrea.o)

.text._ZNSt15basic_streambufIwSt11char_traitsIwEED2Ev.isra.51
                0x9d0176bc       0x48
 .text._ZNSt15basic_streambufIwSt11char_traitsIwEED2Ev.isra.51
                0x9d0176bc       0x48 d:/program files/microchip/xc32/v2.50/bin/bin/../../lib/gcc/pic32mx/4.8.3/../../../../pic32mx/lib/micromips\libxcpp.a(wiostrea.o)

.text._ZNSt6locale7_LocimpC2Eb
                0x9d017704       0x48
 .text._ZNSt6locale7_LocimpC2Eb
                0x9d017704       0x48 d:/program files/microchip/xc32/v2.50/bin/bin/../../lib/gcc/pic32mx/4.8.3/../../../../pic32mx/lib/micromips\libxcpp.a(locale0.o)
                0x9d017705                std::locale::_Locimp::_Locimp(bool)
                0x9d017705                std::locale::_Locimp::_Locimp(bool)

.rodata         0x9d01774c       0x48
 .rodata        0x9d01774c       0x48 d:/program files/microchip/xc32/v2.50/bin/bin/../../lib/gcc/pic32mx/4.8.3/../../../../pic32mx/lib/micromips\libxcpp.a(xwctrtab.o)

.text._ZSt9_AllocateIcEPT_mS1_.isra.19
                0x9d017794       0x48
 .text._ZSt9_AllocateIcEPT_mS1_.isra.19
                0x9d017794       0x48 d:/program files/microchip/xc32/v2.50/bin/bin/../../lib/gcc/pic32mx/4.8.3/../../../../pic32mx/lib/micromips\libxcpp.a(syserror.o)

.rodata         0x9d0177dc       0x48
 .rodata        0x9d0177dc       0x48 d:/program files/microchip/xc32/v2.50/bin/bin/../../lib/gcc/pic32mx/4.8.3/../../../../pic32mx/lib/micromips\libxcpp.a(xmakeloc.o)

.text.strncmp   0x9d017824       0x48
 .text.strncmp  0x9d017824       0x48 d:/program files/microchip/xc32/v2.50/bin/bin/../../lib/gcc/pic32mx/4.8.3/../../../../pic32mx/lib/micromips\libxcpp.a(strncmp.o)
                0x9d017825                strncmp

.text.main_entry
                0x9d01786c       0x44
 .text.main_entry
                0x9d01786c       0x44 C:\Users\hoang\AppData\Local\Temp\ccMoW1mQ.o
                0x9d017897                __crt0_exit

.text._ZNK10__cxxabiv117__class_type_info11__do_upcastEPKS0_PKvRNS0_15__upcast_resultE
                0x9d0178b0       0x40
 .text._ZNK10__cxxabiv117__class_type_info11__do_upcastEPKS0_PKvRNS0_15__upcast_resultE
                0x9d0178b0       0x40 d:/program files/microchip/xc32/v2.50/bin/bin/../../lib/gcc/pic32mx/4.8.3/../../../../pic32mx/lib/micromips\libsupc++.a(class_type_info.o)
                0x9d0178b1                __cxxabiv1::__class_type_info::__do_upcast(__cxxabiv1::__class_type_info const*, void const*, __cxxabiv1::__class_type_info::__upcast_result&) const

.text           0x9d0178f0       0x40
 .text          0x9d0178f0       0x40 d:/program files/microchip/xc32/v2.50/bin/bin/../../lib/gcc/pic32mx/4.8.3/../../../../pic32mx/lib/micromips\pic32_software_reset-mm.o
                0x9d0178f1                __pic32_software_reset

.text._ZNSt8_LocinfoD2Ev
                0x9d017930       0x40
 .text._ZNSt8_LocinfoD2Ev
                0x9d017930       0x40 d:/program files/microchip/xc32/v2.50/bin/bin/../../lib/gcc/pic32mx/4.8.3/../../../../pic32mx/lib/micromips\libxcpp.a(locale0.o)
                0x9d017931                std::_Locinfo::~_Locinfo()
                0x9d017931                std::_Locinfo::~_Locinfo()

.text.memmove   0x9d017970       0x40
 .text.memmove  0x9d017970       0x40 d:/program files/microchip/xc32/v2.50/bin/bin/../../lib/gcc/pic32mx/4.8.3/../../../../pic32mx/lib/micromips\libxcpp.a(memmove.o)
                0x9d017971                memmove

.text._ZNSt8ios_base7_AddstdEPS_
                0x9d0179b0       0x40
 .text._ZNSt8ios_base7_AddstdEPS_
                0x9d0179b0       0x40 d:/program files/microchip/xc32/v2.50/bin/bin/../../lib/gcc/pic32mx/4.8.3/../../../../pic32mx/lib/micromips\libxcpp.a(ios.o)
                0x9d0179b1                std::ios_base::_Addstd(std::ios_base*)

.text.strspn    0x9d0179f0       0x40
 .text.strspn   0x9d0179f0       0x40 d:/program files/microchip/xc32/v2.50/bin/bin/../../lib/gcc/pic32mx/4.8.3/../../../../pic32mx/lib/micromips\libxcpp.a(strspn.o)
                0x9d0179f1                strspn

.text._Locvar   0x9d017a30       0x40
 .text._Locvar  0x9d017a30       0x40 d:/program files/microchip/xc32/v2.50/bin/bin/../../lib/gcc/pic32mx/4.8.3/../../../../pic32mx/lib/micromips\libxcpp.a(xlocterm.o)
                0x9d017a31                _Locvar

.text._ZL16get_adjusted_ptrPKSt9type_infoS1_PPv
                0x9d017a70       0x3c
 .text._ZL16get_adjusted_ptrPKSt9type_infoS1_PPv
                0x9d017a70       0x3c d:/program files/microchip/xc32/v2.50/bin/bin/../../lib/gcc/pic32mx/4.8.3/../../../../pic32mx/lib/micromips\libsupc++.a(eh_personality.o)

.text.closeall  0x9d017aac       0x3c
 .text.closeall
                0x9d017aac       0x3c d:/program files/microchip/xc32/v2.50/bin/bin/../../lib/gcc/pic32mx/4.8.3/../../../../pic32mx/lib/micromips\libxcpp.a(fclose.o)

.text.ungetwc   0x9d017ae8       0x3c
 .text.ungetwc  0x9d017ae8       0x3c d:/program files/microchip/xc32/v2.50/bin/bin/../../lib/gcc/pic32mx/4.8.3/../../../../pic32mx/lib/micromips\libxcpp.a(ungetwc.o)
                0x9d017ae9                ungetwc

.text.freeall   0x9d017b24       0x3c
 .text.freeall  0x9d017b24       0x3c d:/program files/microchip/xc32/v2.50/bin/bin/../../lib/gcc/pic32mx/4.8.3/../../../../pic32mx/lib/micromips\libxcpp.a(xgetloc.o)

.text._Mbtowc   0x9d017b60       0x3c
 .text._Mbtowc  0x9d017b60       0x3c d:/program files/microchip/xc32/v2.50/bin/bin/../../lib/gcc/pic32mx/4.8.3/../../../../pic32mx/lib/micromips\libxcpp.a(xmbtowc.o)
                0x9d017b61                _Mbtowc

.text.strcspn   0x9d017b9c       0x3c
 .text.strcspn  0x9d017b9c       0x3c d:/program files/microchip/xc32/v2.50/bin/bin/../../lib/gcc/pic32mx/4.8.3/../../../../pic32mx/lib/micromips\libxcpp.a(strcspn.o)
                0x9d017b9d                strcspn

.rodata         0x9d017bd8       0x3c
 .rodata        0x9d017bd8       0x3c d:/program files/microchip/xc32/v2.50/bin/bin/../../lib/gcc/pic32mx/4.8.3/../../../../pic32mx/lib/micromips\libxcpp.a(xgentime.o)

.text._Locsum   0x9d017c14       0x3c
 .text._Locsum  0x9d017c14       0x3c d:/program files/microchip/xc32/v2.50/bin/bin/../../lib/gcc/pic32mx/4.8.3/../../../../pic32mx/lib/micromips\libxcpp.a(xmakeloc.o)
                0x9d017c15                _Locsum

.text._ZNK10__cxxabiv117__class_type_info11__do_upcastEPKS0_PPv
                0x9d017c50       0x38
 .text._ZNK10__cxxabiv117__class_type_info11__do_upcastEPKS0_PPv
                0x9d017c50       0x38 d:/program files/microchip/xc32/v2.50/bin/bin/../../lib/gcc/pic32mx/4.8.3/../../../../pic32mx/lib/micromips\libsupc++.a(class_type_info.o)
                0x9d017c51                __cxxabiv1::__class_type_info::__do_upcast(__cxxabiv1::__class_type_info const*, void**) const

.text._ZL12read_sleb128PKhPl
                0x9d017c88       0x38
 .text._ZL12read_sleb128PKhPl
                0x9d017c88       0x38 d:/program files/microchip/xc32/v2.50/bin/bin/../../lib/gcc/pic32mx/4.8.3/../../../../pic32mx/lib/micromips\libsupc++.a(eh_personality.o)

.rodata         0x9d017cc0       0x38
 .rodata        0x9d017cc0       0x38 d:/program files/microchip/xc32/v2.50/bin/bin/../../lib/gcc/pic32mx/4.8.3/../../../../pic32mx/lib/micromips\libxcpp.a(xthrow.o)

.text.memcmp    0x9d017cf8       0x38
 .text.memcmp   0x9d017cf8       0x38 d:/program files/microchip/xc32/v2.50/bin/bin/../../lib/gcc/pic32mx/4.8.3/../../../../pic32mx/lib/micromips\libxcpp.a(memcmp.o)
                0x9d017cf9                memcmp

.rodata         0x9d017d30       0x38
 .rodata        0x9d017d30       0x38 d:/program files/microchip/xc32/v2.50/bin/bin/../../lib/gcc/pic32mx/4.8.3/../../../../pic32mx/lib/micromips\libxcpp.a(xreadloc.o)

.text._ZNKSt9type_info10__do_catchEPKS_PPvj
                0x9d017d68       0x34
 .text._ZNKSt9type_info10__do_catchEPKS_PPvj
                0x9d017d68       0x34 d:/program files/microchip/xc32/v2.50/bin/bin/../../lib/gcc/pic32mx/4.8.3/../../../../pic32mx/lib/micromips\libsupc++.a(tinfo.o)
                0x9d017d69                std::type_info::__do_catch(std::type_info const*, void**, unsigned int) const

.text._bootstrap_exception_handler
                0x9d017d9c       0x34
 .text._bootstrap_exception_handler
                0x9d017d9c       0x34 d:/program files/microchip/xc32/v2.50/bin/bin/../../lib/gcc/pic32mx/4.8.3/../../../../pic32mx/lib/micromips\libpic32.a(default-bootstrap-exception-handler.o)
                0x9d017d9d                _bootstrap_exception_handler

.text._general_exception_handler
                0x9d017dd0       0x34
 .text._general_exception_handler
                0x9d017dd0       0x34 d:/program files/microchip/xc32/v2.50/bin/bin/../../lib/gcc/pic32mx/4.8.3/../../../../pic32mx/lib/micromips\libpic32.a(default-general-exception-handler.o)
                0x9d017dd1                _general_exception_handler

.rodata         0x9d017e04       0x34
 .rodata        0x9d017e04       0x34 d:/program files/microchip/xc32/v2.50/bin/bin/../../lib/gcc/pic32mx/4.8.3/../../../../pic32mx/lib/micromips\libxcpp.a(xgetzone.o)

.text           0x9d017e38       0x34
 .text          0x9d017e38       0x34 d:/program files/microchip/xc32/v2.50/bin/bin/../../lib/gcc/pic32mx/4.8.3/micromips/crtend.o

.text._ZL15get_ttype_entryP16lsda_header_infom
                0x9d017e6c       0x30
 .text._ZL15get_ttype_entryP16lsda_header_infom
                0x9d017e6c       0x30 d:/program files/microchip/xc32/v2.50/bin/bin/../../lib/gcc/pic32mx/4.8.3/../../../../pic32mx/lib/micromips\libsupc++.a(eh_personality.o)

.vector_default
                0x9d017e9c       0x30
 .vector_default
                0x9d017e9c       0x30 d:/program files/microchip/xc32/v2.50/bin/bin/../../lib/gcc/pic32mx/4.8.3/../../../../pic32mx/lib/micromips\libpic32.a(defaultinterrupt.o)
                0x9d017e9d                _DefaultInterrupt

.text._Deletegloballocale
                0x9d017ecc       0x30
 .text._Deletegloballocale
                0x9d017ecc       0x30 d:/program files/microchip/xc32/v2.50/bin/bin/../../lib/gcc/pic32mx/4.8.3/../../../../pic32mx/lib/micromips\libxcpp.a(locale0.o)
                0x9d017ecd                _Deletegloballocale

.text._Getptimes
                0x9d017efc       0x30
 .text._Getptimes
                0x9d017efc       0x30 d:/program files/microchip/xc32/v2.50/bin/bin/../../lib/gcc/pic32mx/4.8.3/../../../../pic32mx/lib/micromips\libxcpp.a(asctime.o)
                0x9d017efd                _Getptimes

.text.asctime   0x9d017f2c       0x30
 .text.asctime  0x9d017f2c       0x30 d:/program files/microchip/xc32/v2.50/bin/bin/../../lib/gcc/pic32mx/4.8.3/../../../../pic32mx/lib/micromips\libxcpp.a(asctime.o)
                0x9d017f2d                asctime

.text._Getcloc  0x9d017f5c       0x30
 .text._Getcloc
                0x9d017f5c       0x30 d:/program files/microchip/xc32/v2.50/bin/bin/../../lib/gcc/pic32mx/4.8.3/../../../../pic32mx/lib/micromips\libxcpp.a(setlocal.o)
                0x9d017f5d                _Getcloc

.text._Getpcostate
                0x9d017f8c       0x30
 .text._Getpcostate
                0x9d017f8c       0x30 d:/program files/microchip/xc32/v2.50/bin/bin/../../lib/gcc/pic32mx/4.8.3/../../../../pic32mx/lib/micromips\libxcpp.a(xcostate.o)
                0x9d017f8d                _Getpcostate

.text._Getpctype
                0x9d017fbc       0x30
 .text._Getpctype
                0x9d017fbc       0x30 d:/program files/microchip/xc32/v2.50/bin/bin/../../lib/gcc/pic32mx/4.8.3/../../../../pic32mx/lib/micromips\libxcpp.a(xctype.o)
                0x9d017fbd                _Getpctype

.text._Getmbcurmax
                0x9d017fec       0x30
 .text._Getmbcurmax
                0x9d017fec       0x30 d:/program files/microchip/xc32/v2.50/bin/bin/../../lib/gcc/pic32mx/4.8.3/../../../../pic32mx/lib/micromips\libxcpp.a(xstate.o)
                0x9d017fed                _Getmbcurmax

.text._Getpmbstate
                0x9d01801c       0x30
 .text._Getpmbstate
                0x9d01801c       0x30 d:/program files/microchip/xc32/v2.50/bin/bin/../../lib/gcc/pic32mx/4.8.3/../../../../pic32mx/lib/micromips\libxcpp.a(xstate.o)
                0x9d01801d                _Getpmbstate

.text._Getptolower
                0x9d01804c       0x30
 .text._Getptolower
                0x9d01804c       0x30 d:/program files/microchip/xc32/v2.50/bin/bin/../../lib/gcc/pic32mx/4.8.3/../../../../pic32mx/lib/micromips\libxcpp.a(xtolotab.o)
                0x9d01804d                _Getptolower

.text._Getptoupper
                0x9d01807c       0x30
 .text._Getptoupper
                0x9d01807c       0x30 d:/program files/microchip/xc32/v2.50/bin/bin/../../lib/gcc/pic32mx/4.8.3/../../../../pic32mx/lib/micromips\libxcpp.a(xtouptab.o)
                0x9d01807d                _Getptoupper

.text._Getpwcostate
                0x9d0180ac       0x30
 .text._Getpwcostate
                0x9d0180ac       0x30 d:/program files/microchip/xc32/v2.50/bin/bin/../../lib/gcc/pic32mx/4.8.3/../../../../pic32mx/lib/micromips\libxcpp.a(xwcostate.o)
                0x9d0180ad                _Getpwcostate

.text._Getpwcstate
                0x9d0180dc       0x30
 .text._Getpwcstate
                0x9d0180dc       0x30 d:/program files/microchip/xc32/v2.50/bin/bin/../../lib/gcc/pic32mx/4.8.3/../../../../pic32mx/lib/micromips\libxcpp.a(xwcstate.o)
                0x9d0180dd                _Getpwcstate

.text._Getpwctrtab
                0x9d01810c       0x30
 .text._Getpwctrtab
                0x9d01810c       0x30 d:/program files/microchip/xc32/v2.50/bin/bin/../../lib/gcc/pic32mx/4.8.3/../../../../pic32mx/lib/micromips\libxcpp.a(xwctrtab.o)
                0x9d01810d                _Getpwctrtab

.text._Getpwctytab
                0x9d01813c       0x30
 .text._Getpwctytab
                0x9d01813c       0x30 d:/program files/microchip/xc32/v2.50/bin/bin/../../lib/gcc/pic32mx/4.8.3/../../../../pic32mx/lib/micromips\libxcpp.a(xwctytab.o)
                0x9d01813d                _Getpwctytab

.text._Geterrno
                0x9d01816c       0x30
 .text._Geterrno
                0x9d01816c       0x30 d:/program files/microchip/xc32/v2.50/bin/bin/../../lib/gcc/pic32mx/4.8.3/../../../../pic32mx/lib/micromips\libxcpp.a(errno.o)
                0x9d01816d                _Geterrno

.rodata         0x9d01819c       0x30
 .rodata        0x9d01819c       0x30 d:/program files/microchip/xc32/v2.50/bin/bin/../../lib/gcc/pic32mx/4.8.3/../../../../pic32mx/lib/micromips\libxcpp.a(xfindloc.o)

.text._ZNK10__cxxabiv120__si_class_type_info11__do_upcastEPKNS_17__class_type_infoEPKvRNS1_15__upcast_resultE
                0x9d0181cc       0x2c
 .text._ZNK10__cxxabiv120__si_class_type_info11__do_upcastEPKNS_17__class_type_infoEPKvRNS1_15__upcast_resultE
                0x9d0181cc       0x2c d:/program files/microchip/xc32/v2.50/bin/bin/../../lib/gcc/pic32mx/4.8.3/../../../../pic32mx/lib/micromips\libsupc++.a(si_class_type_info.o)
                0x9d0181cd                __cxxabiv1::__si_class_type_info::__do_upcast(__cxxabiv1::__class_type_info const*, void const*, __cxxabiv1::__class_type_info::__upcast_result&) const

.text._GLOBAL__sub_I__Fac_tidy
                0x9d0181f8       0x2c
 .text._GLOBAL__sub_I__Fac_tidy
                0x9d0181f8       0x2c d:/program files/microchip/xc32/v2.50/bin/bin/../../lib/gcc/pic32mx/4.8.3/../../../../pic32mx/lib/micromips\libxcpp.a(locale0.o)

.text._Tls_setupx_namalloc
                0x9d018224       0x2c
 .text._Tls_setupx_namalloc
                0x9d018224       0x2c d:/program files/microchip/xc32/v2.50/bin/bin/../../lib/gcc/pic32mx/4.8.3/../../../../pic32mx/lib/micromips\libxcpp.a(setlocal.o)

.text._Tls_setupx_global_locale
                0x9d018250       0x2c
 .text._Tls_setupx_global_locale
                0x9d018250       0x2c d:/program files/microchip/xc32/v2.50/bin/bin/../../lib/gcc/pic32mx/4.8.3/../../../../pic32mx/lib/micromips\libxcpp.a(xgetglob.o)

.text.sbrk      0x9d01827c       0x2c
 .text.sbrk     0x9d01827c       0x2c d:/program files/microchip/xc32/v2.50/bin/bin/../../lib/gcc/pic32mx/4.8.3/../../../../pic32mx/lib/micromips\libpic32.a(sbrk.o)
                0x9d01827d                sbrk

.text._Closreg  0x9d0182a8       0x28
 .text._Closreg
                0x9d0182a8       0x28 d:/program files/microchip/xc32/v2.50/bin/bin/../../lib/gcc/pic32mx/4.8.3/../../../../pic32mx/lib/micromips\libxcpp.a(fclose.o)
                0x9d0182a9                _Closreg

.text.memchr    0x9d0182d0       0x28
 .text.memchr   0x9d0182d0       0x28 d:/program files/microchip/xc32/v2.50/bin/bin/../../lib/gcc/pic32mx/4.8.3/../../../../pic32mx/lib/micromips\libxcpp.a(memchr.o)
                0x9d0182d1                memchr

.text._Skip     0x9d0182f8       0x28
 .text._Skip    0x9d0182f8       0x28 d:/program files/microchip/xc32/v2.50/bin/bin/../../lib/gcc/pic32mx/4.8.3/../../../../pic32mx/lib/micromips\libxcpp.a(xfindloc.o)
                0x9d0182f9                _Skip

.text.fopen     0x9d018320       0x28
 .text.fopen    0x9d018320       0x28 d:/program files/microchip/xc32/v2.50/bin/bin/../../lib/gcc/pic32mx/4.8.3/../../../../pic32mx/lib/micromips\libxcpp.a(fopen.o)
                0x9d018321                fopen

.text._ZN10__cxxabiv117__class_type_infoD0Ev
                0x9d018348       0x24
 .text._ZN10__cxxabiv117__class_type_infoD0Ev
                0x9d018348       0x24 d:/program files/microchip/xc32/v2.50/bin/bin/../../lib/gcc/pic32mx/4.8.3/../../../../pic32mx/lib/micromips\libsupc++.a(class_type_info.o)
                0x9d018349                __cxxabiv1::__class_type_info::~__class_type_info()

.rodata         0x9d01836c       0x24
 .rodata        0x9d01836c       0x24 d:/program files/microchip/xc32/v2.50/bin/bin/../../lib/gcc/pic32mx/4.8.3/../../../../pic32mx/lib/micromips\libsupc++.a(eh_exception.o)

.text._ZN10__cxxabiv120__si_class_type_infoD0Ev
                0x9d018390       0x24
 .text._ZN10__cxxabiv120__si_class_type_infoD0Ev
                0x9d018390       0x24 d:/program files/microchip/xc32/v2.50/bin/bin/../../lib/gcc/pic32mx/4.8.3/../../../../pic32mx/lib/micromips\libsupc++.a(si_class_type_info.o)
                0x9d018391                __cxxabiv1::__si_class_type_info::~__si_class_type_info()

.text.remove    0x9d0183b4       0x24
 .text.remove   0x9d0183b4       0x24 d:/program files/microchip/xc32/v2.50/bin/bin/../../lib/gcc/pic32mx/4.8.3/../../../../pic32mx/lib/micromips\libxcpp.a(remove.o)
                0x9d0183b5                remove

.text._Getmem   0x9d0183d8       0x24
 .text._Getmem  0x9d0183d8       0x24 d:/program files/microchip/xc32/v2.50/bin/bin/../../lib/gcc/pic32mx/4.8.3/../../../../pic32mx/lib/micromips\libxcpp.a(xgetmem.o)
                0x9d0183d9                _Getmem

.text._Z41__static_initialization_and_destruction_0ii.part.6
                0x9d0183fc       0x24
 .text._Z41__static_initialization_and_destruction_0ii.part.6
                0x9d0183fc       0x24 d:/program files/microchip/xc32/v2.50/bin/bin/../../lib/gcc/pic32mx/4.8.3/../../../../pic32mx/lib/micromips\libxcpp.a(syserror.o)

.text.strchr    0x9d018420       0x24
 .text.strchr   0x9d018420       0x24 d:/program files/microchip/xc32/v2.50/bin/bin/../../lib/gcc/pic32mx/4.8.3/../../../../pic32mx/lib/micromips\libxcpp.a(strchr.o)
                0x9d018421                strchr

.text._ZN10__cxxabiv121__vmi_class_type_infoD0Ev
                0x9d018444       0x24
 .text._ZN10__cxxabiv121__vmi_class_type_infoD0Ev
                0x9d018444       0x24 d:/program files/microchip/xc32/v2.50/bin/bin/../../lib/gcc/pic32mx/4.8.3/../../../../pic32mx/lib/micromips\libsupc++.a(vmi_class_type_info.o)
                0x9d018445                __cxxabiv1::__vmi_class_type_info::~__vmi_class_type_info()

.text._stub_sbd_memlayout
                0x9d018468       0x24
 .text._stub_sbd_memlayout
                0x9d018468       0x24 d:/program files/microchip/xc32/v2.50/bin/bin/../../lib/gcc/pic32mx/4.8.3/../../../../pic32mx/lib/micromips\libpic32.a(sbrk.o)
                0x9d018469                _sbd_memlayout
                0x9d018469                _stub_sbd_memlayout

.text._ZN10__cxxabiv117__class_type_infoD2Ev
                0x9d01848c       0x1c
 .text._ZN10__cxxabiv117__class_type_infoD2Ev
                0x9d01848c       0x1c d:/program files/microchip/xc32/v2.50/bin/bin/../../lib/gcc/pic32mx/4.8.3/../../../../pic32mx/lib/micromips\libsupc++.a(class_type_info.o)
                0x9d01848d                __cxxabiv1::__class_type_info::~__class_type_info()
                0x9d01848d                __cxxabiv1::__class_type_info::~__class_type_info()

.text._ZNSt9exceptionD0Ev
                0x9d0184a8       0x1c
 .text._ZNSt9exceptionD0Ev
                0x9d0184a8       0x1c d:/program files/microchip/xc32/v2.50/bin/bin/../../lib/gcc/pic32mx/4.8.3/../../../../pic32mx/lib/micromips\libsupc++.a(eh_exception.o)
                0x9d0184a9                std::exception::~exception()

.text._ZNSt13bad_exceptionD0Ev
                0x9d0184c4       0x1c
 .text._ZNSt13bad_exceptionD0Ev
                0x9d0184c4       0x1c d:/program files/microchip/xc32/v2.50/bin/bin/../../lib/gcc/pic32mx/4.8.3/../../../../pic32mx/lib/micromips\libsupc++.a(eh_exception.o)
                0x9d0184c5                std::bad_exception::~bad_exception()

.text._ZN10__cxxabiv115__forced_unwindD0Ev
                0x9d0184e0       0x1c
 .text._ZN10__cxxabiv115__forced_unwindD0Ev
                0x9d0184e0       0x1c d:/program files/microchip/xc32/v2.50/bin/bin/../../lib/gcc/pic32mx/4.8.3/../../../../pic32mx/lib/micromips\libsupc++.a(eh_exception.o)
                0x9d0184e1                __cxxabiv1::__forced_unwind::~__forced_unwind()

.text._ZN10__cxxabiv119__foreign_exceptionD0Ev
                0x9d0184fc       0x1c
 .text._ZN10__cxxabiv119__foreign_exceptionD0Ev
                0x9d0184fc       0x1c d:/program files/microchip/xc32/v2.50/bin/bin/../../lib/gcc/pic32mx/4.8.3/../../../../pic32mx/lib/micromips\libsupc++.a(eh_exception.o)
                0x9d0184fd                __cxxabiv1::__foreign_exception::~__foreign_exception()

.text._ZN10__cxxabiv120__si_class_type_infoD2Ev
                0x9d018518       0x1c
 .text._ZN10__cxxabiv120__si_class_type_infoD2Ev
                0x9d018518       0x1c d:/program files/microchip/xc32/v2.50/bin/bin/../../lib/gcc/pic32mx/4.8.3/../../../../pic32mx/lib/micromips\libsupc++.a(si_class_type_info.o)
                0x9d018519                __cxxabiv1::__si_class_type_info::~__si_class_type_info()
                0x9d018519                __cxxabiv1::__si_class_type_info::~__si_class_type_info()

.text._ZNSt9type_infoD0Ev
                0x9d018534       0x1c
 .text._ZNSt9type_infoD0Ev
                0x9d018534       0x1c d:/program files/microchip/xc32/v2.50/bin/bin/../../lib/gcc/pic32mx/4.8.3/../../../../pic32mx/lib/micromips\libsupc++.a(tinfo.o)
                0x9d018535                std::type_info::~type_info()

.text._ZNSt6locale7_LocimpD0Ev
                0x9d018550       0x1c
 .text._ZNSt6locale7_LocimpD0Ev
                0x9d018550       0x1c d:/program files/microchip/xc32/v2.50/bin/bin/../../lib/gcc/pic32mx/4.8.3/../../../../pic32mx/lib/micromips\libxcpp.a(locale0.o)
                0x9d018551                std::locale::_Locimp::~_Locimp()

.text._ZNSt6locale7classicEv
                0x9d01856c       0x1c
 .text._ZNSt6locale7classicEv
                0x9d01856c       0x1c d:/program files/microchip/xc32/v2.50/bin/bin/../../lib/gcc/pic32mx/4.8.3/../../../../pic32mx/lib/micromips\libxcpp.a(locale0.o)
                0x9d01856d                std::locale::classic()

.text.raise     0x9d018588       0x1c
 .text.raise    0x9d018588       0x1c d:/program files/microchip/xc32/v2.50/bin/bin/../../lib/gcc/pic32mx/4.8.3/../../../../pic32mx/lib/micromips\libxcpp.a(raise.o)
                0x9d018589                raise

.text._Getgloballocale
                0x9d0185a4       0x1c
 .text._Getgloballocale
                0x9d0185a4       0x1c d:/program files/microchip/xc32/v2.50/bin/bin/../../lib/gcc/pic32mx/4.8.3/../../../../pic32mx/lib/micromips\libxcpp.a(xgetglob.o)
                0x9d0185a5                _Getgloballocale

.text._Setgloballocale
                0x9d0185c0       0x1c
 .text._Setgloballocale
                0x9d0185c0       0x1c d:/program files/microchip/xc32/v2.50/bin/bin/../../lib/gcc/pic32mx/4.8.3/../../../../pic32mx/lib/micromips\libxcpp.a(xgetglob.o)
                0x9d0185c1                _Setgloballocale

.text._ZNSt8ios_baseD0Ev
                0x9d0185dc       0x1c
 .text._ZNSt8ios_baseD0Ev
                0x9d0185dc       0x1c d:/program files/microchip/xc32/v2.50/bin/bin/../../lib/gcc/pic32mx/4.8.3/../../../../pic32mx/lib/micromips\libxcpp.a(ios.o)
                0x9d0185dd                std::ios_base::~ios_base()

.text.strrchr   0x9d0185f8       0x1c
 .text.strrchr  0x9d0185f8       0x1c d:/program files/microchip/xc32/v2.50/bin/bin/../../lib/gcc/pic32mx/4.8.3/../../../../pic32mx/lib/micromips\libxcpp.a(strrchr.o)
                0x9d0185f9                strrchr

.text._ZN10__cxxabiv121__vmi_class_type_infoD2Ev
                0x9d018614       0x1c
 .text._ZN10__cxxabiv121__vmi_class_type_infoD2Ev
                0x9d018614       0x1c d:/program files/microchip/xc32/v2.50/bin/bin/../../lib/gcc/pic32mx/4.8.3/../../../../pic32mx/lib/micromips\libsupc++.a(vmi_class_type_info.o)
                0x9d018615                __cxxabiv1::__vmi_class_type_info::~__vmi_class_type_info()
                0x9d018615                __cxxabiv1::__vmi_class_type_info::~__vmi_class_type_info()

.text._ZdlPv    0x9d018630       0x18
 .text._ZdlPv   0x9d018630       0x18 d:/program files/microchip/xc32/v2.50/bin/bin/../../lib/gcc/pic32mx/4.8.3/../../../../pic32mx/lib/micromips\libsupc++.a(del_op.o)
                0x9d018631                operator delete(void*)

.text._ZSt18uncaught_exceptionv
                0x9d018648       0x18
 .text._ZSt18uncaught_exceptionv
                0x9d018648       0x18 d:/program files/microchip/xc32/v2.50/bin/bin/../../lib/gcc/pic32mx/4.8.3/../../../../pic32mx/lib/micromips\libsupc++.a(eh_catch.o)
                0x9d018649                std::uncaught_exception()

.text           0x9d018660       0x18
 .text          0x9d018660       0x18 d:/program files/microchip/xc32/v2.50/bin/bin/../../lib/gcc/pic32mx/4.8.3/../../../../pic32mx/lib/micromips\libpic32.a(default-nmi-handler.o)
                0x9d018661                _nmi_handler

.text._GLOBAL__sub_D__Fac_tidy
                0x9d018678       0x18
 .text._GLOBAL__sub_D__Fac_tidy
                0x9d018678       0x18 d:/program files/microchip/xc32/v2.50/bin/bin/../../lib/gcc/pic32mx/4.8.3/../../../../pic32mx/lib/micromips\libxcpp.a(locale0.o)

.text.fseek     0x9d018690       0x18
 .text.fseek    0x9d018690       0x18 d:/program files/microchip/xc32/v2.50/bin/bin/../../lib/gcc/pic32mx/4.8.3/../../../../pic32mx/lib/micromips\libxcpp.a(fseek.o)
                0x9d018691                fseek

.text._Tls_dtor_namalloc
                0x9d0186a8       0x18
 .text._Tls_dtor_namalloc
                0x9d0186a8       0x18 d:/program files/microchip/xc32/v2.50/bin/bin/../../lib/gcc/pic32mx/4.8.3/../../../../pic32mx/lib/micromips\libxcpp.a(setlocal.o)

.text.wmemcpy   0x9d0186c0       0x18
 .text.wmemcpy  0x9d0186c0       0x18 d:/program files/microchip/xc32/v2.50/bin/bin/../../lib/gcc/pic32mx/4.8.3/../../../../pic32mx/lib/micromips\libxcpp.a(wmemcpy.o)
                0x9d0186c1                wmemcpy

.text._Tls_dtor_global_locale
                0x9d0186d8       0x18
 .text._Tls_dtor_global_locale
                0x9d0186d8       0x18 d:/program files/microchip/xc32/v2.50/bin/bin/../../lib/gcc/pic32mx/4.8.3/../../../../pic32mx/lib/micromips\libxcpp.a(xgetglob.o)

.rodata         0x9d0186f0       0x18
 .rodata        0x9d0186f0       0x18 d:/program files/microchip/xc32/v2.50/bin/bin/../../lib/gcc/pic32mx/4.8.3/../../../../pic32mx/lib/micromips\libxcpp.a(localeco.o)

.text._ZN10__cxxabiv112__unexpectedEPFvvE
                0x9d018708       0x14
 .text._ZN10__cxxabiv112__unexpectedEPFvvE
                0x9d018708       0x14 d:/program files/microchip/xc32/v2.50/bin/bin/../../lib/gcc/pic32mx/4.8.3/../../../../pic32mx/lib/micromips\libsupc++.a(eh_terminate.o)
                0x9d018709                __cxxabiv1::__unexpected(void (*)())

.text._GLOBAL__sub_D__ZNSt8ios_base4Init9_Init_cntE
                0x9d01871c       0x14
 .text._GLOBAL__sub_D__ZNSt8ios_base4Init9_Init_cntE
                0x9d01871c       0x14 d:/program files/microchip/xc32/v2.50/bin/bin/../../lib/gcc/pic32mx/4.8.3/../../../../pic32mx/lib/micromips\libxcpp.a(iostream.o)

.text._GLOBAL__sub_D__ZNSt6_Winit9_Init_cntE
                0x9d018730       0x14
 .text._GLOBAL__sub_D__ZNSt6_Winit9_Init_cntE
                0x9d018730       0x14 d:/program files/microchip/xc32/v2.50/bin/bin/../../lib/gcc/pic32mx/4.8.3/../../../../pic32mx/lib/micromips\libxcpp.a(wiostrea.o)

.text._ZNSt6locale16_GetgloballocaleEv
                0x9d018744       0x14
 .text._ZNSt6locale16_GetgloballocaleEv
                0x9d018744       0x14 d:/program files/microchip/xc32/v2.50/bin/bin/../../lib/gcc/pic32mx/4.8.3/../../../../pic32mx/lib/micromips\libxcpp.a(locale0.o)
                0x9d018745                std::locale::_Getgloballocale()

.text._ZNSt6locale16_SetgloballocaleEPv
                0x9d018758       0x14
 .text._ZNSt6locale16_SetgloballocaleEPv
                0x9d018758       0x14 d:/program files/microchip/xc32/v2.50/bin/bin/../../lib/gcc/pic32mx/4.8.3/../../../../pic32mx/lib/micromips\libxcpp.a(locale0.o)
                0x9d018759                std::locale::_Setgloballocale(void*)

.text.abort     0x9d01876c       0x14
 .text.abort    0x9d01876c       0x14 d:/program files/microchip/xc32/v2.50/bin/bin/../../lib/gcc/pic32mx/4.8.3/../../../../pic32mx/lib/micromips\libxcpp.a(abort.o)
                0x9d01876d                abort

.text.fgetpos   0x9d018780       0x14
 .text.fgetpos  0x9d018780       0x14 d:/program files/microchip/xc32/v2.50/bin/bin/../../lib/gcc/pic32mx/4.8.3/../../../../pic32mx/lib/micromips\libxcpp.a(fgetpos.o)
                0x9d018781                fgetpos

.text.fsetpos   0x9d018794       0x14
 .text.fsetpos  0x9d018794       0x14 d:/program files/microchip/xc32/v2.50/bin/bin/../../lib/gcc/pic32mx/4.8.3/../../../../pic32mx/lib/micromips\libxcpp.a(fsetpos.o)
                0x9d018795                fsetpos

.text.strcpy    0x9d0187a8       0x14
 .text.strcpy   0x9d0187a8       0x14 d:/program files/microchip/xc32/v2.50/bin/bin/../../lib/gcc/pic32mx/4.8.3/../../../../pic32mx/lib/micromips\libxcpp.a(strcpy.o)
                0x9d0187a9                strcpy

.text._GLOBAL__sub_D__ZSt16generic_categoryv
                0x9d0187bc       0x14
 .text._GLOBAL__sub_D__ZSt16generic_categoryv
                0x9d0187bc       0x14 d:/program files/microchip/xc32/v2.50/bin/bin/../../lib/gcc/pic32mx/4.8.3/../../../../pic32mx/lib/micromips\libxcpp.a(syserror.o)

.text._ZdaPv    0x9d0187d0       0x14
 .text._ZdaPv   0x9d0187d0       0x14 d:/program files/microchip/xc32/v2.50/bin/bin/../../lib/gcc/pic32mx/4.8.3/../../../../pic32mx/lib/micromips\libxcpp.a(delaop.o)
                0x9d0187d1                operator delete[](void*)

.text.strerror  0x9d0187e4       0x14
 .text.strerror
                0x9d0187e4       0x14 d:/program files/microchip/xc32/v2.50/bin/bin/../../lib/gcc/pic32mx/4.8.3/../../../../pic32mx/lib/micromips\libxcpp.a(strerror.o)
                0x9d0187e5                strerror

.text.strtol    0x9d0187f8       0x14
 .text.strtol   0x9d0187f8       0x14 d:/program files/microchip/xc32/v2.50/bin/bin/../../lib/gcc/pic32mx/4.8.3/../../../../pic32mx/lib/micromips\libxcpp.a(strtol.o)
                0x9d0187f9                strtol

.text._Stoul    0x9d01880c       0x14
 .text._Stoul   0x9d01880c       0x14 d:/program files/microchip/xc32/v2.50/bin/bin/../../lib/gcc/pic32mx/4.8.3/../../../../pic32mx/lib/micromips\libxcpp.a(xstoul.o)
                0x9d01880d                _Stoul

.text._ZNK10__cxxabiv117__class_type_info20__do_find_public_srcElPKvPKS0_S2_
                0x9d000170       0x10
 .text._ZNK10__cxxabiv117__class_type_info20__do_find_public_srcElPKvPKS0_S2_
                0x9d000170       0x10 d:/program files/microchip/xc32/v2.50/bin/bin/../../lib/gcc/pic32mx/4.8.3/../../../../pic32mx/lib/micromips\libsupc++.a(class_type_info.o)
                0x9d000171                __cxxabiv1::__class_type_info::__do_find_public_src(long, void const*, __cxxabiv1::__class_type_info const*, void const*) const

.text._ZSt9terminatev
                0x9d018820       0x10
 .text._ZSt9terminatev
                0x9d018820       0x10 d:/program files/microchip/xc32/v2.50/bin/bin/../../lib/gcc/pic32mx/4.8.3/../../../../pic32mx/lib/micromips\libsupc++.a(eh_terminate.o)
                0x9d018821                std::terminate()

.text._ZSt10unexpectedv
                0x9d018830       0x10
 .text._ZSt10unexpectedv
                0x9d018830       0x10 d:/program files/microchip/xc32/v2.50/bin/bin/../../lib/gcc/pic32mx/4.8.3/../../../../pic32mx/lib/micromips\libsupc++.a(eh_terminate.o)
                0x9d018831                std::unexpected()

.text._ZSt13set_terminatePFvvE
                0x9d018840       0x10
 .text._ZSt13set_terminatePFvvE
                0x9d018840       0x10 d:/program files/microchip/xc32/v2.50/bin/bin/../../lib/gcc/pic32mx/4.8.3/../../../../pic32mx/lib/micromips\libsupc++.a(eh_terminate.o)
                0x9d018841                std::set_terminate(void (*)())

.text._ZSt14set_unexpectedPFvvE
                0x9d018850       0x10
 .text._ZSt14set_unexpectedPFvvE
                0x9d018850       0x10 d:/program files/microchip/xc32/v2.50/bin/bin/../../lib/gcc/pic32mx/4.8.3/../../../../pic32mx/lib/micromips\libsupc++.a(eh_terminate.o)
                0x9d018851                std::set_unexpected(void (*)())

.text._ZSt15set_new_handlerPFvvE
                0x9d018860       0x10
 .text._ZSt15set_new_handlerPFvvE
                0x9d018860       0x10 d:/program files/microchip/xc32/v2.50/bin/bin/../../lib/gcc/pic32mx/4.8.3/../../../../pic32mx/lib/micromips\libsupc++.a(new_handler.o)
                0x9d018861                std::set_new_handler(void (*)())

.text._ZNKSs5_XranEv.isra.54
                0x9d018870       0x10
 .text._ZNKSs5_XranEv.isra.54
                0x9d018870       0x10 d:/program files/microchip/xc32/v2.50/bin/bin/../../lib/gcc/pic32mx/4.8.3/../../../../pic32mx/lib/micromips\libxcpp.a(iostream.o)

.text._ZNKSs5_XlenEv.isra.55
                0x9d018880       0x10
 .text._ZNKSs5_XlenEv.isra.55
                0x9d018880       0x10 d:/program files/microchip/xc32/v2.50/bin/bin/../../lib/gcc/pic32mx/4.8.3/../../../../pic32mx/lib/micromips\libxcpp.a(iostream.o)

.text._ZNKSs5_XranEv.isra.56
                0x9d018890       0x10
 .text._ZNKSs5_XranEv.isra.56
                0x9d018890       0x10 d:/program files/microchip/xc32/v2.50/bin/bin/../../lib/gcc/pic32mx/4.8.3/../../../../pic32mx/lib/micromips\libxcpp.a(wiostrea.o)

.text._ZNKSs5_XlenEv.isra.57
                0x9d0188a0       0x10
 .text._ZNKSs5_XlenEv.isra.57
                0x9d0188a0       0x10 d:/program files/microchip/xc32/v2.50/bin/bin/../../lib/gcc/pic32mx/4.8.3/../../../../pic32mx/lib/micromips\libxcpp.a(wiostrea.o)

.rodata         0x9d0188b0       0x10
 .rodata        0x9d0188b0       0x10 d:/program files/microchip/xc32/v2.50/bin/bin/../../lib/gcc/pic32mx/4.8.3/../../../../pic32mx/lib/micromips\libxcpp.a(locale0.o)
                0x9d0188bc                std::ctype<char>::table_size

.text._Nnl      0x9d0188c0       0x10
 .text._Nnl     0x9d0188c0       0x10 d:/program files/microchip/xc32/v2.50/bin/bin/../../lib/gcc/pic32mx/4.8.3/../../../../pic32mx/lib/micromips\libxcpp.a(xfgpos.o)
                0x9d0188c1                _Nnl

.text._ZNKSs5_XranEv.isra.15
                0x9d0188d0       0x10
 .text._ZNKSs5_XranEv.isra.15
                0x9d0188d0       0x10 d:/program files/microchip/xc32/v2.50/bin/bin/../../lib/gcc/pic32mx/4.8.3/../../../../pic32mx/lib/micromips\libxcpp.a(syserror.o)

.text._ZNKSs5_XlenEv.isra.16
                0x9d0188e0       0x10
 .text._ZNKSs5_XlenEv.isra.16
                0x9d0188e0       0x10 d:/program files/microchip/xc32/v2.50/bin/bin/../../lib/gcc/pic32mx/4.8.3/../../../../pic32mx/lib/micromips\libxcpp.a(syserror.o)

.rodata         0x9d0188f0       0x10
 .rodata        0x9d0188f0       0x10 d:/program files/microchip/xc32/v2.50/bin/bin/../../lib/gcc/pic32mx/4.8.3/../../../../pic32mx/lib/micromips\libxcpp.a(xfopen.o)

.text.open      0x9d018900       0x10
 .text.open     0x9d018900       0x10 d:/program files/microchip/xc32/v2.50/bin/bin/../../lib/gcc/pic32mx/4.8.3/../../../../pic32mx/lib/micromips\libpic32.a(open.o)
                0x9d018901                open

.text.unlink    0x9d018910       0x10
 .text.unlink   0x9d018910       0x10 d:/program files/microchip/xc32/v2.50/bin/bin/../../lib/gcc/pic32mx/4.8.3/../../../../pic32mx/lib/micromips\libpic32.a(unlink.o)
                0x9d018911                unlink

.text.rmdir     0x9d018920       0x10
 .text.rmdir    0x9d018920       0x10 d:/program files/microchip/xc32/v2.50/bin/bin/../../lib/gcc/pic32mx/4.8.3/../../../../pic32mx/lib/micromips\libpic32.a(rmdir.o)
                0x9d018921                rmdir

.text._ZNSt9exceptionD2Ev
                0x9d018930        0xc
 .text._ZNSt9exceptionD2Ev
                0x9d018930        0xc d:/program files/microchip/xc32/v2.50/bin/bin/../../lib/gcc/pic32mx/4.8.3/../../../../pic32mx/lib/micromips\libsupc++.a(eh_exception.o)
                0x9d018931                std::exception::~exception()
                0x9d018931                std::exception::~exception()

.text._ZNSt13bad_exceptionD2Ev
                0x9d01893c        0xc
 .text._ZNSt13bad_exceptionD2Ev
                0x9d01893c        0xc d:/program files/microchip/xc32/v2.50/bin/bin/../../lib/gcc/pic32mx/4.8.3/../../../../pic32mx/lib/micromips\libsupc++.a(eh_exception.o)
                0x9d01893d                std::bad_exception::~bad_exception()
                0x9d01893d                std::bad_exception::~bad_exception()

.text._ZN10__cxxabiv115__forced_unwindD2Ev
                0x9d018948        0xc
 .text._ZN10__cxxabiv115__forced_unwindD2Ev
                0x9d018948        0xc d:/program files/microchip/xc32/v2.50/bin/bin/../../lib/gcc/pic32mx/4.8.3/../../../../pic32mx/lib/micromips\libsupc++.a(eh_exception.o)
                0x9d018949                __cxxabiv1::__forced_unwind::~__forced_unwind()
                0x9d018949                __cxxabiv1::__forced_unwind::~__forced_unwind()

.text._ZN10__cxxabiv119__foreign_exceptionD2Ev
                0x9d018954        0xc
 .text._ZN10__cxxabiv119__foreign_exceptionD2Ev
                0x9d018954        0xc d:/program files/microchip/xc32/v2.50/bin/bin/../../lib/gcc/pic32mx/4.8.3/../../../../pic32mx/lib/micromips\libsupc++.a(eh_exception.o)
                0x9d018955                __cxxabiv1::__foreign_exception::~__foreign_exception()
                0x9d018955                __cxxabiv1::__foreign_exception::~__foreign_exception()

.text._ZNKSt9exception4whatEv
                0x9d018960        0xc
 .text._ZNKSt9exception4whatEv
                0x9d018960        0xc d:/program files/microchip/xc32/v2.50/bin/bin/../../lib/gcc/pic32mx/4.8.3/../../../../pic32mx/lib/micromips\libsupc++.a(eh_exception.o)
                0x9d018961                std::exception::what() const

.text._ZNKSt13bad_exception4whatEv
                0x9d01896c        0xc
 .text._ZNKSt13bad_exception4whatEv
                0x9d01896c        0xc d:/program files/microchip/xc32/v2.50/bin/bin/../../lib/gcc/pic32mx/4.8.3/../../../../pic32mx/lib/micromips\libsupc++.a(eh_exception.o)
                0x9d01896d                std::bad_exception::what() const

.text.__cxa_get_globals_fast
                0x9d018978        0xc
 .text.__cxa_get_globals_fast
                0x9d018978        0xc d:/program files/microchip/xc32/v2.50/bin/bin/../../lib/gcc/pic32mx/4.8.3/../../../../pic32mx/lib/micromips\libsupc++.a(eh_globals.o)
                0x9d018979                __cxa_get_globals_fast

.text.__cxa_get_globals
                0x9d018984        0xc
 .text.__cxa_get_globals
                0x9d018984        0xc d:/program files/microchip/xc32/v2.50/bin/bin/../../lib/gcc/pic32mx/4.8.3/../../../../pic32mx/lib/micromips\libsupc++.a(eh_globals.o)
                0x9d018985                __cxa_get_globals

.text._ZNSt9type_infoD2Ev
                0x9d018990        0xc
 .text._ZNSt9type_infoD2Ev
                0x9d018990        0xc d:/program files/microchip/xc32/v2.50/bin/bin/../../lib/gcc/pic32mx/4.8.3/../../../../pic32mx/lib/micromips\libsupc++.a(tinfo.o)
                0x9d018991                std::type_info::~type_info()
                0x9d018991                std::type_info::~type_info()

.text.__cxa_pure_virtual
                0x9d01899c        0xc
 .text.__cxa_pure_virtual
                0x9d01899c        0xc d:/program files/microchip/xc32/v2.50/bin/bin/../../lib/gcc/pic32mx/4.8.3/../../../../pic32mx/lib/micromips\libsupc++.a(pure.o)
                0x9d01899d                __cxa_pure_virtual

.text.__cxa_deleted_virtual
                0x9d0189a8        0xc
 .text.__cxa_deleted_virtual
                0x9d0189a8        0xc d:/program files/microchip/xc32/v2.50/bin/bin/../../lib/gcc/pic32mx/4.8.3/../../../../pic32mx/lib/micromips\libsupc++.a(pure.o)
                0x9d0189a9                __cxa_deleted_virtual

.text.abs       0x9d0189b4        0xc
 .text.abs      0x9d0189b4        0xc d:/program files/microchip/xc32/v2.50/bin/bin/../../lib/gcc/pic32mx/4.8.3/../../../../pic32mx/lib/micromips\libxcpp.a(abs.o)
                0x9d0189b5                abs

.text._Exit     0x9d0189c0        0xc
 .text._Exit    0x9d0189c0        0xc d:/program files/microchip/xc32/v2.50/bin/bin/../../lib/gcc/pic32mx/4.8.3/../../../../pic32mx/lib/micromips\libxcpp.a(xexit.o)
                0x9d0189c1                _Exit

.text._ZSt16generic_categoryv
                0x9d0189cc        0xc
 .text._ZSt16generic_categoryv
                0x9d0189cc        0xc d:/program files/microchip/xc32/v2.50/bin/bin/../../lib/gcc/pic32mx/4.8.3/../../../../pic32mx/lib/micromips\libxcpp.a(syserror.o)
                0x9d0189cd                std::generic_category()

.text._ZSt17iostream_categoryv
                0x9d0189d8        0xc
 .text._ZSt17iostream_categoryv
                0x9d0189d8        0xc d:/program files/microchip/xc32/v2.50/bin/bin/../../lib/gcc/pic32mx/4.8.3/../../../../pic32mx/lib/micromips\libxcpp.a(syserror.o)
                0x9d0189d9                std::iostream_category()

.text._ZSt15system_categoryv
                0x9d0189e4        0xc
 .text._ZSt15system_categoryv
                0x9d0189e4        0xc d:/program files/microchip/xc32/v2.50/bin/bin/../../lib/gcc/pic32mx/4.8.3/../../../../pic32mx/lib/micromips\libxcpp.a(syserror.o)
                0x9d0189e5                std::system_category()

.text.localeconv
                0x9d0189f0        0xc
 .text.localeconv
                0x9d0189f0        0xc d:/program files/microchip/xc32/v2.50/bin/bin/../../lib/gcc/pic32mx/4.8.3/../../../../pic32mx/lib/micromips\libxcpp.a(localeco.o)
                0x9d0189f1                localeconv

.text.__cxa_get_exception_ptr
                0x9d0189fc        0x8
 .text.__cxa_get_exception_ptr
                0x9d0189fc        0x8 d:/program files/microchip/xc32/v2.50/bin/bin/../../lib/gcc/pic32mx/4.8.3/../../../../pic32mx/lib/micromips\libsupc++.a(eh_catch.o)
                0x9d0189fd                __cxa_get_exception_ptr

.rodata         0x9d018a04        0x8
 .rodata        0x9d018a04        0x8 d:/program files/microchip/xc32/v2.50/bin/bin/../../lib/gcc/pic32mx/4.8.3/../../../../pic32mx/lib/micromips\libxcpp.a(xgetloc.o)

.text.getpagesize
                0x9d018a0c        0x8
 .text.getpagesize
                0x9d018a0c        0x8 d:/program files/microchip/xc32/v2.50/bin/bin/../../lib/gcc/pic32mx/4.8.3/../../../../pic32mx/lib/micromips\libpic32.a(sbrk.o)
                0x9d018a0d                getpagesize

.text._ZNKSt9type_info14__is_pointer_pEv
                0x9d018a14        0x4
 .text._ZNKSt9type_info14__is_pointer_pEv
                0x9d018a14        0x4 d:/program files/microchip/xc32/v2.50/bin/bin/../../lib/gcc/pic32mx/4.8.3/../../../../pic32mx/lib/micromips\libsupc++.a(tinfo.o)
                0x9d018a15                std::type_info::__is_pointer_p() const

.text._ZNKSt9type_info15__is_function_pEv
                0x9d018a18        0x4
 .text._ZNKSt9type_info15__is_function_pEv
                0x9d018a18        0x4 d:/program files/microchip/xc32/v2.50/bin/bin/../../lib/gcc/pic32mx/4.8.3/../../../../pic32mx/lib/micromips\libsupc++.a(tinfo.o)
                0x9d018a19                std::type_info::__is_function_p() const

.text._ZNKSt9type_info11__do_upcastEPKN10__cxxabiv117__class_type_infoEPPv
                0x9d018a1c        0x4
 .text._ZNKSt9type_info11__do_upcastEPKN10__cxxabiv117__class_type_infoEPPv
                0x9d018a1c        0x4 d:/program files/microchip/xc32/v2.50/bin/bin/../../lib/gcc/pic32mx/4.8.3/../../../../pic32mx/lib/micromips\libsupc++.a(tinfo.o)
                0x9d018a1d                std::type_info::__do_upcast(__cxxabiv1::__class_type_info const*, void**) const

.rodata._ZSt7nothrow.nothrow
                0x9d018a20        0x4
 .rodata._ZSt7nothrow.nothrow
                0x9d018a20        0x4 d:/program files/microchip/xc32/v2.50/bin/bin/../../lib/gcc/pic32mx/4.8.3/../../../../pic32mx/lib/micromips\libsupc++.a(new_handler.o)
                0x9d018a20                std::nothrow

.text._on_reset
                0x9d018a24        0x4
 .text._on_reset
                0x9d018a24        0x4 d:/program files/microchip/xc32/v2.50/bin/bin/../../lib/gcc/pic32mx/4.8.3/../../../../pic32mx/lib/micromips\libpic32.a(default-on-reset.o)
                0x9d018a25                _on_reset

.text._on_bootstrap
                0x9d018a28        0x4
 .text._on_bootstrap
                0x9d018a28        0x4 d:/program files/microchip/xc32/v2.50/bin/bin/../../lib/gcc/pic32mx/4.8.3/../../../../pic32mx/lib/micromips\libpic32.a(default-on-bootstrap.o)
                0x9d018a29                _on_bootstrap

.rodata         0x9d018a2c        0x8
 .rodata        0x9d018a2c        0x4 d:/program files/microchip/xc32/v2.50/bin/bin/../../lib/gcc/pic32mx/4.8.3/../../../../pic32mx/lib/micromips\libxcpp.a(xsetloc.o)
 .rodata        0x9d018a30        0x4 d:/program files/microchip/xc32/v2.50/bin/bin/../../lib/gcc/pic32mx/4.8.3/../../../../pic32mx/lib/micromips\libxcpp.a(ios.o)
                0x9d018a30                std::_BADOFF

.text._ZdlPvS_  0x9d018a34        0x4
 .text._ZdlPvS_
                0x9d018a34        0x4 d:/program files/microchip/xc32/v2.50/bin/bin/../../lib/gcc/pic32mx/4.8.3/../../../../pic32mx/lib/micromips\libxcpp.a(delop3.o)
                0x9d018a35                operator delete(void*, void*)

.text.getenv    0x9d018a38        0x4
 .text.getenv   0x9d018a38        0x4 d:/program files/microchip/xc32/v2.50/bin/bin/../../lib/gcc/pic32mx/4.8.3/../../../../pic32mx/lib/micromips\libxcpp.a(getenv.o)
                0x9d018a39                getenv

.rodata         0x9d018a3c        0x4
 .rodata        0x9d018a3c        0x4 d:/program files/microchip/xc32/v2.50/bin/bin/../../lib/gcc/pic32mx/4.8.3/../../../../pic32mx/lib/micromips\libxcpp.a(xmakewct.o)

.text._exit     0x9d018a40        0x4
 .text._exit    0x9d018a40        0x4 d:/program files/microchip/xc32/v2.50/bin/bin/../../lib/gcc/pic32mx/4.8.3/../../../../pic32mx/lib/micromips\libpic32.a(_exit.o)
                0x9d018a41                _exit

.text.isatty    0x9d018a44        0x4
 .text.isatty   0x9d018a44        0x4 d:/program files/microchip/xc32/v2.50/bin/bin/../../lib/gcc/pic32mx/4.8.3/../../../../pic32mx/lib/micromips\libpic32.a(isatty.o)
                0x9d018a45                isatty

.text.lseek     0x9d018a48        0x4
 .text.lseek    0x9d018a48        0x4 d:/program files/microchip/xc32/v2.50/bin/bin/../../lib/gcc/pic32mx/4.8.3/../../../../pic32mx/lib/micromips\libpic32.a(lseek.o)
                0x9d018a49                lseek

.text.close     0x9d018a4c        0x4
 .text.close    0x9d018a4c        0x4 d:/program files/microchip/xc32/v2.50/bin/bin/../../lib/gcc/pic32mx/4.8.3/../../../../pic32mx/lib/micromips\libpic32.a(close.o)
                0x9d018a4d                close

.text.kill      0x9d018a50        0x4
 .text.kill     0x9d018a50        0x4 d:/program files/microchip/xc32/v2.50/bin/bin/../../lib/gcc/pic32mx/4.8.3/../../../../pic32mx/lib/micromips\libpic32.a(kill.o)
                0x9d018a51                kill

.text.getpid    0x9d018a54        0x4
 .text.getpid   0x9d018a54        0x4 d:/program files/microchip/xc32/v2.50/bin/bin/../../lib/gcc/pic32mx/4.8.3/../../../../pic32mx/lib/micromips\libpic32.a(getpid.o)
                0x9d018a55                getpid

.text%z452      0x00000000        0x0
 .text          0x00000000        0x0 d:/program files/microchip/xc32/v2.50/bin/bin/../../lib/gcc/pic32mx/4.8.3/micromips/crtn.o

.text%z453      0x00000000        0x0
 .text          0x00000000        0x0 d:/program files/microchip/xc32/v2.50/bin/bin/../../lib/gcc/pic32mx/4.8.3/../../../../pic32mx/lib/micromips\libpic32.a(_mon_putc.o)

.text%z454      0x00000000        0x0
 .text          0x00000000        0x0 d:/program files/microchip/xc32/v2.50/bin/bin/../../lib/gcc/pic32mx/4.8.3/../../../../pic32mx/lib/micromips\libpic32.a(rmdir.o)

.text%z455      0x00000000        0x0
 .text          0x00000000        0x0 d:/program files/microchip/xc32/v2.50/bin/bin/../../lib/gcc/pic32mx/4.8.3/../../../../pic32mx/lib/micromips\libpic32.a(errno.o)

.text%z456      0x00000000        0x0
 .text          0x00000000        0x0 d:/program files/microchip/xc32/v2.50/bin/bin/../../lib/gcc/pic32mx/4.8.3/../../../../pic32mx/lib/micromips\libpic32.a(xc32_uart.o)

.text%z457      0x00000000        0x0
 .text          0x00000000        0x0 d:/program files/microchip/xc32/v2.50/bin/bin/../../lib/gcc/pic32mx/4.8.3/../../../../pic32mx/lib/micromips\libpic32.a(getpid.o)

.text%z458      0x00000000        0x0
 .text          0x00000000        0x0 d:/program files/microchip/xc32/v2.50/bin/bin/../../lib/gcc/pic32mx/4.8.3/../../../../pic32mx/lib/micromips\libpic32.a(kill.o)

.text%z459      0x00000000        0x0
 .text          0x00000000        0x0 d:/program files/microchip/xc32/v2.50/bin/bin/../../lib/gcc/pic32mx/4.8.3/../../../../pic32mx/lib/micromips\libpic32.a(unlink.o)

.text%z460      0x00000000        0x0
 .text          0x00000000        0x0 d:/program files/microchip/xc32/v2.50/bin/bin/../../lib/gcc/pic32mx/4.8.3/../../../../pic32mx/lib/micromips\libpic32.a(open.o)

.text%z461      0x00000000        0x0
 .text          0x00000000        0x0 d:/program files/microchip/xc32/v2.50/bin/bin/../../lib/gcc/pic32mx/4.8.3/../../../../pic32mx/lib/micromips\libpic32.a(close.o)

.text%z462      0x00000000        0x0
 .text          0x00000000        0x0 d:/program files/microchip/xc32/v2.50/bin/bin/../../lib/gcc/pic32mx/4.8.3/../../../../pic32mx/lib/micromips\libpic32.a(lseek.o)

.text%z463      0x00000000        0x0
 .text          0x00000000        0x0 d:/program files/microchip/xc32/v2.50/bin/bin/../../lib/gcc/pic32mx/4.8.3/../../../../pic32mx/lib/micromips\libpic32.a(write.o)

.text%z464      0x00000000        0x0
 .text          0x00000000        0x0 d:/program files/microchip/xc32/v2.50/bin/bin/../../lib/gcc/pic32mx/4.8.3/../../../../pic32mx/lib/micromips\libpic32.a(read.o)

.text%z465      0x00000000        0x0
 .text          0x00000000        0x0 d:/program files/microchip/xc32/v2.50/bin/bin/../../lib/gcc/pic32mx/4.8.3/../../../../pic32mx/lib/micromips\libpic32.a(isatty.o)

.text%z466      0x00000000        0x0
 .text          0x00000000        0x0 d:/program files/microchip/xc32/v2.50/bin/bin/../../lib/gcc/pic32mx/4.8.3/../../../../pic32mx/lib/micromips\libpic32.a(_exit.o)

.text%z467      0x00000000        0x0
 .text          0x00000000        0x0 d:/program files/microchip/xc32/v2.50/bin/bin/../../lib/gcc/pic32mx/4.8.3/../../../../pic32mx/lib/micromips\libpic32.a(sbrk.o)

.text%z468      0x00000000        0x0
 .text          0x00000000        0x0 d:/program files/microchip/xc32/v2.50/bin/bin/../../lib/gcc/pic32mx/4.8.3/../../../../pic32mx/lib/micromips\libsupc++.a(vmi_class_type_info.o)

.text%z469      0x00000000        0x0
 .text          0x00000000        0x0 d:/program files/microchip/xc32/v2.50/bin/bin/../../lib/gcc/pic32mx/4.8.3/../../../../pic32mx/lib/micromips\libxcpp.a(xfopen.o)

.text%z470      0x00000000        0x0
 .text          0x00000000        0x0 d:/program files/microchip/xc32/v2.50/bin/bin/../../lib/gcc/pic32mx/4.8.3/../../../../pic32mx/lib/micromips\libxcpp.a(xstoul.o)

.text%z471      0x00000000        0x0
 .text          0x00000000        0x0 d:/program files/microchip/xc32/v2.50/bin/bin/../../lib/gcc/pic32mx/4.8.3/../../../../pic32mx/lib/micromips\libxcpp.a(xstol.o)

.text%z472      0x00000000        0x0
 .text          0x00000000        0x0 d:/program files/microchip/xc32/v2.50/bin/bin/../../lib/gcc/pic32mx/4.8.3/../../../../pic32mx/lib/micromips\libxcpp.a(xlocterm.o)

.text%z473      0x00000000        0x0
 .text          0x00000000        0x0 d:/program files/microchip/xc32/v2.50/bin/bin/../../lib/gcc/pic32mx/4.8.3/../../../../pic32mx/lib/micromips\libxcpp.a(xfoprep.o)

.text%z474      0x00000000        0x0
 .text          0x00000000        0x0 d:/program files/microchip/xc32/v2.50/bin/bin/../../lib/gcc/pic32mx/4.8.3/../../../../pic32mx/lib/micromips\libxcpp.a(strtol.o)

.text%z475      0x00000000        0x0
 .text          0x00000000        0x0 d:/program files/microchip/xc32/v2.50/bin/bin/../../lib/gcc/pic32mx/4.8.3/../../../../pic32mx/lib/micromips\libxcpp.a(strspn.o)

.text%z476      0x00000000        0x0
 .text          0x00000000        0x0 d:/program files/microchip/xc32/v2.50/bin/bin/../../lib/gcc/pic32mx/4.8.3/../../../../pic32mx/lib/micromips\libxcpp.a(strrchr.o)

.text%z477      0x00000000        0x0
 .text          0x00000000        0x0 d:/program files/microchip/xc32/v2.50/bin/bin/../../lib/gcc/pic32mx/4.8.3/../../../../pic32mx/lib/micromips\libxcpp.a(strncmp.o)

.text%z478      0x00000000        0x0
 .text          0x00000000        0x0 d:/program files/microchip/xc32/v2.50/bin/bin/../../lib/gcc/pic32mx/4.8.3/../../../../pic32mx/lib/micromips\libxcpp.a(strchr.o)

.text%z479      0x00000000        0x0
 .text          0x00000000        0x0 d:/program files/microchip/xc32/v2.50/bin/bin/../../lib/gcc/pic32mx/4.8.3/../../../../pic32mx/lib/micromips\libxcpp.a(realloc.o)

.text%z480      0x00000000        0x0
 .text          0x00000000        0x0 d:/program files/microchip/xc32/v2.50/bin/bin/../../lib/gcc/pic32mx/4.8.3/../../../../pic32mx/lib/micromips\libxcpp.a(fputs.o)

.text%z481      0x00000000        0x0
 .text          0x00000000        0x0 d:/program files/microchip/xc32/v2.50/bin/bin/../../lib/gcc/pic32mx/4.8.3/../../../../pic32mx/lib/micromips\libxcpp.a(fopen.o)

.text%z482      0x00000000        0x0
 .text          0x00000000        0x0 d:/program files/microchip/xc32/v2.50/bin/bin/../../lib/gcc/pic32mx/4.8.3/../../../../pic32mx/lib/micromips\libxcpp.a(fgets.o)

.text%z483      0x00000000        0x0
 .text          0x00000000        0x0 d:/program files/microchip/xc32/v2.50/bin/bin/../../lib/gcc/pic32mx/4.8.3/../../../../pic32mx/lib/micromips\libxcpp.a(xstrerro.o)

.text%z484      0x00000000        0x0
 .text          0x00000000        0x0 d:/program files/microchip/xc32/v2.50/bin/bin/../../lib/gcc/pic32mx/4.8.3/../../../../pic32mx/lib/micromips\libxcpp.a(xreadloc.o)

.text%z485      0x00000000        0x0
 .text          0x00000000        0x0 d:/program files/microchip/xc32/v2.50/bin/bin/../../lib/gcc/pic32mx/4.8.3/../../../../pic32mx/lib/micromips\libxcpp.a(xmakewct.o)

.text%z486      0x00000000        0x0
 .text          0x00000000        0x0 d:/program files/microchip/xc32/v2.50/bin/bin/../../lib/gcc/pic32mx/4.8.3/../../../../pic32mx/lib/micromips\libxcpp.a(xmakesta.o)

.text%z487      0x00000000        0x0
 .text          0x00000000        0x0 d:/program files/microchip/xc32/v2.50/bin/bin/../../lib/gcc/pic32mx/4.8.3/../../../../pic32mx/lib/micromips\libxcpp.a(xmakeloc.o)

.text%z488      0x00000000        0x0
 .text          0x00000000        0x0 d:/program files/microchip/xc32/v2.50/bin/bin/../../lib/gcc/pic32mx/4.8.3/../../../../pic32mx/lib/micromips\libxcpp.a(xloctab.o)

.text%z489      0x00000000        0x0
 .text          0x00000000        0x0 d:/program files/microchip/xc32/v2.50/bin/bin/../../lib/gcc/pic32mx/4.8.3/../../../../pic32mx/lib/micromips\libxcpp.a(xgetzone.o)

.text%z490      0x00000000        0x0
 .text          0x00000000        0x0 d:/program files/microchip/xc32/v2.50/bin/bin/../../lib/gcc/pic32mx/4.8.3/../../../../pic32mx/lib/micromips\libxcpp.a(xgettime.o)

.text%z491      0x00000000        0x0
 .text          0x00000000        0x0 d:/program files/microchip/xc32/v2.50/bin/bin/../../lib/gcc/pic32mx/4.8.3/../../../../pic32mx/lib/micromips\libxcpp.a(xgentime.o)

.text%z492      0x00000000        0x0
 .text          0x00000000        0x0 d:/program files/microchip/xc32/v2.50/bin/bin/../../lib/gcc/pic32mx/4.8.3/../../../../pic32mx/lib/micromips\libxcpp.a(xfreeloc.o)

.text%z493      0x00000000        0x0
 .text          0x00000000        0x0 d:/program files/microchip/xc32/v2.50/bin/bin/../../lib/gcc/pic32mx/4.8.3/../../../../pic32mx/lib/micromips\libxcpp.a(xfindloc.o)

.text%z494      0x00000000        0x0
 .text          0x00000000        0x0 d:/program files/microchip/xc32/v2.50/bin/bin/../../lib/gcc/pic32mx/4.8.3/../../../../pic32mx/lib/micromips\libxcpp.a(strerror.o)

.text%z495      0x00000000        0x0
 .text          0x00000000        0x0 d:/program files/microchip/xc32/v2.50/bin/bin/../../lib/gcc/pic32mx/4.8.3/../../../../pic32mx/lib/micromips\libxcpp.a(strcspn.o)

.text%z496      0x00000000        0x0
 .text          0x00000000        0x0 d:/program files/microchip/xc32/v2.50/bin/bin/../../lib/gcc/pic32mx/4.8.3/../../../../pic32mx/lib/micromips\libxcpp.a(memcmp.o)

.text%z497      0x00000000        0x0
 .text          0x00000000        0x0 d:/program files/microchip/xc32/v2.50/bin/bin/../../lib/gcc/pic32mx/4.8.3/../../../../pic32mx/lib/micromips\libxcpp.a(localeco.o)

.text%z498      0x00000000        0x0
 .text          0x00000000        0x0 d:/program files/microchip/xc32/v2.50/bin/bin/../../lib/gcc/pic32mx/4.8.3/../../../../pic32mx/lib/micromips\libxcpp.a(getenv.o)

.text%z499      0x00000000        0x0
 .text          0x00000000        0x0 d:/program files/microchip/xc32/v2.50/bin/bin/../../lib/gcc/pic32mx/4.8.3/../../../../pic32mx/lib/micromips\libxcpp.a(errno.o)

.text%z500      0x00000000        0x0
 .text          0x00000000        0x0 d:/program files/microchip/xc32/v2.50/bin/bin/../../lib/gcc/pic32mx/4.8.3/../../../../pic32mx/lib/micromips\libxcpp.a(delop3.o)

.text%z501      0x00000000        0x0
 .text          0x00000000        0x0 d:/program files/microchip/xc32/v2.50/bin/bin/../../lib/gcc/pic32mx/4.8.3/../../../../pic32mx/lib/micromips\libxcpp.a(ios.o)

.text%z502      0x00000000        0x0
 .text          0x00000000        0x0 d:/program files/microchip/xc32/v2.50/bin/bin/../../lib/gcc/pic32mx/4.8.3/../../../../pic32mx/lib/micromips\libxcpp.a(delaop.o)

.text%z503      0x00000000        0x0
 .text          0x00000000        0x0 d:/program files/microchip/xc32/v2.50/bin/bin/../../lib/gcc/pic32mx/4.8.3/../../../../pic32mx/lib/micromips\libxcpp.a(syserror.o)

.text%z504      0x00000000        0x0
 .text          0x00000000        0x0 d:/program files/microchip/xc32/v2.50/bin/bin/../../lib/gcc/pic32mx/4.8.3/../../../../pic32mx/lib/micromips\libxcpp.a(xwfwprep.o)

.text%z505      0x00000000        0x0
 .text          0x00000000        0x0 d:/program files/microchip/xc32/v2.50/bin/bin/../../lib/gcc/pic32mx/4.8.3/../../../../pic32mx/lib/micromips\libxcpp.a(xwfrprep.o)

.text%z506      0x00000000        0x0
 .text          0x00000000        0x0 d:/program files/microchip/xc32/v2.50/bin/bin/../../lib/gcc/pic32mx/4.8.3/../../../../pic32mx/lib/micromips\libxcpp.a(xwctytab.o)

.text%z507      0x00000000        0x0
 .text          0x00000000        0x0 d:/program files/microchip/xc32/v2.50/bin/bin/../../lib/gcc/pic32mx/4.8.3/../../../../pic32mx/lib/micromips\libxcpp.a(xwctrtab.o)

.text%z508      0x00000000        0x0
 .text          0x00000000        0x0 d:/program files/microchip/xc32/v2.50/bin/bin/../../lib/gcc/pic32mx/4.8.3/../../../../pic32mx/lib/micromips\libxcpp.a(xwctomb.o)

.text%z509      0x00000000        0x0
 .text          0x00000000        0x0 d:/program files/microchip/xc32/v2.50/bin/bin/../../lib/gcc/pic32mx/4.8.3/../../../../pic32mx/lib/micromips\libxcpp.a(xwcstate.o)

.text%z510      0x00000000        0x0
 .text          0x00000000        0x0 d:/program files/microchip/xc32/v2.50/bin/bin/../../lib/gcc/pic32mx/4.8.3/../../../../pic32mx/lib/micromips\libxcpp.a(xwcostate.o)

.text%z511      0x00000000        0x0
 .text          0x00000000        0x0 d:/program files/microchip/xc32/v2.50/bin/bin/../../lib/gcc/pic32mx/4.8.3/../../../../pic32mx/lib/micromips\libxcpp.a(xtouptab.o)

.text%z512      0x00000000        0x0
 .text          0x00000000        0x0 d:/program files/microchip/xc32/v2.50/bin/bin/../../lib/gcc/pic32mx/4.8.3/../../../../pic32mx/lib/micromips\libxcpp.a(xtolotab.o)

.text%z513      0x00000000        0x0
 .text          0x00000000        0x0 d:/program files/microchip/xc32/v2.50/bin/bin/../../lib/gcc/pic32mx/4.8.3/../../../../pic32mx/lib/micromips\libxcpp.a(xstrftim.o)

.text%z514      0x00000000        0x0
 .text          0x00000000        0x0 d:/program files/microchip/xc32/v2.50/bin/bin/../../lib/gcc/pic32mx/4.8.3/../../../../pic32mx/lib/micromips\libxcpp.a(xstate.o)

.text%z515      0x00000000        0x0
 .text          0x00000000        0x0 d:/program files/microchip/xc32/v2.50/bin/bin/../../lib/gcc/pic32mx/4.8.3/../../../../pic32mx/lib/micromips\libxcpp.a(xsetloc.o)

.text%z516      0x00000000        0x0
 .text          0x00000000        0x0 d:/program files/microchip/xc32/v2.50/bin/bin/../../lib/gcc/pic32mx/4.8.3/../../../../pic32mx/lib/micromips\libxcpp.a(xmbtowc.o)

.text%z517      0x00000000        0x0
 .text          0x00000000        0x0 d:/program files/microchip/xc32/v2.50/bin/bin/../../lib/gcc/pic32mx/4.8.3/../../../../pic32mx/lib/micromips\libxcpp.a(xgetmem.o)

.text%z518      0x00000000        0x0
 .text          0x00000000        0x0 d:/program files/microchip/xc32/v2.50/bin/bin/../../lib/gcc/pic32mx/4.8.3/../../../../pic32mx/lib/micromips\libxcpp.a(xgetloc.o)

.text%z519      0x00000000        0x0
 .text          0x00000000        0x0 d:/program files/microchip/xc32/v2.50/bin/bin/../../lib/gcc/pic32mx/4.8.3/../../../../pic32mx/lib/micromips\libxcpp.a(xgetglob.o)

.text%z520      0x00000000        0x0
 .text          0x00000000        0x0 d:/program files/microchip/xc32/v2.50/bin/bin/../../lib/gcc/pic32mx/4.8.3/../../../../pic32mx/lib/micromips\libxcpp.a(xfwprep.o)

.text%z521      0x00000000        0x0
 .text          0x00000000        0x0 d:/program files/microchip/xc32/v2.50/bin/bin/../../lib/gcc/pic32mx/4.8.3/../../../../pic32mx/lib/micromips\libxcpp.a(xfspos.o)

.text%z522      0x00000000        0x0
 .text          0x00000000        0x0 d:/program files/microchip/xc32/v2.50/bin/bin/../../lib/gcc/pic32mx/4.8.3/../../../../pic32mx/lib/micromips\libxcpp.a(xfrprep.o)

.text%z523      0x00000000        0x0
 .text          0x00000000        0x0 d:/program files/microchip/xc32/v2.50/bin/bin/../../lib/gcc/pic32mx/4.8.3/../../../../pic32mx/lib/micromips\libxcpp.a(xfofind.o)

.text%z524      0x00000000        0x0
 .text          0x00000000        0x0 d:/program files/microchip/xc32/v2.50/bin/bin/../../lib/gcc/pic32mx/4.8.3/../../../../pic32mx/lib/micromips\libxcpp.a(xfiles.o)

.text%z525      0x00000000        0x0
 .text          0x00000000        0x0 d:/program files/microchip/xc32/v2.50/bin/bin/../../lib/gcc/pic32mx/4.8.3/../../../../pic32mx/lib/micromips\libxcpp.a(xfgpos.o)

.text%z526      0x00000000        0x0
 .text          0x00000000        0x0 d:/program files/microchip/xc32/v2.50/bin/bin/../../lib/gcc/pic32mx/4.8.3/../../../../pic32mx/lib/micromips\libxcpp.a(xexit.o)

.text%z527      0x00000000        0x0
 .text          0x00000000        0x0 d:/program files/microchip/xc32/v2.50/bin/bin/../../lib/gcc/pic32mx/4.8.3/../../../../pic32mx/lib/micromips\libxcpp.a(xdefloc.o)

.text%z528      0x00000000        0x0
 .text          0x00000000        0x0 d:/program files/microchip/xc32/v2.50/bin/bin/../../lib/gcc/pic32mx/4.8.3/../../../../pic32mx/lib/micromips\libxcpp.a(xctype.o)

.text%z529      0x00000000        0x0
 .text          0x00000000        0x0 d:/program files/microchip/xc32/v2.50/bin/bin/../../lib/gcc/pic32mx/4.8.3/../../../../pic32mx/lib/micromips\libxcpp.a(xcostate.o)

.text%z530      0x00000000        0x0
 .text          0x00000000        0x0 d:/program files/microchip/xc32/v2.50/bin/bin/../../lib/gcc/pic32mx/4.8.3/../../../../pic32mx/lib/micromips\libxcpp.a(xatexit.o)

.text%z531      0x00000000        0x0
 .text          0x00000000        0x0 d:/program files/microchip/xc32/v2.50/bin/bin/../../lib/gcc/pic32mx/4.8.3/../../../../pic32mx/lib/micromips\libxcpp.a(wmemcpy.o)

.text%z532      0x00000000        0x0
 .text          0x00000000        0x0 d:/program files/microchip/xc32/v2.50/bin/bin/../../lib/gcc/pic32mx/4.8.3/../../../../pic32mx/lib/micromips\libxcpp.a(ungetwc.o)

.text%z533      0x00000000        0x0
 .text          0x00000000        0x0 d:/program files/microchip/xc32/v2.50/bin/bin/../../lib/gcc/pic32mx/4.8.3/../../../../pic32mx/lib/micromips\libxcpp.a(ungetc.o)

.text%z534      0x00000000        0x0
 .text          0x00000000        0x0 d:/program files/microchip/xc32/v2.50/bin/bin/../../lib/gcc/pic32mx/4.8.3/../../../../pic32mx/lib/micromips\libxcpp.a(strcpy.o)

.text%z535      0x00000000        0x0
 .text          0x00000000        0x0 d:/program files/microchip/xc32/v2.50/bin/bin/../../lib/gcc/pic32mx/4.8.3/../../../../pic32mx/lib/micromips\libxcpp.a(setvbuf.o)

.text%z536      0x00000000        0x0
 .text          0x00000000        0x0 d:/program files/microchip/xc32/v2.50/bin/bin/../../lib/gcc/pic32mx/4.8.3/../../../../pic32mx/lib/micromips\libxcpp.a(setlocal.o)

.text%z537      0x00000000        0x0
 .text          0x00000000        0x0 d:/program files/microchip/xc32/v2.50/bin/bin/../../lib/gcc/pic32mx/4.8.3/../../../../pic32mx/lib/micromips\libxcpp.a(remove.o)

.text%z538      0x00000000        0x0
 .text          0x00000000        0x0 d:/program files/microchip/xc32/v2.50/bin/bin/../../lib/gcc/pic32mx/4.8.3/../../../../pic32mx/lib/micromips\libxcpp.a(raise.o)

.text%z539      0x00000000        0x0
 .text          0x00000000        0x0 d:/program files/microchip/xc32/v2.50/bin/bin/../../lib/gcc/pic32mx/4.8.3/../../../../pic32mx/lib/micromips\libxcpp.a(memmove.o)

.text%z540      0x00000000        0x0
 .text          0x00000000        0x0 d:/program files/microchip/xc32/v2.50/bin/bin/../../lib/gcc/pic32mx/4.8.3/../../../../pic32mx/lib/micromips\libxcpp.a(memchr.o)

.text%z541      0x00000000        0x0
 .text          0x00000000        0x0 d:/program files/microchip/xc32/v2.50/bin/bin/../../lib/gcc/pic32mx/4.8.3/../../../../pic32mx/lib/micromips\libxcpp.a(malloc.o)

.text%z542      0x00000000        0x0
 .text          0x00000000        0x0 d:/program files/microchip/xc32/v2.50/bin/bin/../../lib/gcc/pic32mx/4.8.3/../../../../pic32mx/lib/micromips\libxcpp.a(fwrite.o)

.text%z543      0x00000000        0x0
 .text          0x00000000        0x0 d:/program files/microchip/xc32/v2.50/bin/bin/../../lib/gcc/pic32mx/4.8.3/../../../../pic32mx/lib/micromips\libxcpp.a(fsetpos.o)

.text%z544      0x00000000        0x0
 .text          0x00000000        0x0 d:/program files/microchip/xc32/v2.50/bin/bin/../../lib/gcc/pic32mx/4.8.3/../../../../pic32mx/lib/micromips\libxcpp.a(fseek.o)

.text%z545      0x00000000        0x0
 .text          0x00000000        0x0 d:/program files/microchip/xc32/v2.50/bin/bin/../../lib/gcc/pic32mx/4.8.3/../../../../pic32mx/lib/micromips\libxcpp.a(free.o)

.text%z546      0x00000000        0x0
 .text          0x00000000        0x0 d:/program files/microchip/xc32/v2.50/bin/bin/../../lib/gcc/pic32mx/4.8.3/../../../../pic32mx/lib/micromips\libxcpp.a(fputwc.o)

.text%z547      0x00000000        0x0
 .text          0x00000000        0x0 d:/program files/microchip/xc32/v2.50/bin/bin/../../lib/gcc/pic32mx/4.8.3/../../../../pic32mx/lib/micromips\libxcpp.a(fputc.o)

.text%z548      0x00000000        0x0
 .text          0x00000000        0x0 d:/program files/microchip/xc32/v2.50/bin/bin/../../lib/gcc/pic32mx/4.8.3/../../../../pic32mx/lib/micromips\libxcpp.a(fgetwc.o)

.text%z549      0x00000000        0x0
 .text          0x00000000        0x0 d:/program files/microchip/xc32/v2.50/bin/bin/../../lib/gcc/pic32mx/4.8.3/../../../../pic32mx/lib/micromips\libxcpp.a(fgetpos.o)

.text%z550      0x00000000        0x0
 .text          0x00000000        0x0 d:/program files/microchip/xc32/v2.50/bin/bin/../../lib/gcc/pic32mx/4.8.3/../../../../pic32mx/lib/micromips\libxcpp.a(fgetc.o)

.text%z551      0x00000000        0x0
 .text          0x00000000        0x0 d:/program files/microchip/xc32/v2.50/bin/bin/../../lib/gcc/pic32mx/4.8.3/../../../../pic32mx/lib/micromips\libxcpp.a(fflush.o)

.text%z552      0x00000000        0x0
 .text          0x00000000        0x0 d:/program files/microchip/xc32/v2.50/bin/bin/../../lib/gcc/pic32mx/4.8.3/../../../../pic32mx/lib/micromips\libxcpp.a(fclose.o)

.text%z553      0x00000000        0x0
 .text          0x00000000        0x0 d:/program files/microchip/xc32/v2.50/bin/bin/../../lib/gcc/pic32mx/4.8.3/../../../../pic32mx/lib/micromips\libxcpp.a(exit.o)

.text%z554      0x00000000        0x0
 .text          0x00000000        0x0 d:/program files/microchip/xc32/v2.50/bin/bin/../../lib/gcc/pic32mx/4.8.3/../../../../pic32mx/lib/micromips\libxcpp.a(asctime.o)

.text%z555      0x00000000        0x0
 .text          0x00000000        0x0 d:/program files/microchip/xc32/v2.50/bin/bin/../../lib/gcc/pic32mx/4.8.3/../../../../pic32mx/lib/micromips\libxcpp.a(abs.o)

.text%z556      0x00000000        0x0
 .text          0x00000000        0x0 d:/program files/microchip/xc32/v2.50/bin/bin/../../lib/gcc/pic32mx/4.8.3/../../../../pic32mx/lib/micromips\libxcpp.a(abort.o)

.text%z557      0x00000000        0x0
 .text          0x00000000        0x0 d:/program files/microchip/xc32/v2.50/bin/bin/../../lib/gcc/pic32mx/4.8.3/../../../../pic32mx/lib/micromips\libxcpp.a(locale0.o)

.text%z558      0x00000000        0x0
 .text          0x00000000        0x0 d:/program files/microchip/xc32/v2.50/bin/bin/../../lib/gcc/pic32mx/4.8.3/../../../../pic32mx/lib/micromips\libxcpp.a(wiostrea.o)

.text%z559      0x00000000        0x0
 .text          0x00000000        0x0 d:/program files/microchip/xc32/v2.50/bin/bin/../../lib/gcc/pic32mx/4.8.3/../../../../pic32mx/lib/micromips\libxcpp.a(xthrow.o)

.text%z560      0x00000000        0x0
 .text          0x00000000        0x0 d:/program files/microchip/xc32/v2.50/bin/bin/../../lib/gcc/pic32mx/4.8.3/../../../../pic32mx/lib/micromips\libxcpp.a(iostream.o)

.text%z561      0x00000000        0x0
 .text          0x00000000        0x0 d:/program files/microchip/xc32/v2.50/bin/bin/../../lib/gcc/pic32mx/4.8.3/../../../../pic32mx/lib/micromips\libpic32.a(defaultinterrupt.o)

.text%z562      0x00000000        0x0
 .text          0x00000000        0x0 d:/program files/microchip/xc32/v2.50/bin/bin/../../lib/gcc/pic32mx/4.8.3/../../../../pic32mx/lib/micromips\libpic32.a(default-general-exception-handler.o)

.text%z563      0x00000000        0x0
 .text          0x00000000        0x0 d:/program files/microchip/xc32/v2.50/bin/bin/../../lib/gcc/pic32mx/4.8.3/../../../../pic32mx/lib/micromips\libpic32.a(vector101.o)

.text%z564      0x00000000        0x0
 .text          0x00000000        0x0 d:/program files/microchip/xc32/v2.50/bin/bin/../../lib/gcc/pic32mx/4.8.3/../../../../pic32mx/lib/micromips\libpic32.a(vector100.o)

.text%z565      0x00000000        0x0
 .text          0x00000000        0x0 d:/program files/microchip/xc32/v2.50/bin/bin/../../lib/gcc/pic32mx/4.8.3/../../../../pic32mx/lib/micromips\libpic32.a(vector99.o)

.text%z566      0x00000000        0x0
 .text          0x00000000        0x0 d:/program files/microchip/xc32/v2.50/bin/bin/../../lib/gcc/pic32mx/4.8.3/../../../../pic32mx/lib/micromips\libpic32.a(vector98.o)

.text%z567      0x00000000        0x0
 .text          0x00000000        0x0 d:/program files/microchip/xc32/v2.50/bin/bin/../../lib/gcc/pic32mx/4.8.3/../../../../pic32mx/lib/micromips\libpic32.a(vector97.o)

.text%z568      0x00000000        0x0
 .text          0x00000000        0x0 d:/program files/microchip/xc32/v2.50/bin/bin/../../lib/gcc/pic32mx/4.8.3/../../../../pic32mx/lib/micromips\libpic32.a(vector96.o)

.text%z569      0x00000000        0x0
 .text          0x00000000        0x0 d:/program files/microchip/xc32/v2.50/bin/bin/../../lib/gcc/pic32mx/4.8.3/../../../../pic32mx/lib/micromips\libpic32.a(vector95.o)

.text%z570      0x00000000        0x0
 .text          0x00000000        0x0 d:/program files/microchip/xc32/v2.50/bin/bin/../../lib/gcc/pic32mx/4.8.3/../../../../pic32mx/lib/micromips\libpic32.a(vector94.o)

.text%z571      0x00000000        0x0
 .text          0x00000000        0x0 d:/program files/microchip/xc32/v2.50/bin/bin/../../lib/gcc/pic32mx/4.8.3/../../../../pic32mx/lib/micromips\libpic32.a(vector93.o)

.text%z572      0x00000000        0x0
 .text          0x00000000        0x0 d:/program files/microchip/xc32/v2.50/bin/bin/../../lib/gcc/pic32mx/4.8.3/../../../../pic32mx/lib/micromips\libpic32.a(vector92.o)

.text%z573      0x00000000        0x0
 .text          0x00000000        0x0 d:/program files/microchip/xc32/v2.50/bin/bin/../../lib/gcc/pic32mx/4.8.3/../../../../pic32mx/lib/micromips\libpic32.a(vector91.o)

.text%z574      0x00000000        0x0
 .text          0x00000000        0x0 d:/program files/microchip/xc32/v2.50/bin/bin/../../lib/gcc/pic32mx/4.8.3/../../../../pic32mx/lib/micromips\libpic32.a(vector90.o)

.text%z575      0x00000000        0x0
 .text          0x00000000        0x0 d:/program files/microchip/xc32/v2.50/bin/bin/../../lib/gcc/pic32mx/4.8.3/../../../../pic32mx/lib/micromips\libpic32.a(vector89.o)

.text%z576      0x00000000        0x0
 .text          0x00000000        0x0 d:/program files/microchip/xc32/v2.50/bin/bin/../../lib/gcc/pic32mx/4.8.3/../../../../pic32mx/lib/micromips\libpic32.a(vector88.o)

.text%z577      0x00000000        0x0
 .text          0x00000000        0x0 d:/program files/microchip/xc32/v2.50/bin/bin/../../lib/gcc/pic32mx/4.8.3/../../../../pic32mx/lib/micromips\libpic32.a(vector87.o)

.text%z578      0x00000000        0x0
 .text          0x00000000        0x0 d:/program files/microchip/xc32/v2.50/bin/bin/../../lib/gcc/pic32mx/4.8.3/../../../../pic32mx/lib/micromips\libpic32.a(vector86.o)

.text%z579      0x00000000        0x0
 .text          0x00000000        0x0 d:/program files/microchip/xc32/v2.50/bin/bin/../../lib/gcc/pic32mx/4.8.3/../../../../pic32mx/lib/micromips\libpic32.a(vector85.o)

.text%z580      0x00000000        0x0
 .text          0x00000000        0x0 d:/program files/microchip/xc32/v2.50/bin/bin/../../lib/gcc/pic32mx/4.8.3/../../../../pic32mx/lib/micromips\libpic32.a(vector84.o)

.text%z581      0x00000000        0x0
 .text          0x00000000        0x0 d:/program files/microchip/xc32/v2.50/bin/bin/../../lib/gcc/pic32mx/4.8.3/../../../../pic32mx/lib/micromips\libpic32.a(vector83.o)

.text%z582      0x00000000        0x0
 .text          0x00000000        0x0 d:/program files/microchip/xc32/v2.50/bin/bin/../../lib/gcc/pic32mx/4.8.3/../../../../pic32mx/lib/micromips\libpic32.a(vector82.o)

.text%z583      0x00000000        0x0
 .text          0x00000000        0x0 d:/program files/microchip/xc32/v2.50/bin/bin/../../lib/gcc/pic32mx/4.8.3/../../../../pic32mx/lib/micromips\libpic32.a(vector81.o)

.text%z584      0x00000000        0x0
 .text          0x00000000        0x0 d:/program files/microchip/xc32/v2.50/bin/bin/../../lib/gcc/pic32mx/4.8.3/../../../../pic32mx/lib/micromips\libpic32.a(vector80.o)

.text%z585      0x00000000        0x0
 .text          0x00000000        0x0 d:/program files/microchip/xc32/v2.50/bin/bin/../../lib/gcc/pic32mx/4.8.3/../../../../pic32mx/lib/micromips\libpic32.a(vector79.o)

.text%z586      0x00000000        0x0
 .text          0x00000000        0x0 d:/program files/microchip/xc32/v2.50/bin/bin/../../lib/gcc/pic32mx/4.8.3/../../../../pic32mx/lib/micromips\libpic32.a(vector78.o)

.text%z587      0x00000000        0x0
 .text          0x00000000        0x0 d:/program files/microchip/xc32/v2.50/bin/bin/../../lib/gcc/pic32mx/4.8.3/../../../../pic32mx/lib/micromips\libpic32.a(vector77.o)

.text%z588      0x00000000        0x0
 .text          0x00000000        0x0 d:/program files/microchip/xc32/v2.50/bin/bin/../../lib/gcc/pic32mx/4.8.3/../../../../pic32mx/lib/micromips\libpic32.a(vector76.o)

.text%z589      0x00000000        0x0
 .text          0x00000000        0x0 d:/program files/microchip/xc32/v2.50/bin/bin/../../lib/gcc/pic32mx/4.8.3/../../../../pic32mx/lib/micromips\libpic32.a(vector75.o)

.text%z590      0x00000000        0x0
 .text          0x00000000        0x0 d:/program files/microchip/xc32/v2.50/bin/bin/../../lib/gcc/pic32mx/4.8.3/../../../../pic32mx/lib/micromips\libpic32.a(vector74.o)

.text%z591      0x00000000        0x0
 .text          0x00000000        0x0 d:/program files/microchip/xc32/v2.50/bin/bin/../../lib/gcc/pic32mx/4.8.3/../../../../pic32mx/lib/micromips\libpic32.a(vector73.o)

.text%z592      0x00000000        0x0
 .text          0x00000000        0x0 d:/program files/microchip/xc32/v2.50/bin/bin/../../lib/gcc/pic32mx/4.8.3/../../../../pic32mx/lib/micromips\libpic32.a(vector72.o)

.text%z593      0x00000000        0x0
 .text          0x00000000        0x0 d:/program files/microchip/xc32/v2.50/bin/bin/../../lib/gcc/pic32mx/4.8.3/../../../../pic32mx/lib/micromips\libpic32.a(vector71.o)

.text%z594      0x00000000        0x0
 .text          0x00000000        0x0 d:/program files/microchip/xc32/v2.50/bin/bin/../../lib/gcc/pic32mx/4.8.3/../../../../pic32mx/lib/micromips\libpic32.a(vector70.o)

.text%z595      0x00000000        0x0
 .text          0x00000000        0x0 d:/program files/microchip/xc32/v2.50/bin/bin/../../lib/gcc/pic32mx/4.8.3/../../../../pic32mx/lib/micromips\libpic32.a(vector69.o)

.text%z596      0x00000000        0x0
 .text          0x00000000        0x0 d:/program files/microchip/xc32/v2.50/bin/bin/../../lib/gcc/pic32mx/4.8.3/../../../../pic32mx/lib/micromips\libpic32.a(vector68.o)

.text%z597      0x00000000        0x0
 .text          0x00000000        0x0 d:/program files/microchip/xc32/v2.50/bin/bin/../../lib/gcc/pic32mx/4.8.3/../../../../pic32mx/lib/micromips\libpic32.a(vector67.o)

.text%z598      0x00000000        0x0
 .text          0x00000000        0x0 d:/program files/microchip/xc32/v2.50/bin/bin/../../lib/gcc/pic32mx/4.8.3/../../../../pic32mx/lib/micromips\libpic32.a(vector66.o)

.text%z599      0x00000000        0x0
 .text          0x00000000        0x0 d:/program files/microchip/xc32/v2.50/bin/bin/../../lib/gcc/pic32mx/4.8.3/../../../../pic32mx/lib/micromips\libpic32.a(vector65.o)

.text%z600      0x00000000        0x0
 .text          0x00000000        0x0 d:/program files/microchip/xc32/v2.50/bin/bin/../../lib/gcc/pic32mx/4.8.3/../../../../pic32mx/lib/micromips\libpic32.a(vector64.o)

.text%z601      0x00000000        0x0
 .text          0x00000000        0x0 d:/program files/microchip/xc32/v2.50/bin/bin/../../lib/gcc/pic32mx/4.8.3/../../../../pic32mx/lib/micromips\libpic32.a(vector63.o)

.text%z602      0x00000000        0x0
 .text          0x00000000        0x0 d:/program files/microchip/xc32/v2.50/bin/bin/../../lib/gcc/pic32mx/4.8.3/../../../../pic32mx/lib/micromips\libpic32.a(vector62.o)

.text%z603      0x00000000        0x0
 .text          0x00000000        0x0 d:/program files/microchip/xc32/v2.50/bin/bin/../../lib/gcc/pic32mx/4.8.3/../../../../pic32mx/lib/micromips\libpic32.a(vector61.o)

.text%z604      0x00000000        0x0
 .text          0x00000000        0x0 d:/program files/microchip/xc32/v2.50/bin/bin/../../lib/gcc/pic32mx/4.8.3/../../../../pic32mx/lib/micromips\libpic32.a(vector60.o)

.text%z605      0x00000000        0x0
 .text          0x00000000        0x0 d:/program files/microchip/xc32/v2.50/bin/bin/../../lib/gcc/pic32mx/4.8.3/../../../../pic32mx/lib/micromips\libpic32.a(vector59.o)

.text%z606      0x00000000        0x0
 .text          0x00000000        0x0 d:/program files/microchip/xc32/v2.50/bin/bin/../../lib/gcc/pic32mx/4.8.3/../../../../pic32mx/lib/micromips\libpic32.a(vector58.o)

.text%z607      0x00000000        0x0
 .text          0x00000000        0x0 d:/program files/microchip/xc32/v2.50/bin/bin/../../lib/gcc/pic32mx/4.8.3/../../../../pic32mx/lib/micromips\libpic32.a(vector57.o)

.text%z608      0x00000000        0x0
 .text          0x00000000        0x0 d:/program files/microchip/xc32/v2.50/bin/bin/../../lib/gcc/pic32mx/4.8.3/../../../../pic32mx/lib/micromips\libpic32.a(vector56.o)

.text%z609      0x00000000        0x0
 .text          0x00000000        0x0 d:/program files/microchip/xc32/v2.50/bin/bin/../../lib/gcc/pic32mx/4.8.3/../../../../pic32mx/lib/micromips\libpic32.a(vector55.o)

.text%z610      0x00000000        0x0
 .text          0x00000000        0x0 d:/program files/microchip/xc32/v2.50/bin/bin/../../lib/gcc/pic32mx/4.8.3/../../../../pic32mx/lib/micromips\libpic32.a(vector54.o)

.text%z611      0x00000000        0x0
 .text          0x00000000        0x0 d:/program files/microchip/xc32/v2.50/bin/bin/../../lib/gcc/pic32mx/4.8.3/../../../../pic32mx/lib/micromips\libpic32.a(vector53.o)

.text%z612      0x00000000        0x0
 .text          0x00000000        0x0 d:/program files/microchip/xc32/v2.50/bin/bin/../../lib/gcc/pic32mx/4.8.3/../../../../pic32mx/lib/micromips\libpic32.a(vector52.o)

.text%z613      0x00000000        0x0
 .text          0x00000000        0x0 d:/program files/microchip/xc32/v2.50/bin/bin/../../lib/gcc/pic32mx/4.8.3/../../../../pic32mx/lib/micromips\libpic32.a(vector51.o)

.text%z614      0x00000000        0x0
 .text          0x00000000        0x0 d:/program files/microchip/xc32/v2.50/bin/bin/../../lib/gcc/pic32mx/4.8.3/../../../../pic32mx/lib/micromips\libpic32.a(vector50.o)

.text%z615      0x00000000        0x0
 .text          0x00000000        0x0 d:/program files/microchip/xc32/v2.50/bin/bin/../../lib/gcc/pic32mx/4.8.3/../../../../pic32mx/lib/micromips\libpic32.a(vector49.o)

.text%z616      0x00000000        0x0
 .text          0x00000000        0x0 d:/program files/microchip/xc32/v2.50/bin/bin/../../lib/gcc/pic32mx/4.8.3/../../../../pic32mx/lib/micromips\libpic32.a(vector48.o)

.text%z617      0x00000000        0x0
 .text          0x00000000        0x0 d:/program files/microchip/xc32/v2.50/bin/bin/../../lib/gcc/pic32mx/4.8.3/../../../../pic32mx/lib/micromips\libpic32.a(vector47.o)

.text%z618      0x00000000        0x0
 .text          0x00000000        0x0 d:/program files/microchip/xc32/v2.50/bin/bin/../../lib/gcc/pic32mx/4.8.3/../../../../pic32mx/lib/micromips\libpic32.a(vector46.o)

.text%z619      0x00000000        0x0
 .text          0x00000000        0x0 d:/program files/microchip/xc32/v2.50/bin/bin/../../lib/gcc/pic32mx/4.8.3/../../../../pic32mx/lib/micromips\libpic32.a(vector45.o)

.text%z620      0x00000000        0x0
 .text          0x00000000        0x0 d:/program files/microchip/xc32/v2.50/bin/bin/../../lib/gcc/pic32mx/4.8.3/../../../../pic32mx/lib/micromips\libpic32.a(vector44.o)

.text%z621      0x00000000        0x0
 .text          0x00000000        0x0 d:/program files/microchip/xc32/v2.50/bin/bin/../../lib/gcc/pic32mx/4.8.3/../../../../pic32mx/lib/micromips\libpic32.a(vector43.o)

.text%z622      0x00000000        0x0
 .text          0x00000000        0x0 d:/program files/microchip/xc32/v2.50/bin/bin/../../lib/gcc/pic32mx/4.8.3/../../../../pic32mx/lib/micromips\libpic32.a(vector42.o)

.text%z623      0x00000000        0x0
 .text          0x00000000        0x0 d:/program files/microchip/xc32/v2.50/bin/bin/../../lib/gcc/pic32mx/4.8.3/../../../../pic32mx/lib/micromips\libpic32.a(vector41.o)

.text%z624      0x00000000        0x0
 .text          0x00000000        0x0 d:/program files/microchip/xc32/v2.50/bin/bin/../../lib/gcc/pic32mx/4.8.3/../../../../pic32mx/lib/micromips\libpic32.a(vector40.o)

.text%z625      0x00000000        0x0
 .text          0x00000000        0x0 d:/program files/microchip/xc32/v2.50/bin/bin/../../lib/gcc/pic32mx/4.8.3/../../../../pic32mx/lib/micromips\libpic32.a(vector39.o)

.text%z626      0x00000000        0x0
 .text          0x00000000        0x0 d:/program files/microchip/xc32/v2.50/bin/bin/../../lib/gcc/pic32mx/4.8.3/../../../../pic32mx/lib/micromips\libpic32.a(vector38.o)

.text%z627      0x00000000        0x0
 .text          0x00000000        0x0 d:/program files/microchip/xc32/v2.50/bin/bin/../../lib/gcc/pic32mx/4.8.3/../../../../pic32mx/lib/micromips\libpic32.a(vector37.o)

.text%z628      0x00000000        0x0
 .text          0x00000000        0x0 d:/program files/microchip/xc32/v2.50/bin/bin/../../lib/gcc/pic32mx/4.8.3/../../../../pic32mx/lib/micromips\libpic32.a(vector36.o)

.text%z629      0x00000000        0x0
 .text          0x00000000        0x0 d:/program files/microchip/xc32/v2.50/bin/bin/../../lib/gcc/pic32mx/4.8.3/../../../../pic32mx/lib/micromips\libpic32.a(vector35.o)

.text%z630      0x00000000        0x0
 .text          0x00000000        0x0 d:/program files/microchip/xc32/v2.50/bin/bin/../../lib/gcc/pic32mx/4.8.3/../../../../pic32mx/lib/micromips\libpic32.a(vector34.o)

.text%z631      0x00000000        0x0
 .text          0x00000000        0x0 d:/program files/microchip/xc32/v2.50/bin/bin/../../lib/gcc/pic32mx/4.8.3/../../../../pic32mx/lib/micromips\libpic32.a(vector33.o)

.text%z632      0x00000000        0x0
 .text          0x00000000        0x0 d:/program files/microchip/xc32/v2.50/bin/bin/../../lib/gcc/pic32mx/4.8.3/../../../../pic32mx/lib/micromips\libpic32.a(vector32.o)

.text%z633      0x00000000        0x0
 .text          0x00000000        0x0 d:/program files/microchip/xc32/v2.50/bin/bin/../../lib/gcc/pic32mx/4.8.3/../../../../pic32mx/lib/micromips\libpic32.a(vector31.o)

.text%z634      0x00000000        0x0
 .text          0x00000000        0x0 d:/program files/microchip/xc32/v2.50/bin/bin/../../lib/gcc/pic32mx/4.8.3/../../../../pic32mx/lib/micromips\libpic32.a(vector30.o)

.text%z635      0x00000000        0x0
 .text          0x00000000        0x0 d:/program files/microchip/xc32/v2.50/bin/bin/../../lib/gcc/pic32mx/4.8.3/../../../../pic32mx/lib/micromips\libpic32.a(vector29.o)

.text%z636      0x00000000        0x0
 .text          0x00000000        0x0 d:/program files/microchip/xc32/v2.50/bin/bin/../../lib/gcc/pic32mx/4.8.3/../../../../pic32mx/lib/micromips\libpic32.a(vector28.o)

.text%z637      0x00000000        0x0
 .text          0x00000000        0x0 d:/program files/microchip/xc32/v2.50/bin/bin/../../lib/gcc/pic32mx/4.8.3/../../../../pic32mx/lib/micromips\libpic32.a(vector27.o)

.text%z638      0x00000000        0x0
 .text          0x00000000        0x0 d:/program files/microchip/xc32/v2.50/bin/bin/../../lib/gcc/pic32mx/4.8.3/../../../../pic32mx/lib/micromips\libpic32.a(vector26.o)

.text%z639      0x00000000        0x0
 .text          0x00000000        0x0 d:/program files/microchip/xc32/v2.50/bin/bin/../../lib/gcc/pic32mx/4.8.3/../../../../pic32mx/lib/micromips\libpic32.a(vector25.o)

.text%z640      0x00000000        0x0
 .text          0x00000000        0x0 d:/program files/microchip/xc32/v2.50/bin/bin/../../lib/gcc/pic32mx/4.8.3/../../../../pic32mx/lib/micromips\libpic32.a(vector24.o)

.text%z641      0x00000000        0x0
 .text          0x00000000        0x0 d:/program files/microchip/xc32/v2.50/bin/bin/../../lib/gcc/pic32mx/4.8.3/../../../../pic32mx/lib/micromips\libpic32.a(vector23.o)

.text%z642      0x00000000        0x0
 .text          0x00000000        0x0 d:/program files/microchip/xc32/v2.50/bin/bin/../../lib/gcc/pic32mx/4.8.3/../../../../pic32mx/lib/micromips\libpic32.a(vector22.o)

.text%z643      0x00000000        0x0
 .text          0x00000000        0x0 d:/program files/microchip/xc32/v2.50/bin/bin/../../lib/gcc/pic32mx/4.8.3/../../../../pic32mx/lib/micromips\libpic32.a(vector21.o)

.text%z644      0x00000000        0x0
 .text          0x00000000        0x0 d:/program files/microchip/xc32/v2.50/bin/bin/../../lib/gcc/pic32mx/4.8.3/../../../../pic32mx/lib/micromips\libpic32.a(vector20.o)

.text%z645      0x00000000        0x0
 .text          0x00000000        0x0 d:/program files/microchip/xc32/v2.50/bin/bin/../../lib/gcc/pic32mx/4.8.3/../../../../pic32mx/lib/micromips\libpic32.a(vector19.o)

.text%z646      0x00000000        0x0
 .text          0x00000000        0x0 d:/program files/microchip/xc32/v2.50/bin/bin/../../lib/gcc/pic32mx/4.8.3/../../../../pic32mx/lib/micromips\libpic32.a(vector18.o)

.text%z647      0x00000000        0x0
 .text          0x00000000        0x0 d:/program files/microchip/xc32/v2.50/bin/bin/../../lib/gcc/pic32mx/4.8.3/../../../../pic32mx/lib/micromips\libpic32.a(vector17.o)

.text%z648      0x00000000        0x0
 .text          0x00000000        0x0 d:/program files/microchip/xc32/v2.50/bin/bin/../../lib/gcc/pic32mx/4.8.3/../../../../pic32mx/lib/micromips\libpic32.a(vector16.o)

.text%z649      0x00000000        0x0
 .text          0x00000000        0x0 d:/program files/microchip/xc32/v2.50/bin/bin/../../lib/gcc/pic32mx/4.8.3/../../../../pic32mx/lib/micromips\libpic32.a(vector15.o)

.text%z650      0x00000000        0x0
 .text          0x00000000        0x0 d:/program files/microchip/xc32/v2.50/bin/bin/../../lib/gcc/pic32mx/4.8.3/../../../../pic32mx/lib/micromips\libpic32.a(vector14.o)

.text%z651      0x00000000        0x0
 .text          0x00000000        0x0 d:/program files/microchip/xc32/v2.50/bin/bin/../../lib/gcc/pic32mx/4.8.3/../../../../pic32mx/lib/micromips\libpic32.a(vector13.o)

.text%z652      0x00000000        0x0
 .text          0x00000000        0x0 d:/program files/microchip/xc32/v2.50/bin/bin/../../lib/gcc/pic32mx/4.8.3/../../../../pic32mx/lib/micromips\libpic32.a(vector12.o)

.text%z653      0x00000000        0x0
 .text          0x00000000        0x0 d:/program files/microchip/xc32/v2.50/bin/bin/../../lib/gcc/pic32mx/4.8.3/../../../../pic32mx/lib/micromips\libpic32.a(vector11.o)

.text%z654      0x00000000        0x0
 .text          0x00000000        0x0 d:/program files/microchip/xc32/v2.50/bin/bin/../../lib/gcc/pic32mx/4.8.3/../../../../pic32mx/lib/micromips\libpic32.a(vector10.o)

.text%z655      0x00000000        0x0
 .text          0x00000000        0x0 d:/program files/microchip/xc32/v2.50/bin/bin/../../lib/gcc/pic32mx/4.8.3/../../../../pic32mx/lib/micromips\libpic32.a(vector9.o)

.text%z656      0x00000000        0x0
 .text          0x00000000        0x0 d:/program files/microchip/xc32/v2.50/bin/bin/../../lib/gcc/pic32mx/4.8.3/../../../../pic32mx/lib/micromips\libpic32.a(vector8.o)

.text%z657      0x00000000        0x0
 .text          0x00000000        0x0 d:/program files/microchip/xc32/v2.50/bin/bin/../../lib/gcc/pic32mx/4.8.3/../../../../pic32mx/lib/micromips\libpic32.a(vector7.o)

.text%z658      0x00000000        0x0
 .text          0x00000000        0x0 d:/program files/microchip/xc32/v2.50/bin/bin/../../lib/gcc/pic32mx/4.8.3/../../../../pic32mx/lib/micromips\libpic32.a(vector6.o)

.text%z659      0x00000000        0x0
 .text          0x00000000        0x0 d:/program files/microchip/xc32/v2.50/bin/bin/../../lib/gcc/pic32mx/4.8.3/../../../../pic32mx/lib/micromips\libpic32.a(vector5.o)

.text%z660      0x00000000        0x0
 .text          0x00000000        0x0 d:/program files/microchip/xc32/v2.50/bin/bin/../../lib/gcc/pic32mx/4.8.3/../../../../pic32mx/lib/micromips\libpic32.a(vector4.o)

.text%z661      0x00000000        0x0
 .text          0x00000000        0x0 d:/program files/microchip/xc32/v2.50/bin/bin/../../lib/gcc/pic32mx/4.8.3/../../../../pic32mx/lib/micromips\libpic32.a(vector3.o)

.text%z662      0x00000000        0x0
 .text          0x00000000        0x0 d:/program files/microchip/xc32/v2.50/bin/bin/../../lib/gcc/pic32mx/4.8.3/../../../../pic32mx/lib/micromips\libpic32.a(vector2.o)

.text%z663      0x00000000        0x0
 .text          0x00000000        0x0 d:/program files/microchip/xc32/v2.50/bin/bin/../../lib/gcc/pic32mx/4.8.3/../../../../pic32mx/lib/micromips\libpic32.a(vector1.o)

.text%z664      0x00000000        0x0
 .text          0x00000000        0x0 d:/program files/microchip/xc32/v2.50/bin/bin/../../lib/gcc/pic32mx/4.8.3/../../../../pic32mx/lib/micromips\libpic32.a(vector0.o)

.text%z665      0x00000000        0x0
 .text          0x00000000        0x0 d:/program files/microchip/xc32/v2.50/bin/bin/../../lib/gcc/pic32mx/4.8.3/../../../../pic32mx/lib/micromips\libpic32.a(general-exception.o)

.text%z666      0x00000000        0x0
 .text          0x00000000        0x0 d:/program files/microchip/xc32/v2.50/bin/bin/../../lib/gcc/pic32mx/4.8.3/../../../../pic32mx/lib/micromips\libpic32.a(default-on-bootstrap.o)

.text%z667      0x00000000        0x0
 .text          0x00000000        0x0 d:/program files/microchip/xc32/v2.50/bin/bin/../../lib/gcc/pic32mx/4.8.3/../../../../pic32mx/lib/micromips\libpic32.a(default-on-reset.o)

.text%z668      0x00000000        0x0
 .text          0x00000000        0x0 d:/program files/microchip/xc32/v2.50/bin/bin/../../lib/gcc/pic32mx/4.8.3/../../../../pic32mx/lib/micromips\libpic32.a(default-bootstrap-exception-handler.o)

.text%z669      0x00000000        0x0
 .text          0x00000000        0x0 C:\Users\hoang\AppData\Local\Temp\ccFXkMDy.o

.text%z670      0x00000000        0x0
 .text          0x00000000        0x0 C:\Users\hoang\AppData\Local\Temp\cclKKak0.o

.text%z671      0x00000000        0x0
 .text          0x00000000        0x0 C:\Users\hoang\AppData\Local\Temp\ccMoW1mQ.o

.text%z672      0x00000000        0x0
 .text          0x00000000        0x0 d:/program files/microchip/xc32/v2.50/bin/bin/../../lib/gcc/pic32mx/4.8.3/../../../../pic32mx/lib/micromips\libsupc++.a(new_handler.o)

.text%z673      0x00000000        0x0
 .text          0x00000000        0x0 d:/program files/microchip/xc32/v2.50/bin/bin/../../lib/gcc/pic32mx/4.8.3/../../../../pic32mx/lib/micromips\libsupc++.a(eh_term_handler.o)

.text%z674      0x00000000        0x0
 .text          0x00000000        0x0 d:/program files/microchip/xc32/v2.50/bin/bin/../../lib/gcc/pic32mx/4.8.3/../../../../pic32mx/lib/micromips\libsupc++.a(eh_call.o)

.text%z675      0x00000000        0x0
 .text          0x00000000        0x0 d:/program files/microchip/xc32/v2.50/bin/bin/../../lib/gcc/pic32mx/4.8.3/../../../../pic32mx/lib/micromips\libsupc++.a(pure.o)

.text%z676      0x00000000        0x0
 .text          0x00000000        0x0 d:/program files/microchip/xc32/v2.50/bin/bin/../../lib/gcc/pic32mx/4.8.3/../../../../pic32mx/lib/micromips\libsupc++.a(tinfo.o)

.text%z677      0x00000000        0x0
 .text          0x00000000        0x0 d:/program files/microchip/xc32/v2.50/bin/bin/../../lib/gcc/pic32mx/4.8.3/../../../../pic32mx/lib/micromips\libsupc++.a(si_class_type_info.o)

.text%z678      0x00000000        0x0
 .text          0x00000000        0x0 d:/program files/microchip/xc32/v2.50/bin/bin/../../lib/gcc/pic32mx/4.8.3/../../../../pic32mx/lib/micromips\libsupc++.a(new_op.o)

.text%z679      0x00000000        0x0
 .text          0x00000000        0x0 d:/program files/microchip/xc32/v2.50/bin/bin/../../lib/gcc/pic32mx/4.8.3/../../../../pic32mx/lib/micromips\libsupc++.a(eh_unex_handler.o)

.text%z680      0x00000000        0x0
 .text          0x00000000        0x0 d:/program files/microchip/xc32/v2.50/bin/bin/../../lib/gcc/pic32mx/4.8.3/../../../../pic32mx/lib/micromips\libsupc++.a(eh_throw.o)

.text%z681      0x00000000        0x0
 .text          0x00000000        0x0 d:/program files/microchip/xc32/v2.50/bin/bin/../../lib/gcc/pic32mx/4.8.3/../../../../pic32mx/lib/micromips\libsupc++.a(eh_terminate.o)

.text%z682      0x00000000        0x0
 .text          0x00000000        0x0 d:/program files/microchip/xc32/v2.50/bin/bin/../../lib/gcc/pic32mx/4.8.3/../../../../pic32mx/lib/micromips\libsupc++.a(eh_personality.o)

.text%z683      0x00000000        0x0
 .text          0x00000000        0x0 d:/program files/microchip/xc32/v2.50/bin/bin/../../lib/gcc/pic32mx/4.8.3/../../../../pic32mx/lib/micromips\libsupc++.a(eh_globals.o)

.text%z684      0x00000000        0x0
 .text          0x00000000        0x0 d:/program files/microchip/xc32/v2.50/bin/bin/../../lib/gcc/pic32mx/4.8.3/../../../../pic32mx/lib/micromips\libsupc++.a(eh_exception.o)

.text%z685      0x00000000        0x0
 .text          0x00000000        0x0 d:/program files/microchip/xc32/v2.50/bin/bin/../../lib/gcc/pic32mx/4.8.3/../../../../pic32mx/lib/micromips\libsupc++.a(eh_catch.o)

.text%z686      0x00000000        0x0
 .text          0x00000000        0x0 d:/program files/microchip/xc32/v2.50/bin/bin/../../lib/gcc/pic32mx/4.8.3/../../../../pic32mx/lib/micromips\libsupc++.a(eh_alloc.o)

.text%z687      0x00000000        0x0
 .text          0x00000000        0x0 d:/program files/microchip/xc32/v2.50/bin/bin/../../lib/gcc/pic32mx/4.8.3/../../../../pic32mx/lib/micromips\libsupc++.a(del_op.o)

.text%z688      0x00000000        0x0
 .text          0x00000000        0x0 d:/program files/microchip/xc32/v2.50/bin/bin/../../lib/gcc/pic32mx/4.8.3/../../../../pic32mx/lib/micromips\libsupc++.a(class_type_info.o)

.text%z689      0x00000000        0x0
 .text          0x00000000        0x0 d:/program files/microchip/xc32/v2.50/bin/bin/../../lib/gcc/pic32mx/4.8.3/micromips/crti.o
