

Microchip MPLAB XC8 Assembler V2.31 build 20201012212115 
                                                                                               Tue Aug 10 21:25:27 2021

Microchip MPLAB XC8 C Compiler v2.31 (Free license) build 20201012212115 Og1 
     1                           	processor	16LF15376
     2                           	pagewidth 120
     3                           	opt	flic
     4                           	psect	idataBANK1,global,class=CODE,delta=2,noexec
     5                           	psect	idataBANK2,global,class=CODE,delta=2,noexec
     6                           	psect	stringtext1,global,class=STRCODE,delta=2,noexec
     7                           	psect	nvBANK1,global,class=BANK1,space=1,delta=1,noexec
     8                           	psect	stringtext2,global,class=STRCODE,delta=2,noexec
     9                           	psect	stringtext3,global,class=STRCODE,delta=2,noexec
    10                           	psect	stringtext4,global,class=STRCODE,delta=2,noexec
    11                           	psect	stringtext5,global,class=STRCODE,delta=2,noexec
    12                           	psect	stringtext6,global,class=STRCODE,delta=2,noexec
    13                           	psect	stringtext7,global,class=STRCODE,delta=2,noexec
    14                           	psect	stringtext8,global,class=STRCODE,delta=2,noexec
    15                           	psect	stringtext9,global,class=STRCODE,delta=2,noexec
    16                           	psect	cinit,global,class=CODE,merge=1,delta=2
    17                           	psect	bssBANK1,global,class=BANK1,space=1,delta=1,noexec
    18                           	psect	dataBANK1,global,class=BANK1,space=1,delta=1,noexec
    19                           	psect	bssBANK2,global,class=BANK2,space=1,delta=1,noexec
    20                           	psect	dataBANK2,global,class=BANK2,space=1,delta=1,noexec
    21                           	psect	inittext,global,class=CODE,delta=2
    22                           	psect	clrtext,global,class=CODE,delta=2
    23                           	psect	cstackBANK1,global,class=BANK1,space=1,delta=1,noexec
    24                           	psect	cstackCOMMON,global,class=COMMON,space=1,delta=1,noexec
    25                           	psect	cstackBANK0,global,class=BANK0,space=1,delta=1,noexec
    26                           	psect	maintext,global,class=CODE,merge=1,split=1,delta=2
    27                           	psect	text1,local,class=CODE,merge=1,delta=2,group=3
    28                           	psect	text2,local,class=CODE,merge=1,delta=2,group=1
    29                           	psect	text3,local,class=CODE,merge=1,delta=2,group=1
    30                           	psect	text4,local,class=CODE,merge=1,delta=2,group=1
    31                           	psect	text5,local,class=CODE,merge=1,delta=2,group=3
    32                           	psect	text6,local,class=CODE,merge=1,delta=2,group=3
    33                           	psect	text7,local,class=CODE,merge=1,delta=2,group=3
    34                           	psect	text8,local,class=CODE,merge=1,delta=2,group=3
    35                           	psect	text9,local,class=CODE,merge=1,delta=2,group=1
    36                           	psect	text10,local,class=CODE,merge=1,delta=2,group=1
    37                           	psect	text11,local,class=CODE,merge=1,delta=2,group=3
    38                           	psect	text12,local,class=CODE,merge=1,delta=2,group=3
    39                           	psect	text13,local,class=CODE,merge=1,delta=2
    40                           	psect	text14,local,class=CODE,merge=1,delta=2
    41                           	psect	text15,local,class=CODE,merge=1,delta=2,group=3
    42                           	psect	text16,local,class=CODE,merge=1,delta=2,group=2
    43                           	psect	text17,local,class=CODE,merge=1,delta=2,group=2
    44                           	psect	text18,local,class=CODE,merge=1,delta=2
    45                           	psect	text19,local,class=CODE,merge=1,delta=2
    46                           	psect	text20,local,class=CODE,merge=1,delta=2
    47                           	psect	text21,local,class=CODE,merge=1,delta=2
    48                           	psect	text22,local,class=CODE,merge=1,delta=2
    49                           	psect	text23,local,class=CODE,merge=1,delta=2
    50                           	psect	text24,local,class=CODE,merge=1,delta=2
    51                           	psect	text25,local,class=CODE,merge=1,delta=2
    52                           	psect	text26,local,class=CODE,merge=1,delta=2
    53                           	psect	text27,local,class=CODE,merge=1,delta=2
    54                           	psect	text28,local,class=CODE,merge=1,delta=2
    55                           	psect	text29,local,class=CODE,merge=1,delta=2
    56                           	psect	text30,local,class=CODE,merge=1,delta=2
    57                           	psect	text31,local,class=CODE,merge=1,delta=2
    58                           	psect	text32,local,class=CODE,merge=1,delta=2
    59                           	psect	text33,local,class=CODE,merge=1,delta=2
    60                           	psect	text34,local,class=CODE,merge=1,delta=2
    61                           	psect	text35,local,class=CODE,merge=1,delta=2
    62                           	psect	text36,local,class=CODE,merge=1,delta=2
    63                           	psect	text37,local,class=CODE,merge=1,inline,delta=2
    64                           	psect	text38,local,class=CODE,merge=1,inline,delta=2
    65                           	psect	text39,local,class=CODE,merge=1,delta=2
    66                           	psect	text40,local,class=CODE,merge=1,delta=2
    67                           	psect	text41,local,class=CODE,merge=1,inline,delta=2
    68                           	psect	text42,local,class=CODE,merge=1,delta=2
    69                           	psect	text43,local,class=CODE,merge=1,inline,delta=2
    70                           	psect	text44,local,class=CODE,merge=1,inline,delta=2
    71                           	psect	text45,local,class=CODE,merge=1,inline,delta=2
    72                           	psect	config,global,abs,ovrld,class=CONFIG,space=4,delta=2,noexec
    73                           	dabs	1,0x7E,2
    74  0000                     
    75                           ; Version 2.30
    76                           ; Generated 15/09/2020 GMT
    77                           ; 
    78                           ; Copyright © 2020, Microchip Technology Inc. and its subsidiaries ("Microchip")
    79                           ; All rights reserved.
    80                           ; 
    81                           ; This software is developed by Microchip Technology Inc. and its subsidiaries ("Microch
      +                          ip").
    82                           ; 
    83                           ; Redistribution and use in source and binary forms, with or without modification, are
    84                           ; permitted provided that the following conditions are met:
    85                           ; 
    86                           ;     1. Redistributions of source code must retain the above copyright notice, this lis
      +                          t of
    87                           ;        conditions and the following disclaimer.
    88                           ; 
    89                           ;     2. Redistributions in binary form must reproduce the above copyright notice, this 
      +                          list
    90                           ;        of conditions and the following disclaimer in the documentation and/or other
    91                           ;        materials provided with the distribution. Publication is not required when
    92                           ;        this file is used in an embedded application.
    93                           ; 
    94                           ;     3. Microchip's name may not be used to endorse or promote products derived from th
      +                          is
    95                           ;        software without specific prior written permission.
    96                           ; 
    97                           ; THIS SOFTWARE IS PROVIDED BY MICROCHIP "AS IS" AND ANY EXPRESS OR IMPLIED WARRANTIES,
    98                           ; INCLUDING, BUT NOT LIMITED TO, THE IMPLIED WARRANTIES OF MERCHANTABILITY AND FITNESS F
      +                          OR
    99                           ; PURPOSE ARE DISCLAIMED.  IN NO EVENT SHALL MICROCHIP BE LIABLE FOR ANY DIRECT, INDIREC
      +                          T,
   100                           ; INCIDENTAL, SPECIAL, EXEMPLARY, OR CONSEQUENTIAL DAMAGES (INCLUDING BUT NOT LIMITED TO
   101                           ; PROCUREMENT OF SUBSTITUTE GOODS OR SERVICES; LOSS OF USE, DATA OR PROFITS; OR BUSINESS
   102                           ; INTERRUPTION) HOWSOEVER CAUSED AND ON ANY THEORY OF LIABILITY, WHETHER IN CONTRACT, ST
      +                          RICT
   103                           ; LIABILITY, OR TORT (INCLUDING NEGLIGENCE OR OTHERWISE) ARISING IN ANY WAY OUT OF THE U
      +                          SE OF
   104                           ; THIS SOFTWARE, EVEN IF ADVISED OF THE POSSIBILITY OF SUCH DAMAGE.
   105                           ; 
   106                           ; 
   107                           ; Code-generator required, PIC16LF15376 Definitions
   108                           ; 
   109                           ; SFR Addresses
   110  0000                     	;# 
   111  0001                     	;# 
   112  0002                     	;# 
   113  0003                     	;# 
   114  0004                     	;# 
   115  0005                     	;# 
   116  0006                     	;# 
   117  0007                     	;# 
   118  0008                     	;# 
   119  0009                     	;# 
   120  000A                     	;# 
   121  000B                     	;# 
   122  000C                     	;# 
   123  000D                     	;# 
   124  000E                     	;# 
   125  000F                     	;# 
   126  0010                     	;# 
   127  0012                     	;# 
   128  0013                     	;# 
   129  0014                     	;# 
   130  0015                     	;# 
   131  0016                     	;# 
   132  0018                     	;# 
   133  0019                     	;# 
   134  001A                     	;# 
   135  001B                     	;# 
   136  001C                     	;# 
   137  009B                     	;# 
   138  009B                     	;# 
   139  009C                     	;# 
   140  009D                     	;# 
   141  009E                     	;# 
   142  009F                     	;# 
   143  0119                     	;# 
   144  0119                     	;# 
   145  0119                     	;# 
   146  011A                     	;# 
   147  011A                     	;# 
   148  011A                     	;# 
   149  011B                     	;# 
   150  011B                     	;# 
   151  011B                     	;# 
   152  011B                     	;# 
   153  011B                     	;# 
   154  011C                     	;# 
   155  011C                     	;# 
   156  011C                     	;# 
   157  011D                     	;# 
   158  011D                     	;# 
   159  011D                     	;# 
   160  011E                     	;# 
   161  011E                     	;# 
   162  011E                     	;# 
   163  011F                     	;# 
   164  011F                     	;# 
   165  011F                     	;# 
   166  011F                     	;# 
   167  011F                     	;# 
   168  018C                     	;# 
   169  018D                     	;# 
   170  018E                     	;# 
   171  018F                     	;# 
   172  0190                     	;# 
   173  0191                     	;# 
   174  0192                     	;# 
   175  0196                     	;# 
   176  0197                     	;# 
   177  0198                     	;# 
   178  0199                     	;# 
   179  019A                     	;# 
   180  019B                     	;# 
   181  019C                     	;# 
   182  020C                     	;# 
   183  020C                     	;# 
   184  020D                     	;# 
   185  020E                     	;# 
   186  020F                     	;# 
   187  020F                     	;# 
   188  0210                     	;# 
   189  0210                     	;# 
   190  0211                     	;# 
   191  0211                     	;# 
   192  028C                     	;# 
   193  028C                     	;# 
   194  028D                     	;# 
   195  028D                     	;# 
   196  028E                     	;# 
   197  028F                     	;# 
   198  0290                     	;# 
   199  0291                     	;# 
   200  030C                     	;# 
   201  030C                     	;# 
   202  030D                     	;# 
   203  030E                     	;# 
   204  030F                     	;# 
   205  0310                     	;# 
   206  0310                     	;# 
   207  0311                     	;# 
   208  0312                     	;# 
   209  0313                     	;# 
   210  0314                     	;# 
   211  0314                     	;# 
   212  0315                     	;# 
   213  0316                     	;# 
   214  0318                     	;# 
   215  0318                     	;# 
   216  0319                     	;# 
   217  031A                     	;# 
   218  031C                     	;# 
   219  031C                     	;# 
   220  031D                     	;# 
   221  031E                     	;# 
   222  038C                     	;# 
   223  038C                     	;# 
   224  038D                     	;# 
   225  038E                     	;# 
   226  058C                     	;# 
   227  058C                     	;# 
   228  058D                     	;# 
   229  058E                     	;# 
   230  058F                     	;# 
   231  058F                     	;# 
   232  0590                     	;# 
   233  0591                     	;# 
   234  0592                     	;# 
   235  0593                     	;# 
   236  059C                     	;# 
   237  059C                     	;# 
   238  059D                     	;# 
   239  059D                     	;# 
   240  059E                     	;# 
   241  059F                     	;# 
   242  060C                     	;# 
   243  060D                     	;# 
   244  060E                     	;# 
   245  060F                     	;# 
   246  0610                     	;# 
   247  0611                     	;# 
   248  0612                     	;# 
   249  0613                     	;# 
   250  0614                     	;# 
   251  070C                     	;# 
   252  070D                     	;# 
   253  070E                     	;# 
   254  070F                     	;# 
   255  0710                     	;# 
   256  0711                     	;# 
   257  0712                     	;# 
   258  0713                     	;# 
   259  0716                     	;# 
   260  0717                     	;# 
   261  0718                     	;# 
   262  0719                     	;# 
   263  071A                     	;# 
   264  071B                     	;# 
   265  071C                     	;# 
   266  071D                     	;# 
   267  0796                     	;# 
   268  0797                     	;# 
   269  0798                     	;# 
   270  0799                     	;# 
   271  079A                     	;# 
   272  079B                     	;# 
   273  080C                     	;# 
   274  080D                     	;# 
   275  080E                     	;# 
   276  080F                     	;# 
   277  0810                     	;# 
   278  0811                     	;# 
   279  0813                     	;# 
   280  0814                     	;# 
   281  081A                     	;# 
   282  081A                     	;# 
   283  081B                     	;# 
   284  081C                     	;# 
   285  081C                     	;# 
   286  081D                     	;# 
   287  081E                     	;# 
   288  081F                     	;# 
   289  088C                     	;# 
   290  088D                     	;# 
   291  088E                     	;# 
   292  088F                     	;# 
   293  0890                     	;# 
   294  0891                     	;# 
   295  0892                     	;# 
   296  0893                     	;# 
   297  0895                     	;# 
   298  0896                     	;# 
   299  090C                     	;# 
   300  090E                     	;# 
   301  090F                     	;# 
   302  091F                     	;# 
   303  098F                     	;# 
   304  098F                     	;# 
   305  0990                     	;# 
   306  0991                     	;# 
   307  0992                     	;# 
   308  0993                     	;# 
   309  0994                     	;# 
   310  0995                     	;# 
   311  0996                     	;# 
   312  0997                     	;# 
   313  0A19                     	;# 
   314  0A19                     	;# 
   315  0A1A                     	;# 
   316  0A1A                     	;# 
   317  0A1B                     	;# 
   318  0A1B                     	;# 
   319  0A1B                     	;# 
   320  0A1C                     	;# 
   321  0A1C                     	;# 
   322  0A1D                     	;# 
   323  0A1D                     	;# 
   324  0A1E                     	;# 
   325  0A1E                     	;# 
   326  0A1F                     	;# 
   327  0A1F                     	;# 
   328  0A1F                     	;# 
   329  1E0F                     	;# 
   330  1E10                     	;# 
   331  1E11                     	;# 
   332  1E12                     	;# 
   333  1E13                     	;# 
   334  1E14                     	;# 
   335  1E15                     	;# 
   336  1E16                     	;# 
   337  1E17                     	;# 
   338  1E18                     	;# 
   339  1E19                     	;# 
   340  1E1A                     	;# 
   341  1E1B                     	;# 
   342  1E1C                     	;# 
   343  1E1D                     	;# 
   344  1E1E                     	;# 
   345  1E1F                     	;# 
   346  1E20                     	;# 
   347  1E21                     	;# 
   348  1E22                     	;# 
   349  1E23                     	;# 
   350  1E24                     	;# 
   351  1E25                     	;# 
   352  1E26                     	;# 
   353  1E27                     	;# 
   354  1E28                     	;# 
   355  1E29                     	;# 
   356  1E2A                     	;# 
   357  1E2B                     	;# 
   358  1E2C                     	;# 
   359  1E2D                     	;# 
   360  1E2E                     	;# 
   361  1E2F                     	;# 
   362  1E30                     	;# 
   363  1E31                     	;# 
   364  1E32                     	;# 
   365  1E33                     	;# 
   366  1E34                     	;# 
   367  1E35                     	;# 
   368  1E36                     	;# 
   369  1E37                     	;# 
   370  1E8F                     	;# 
   371  1E90                     	;# 
   372  1E91                     	;# 
   373  1E92                     	;# 
   374  1E93                     	;# 
   375  1E9C                     	;# 
   376  1EA1                     	;# 
   377  1EA2                     	;# 
   378  1EB1                     	;# 
   379  1EBB                     	;# 
   380  1EBC                     	;# 
   381  1EBD                     	;# 
   382  1EBE                     	;# 
   383  1EC3                     	;# 
   384  1EC5                     	;# 
   385  1EC6                     	;# 
   386  1EC7                     	;# 
   387  1EC8                     	;# 
   388  1EC9                     	;# 
   389  1ECA                     	;# 
   390  1ECB                     	;# 
   391  1ECC                     	;# 
   392  1ECD                     	;# 
   393  1ECE                     	;# 
   394  1F10                     	;# 
   395  1F11                     	;# 
   396  1F12                     	;# 
   397  1F13                     	;# 
   398  1F14                     	;# 
   399  1F15                     	;# 
   400  1F16                     	;# 
   401  1F17                     	;# 
   402  1F18                     	;# 
   403  1F19                     	;# 
   404  1F1A                     	;# 
   405  1F1B                     	;# 
   406  1F1C                     	;# 
   407  1F1D                     	;# 
   408  1F1E                     	;# 
   409  1F1F                     	;# 
   410  1F20                     	;# 
   411  1F21                     	;# 
   412  1F22                     	;# 
   413  1F23                     	;# 
   414  1F24                     	;# 
   415  1F25                     	;# 
   416  1F26                     	;# 
   417  1F27                     	;# 
   418  1F28                     	;# 
   419  1F29                     	;# 
   420  1F2A                     	;# 
   421  1F2B                     	;# 
   422  1F2C                     	;# 
   423  1F2D                     	;# 
   424  1F2E                     	;# 
   425  1F2F                     	;# 
   426  1F30                     	;# 
   427  1F31                     	;# 
   428  1F32                     	;# 
   429  1F38                     	;# 
   430  1F39                     	;# 
   431  1F3A                     	;# 
   432  1F3B                     	;# 
   433  1F3C                     	;# 
   434  1F3D                     	;# 
   435  1F3E                     	;# 
   436  1F3F                     	;# 
   437  1F43                     	;# 
   438  1F44                     	;# 
   439  1F45                     	;# 
   440  1F46                     	;# 
   441  1F47                     	;# 
   442  1F48                     	;# 
   443  1F49                     	;# 
   444  1F4A                     	;# 
   445  1F4E                     	;# 
   446  1F4F                     	;# 
   447  1F50                     	;# 
   448  1F51                     	;# 
   449  1F52                     	;# 
   450  1F53                     	;# 
   451  1F54                     	;# 
   452  1F55                     	;# 
   453  1F59                     	;# 
   454  1F5A                     	;# 
   455  1F5B                     	;# 
   456  1F5C                     	;# 
   457  1F5D                     	;# 
   458  1F64                     	;# 
   459  1F65                     	;# 
   460  1F66                     	;# 
   461  1F67                     	;# 
   462  1F68                     	;# 
   463  1F69                     	;# 
   464  1F6A                     	;# 
   465  1F6B                     	;# 
   466  1FE4                     	;# 
   467  1FE5                     	;# 
   468  1FE6                     	;# 
   469  1FE7                     	;# 
   470  1FE8                     	;# 
   471  1FE8                     	;# 
   472  1FE9                     	;# 
   473  1FEA                     	;# 
   474  1FEB                     	;# 
   475  1FED                     	;# 
   476  1FEE                     	;# 
   477  1FEF                     	;# 
   478  0000                     	;# 
   479  0001                     	;# 
   480  0002                     	;# 
   481  0003                     	;# 
   482  0004                     	;# 
   483  0005                     	;# 
   484  0006                     	;# 
   485  0007                     	;# 
   486  0008                     	;# 
   487  0009                     	;# 
   488  000A                     	;# 
   489  000B                     	;# 
   490  000C                     	;# 
   491  000D                     	;# 
   492  000E                     	;# 
   493  000F                     	;# 
   494  0010                     	;# 
   495  0012                     	;# 
   496  0013                     	;# 
   497  0014                     	;# 
   498  0015                     	;# 
   499  0016                     	;# 
   500  0018                     	;# 
   501  0019                     	;# 
   502  001A                     	;# 
   503  001B                     	;# 
   504  001C                     	;# 
   505  009B                     	;# 
   506  009B                     	;# 
   507  009C                     	;# 
   508  009D                     	;# 
   509  009E                     	;# 
   510  009F                     	;# 
   511  0119                     	;# 
   512  0119                     	;# 
   513  0119                     	;# 
   514  011A                     	;# 
   515  011A                     	;# 
   516  011A                     	;# 
   517  011B                     	;# 
   518  011B                     	;# 
   519  011B                     	;# 
   520  011B                     	;# 
   521  011B                     	;# 
   522  011C                     	;# 
   523  011C                     	;# 
   524  011C                     	;# 
   525  011D                     	;# 
   526  011D                     	;# 
   527  011D                     	;# 
   528  011E                     	;# 
   529  011E                     	;# 
   530  011E                     	;# 
   531  011F                     	;# 
   532  011F                     	;# 
   533  011F                     	;# 
   534  011F                     	;# 
   535  011F                     	;# 
   536  018C                     	;# 
   537  018D                     	;# 
   538  018E                     	;# 
   539  018F                     	;# 
   540  0190                     	;# 
   541  0191                     	;# 
   542  0192                     	;# 
   543  0196                     	;# 
   544  0197                     	;# 
   545  0198                     	;# 
   546  0199                     	;# 
   547  019A                     	;# 
   548  019B                     	;# 
   549  019C                     	;# 
   550  020C                     	;# 
   551  020C                     	;# 
   552  020D                     	;# 
   553  020E                     	;# 
   554  020F                     	;# 
   555  020F                     	;# 
   556  0210                     	;# 
   557  0210                     	;# 
   558  0211                     	;# 
   559  0211                     	;# 
   560  028C                     	;# 
   561  028C                     	;# 
   562  028D                     	;# 
   563  028D                     	;# 
   564  028E                     	;# 
   565  028F                     	;# 
   566  0290                     	;# 
   567  0291                     	;# 
   568  030C                     	;# 
   569  030C                     	;# 
   570  030D                     	;# 
   571  030E                     	;# 
   572  030F                     	;# 
   573  0310                     	;# 
   574  0310                     	;# 
   575  0311                     	;# 
   576  0312                     	;# 
   577  0313                     	;# 
   578  0314                     	;# 
   579  0314                     	;# 
   580  0315                     	;# 
   581  0316                     	;# 
   582  0318                     	;# 
   583  0318                     	;# 
   584  0319                     	;# 
   585  031A                     	;# 
   586  031C                     	;# 
   587  031C                     	;# 
   588  031D                     	;# 
   589  031E                     	;# 
   590  038C                     	;# 
   591  038C                     	;# 
   592  038D                     	;# 
   593  038E                     	;# 
   594  058C                     	;# 
   595  058C                     	;# 
   596  058D                     	;# 
   597  058E                     	;# 
   598  058F                     	;# 
   599  058F                     	;# 
   600  0590                     	;# 
   601  0591                     	;# 
   602  0592                     	;# 
   603  0593                     	;# 
   604  059C                     	;# 
   605  059C                     	;# 
   606  059D                     	;# 
   607  059D                     	;# 
   608  059E                     	;# 
   609  059F                     	;# 
   610  060C                     	;# 
   611  060D                     	;# 
   612  060E                     	;# 
   613  060F                     	;# 
   614  0610                     	;# 
   615  0611                     	;# 
   616  0612                     	;# 
   617  0613                     	;# 
   618  0614                     	;# 
   619  070C                     	;# 
   620  070D                     	;# 
   621  070E                     	;# 
   622  070F                     	;# 
   623  0710                     	;# 
   624  0711                     	;# 
   625  0712                     	;# 
   626  0713                     	;# 
   627  0716                     	;# 
   628  0717                     	;# 
   629  0718                     	;# 
   630  0719                     	;# 
   631  071A                     	;# 
   632  071B                     	;# 
   633  071C                     	;# 
   634  071D                     	;# 
   635  0796                     	;# 
   636  0797                     	;# 
   637  0798                     	;# 
   638  0799                     	;# 
   639  079A                     	;# 
   640  079B                     	;# 
   641  080C                     	;# 
   642  080D                     	;# 
   643  080E                     	;# 
   644  080F                     	;# 
   645  0810                     	;# 
   646  0811                     	;# 
   647  0813                     	;# 
   648  0814                     	;# 
   649  081A                     	;# 
   650  081A                     	;# 
   651  081B                     	;# 
   652  081C                     	;# 
   653  081C                     	;# 
   654  081D                     	;# 
   655  081E                     	;# 
   656  081F                     	;# 
   657  088C                     	;# 
   658  088D                     	;# 
   659  088E                     	;# 
   660  088F                     	;# 
   661  0890                     	;# 
   662  0891                     	;# 
   663  0892                     	;# 
   664  0893                     	;# 
   665  0895                     	;# 
   666  0896                     	;# 
   667  090C                     	;# 
   668  090E                     	;# 
   669  090F                     	;# 
   670  091F                     	;# 
   671  098F                     	;# 
   672  098F                     	;# 
   673  0990                     	;# 
   674  0991                     	;# 
   675  0992                     	;# 
   676  0993                     	;# 
   677  0994                     	;# 
   678  0995                     	;# 
   679  0996                     	;# 
   680  0997                     	;# 
   681  0A19                     	;# 
   682  0A19                     	;# 
   683  0A1A                     	;# 
   684  0A1A                     	;# 
   685  0A1B                     	;# 
   686  0A1B                     	;# 
   687  0A1B                     	;# 
   688  0A1C                     	;# 
   689  0A1C                     	;# 
   690  0A1D                     	;# 
   691  0A1D                     	;# 
   692  0A1E                     	;# 
   693  0A1E                     	;# 
   694  0A1F                     	;# 
   695  0A1F                     	;# 
   696  0A1F                     	;# 
   697  1E0F                     	;# 
   698  1E10                     	;# 
   699  1E11                     	;# 
   700  1E12                     	;# 
   701  1E13                     	;# 
   702  1E14                     	;# 
   703  1E15                     	;# 
   704  1E16                     	;# 
   705  1E17                     	;# 
   706  1E18                     	;# 
   707  1E19                     	;# 
   708  1E1A                     	;# 
   709  1E1B                     	;# 
   710  1E1C                     	;# 
   711  1E1D                     	;# 
   712  1E1E                     	;# 
   713  1E1F                     	;# 
   714  1E20                     	;# 
   715  1E21                     	;# 
   716  1E22                     	;# 
   717  1E23                     	;# 
   718  1E24                     	;# 
   719  1E25                     	;# 
   720  1E26                     	;# 
   721  1E27                     	;# 
   722  1E28                     	;# 
   723  1E29                     	;# 
   724  1E2A                     	;# 
   725  1E2B                     	;# 
   726  1E2C                     	;# 
   727  1E2D                     	;# 
   728  1E2E                     	;# 
   729  1E2F                     	;# 
   730  1E30                     	;# 
   731  1E31                     	;# 
   732  1E32                     	;# 
   733  1E33                     	;# 
   734  1E34                     	;# 
   735  1E35                     	;# 
   736  1E36                     	;# 
   737  1E37                     	;# 
   738  1E8F                     	;# 
   739  1E90                     	;# 
   740  1E91                     	;# 
   741  1E92                     	;# 
   742  1E93                     	;# 
   743  1E9C                     	;# 
   744  1EA1                     	;# 
   745  1EA2                     	;# 
   746  1EB1                     	;# 
   747  1EBB                     	;# 
   748  1EBC                     	;# 
   749  1EBD                     	;# 
   750  1EBE                     	;# 
   751  1EC3                     	;# 
   752  1EC5                     	;# 
   753  1EC6                     	;# 
   754  1EC7                     	;# 
   755  1EC8                     	;# 
   756  1EC9                     	;# 
   757  1ECA                     	;# 
   758  1ECB                     	;# 
   759  1ECC                     	;# 
   760  1ECD                     	;# 
   761  1ECE                     	;# 
   762  1F10                     	;# 
   763  1F11                     	;# 
   764  1F12                     	;# 
   765  1F13                     	;# 
   766  1F14                     	;# 
   767  1F15                     	;# 
   768  1F16                     	;# 
   769  1F17                     	;# 
   770  1F18                     	;# 
   771  1F19                     	;# 
   772  1F1A                     	;# 
   773  1F1B                     	;# 
   774  1F1C                     	;# 
   775  1F1D                     	;# 
   776  1F1E                     	;# 
   777  1F1F                     	;# 
   778  1F20                     	;# 
   779  1F21                     	;# 
   780  1F22                     	;# 
   781  1F23                     	;# 
   782  1F24                     	;# 
   783  1F25                     	;# 
   784  1F26                     	;# 
   785  1F27                     	;# 
   786  1F28                     	;# 
   787  1F29                     	;# 
   788  1F2A                     	;# 
   789  1F2B                     	;# 
   790  1F2C                     	;# 
   791  1F2D                     	;# 
   792  1F2E                     	;# 
   793  1F2F                     	;# 
   794  1F30                     	;# 
   795  1F31                     	;# 
   796  1F32                     	;# 
   797  1F38                     	;# 
   798  1F39                     	;# 
   799  1F3A                     	;# 
   800  1F3B                     	;# 
   801  1F3C                     	;# 
   802  1F3D                     	;# 
   803  1F3E                     	;# 
   804  1F3F                     	;# 
   805  1F43                     	;# 
   806  1F44                     	;# 
   807  1F45                     	;# 
   808  1F46                     	;# 
   809  1F47                     	;# 
   810  1F48                     	;# 
   811  1F49                     	;# 
   812  1F4A                     	;# 
   813  1F4E                     	;# 
   814  1F4F                     	;# 
   815  1F50                     	;# 
   816  1F51                     	;# 
   817  1F52                     	;# 
   818  1F53                     	;# 
   819  1F54                     	;# 
   820  1F55                     	;# 
   821  1F59                     	;# 
   822  1F5A                     	;# 
   823  1F5B                     	;# 
   824  1F5C                     	;# 
   825  1F5D                     	;# 
   826  1F64                     	;# 
   827  1F65                     	;# 
   828  1F66                     	;# 
   829  1F67                     	;# 
   830  1F68                     	;# 
   831  1F69                     	;# 
   832  1F6A                     	;# 
   833  1F6B                     	;# 
   834  1FE4                     	;# 
   835  1FE5                     	;# 
   836  1FE6                     	;# 
   837  1FE7                     	;# 
   838  1FE8                     	;# 
   839  1FE8                     	;# 
   840  1FE9                     	;# 
   841  1FEA                     	;# 
   842  1FEB                     	;# 
   843  1FED                     	;# 
   844  1FEE                     	;# 
   845  1FEF                     	;# 
   846  0000                     	;# 
   847  0001                     	;# 
   848  0002                     	;# 
   849  0003                     	;# 
   850  0004                     	;# 
   851  0005                     	;# 
   852  0006                     	;# 
   853  0007                     	;# 
   854  0008                     	;# 
   855  0009                     	;# 
   856  000A                     	;# 
   857  000B                     	;# 
   858  000C                     	;# 
   859  000D                     	;# 
   860  000E                     	;# 
   861  000F                     	;# 
   862  0010                     	;# 
   863  0012                     	;# 
   864  0013                     	;# 
   865  0014                     	;# 
   866  0015                     	;# 
   867  0016                     	;# 
   868  0018                     	;# 
   869  0019                     	;# 
   870  001A                     	;# 
   871  001B                     	;# 
   872  001C                     	;# 
   873  009B                     	;# 
   874  009B                     	;# 
   875  009C                     	;# 
   876  009D                     	;# 
   877  009E                     	;# 
   878  009F                     	;# 
   879  0119                     	;# 
   880  0119                     	;# 
   881  0119                     	;# 
   882  011A                     	;# 
   883  011A                     	;# 
   884  011A                     	;# 
   885  011B                     	;# 
   886  011B                     	;# 
   887  011B                     	;# 
   888  011B                     	;# 
   889  011B                     	;# 
   890  011C                     	;# 
   891  011C                     	;# 
   892  011C                     	;# 
   893  011D                     	;# 
   894  011D                     	;# 
   895  011D                     	;# 
   896  011E                     	;# 
   897  011E                     	;# 
   898  011E                     	;# 
   899  011F                     	;# 
   900  011F                     	;# 
   901  011F                     	;# 
   902  011F                     	;# 
   903  011F                     	;# 
   904  018C                     	;# 
   905  018D                     	;# 
   906  018E                     	;# 
   907  018F                     	;# 
   908  0190                     	;# 
   909  0191                     	;# 
   910  0192                     	;# 
   911  0196                     	;# 
   912  0197                     	;# 
   913  0198                     	;# 
   914  0199                     	;# 
   915  019A                     	;# 
   916  019B                     	;# 
   917  019C                     	;# 
   918  020C                     	;# 
   919  020C                     	;# 
   920  020D                     	;# 
   921  020E                     	;# 
   922  020F                     	;# 
   923  020F                     	;# 
   924  0210                     	;# 
   925  0210                     	;# 
   926  0211                     	;# 
   927  0211                     	;# 
   928  028C                     	;# 
   929  028C                     	;# 
   930  028D                     	;# 
   931  028D                     	;# 
   932  028E                     	;# 
   933  028F                     	;# 
   934  0290                     	;# 
   935  0291                     	;# 
   936  030C                     	;# 
   937  030C                     	;# 
   938  030D                     	;# 
   939  030E                     	;# 
   940  030F                     	;# 
   941  0310                     	;# 
   942  0310                     	;# 
   943  0311                     	;# 
   944  0312                     	;# 
   945  0313                     	;# 
   946  0314                     	;# 
   947  0314                     	;# 
   948  0315                     	;# 
   949  0316                     	;# 
   950  0318                     	;# 
   951  0318                     	;# 
   952  0319                     	;# 
   953  031A                     	;# 
   954  031C                     	;# 
   955  031C                     	;# 
   956  031D                     	;# 
   957  031E                     	;# 
   958  038C                     	;# 
   959  038C                     	;# 
   960  038D                     	;# 
   961  038E                     	;# 
   962  058C                     	;# 
   963  058C                     	;# 
   964  058D                     	;# 
   965  058E                     	;# 
   966  058F                     	;# 
   967  058F                     	;# 
   968  0590                     	;# 
   969  0591                     	;# 
   970  0592                     	;# 
   971  0593                     	;# 
   972  059C                     	;# 
   973  059C                     	;# 
   974  059D                     	;# 
   975  059D                     	;# 
   976  059E                     	;# 
   977  059F                     	;# 
   978  060C                     	;# 
   979  060D                     	;# 
   980  060E                     	;# 
   981  060F                     	;# 
   982  0610                     	;# 
   983  0611                     	;# 
   984  0612                     	;# 
   985  0613                     	;# 
   986  0614                     	;# 
   987  070C                     	;# 
   988  070D                     	;# 
   989  070E                     	;# 
   990  070F                     	;# 
   991  0710                     	;# 
   992  0711                     	;# 
   993  0712                     	;# 
   994  0713                     	;# 
   995  0716                     	;# 
   996  0717                     	;# 
   997  0718                     	;# 
   998  0719                     	;# 
   999  071A                     	;# 
  1000  071B                     	;# 
  1001  071C                     	;# 
  1002  071D                     	;# 
  1003  0796                     	;# 
  1004  0797                     	;# 
  1005  0798                     	;# 
  1006  0799                     	;# 
  1007  079A                     	;# 
  1008  079B                     	;# 
  1009  080C                     	;# 
  1010  080D                     	;# 
  1011  080E                     	;# 
  1012  080F                     	;# 
  1013  0810                     	;# 
  1014  0811                     	;# 
  1015  0813                     	;# 
  1016  0814                     	;# 
  1017  081A                     	;# 
  1018  081A                     	;# 
  1019  081B                     	;# 
  1020  081C                     	;# 
  1021  081C                     	;# 
  1022  081D                     	;# 
  1023  081E                     	;# 
  1024  081F                     	;# 
  1025  088C                     	;# 
  1026  088D                     	;# 
  1027  088E                     	;# 
  1028  088F                     	;# 
  1029  0890                     	;# 
  1030  0891                     	;# 
  1031  0892                     	;# 
  1032  0893                     	;# 
  1033  0895                     	;# 
  1034  0896                     	;# 
  1035  090C                     	;# 
  1036  090E                     	;# 
  1037  090F                     	;# 
  1038  091F                     	;# 
  1039  098F                     	;# 
  1040  098F                     	;# 
  1041  0990                     	;# 
  1042  0991                     	;# 
  1043  0992                     	;# 
  1044  0993                     	;# 
  1045  0994                     	;# 
  1046  0995                     	;# 
  1047  0996                     	;# 
  1048  0997                     	;# 
  1049  0A19                     	;# 
  1050  0A19                     	;# 
  1051  0A1A                     	;# 
  1052  0A1A                     	;# 
  1053  0A1B                     	;# 
  1054  0A1B                     	;# 
  1055  0A1B                     	;# 
  1056  0A1C                     	;# 
  1057  0A1C                     	;# 
  1058  0A1D                     	;# 
  1059  0A1D                     	;# 
  1060  0A1E                     	;# 
  1061  0A1E                     	;# 
  1062  0A1F                     	;# 
  1063  0A1F                     	;# 
  1064  0A1F                     	;# 
  1065  1E0F                     	;# 
  1066  1E10                     	;# 
  1067  1E11                     	;# 
  1068  1E12                     	;# 
  1069  1E13                     	;# 
  1070  1E14                     	;# 
  1071  1E15                     	;# 
  1072  1E16                     	;# 
  1073  1E17                     	;# 
  1074  1E18                     	;# 
  1075  1E19                     	;# 
  1076  1E1A                     	;# 
  1077  1E1B                     	;# 
  1078  1E1C                     	;# 
  1079  1E1D                     	;# 
  1080  1E1E                     	;# 
  1081  1E1F                     	;# 
  1082  1E20                     	;# 
  1083  1E21                     	;# 
  1084  1E22                     	;# 
  1085  1E23                     	;# 
  1086  1E24                     	;# 
  1087  1E25                     	;# 
  1088  1E26                     	;# 
  1089  1E27                     	;# 
  1090  1E28                     	;# 
  1091  1E29                     	;# 
  1092  1E2A                     	;# 
  1093  1E2B                     	;# 
  1094  1E2C                     	;# 
  1095  1E2D                     	;# 
  1096  1E2E                     	;# 
  1097  1E2F                     	;# 
  1098  1E30                     	;# 
  1099  1E31                     	;# 
  1100  1E32                     	;# 
  1101  1E33                     	;# 
  1102  1E34                     	;# 
  1103  1E35                     	;# 
  1104  1E36                     	;# 
  1105  1E37                     	;# 
  1106  1E8F                     	;# 
  1107  1E90                     	;# 
  1108  1E91                     	;# 
  1109  1E92                     	;# 
  1110  1E93                     	;# 
  1111  1E9C                     	;# 
  1112  1EA1                     	;# 
  1113  1EA2                     	;# 
  1114  1EB1                     	;# 
  1115  1EBB                     	;# 
  1116  1EBC                     	;# 
  1117  1EBD                     	;# 
  1118  1EBE                     	;# 
  1119  1EC3                     	;# 
  1120  1EC5                     	;# 
  1121  1EC6                     	;# 
  1122  1EC7                     	;# 
  1123  1EC8                     	;# 
  1124  1EC9                     	;# 
  1125  1ECA                     	;# 
  1126  1ECB                     	;# 
  1127  1ECC                     	;# 
  1128  1ECD                     	;# 
  1129  1ECE                     	;# 
  1130  1F10                     	;# 
  1131  1F11                     	;# 
  1132  1F12                     	;# 
  1133  1F13                     	;# 
  1134  1F14                     	;# 
  1135  1F15                     	;# 
  1136  1F16                     	;# 
  1137  1F17                     	;# 
  1138  1F18                     	;# 
  1139  1F19                     	;# 
  1140  1F1A                     	;# 
  1141  1F1B                     	;# 
  1142  1F1C                     	;# 
  1143  1F1D                     	;# 
  1144  1F1E                     	;# 
  1145  1F1F                     	;# 
  1146  1F20                     	;# 
  1147  1F21                     	;# 
  1148  1F22                     	;# 
  1149  1F23                     	;# 
  1150  1F24                     	;# 
  1151  1F25                     	;# 
  1152  1F26                     	;# 
  1153  1F27                     	;# 
  1154  1F28                     	;# 
  1155  1F29                     	;# 
  1156  1F2A                     	;# 
  1157  1F2B                     	;# 
  1158  1F2C                     	;# 
  1159  1F2D                     	;# 
  1160  1F2E                     	;# 
  1161  1F2F                     	;# 
  1162  1F30                     	;# 
  1163  1F31                     	;# 
  1164  1F32                     	;# 
  1165  1F38                     	;# 
  1166  1F39                     	;# 
  1167  1F3A                     	;# 
  1168  1F3B                     	;# 
  1169  1F3C                     	;# 
  1170  1F3D                     	;# 
  1171  1F3E                     	;# 
  1172  1F3F                     	;# 
  1173  1F43                     	;# 
  1174  1F44                     	;# 
  1175  1F45                     	;# 
  1176  1F46                     	;# 
  1177  1F47                     	;# 
  1178  1F48                     	;# 
  1179  1F49                     	;# 
  1180  1F4A                     	;# 
  1181  1F4E                     	;# 
  1182  1F4F                     	;# 
  1183  1F50                     	;# 
  1184  1F51                     	;# 
  1185  1F52                     	;# 
  1186  1F53                     	;# 
  1187  1F54                     	;# 
  1188  1F55                     	;# 
  1189  1F59                     	;# 
  1190  1F5A                     	;# 
  1191  1F5B                     	;# 
  1192  1F5C                     	;# 
  1193  1F5D                     	;# 
  1194  1F64                     	;# 
  1195  1F65                     	;# 
  1196  1F66                     	;# 
  1197  1F67                     	;# 
  1198  1F68                     	;# 
  1199  1F69                     	;# 
  1200  1F6A                     	;# 
  1201  1F6B                     	;# 
  1202  1FE4                     	;# 
  1203  1FE5                     	;# 
  1204  1FE6                     	;# 
  1205  1FE7                     	;# 
  1206  1FE8                     	;# 
  1207  1FE8                     	;# 
  1208  1FE9                     	;# 
  1209  1FEA                     	;# 
  1210  1FEB                     	;# 
  1211  1FED                     	;# 
  1212  1FEE                     	;# 
  1213  1FEF                     	;# 
  1214  0000                     	;# 
  1215  0001                     	;# 
  1216  0002                     	;# 
  1217  0003                     	;# 
  1218  0004                     	;# 
  1219  0005                     	;# 
  1220  0006                     	;# 
  1221  0007                     	;# 
  1222  0008                     	;# 
  1223  0009                     	;# 
  1224  000A                     	;# 
  1225  000B                     	;# 
  1226  000C                     	;# 
  1227  000D                     	;# 
  1228  000E                     	;# 
  1229  000F                     	;# 
  1230  0010                     	;# 
  1231  0012                     	;# 
  1232  0013                     	;# 
  1233  0014                     	;# 
  1234  0015                     	;# 
  1235  0016                     	;# 
  1236  0018                     	;# 
  1237  0019                     	;# 
  1238  001A                     	;# 
  1239  001B                     	;# 
  1240  001C                     	;# 
  1241  009B                     	;# 
  1242  009B                     	;# 
  1243  009C                     	;# 
  1244  009D                     	;# 
  1245  009E                     	;# 
  1246  009F                     	;# 
  1247  0119                     	;# 
  1248  0119                     	;# 
  1249  0119                     	;# 
  1250  011A                     	;# 
  1251  011A                     	;# 
  1252  011A                     	;# 
  1253  011B                     	;# 
  1254  011B                     	;# 
  1255  011B                     	;# 
  1256  011B                     	;# 
  1257  011B                     	;# 
  1258  011C                     	;# 
  1259  011C                     	;# 
  1260  011C                     	;# 
  1261  011D                     	;# 
  1262  011D                     	;# 
  1263  011D                     	;# 
  1264  011E                     	;# 
  1265  011E                     	;# 
  1266  011E                     	;# 
  1267  011F                     	;# 
  1268  011F                     	;# 
  1269  011F                     	;# 
  1270  011F                     	;# 
  1271  011F                     	;# 
  1272  018C                     	;# 
  1273  018D                     	;# 
  1274  018E                     	;# 
  1275  018F                     	;# 
  1276  0190                     	;# 
  1277  0191                     	;# 
  1278  0192                     	;# 
  1279  0196                     	;# 
  1280  0197                     	;# 
  1281  0198                     	;# 
  1282  0199                     	;# 
  1283  019A                     	;# 
  1284  019B                     	;# 
  1285  019C                     	;# 
  1286  020C                     	;# 
  1287  020C                     	;# 
  1288  020D                     	;# 
  1289  020E                     	;# 
  1290  020F                     	;# 
  1291  020F                     	;# 
  1292  0210                     	;# 
  1293  0210                     	;# 
  1294  0211                     	;# 
  1295  0211                     	;# 
  1296  028C                     	;# 
  1297  028C                     	;# 
  1298  028D                     	;# 
  1299  028D                     	;# 
  1300  028E                     	;# 
  1301  028F                     	;# 
  1302  0290                     	;# 
  1303  0291                     	;# 
  1304  030C                     	;# 
  1305  030C                     	;# 
  1306  030D                     	;# 
  1307  030E                     	;# 
  1308  030F                     	;# 
  1309  0310                     	;# 
  1310  0310                     	;# 
  1311  0311                     	;# 
  1312  0312                     	;# 
  1313  0313                     	;# 
  1314  0314                     	;# 
  1315  0314                     	;# 
  1316  0315                     	;# 
  1317  0316                     	;# 
  1318  0318                     	;# 
  1319  0318                     	;# 
  1320  0319                     	;# 
  1321  031A                     	;# 
  1322  031C                     	;# 
  1323  031C                     	;# 
  1324  031D                     	;# 
  1325  031E                     	;# 
  1326  038C                     	;# 
  1327  038C                     	;# 
  1328  038D                     	;# 
  1329  038E                     	;# 
  1330  058C                     	;# 
  1331  058C                     	;# 
  1332  058D                     	;# 
  1333  058E                     	;# 
  1334  058F                     	;# 
  1335  058F                     	;# 
  1336  0590                     	;# 
  1337  0591                     	;# 
  1338  0592                     	;# 
  1339  0593                     	;# 
  1340  059C                     	;# 
  1341  059C                     	;# 
  1342  059D                     	;# 
  1343  059D                     	;# 
  1344  059E                     	;# 
  1345  059F                     	;# 
  1346  060C                     	;# 
  1347  060D                     	;# 
  1348  060E                     	;# 
  1349  060F                     	;# 
  1350  0610                     	;# 
  1351  0611                     	;# 
  1352  0612                     	;# 
  1353  0613                     	;# 
  1354  0614                     	;# 
  1355  070C                     	;# 
  1356  070D                     	;# 
  1357  070E                     	;# 
  1358  070F                     	;# 
  1359  0710                     	;# 
  1360  0711                     	;# 
  1361  0712                     	;# 
  1362  0713                     	;# 
  1363  0716                     	;# 
  1364  0717                     	;# 
  1365  0718                     	;# 
  1366  0719                     	;# 
  1367  071A                     	;# 
  1368  071B                     	;# 
  1369  071C                     	;# 
  1370  071D                     	;# 
  1371  0796                     	;# 
  1372  0797                     	;# 
  1373  0798                     	;# 
  1374  0799                     	;# 
  1375  079A                     	;# 
  1376  079B                     	;# 
  1377  080C                     	;# 
  1378  080D                     	;# 
  1379  080E                     	;# 
  1380  080F                     	;# 
  1381  0810                     	;# 
  1382  0811                     	;# 
  1383  0813                     	;# 
  1384  0814                     	;# 
  1385  081A                     	;# 
  1386  081A                     	;# 
  1387  081B                     	;# 
  1388  081C                     	;# 
  1389  081C                     	;# 
  1390  081D                     	;# 
  1391  081E                     	;# 
  1392  081F                     	;# 
  1393  088C                     	;# 
  1394  088D                     	;# 
  1395  088E                     	;# 
  1396  088F                     	;# 
  1397  0890                     	;# 
  1398  0891                     	;# 
  1399  0892                     	;# 
  1400  0893                     	;# 
  1401  0895                     	;# 
  1402  0896                     	;# 
  1403  090C                     	;# 
  1404  090E                     	;# 
  1405  090F                     	;# 
  1406  091F                     	;# 
  1407  098F                     	;# 
  1408  098F                     	;# 
  1409  0990                     	;# 
  1410  0991                     	;# 
  1411  0992                     	;# 
  1412  0993                     	;# 
  1413  0994                     	;# 
  1414  0995                     	;# 
  1415  0996                     	;# 
  1416  0997                     	;# 
  1417  0A19                     	;# 
  1418  0A19                     	;# 
  1419  0A1A                     	;# 
  1420  0A1A                     	;# 
  1421  0A1B                     	;# 
  1422  0A1B                     	;# 
  1423  0A1B                     	;# 
  1424  0A1C                     	;# 
  1425  0A1C                     	;# 
  1426  0A1D                     	;# 
  1427  0A1D                     	;# 
  1428  0A1E                     	;# 
  1429  0A1E                     	;# 
  1430  0A1F                     	;# 
  1431  0A1F                     	;# 
  1432  0A1F                     	;# 
  1433  1E0F                     	;# 
  1434  1E10                     	;# 
  1435  1E11                     	;# 
  1436  1E12                     	;# 
  1437  1E13                     	;# 
  1438  1E14                     	;# 
  1439  1E15                     	;# 
  1440  1E16                     	;# 
  1441  1E17                     	;# 
  1442  1E18                     	;# 
  1443  1E19                     	;# 
  1444  1E1A                     	;# 
  1445  1E1B                     	;# 
  1446  1E1C                     	;# 
  1447  1E1D                     	;# 
  1448  1E1E                     	;# 
  1449  1E1F                     	;# 
  1450  1E20                     	;# 
  1451  1E21                     	;# 
  1452  1E22                     	;# 
  1453  1E23                     	;# 
  1454  1E24                     	;# 
  1455  1E25                     	;# 
  1456  1E26                     	;# 
  1457  1E27                     	;# 
  1458  1E28                     	;# 
  1459  1E29                     	;# 
  1460  1E2A                     	;# 
  1461  1E2B                     	;# 
  1462  1E2C                     	;# 
  1463  1E2D                     	;# 
  1464  1E2E                     	;# 
  1465  1E2F                     	;# 
  1466  1E30                     	;# 
  1467  1E31                     	;# 
  1468  1E32                     	;# 
  1469  1E33                     	;# 
  1470  1E34                     	;# 
  1471  1E35                     	;# 
  1472  1E36                     	;# 
  1473  1E37                     	;# 
  1474  1E8F                     	;# 
  1475  1E90                     	;# 
  1476  1E91                     	;# 
  1477  1E92                     	;# 
  1478  1E93                     	;# 
  1479  1E9C                     	;# 
  1480  1EA1                     	;# 
  1481  1EA2                     	;# 
  1482  1EB1                     	;# 
  1483  1EBB                     	;# 
  1484  1EBC                     	;# 
  1485  1EBD                     	;# 
  1486  1EBE                     	;# 
  1487  1EC3                     	;# 
  1488  1EC5                     	;# 
  1489  1EC6                     	;# 
  1490  1EC7                     	;# 
  1491  1EC8                     	;# 
  1492  1EC9                     	;# 
  1493  1ECA                     	;# 
  1494  1ECB                     	;# 
  1495  1ECC                     	;# 
  1496  1ECD                     	;# 
  1497  1ECE                     	;# 
  1498  1F10                     	;# 
  1499  1F11                     	;# 
  1500  1F12                     	;# 
  1501  1F13                     	;# 
  1502  1F14                     	;# 
  1503  1F15                     	;# 
  1504  1F16                     	;# 
  1505  1F17                     	;# 
  1506  1F18                     	;# 
  1507  1F19                     	;# 
  1508  1F1A                     	;# 
  1509  1F1B                     	;# 
  1510  1F1C                     	;# 
  1511  1F1D                     	;# 
  1512  1F1E                     	;# 
  1513  1F1F                     	;# 
  1514  1F20                     	;# 
  1515  1F21                     	;# 
  1516  1F22                     	;# 
  1517  1F23                     	;# 
  1518  1F24                     	;# 
  1519  1F25                     	;# 
  1520  1F26                     	;# 
  1521  1F27                     	;# 
  1522  1F28                     	;# 
  1523  1F29                     	;# 
  1524  1F2A                     	;# 
  1525  1F2B                     	;# 
  1526  1F2C                     	;# 
  1527  1F2D                     	;# 
  1528  1F2E                     	;# 
  1529  1F2F                     	;# 
  1530  1F30                     	;# 
  1531  1F31                     	;# 
  1532  1F32                     	;# 
  1533  1F38                     	;# 
  1534  1F39                     	;# 
  1535  1F3A                     	;# 
  1536  1F3B                     	;# 
  1537  1F3C                     	;# 
  1538  1F3D                     	;# 
  1539  1F3E                     	;# 
  1540  1F3F                     	;# 
  1541  1F43                     	;# 
  1542  1F44                     	;# 
  1543  1F45                     	;# 
  1544  1F46                     	;# 
  1545  1F47                     	;# 
  1546  1F48                     	;# 
  1547  1F49                     	;# 
  1548  1F4A                     	;# 
  1549  1F4E                     	;# 
  1550  1F4F                     	;# 
  1551  1F50                     	;# 
  1552  1F51                     	;# 
  1553  1F52                     	;# 
  1554  1F53                     	;# 
  1555  1F54                     	;# 
  1556  1F55                     	;# 
  1557  1F59                     	;# 
  1558  1F5A                     	;# 
  1559  1F5B                     	;# 
  1560  1F5C                     	;# 
  1561  1F5D                     	;# 
  1562  1F64                     	;# 
  1563  1F65                     	;# 
  1564  1F66                     	;# 
  1565  1F67                     	;# 
  1566  1F68                     	;# 
  1567  1F69                     	;# 
  1568  1F6A                     	;# 
  1569  1F6B                     	;# 
  1570  1FE4                     	;# 
  1571  1FE5                     	;# 
  1572  1FE6                     	;# 
  1573  1FE7                     	;# 
  1574  1FE8                     	;# 
  1575  1FE8                     	;# 
  1576  1FE9                     	;# 
  1577  1FEA                     	;# 
  1578  1FEB                     	;# 
  1579  1FED                     	;# 
  1580  1FEE                     	;# 
  1581  1FEF                     	;# 
  1582  0000                     	;# 
  1583  0001                     	;# 
  1584  0002                     	;# 
  1585  0003                     	;# 
  1586  0004                     	;# 
  1587  0005                     	;# 
  1588  0006                     	;# 
  1589  0007                     	;# 
  1590  0008                     	;# 
  1591  0009                     	;# 
  1592  000A                     	;# 
  1593  000B                     	;# 
  1594  000C                     	;# 
  1595  000D                     	;# 
  1596  000E                     	;# 
  1597  000F                     	;# 
  1598  0010                     	;# 
  1599  0012                     	;# 
  1600  0013                     	;# 
  1601  0014                     	;# 
  1602  0015                     	;# 
  1603  0016                     	;# 
  1604  0018                     	;# 
  1605  0019                     	;# 
  1606  001A                     	;# 
  1607  001B                     	;# 
  1608  001C                     	;# 
  1609  009B                     	;# 
  1610  009B                     	;# 
  1611  009C                     	;# 
  1612  009D                     	;# 
  1613  009E                     	;# 
  1614  009F                     	;# 
  1615  0119                     	;# 
  1616  0119                     	;# 
  1617  0119                     	;# 
  1618  011A                     	;# 
  1619  011A                     	;# 
  1620  011A                     	;# 
  1621  011B                     	;# 
  1622  011B                     	;# 
  1623  011B                     	;# 
  1624  011B                     	;# 
  1625  011B                     	;# 
  1626  011C                     	;# 
  1627  011C                     	;# 
  1628  011C                     	;# 
  1629  011D                     	;# 
  1630  011D                     	;# 
  1631  011D                     	;# 
  1632  011E                     	;# 
  1633  011E                     	;# 
  1634  011E                     	;# 
  1635  011F                     	;# 
  1636  011F                     	;# 
  1637  011F                     	;# 
  1638  011F                     	;# 
  1639  011F                     	;# 
  1640  018C                     	;# 
  1641  018D                     	;# 
  1642  018E                     	;# 
  1643  018F                     	;# 
  1644  0190                     	;# 
  1645  0191                     	;# 
  1646  0192                     	;# 
  1647  0196                     	;# 
  1648  0197                     	;# 
  1649  0198                     	;# 
  1650  0199                     	;# 
  1651  019A                     	;# 
  1652  019B                     	;# 
  1653  019C                     	;# 
  1654  020C                     	;# 
  1655  020C                     	;# 
  1656  020D                     	;# 
  1657  020E                     	;# 
  1658  020F                     	;# 
  1659  020F                     	;# 
  1660  0210                     	;# 
  1661  0210                     	;# 
  1662  0211                     	;# 
  1663  0211                     	;# 
  1664  028C                     	;# 
  1665  028C                     	;# 
  1666  028D                     	;# 
  1667  028D                     	;# 
  1668  028E                     	;# 
  1669  028F                     	;# 
  1670  0290                     	;# 
  1671  0291                     	;# 
  1672  030C                     	;# 
  1673  030C                     	;# 
  1674  030D                     	;# 
  1675  030E                     	;# 
  1676  030F                     	;# 
  1677  0310                     	;# 
  1678  0310                     	;# 
  1679  0311                     	;# 
  1680  0312                     	;# 
  1681  0313                     	;# 
  1682  0314                     	;# 
  1683  0314                     	;# 
  1684  0315                     	;# 
  1685  0316                     	;# 
  1686  0318                     	;# 
  1687  0318                     	;# 
  1688  0319                     	;# 
  1689  031A                     	;# 
  1690  031C                     	;# 
  1691  031C                     	;# 
  1692  031D                     	;# 
  1693  031E                     	;# 
  1694  038C                     	;# 
  1695  038C                     	;# 
  1696  038D                     	;# 
  1697  038E                     	;# 
  1698  058C                     	;# 
  1699  058C                     	;# 
  1700  058D                     	;# 
  1701  058E                     	;# 
  1702  058F                     	;# 
  1703  058F                     	;# 
  1704  0590                     	;# 
  1705  0591                     	;# 
  1706  0592                     	;# 
  1707  0593                     	;# 
  1708  059C                     	;# 
  1709  059C                     	;# 
  1710  059D                     	;# 
  1711  059D                     	;# 
  1712  059E                     	;# 
  1713  059F                     	;# 
  1714  060C                     	;# 
  1715  060D                     	;# 
  1716  060E                     	;# 
  1717  060F                     	;# 
  1718  0610                     	;# 
  1719  0611                     	;# 
  1720  0612                     	;# 
  1721  0613                     	;# 
  1722  0614                     	;# 
  1723  070C                     	;# 
  1724  070D                     	;# 
  1725  070E                     	;# 
  1726  070F                     	;# 
  1727  0710                     	;# 
  1728  0711                     	;# 
  1729  0712                     	;# 
  1730  0713                     	;# 
  1731  0716                     	;# 
  1732  0717                     	;# 
  1733  0718                     	;# 
  1734  0719                     	;# 
  1735  071A                     	;# 
  1736  071B                     	;# 
  1737  071C                     	;# 
  1738  071D                     	;# 
  1739  0796                     	;# 
  1740  0797                     	;# 
  1741  0798                     	;# 
  1742  0799                     	;# 
  1743  079A                     	;# 
  1744  079B                     	;# 
  1745  080C                     	;# 
  1746  080D                     	;# 
  1747  080E                     	;# 
  1748  080F                     	;# 
  1749  0810                     	;# 
  1750  0811                     	;# 
  1751  0813                     	;# 
  1752  0814                     	;# 
  1753  081A                     	;# 
  1754  081A                     	;# 
  1755  081B                     	;# 
  1756  081C                     	;# 
  1757  081C                     	;# 
  1758  081D                     	;# 
  1759  081E                     	;# 
  1760  081F                     	;# 
  1761  088C                     	;# 
  1762  088D                     	;# 
  1763  088E                     	;# 
  1764  088F                     	;# 
  1765  0890                     	;# 
  1766  0891                     	;# 
  1767  0892                     	;# 
  1768  0893                     	;# 
  1769  0895                     	;# 
  1770  0896                     	;# 
  1771  090C                     	;# 
  1772  090E                     	;# 
  1773  090F                     	;# 
  1774  091F                     	;# 
  1775  098F                     	;# 
  1776  098F                     	;# 
  1777  0990                     	;# 
  1778  0991                     	;# 
  1779  0992                     	;# 
  1780  0993                     	;# 
  1781  0994                     	;# 
  1782  0995                     	;# 
  1783  0996                     	;# 
  1784  0997                     	;# 
  1785  0A19                     	;# 
  1786  0A19                     	;# 
  1787  0A1A                     	;# 
  1788  0A1A                     	;# 
  1789  0A1B                     	;# 
  1790  0A1B                     	;# 
  1791  0A1B                     	;# 
  1792  0A1C                     	;# 
  1793  0A1C                     	;# 
  1794  0A1D                     	;# 
  1795  0A1D                     	;# 
  1796  0A1E                     	;# 
  1797  0A1E                     	;# 
  1798  0A1F                     	;# 
  1799  0A1F                     	;# 
  1800  0A1F                     	;# 
  1801  1E0F                     	;# 
  1802  1E10                     	;# 
  1803  1E11                     	;# 
  1804  1E12                     	;# 
  1805  1E13                     	;# 
  1806  1E14                     	;# 
  1807  1E15                     	;# 
  1808  1E16                     	;# 
  1809  1E17                     	;# 
  1810  1E18                     	;# 
  1811  1E19                     	;# 
  1812  1E1A                     	;# 
  1813  1E1B                     	;# 
  1814  1E1C                     	;# 
  1815  1E1D                     	;# 
  1816  1E1E                     	;# 
  1817  1E1F                     	;# 
  1818  1E20                     	;# 
  1819  1E21                     	;# 
  1820  1E22                     	;# 
  1821  1E23                     	;# 
  1822  1E24                     	;# 
  1823  1E25                     	;# 
  1824  1E26                     	;# 
  1825  1E27                     	;# 
  1826  1E28                     	;# 
  1827  1E29                     	;# 
  1828  1E2A                     	;# 
  1829  1E2B                     	;# 
  1830  1E2C                     	;# 
  1831  1E2D                     	;# 
  1832  1E2E                     	;# 
  1833  1E2F                     	;# 
  1834  1E30                     	;# 
  1835  1E31                     	;# 
  1836  1E32                     	;# 
  1837  1E33                     	;# 
  1838  1E34                     	;# 
  1839  1E35                     	;# 
  1840  1E36                     	;# 
  1841  1E37                     	;# 
  1842  1E8F                     	;# 
  1843  1E90                     	;# 
  1844  1E91                     	;# 
  1845  1E92                     	;# 
  1846  1E93                     	;# 
  1847  1E9C                     	;# 
  1848  1EA1                     	;# 
  1849  1EA2                     	;# 
  1850  1EB1                     	;# 
  1851  1EBB                     	;# 
  1852  1EBC                     	;# 
  1853  1EBD                     	;# 
  1854  1EBE                     	;# 
  1855  1EC3                     	;# 
  1856  1EC5                     	;# 
  1857  1EC6                     	;# 
  1858  1EC7                     	;# 
  1859  1EC8                     	;# 
  1860  1EC9                     	;# 
  1861  1ECA                     	;# 
  1862  1ECB                     	;# 
  1863  1ECC                     	;# 
  1864  1ECD                     	;# 
  1865  1ECE                     	;# 
  1866  1F10                     	;# 
  1867  1F11                     	;# 
  1868  1F12                     	;# 
  1869  1F13                     	;# 
  1870  1F14                     	;# 
  1871  1F15                     	;# 
  1872  1F16                     	;# 
  1873  1F17                     	;# 
  1874  1F18                     	;# 
  1875  1F19                     	;# 
  1876  1F1A                     	;# 
  1877  1F1B                     	;# 
  1878  1F1C                     	;# 
  1879  1F1D                     	;# 
  1880  1F1E                     	;# 
  1881  1F1F                     	;# 
  1882  1F20                     	;# 
  1883  1F21                     	;# 
  1884  1F22                     	;# 
  1885  1F23                     	;# 
  1886  1F24                     	;# 
  1887  1F25                     	;# 
  1888  1F26                     	;# 
  1889  1F27                     	;# 
  1890  1F28                     	;# 
  1891  1F29                     	;# 
  1892  1F2A                     	;# 
  1893  1F2B                     	;# 
  1894  1F2C                     	;# 
  1895  1F2D                     	;# 
  1896  1F2E                     	;# 
  1897  1F2F                     	;# 
  1898  1F30                     	;# 
  1899  1F31                     	;# 
  1900  1F32                     	;# 
  1901  1F38                     	;# 
  1902  1F39                     	;# 
  1903  1F3A                     	;# 
  1904  1F3B                     	;# 
  1905  1F3C                     	;# 
  1906  1F3D                     	;# 
  1907  1F3E                     	;# 
  1908  1F3F                     	;# 
  1909  1F43                     	;# 
  1910  1F44                     	;# 
  1911  1F45                     	;# 
  1912  1F46                     	;# 
  1913  1F47                     	;# 
  1914  1F48                     	;# 
  1915  1F49                     	;# 
  1916  1F4A                     	;# 
  1917  1F4E                     	;# 
  1918  1F4F                     	;# 
  1919  1F50                     	;# 
  1920  1F51                     	;# 
  1921  1F52                     	;# 
  1922  1F53                     	;# 
  1923  1F54                     	;# 
  1924  1F55                     	;# 
  1925  1F59                     	;# 
  1926  1F5A                     	;# 
  1927  1F5B                     	;# 
  1928  1F5C                     	;# 
  1929  1F5D                     	;# 
  1930  1F64                     	;# 
  1931  1F65                     	;# 
  1932  1F66                     	;# 
  1933  1F67                     	;# 
  1934  1F68                     	;# 
  1935  1F69                     	;# 
  1936  1F6A                     	;# 
  1937  1F6B                     	;# 
  1938  1FE4                     	;# 
  1939  1FE5                     	;# 
  1940  1FE6                     	;# 
  1941  1FE7                     	;# 
  1942  1FE8                     	;# 
  1943  1FE8                     	;# 
  1944  1FE9                     	;# 
  1945  1FEA                     	;# 
  1946  1FEB                     	;# 
  1947  1FED                     	;# 
  1948  1FEE                     	;# 
  1949  1FEF                     	;# 
  1950  0000                     	;# 
  1951  0001                     	;# 
  1952  0002                     	;# 
  1953  0003                     	;# 
  1954  0004                     	;# 
  1955  0005                     	;# 
  1956  0006                     	;# 
  1957  0007                     	;# 
  1958  0008                     	;# 
  1959  0009                     	;# 
  1960  000A                     	;# 
  1961  000B                     	;# 
  1962  000C                     	;# 
  1963  000D                     	;# 
  1964  000E                     	;# 
  1965  000F                     	;# 
  1966  0010                     	;# 
  1967  0012                     	;# 
  1968  0013                     	;# 
  1969  0014                     	;# 
  1970  0015                     	;# 
  1971  0016                     	;# 
  1972  0018                     	;# 
  1973  0019                     	;# 
  1974  001A                     	;# 
  1975  001B                     	;# 
  1976  001C                     	;# 
  1977  009B                     	;# 
  1978  009B                     	;# 
  1979  009C                     	;# 
  1980  009D                     	;# 
  1981  009E                     	;# 
  1982  009F                     	;# 
  1983  0119                     	;# 
  1984  0119                     	;# 
  1985  0119                     	;# 
  1986  011A                     	;# 
  1987  011A                     	;# 
  1988  011A                     	;# 
  1989  011B                     	;# 
  1990  011B                     	;# 
  1991  011B                     	;# 
  1992  011B                     	;# 
  1993  011B                     	;# 
  1994  011C                     	;# 
  1995  011C                     	;# 
  1996  011C                     	;# 
  1997  011D                     	;# 
  1998  011D                     	;# 
  1999  011D                     	;# 
  2000  011E                     	;# 
  2001  011E                     	;# 
  2002  011E                     	;# 
  2003  011F                     	;# 
  2004  011F                     	;# 
  2005  011F                     	;# 
  2006  011F                     	;# 
  2007  011F                     	;# 
  2008  018C                     	;# 
  2009  018D                     	;# 
  2010  018E                     	;# 
  2011  018F                     	;# 
  2012  0190                     	;# 
  2013  0191                     	;# 
  2014  0192                     	;# 
  2015  0196                     	;# 
  2016  0197                     	;# 
  2017  0198                     	;# 
  2018  0199                     	;# 
  2019  019A                     	;# 
  2020  019B                     	;# 
  2021  019C                     	;# 
  2022  020C                     	;# 
  2023  020C                     	;# 
  2024  020D                     	;# 
  2025  020E                     	;# 
  2026  020F                     	;# 
  2027  020F                     	;# 
  2028  0210                     	;# 
  2029  0210                     	;# 
  2030  0211                     	;# 
  2031  0211                     	;# 
  2032  028C                     	;# 
  2033  028C                     	;# 
  2034  028D                     	;# 
  2035  028D                     	;# 
  2036  028E                     	;# 
  2037  028F                     	;# 
  2038  0290                     	;# 
  2039  0291                     	;# 
  2040  030C                     	;# 
  2041  030C                     	;# 
  2042  030D                     	;# 
  2043  030E                     	;# 
  2044  030F                     	;# 
  2045  0310                     	;# 
  2046  0310                     	;# 
  2047  0311                     	;# 
  2048  0312                     	;# 
  2049  0313                     	;# 
  2050  0314                     	;# 
  2051  0314                     	;# 
  2052  0315                     	;# 
  2053  0316                     	;# 
  2054  0318                     	;# 
  2055  0318                     	;# 
  2056  0319                     	;# 
  2057  031A                     	;# 
  2058  031C                     	;# 
  2059  031C                     	;# 
  2060  031D                     	;# 
  2061  031E                     	;# 
  2062  038C                     	;# 
  2063  038C                     	;# 
  2064  038D                     	;# 
  2065  038E                     	;# 
  2066  058C                     	;# 
  2067  058C                     	;# 
  2068  058D                     	;# 
  2069  058E                     	;# 
  2070  058F                     	;# 
  2071  058F                     	;# 
  2072  0590                     	;# 
  2073  0591                     	;# 
  2074  0592                     	;# 
  2075  0593                     	;# 
  2076  059C                     	;# 
  2077  059C                     	;# 
  2078  059D                     	;# 
  2079  059D                     	;# 
  2080  059E                     	;# 
  2081  059F                     	;# 
  2082  060C                     	;# 
  2083  060D                     	;# 
  2084  060E                     	;# 
  2085  060F                     	;# 
  2086  0610                     	;# 
  2087  0611                     	;# 
  2088  0612                     	;# 
  2089  0613                     	;# 
  2090  0614                     	;# 
  2091  070C                     	;# 
  2092  070D                     	;# 
  2093  070E                     	;# 
  2094  070F                     	;# 
  2095  0710                     	;# 
  2096  0711                     	;# 
  2097  0712                     	;# 
  2098  0713                     	;# 
  2099  0716                     	;# 
  2100  0717                     	;# 
  2101  0718                     	;# 
  2102  0719                     	;# 
  2103  071A                     	;# 
  2104  071B                     	;# 
  2105  071C                     	;# 
  2106  071D                     	;# 
  2107  0796                     	;# 
  2108  0797                     	;# 
  2109  0798                     	;# 
  2110  0799                     	;# 
  2111  079A                     	;# 
  2112  079B                     	;# 
  2113  080C                     	;# 
  2114  080D                     	;# 
  2115  080E                     	;# 
  2116  080F                     	;# 
  2117  0810                     	;# 
  2118  0811                     	;# 
  2119  0813                     	;# 
  2120  0814                     	;# 
  2121  081A                     	;# 
  2122  081A                     	;# 
  2123  081B                     	;# 
  2124  081C                     	;# 
  2125  081C                     	;# 
  2126  081D                     	;# 
  2127  081E                     	;# 
  2128  081F                     	;# 
  2129  088C                     	;# 
  2130  088D                     	;# 
  2131  088E                     	;# 
  2132  088F                     	;# 
  2133  0890                     	;# 
  2134  0891                     	;# 
  2135  0892                     	;# 
  2136  0893                     	;# 
  2137  0895                     	;# 
  2138  0896                     	;# 
  2139  090C                     	;# 
  2140  090E                     	;# 
  2141  090F                     	;# 
  2142  091F                     	;# 
  2143  098F                     	;# 
  2144  098F                     	;# 
  2145  0990                     	;# 
  2146  0991                     	;# 
  2147  0992                     	;# 
  2148  0993                     	;# 
  2149  0994                     	;# 
  2150  0995                     	;# 
  2151  0996                     	;# 
  2152  0997                     	;# 
  2153  0A19                     	;# 
  2154  0A19                     	;# 
  2155  0A1A                     	;# 
  2156  0A1A                     	;# 
  2157  0A1B                     	;# 
  2158  0A1B                     	;# 
  2159  0A1B                     	;# 
  2160  0A1C                     	;# 
  2161  0A1C                     	;# 
  2162  0A1D                     	;# 
  2163  0A1D                     	;# 
  2164  0A1E                     	;# 
  2165  0A1E                     	;# 
  2166  0A1F                     	;# 
  2167  0A1F                     	;# 
  2168  0A1F                     	;# 
  2169  1E0F                     	;# 
  2170  1E10                     	;# 
  2171  1E11                     	;# 
  2172  1E12                     	;# 
  2173  1E13                     	;# 
  2174  1E14                     	;# 
  2175  1E15                     	;# 
  2176  1E16                     	;# 
  2177  1E17                     	;# 
  2178  1E18                     	;# 
  2179  1E19                     	;# 
  2180  1E1A                     	;# 
  2181  1E1B                     	;# 
  2182  1E1C                     	;# 
  2183  1E1D                     	;# 
  2184  1E1E                     	;# 
  2185  1E1F                     	;# 
  2186  1E20                     	;# 
  2187  1E21                     	;# 
  2188  1E22                     	;# 
  2189  1E23                     	;# 
  2190  1E24                     	;# 
  2191  1E25                     	;# 
  2192  1E26                     	;# 
  2193  1E27                     	;# 
  2194  1E28                     	;# 
  2195  1E29                     	;# 
  2196  1E2A                     	;# 
  2197  1E2B                     	;# 
  2198  1E2C                     	;# 
  2199  1E2D                     	;# 
  2200  1E2E                     	;# 
  2201  1E2F                     	;# 
  2202  1E30                     	;# 
  2203  1E31                     	;# 
  2204  1E32                     	;# 
  2205  1E33                     	;# 
  2206  1E34                     	;# 
  2207  1E35                     	;# 
  2208  1E36                     	;# 
  2209  1E37                     	;# 
  2210  1E8F                     	;# 
  2211  1E90                     	;# 
  2212  1E91                     	;# 
  2213  1E92                     	;# 
  2214  1E93                     	;# 
  2215  1E9C                     	;# 
  2216  1EA1                     	;# 
  2217  1EA2                     	;# 
  2218  1EB1                     	;# 
  2219  1EBB                     	;# 
  2220  1EBC                     	;# 
  2221  1EBD                     	;# 
  2222  1EBE                     	;# 
  2223  1EC3                     	;# 
  2224  1EC5                     	;# 
  2225  1EC6                     	;# 
  2226  1EC7                     	;# 
  2227  1EC8                     	;# 
  2228  1EC9                     	;# 
  2229  1ECA                     	;# 
  2230  1ECB                     	;# 
  2231  1ECC                     	;# 
  2232  1ECD                     	;# 
  2233  1ECE                     	;# 
  2234  1F10                     	;# 
  2235  1F11                     	;# 
  2236  1F12                     	;# 
  2237  1F13                     	;# 
  2238  1F14                     	;# 
  2239  1F15                     	;# 
  2240  1F16                     	;# 
  2241  1F17                     	;# 
  2242  1F18                     	;# 
  2243  1F19                     	;# 
  2244  1F1A                     	;# 
  2245  1F1B                     	;# 
  2246  1F1C                     	;# 
  2247  1F1D                     	;# 
  2248  1F1E                     	;# 
  2249  1F1F                     	;# 
  2250  1F20                     	;# 
  2251  1F21                     	;# 
  2252  1F22                     	;# 
  2253  1F23                     	;# 
  2254  1F24                     	;# 
  2255  1F25                     	;# 
  2256  1F26                     	;# 
  2257  1F27                     	;# 
  2258  1F28                     	;# 
  2259  1F29                     	;# 
  2260  1F2A                     	;# 
  2261  1F2B                     	;# 
  2262  1F2C                     	;# 
  2263  1F2D                     	;# 
  2264  1F2E                     	;# 
  2265  1F2F                     	;# 
  2266  1F30                     	;# 
  2267  1F31                     	;# 
  2268  1F32                     	;# 
  2269  1F38                     	;# 
  2270  1F39                     	;# 
  2271  1F3A                     	;# 
  2272  1F3B                     	;# 
  2273  1F3C                     	;# 
  2274  1F3D                     	;# 
  2275  1F3E                     	;# 
  2276  1F3F                     	;# 
  2277  1F43                     	;# 
  2278  1F44                     	;# 
  2279  1F45                     	;# 
  2280  1F46                     	;# 
  2281  1F47                     	;# 
  2282  1F48                     	;# 
  2283  1F49                     	;# 
  2284  1F4A                     	;# 
  2285  1F4E                     	;# 
  2286  1F4F                     	;# 
  2287  1F50                     	;# 
  2288  1F51                     	;# 
  2289  1F52                     	;# 
  2290  1F53                     	;# 
  2291  1F54                     	;# 
  2292  1F55                     	;# 
  2293  1F59                     	;# 
  2294  1F5A                     	;# 
  2295  1F5B                     	;# 
  2296  1F5C                     	;# 
  2297  1F5D                     	;# 
  2298  1F64                     	;# 
  2299  1F65                     	;# 
  2300  1F66                     	;# 
  2301  1F67                     	;# 
  2302  1F68                     	;# 
  2303  1F69                     	;# 
  2304  1F6A                     	;# 
  2305  1F6B                     	;# 
  2306  1FE4                     	;# 
  2307  1FE5                     	;# 
  2308  1FE6                     	;# 
  2309  1FE7                     	;# 
  2310  1FE8                     	;# 
  2311  1FE8                     	;# 
  2312  1FE9                     	;# 
  2313  1FEA                     	;# 
  2314  1FEB                     	;# 
  2315  1FED                     	;# 
  2316  1FEE                     	;# 
  2317  1FEF                     	;# 
  2318  0000                     	;# 
  2319  0001                     	;# 
  2320  0002                     	;# 
  2321  0003                     	;# 
  2322  0004                     	;# 
  2323  0005                     	;# 
  2324  0006                     	;# 
  2325  0007                     	;# 
  2326  0008                     	;# 
  2327  0009                     	;# 
  2328  000A                     	;# 
  2329  000B                     	;# 
  2330  000C                     	;# 
  2331  000D                     	;# 
  2332  000E                     	;# 
  2333  000F                     	;# 
  2334  0010                     	;# 
  2335  0012                     	;# 
  2336  0013                     	;# 
  2337  0014                     	;# 
  2338  0015                     	;# 
  2339  0016                     	;# 
  2340  0018                     	;# 
  2341  0019                     	;# 
  2342  001A                     	;# 
  2343  001B                     	;# 
  2344  001C                     	;# 
  2345  009B                     	;# 
  2346  009B                     	;# 
  2347  009C                     	;# 
  2348  009D                     	;# 
  2349  009E                     	;# 
  2350  009F                     	;# 
  2351  0119                     	;# 
  2352  0119                     	;# 
  2353  0119                     	;# 
  2354  011A                     	;# 
  2355  011A                     	;# 
  2356  011A                     	;# 
  2357  011B                     	;# 
  2358  011B                     	;# 
  2359  011B                     	;# 
  2360  011B                     	;# 
  2361  011B                     	;# 
  2362  011C                     	;# 
  2363  011C                     	;# 
  2364  011C                     	;# 
  2365  011D                     	;# 
  2366  011D                     	;# 
  2367  011D                     	;# 
  2368  011E                     	;# 
  2369  011E                     	;# 
  2370  011E                     	;# 
  2371  011F                     	;# 
  2372  011F                     	;# 
  2373  011F                     	;# 
  2374  011F                     	;# 
  2375  011F                     	;# 
  2376  018C                     	;# 
  2377  018D                     	;# 
  2378  018E                     	;# 
  2379  018F                     	;# 
  2380  0190                     	;# 
  2381  0191                     	;# 
  2382  0192                     	;# 
  2383  0196                     	;# 
  2384  0197                     	;# 
  2385  0198                     	;# 
  2386  0199                     	;# 
  2387  019A                     	;# 
  2388  019B                     	;# 
  2389  019C                     	;# 
  2390  020C                     	;# 
  2391  020C                     	;# 
  2392  020D                     	;# 
  2393  020E                     	;# 
  2394  020F                     	;# 
  2395  020F                     	;# 
  2396  0210                     	;# 
  2397  0210                     	;# 
  2398  0211                     	;# 
  2399  0211                     	;# 
  2400  028C                     	;# 
  2401  028C                     	;# 
  2402  028D                     	;# 
  2403  028D                     	;# 
  2404  028E                     	;# 
  2405  028F                     	;# 
  2406  0290                     	;# 
  2407  0291                     	;# 
  2408  030C                     	;# 
  2409  030C                     	;# 
  2410  030D                     	;# 
  2411  030E                     	;# 
  2412  030F                     	;# 
  2413  0310                     	;# 
  2414  0310                     	;# 
  2415  0311                     	;# 
  2416  0312                     	;# 
  2417  0313                     	;# 
  2418  0314                     	;# 
  2419  0314                     	;# 
  2420  0315                     	;# 
  2421  0316                     	;# 
  2422  0318                     	;# 
  2423  0318                     	;# 
  2424  0319                     	;# 
  2425  031A                     	;# 
  2426  031C                     	;# 
  2427  031C                     	;# 
  2428  031D                     	;# 
  2429  031E                     	;# 
  2430  038C                     	;# 
  2431  038C                     	;# 
  2432  038D                     	;# 
  2433  038E                     	;# 
  2434  058C                     	;# 
  2435  058C                     	;# 
  2436  058D                     	;# 
  2437  058E                     	;# 
  2438  058F                     	;# 
  2439  058F                     	;# 
  2440  0590                     	;# 
  2441  0591                     	;# 
  2442  0592                     	;# 
  2443  0593                     	;# 
  2444  059C                     	;# 
  2445  059C                     	;# 
  2446  059D                     	;# 
  2447  059D                     	;# 
  2448  059E                     	;# 
  2449  059F                     	;# 
  2450  060C                     	;# 
  2451  060D                     	;# 
  2452  060E                     	;# 
  2453  060F                     	;# 
  2454  0610                     	;# 
  2455  0611                     	;# 
  2456  0612                     	;# 
  2457  0613                     	;# 
  2458  0614                     	;# 
  2459  070C                     	;# 
  2460  070D                     	;# 
  2461  070E                     	;# 
  2462  070F                     	;# 
  2463  0710                     	;# 
  2464  0711                     	;# 
  2465  0712                     	;# 
  2466  0713                     	;# 
  2467  0716                     	;# 
  2468  0717                     	;# 
  2469  0718                     	;# 
  2470  0719                     	;# 
  2471  071A                     	;# 
  2472  071B                     	;# 
  2473  071C                     	;# 
  2474  071D                     	;# 
  2475  0796                     	;# 
  2476  0797                     	;# 
  2477  0798                     	;# 
  2478  0799                     	;# 
  2479  079A                     	;# 
  2480  079B                     	;# 
  2481  080C                     	;# 
  2482  080D                     	;# 
  2483  080E                     	;# 
  2484  080F                     	;# 
  2485  0810                     	;# 
  2486  0811                     	;# 
  2487  0813                     	;# 
  2488  0814                     	;# 
  2489  081A                     	;# 
  2490  081A                     	;# 
  2491  081B                     	;# 
  2492  081C                     	;# 
  2493  081C                     	;# 
  2494  081D                     	;# 
  2495  081E                     	;# 
  2496  081F                     	;# 
  2497  088C                     	;# 
  2498  088D                     	;# 
  2499  088E                     	;# 
  2500  088F                     	;# 
  2501  0890                     	;# 
  2502  0891                     	;# 
  2503  0892                     	;# 
  2504  0893                     	;# 
  2505  0895                     	;# 
  2506  0896                     	;# 
  2507  090C                     	;# 
  2508  090E                     	;# 
  2509  090F                     	;# 
  2510  091F                     	;# 
  2511  098F                     	;# 
  2512  098F                     	;# 
  2513  0990                     	;# 
  2514  0991                     	;# 
  2515  0992                     	;# 
  2516  0993                     	;# 
  2517  0994                     	;# 
  2518  0995                     	;# 
  2519  0996                     	;# 
  2520  0997                     	;# 
  2521  0A19                     	;# 
  2522  0A19                     	;# 
  2523  0A1A                     	;# 
  2524  0A1A                     	;# 
  2525  0A1B                     	;# 
  2526  0A1B                     	;# 
  2527  0A1B                     	;# 
  2528  0A1C                     	;# 
  2529  0A1C                     	;# 
  2530  0A1D                     	;# 
  2531  0A1D                     	;# 
  2532  0A1E                     	;# 
  2533  0A1E                     	;# 
  2534  0A1F                     	;# 
  2535  0A1F                     	;# 
  2536  0A1F                     	;# 
  2537  1E0F                     	;# 
  2538  1E10                     	;# 
  2539  1E11                     	;# 
  2540  1E12                     	;# 
  2541  1E13                     	;# 
  2542  1E14                     	;# 
  2543  1E15                     	;# 
  2544  1E16                     	;# 
  2545  1E17                     	;# 
  2546  1E18                     	;# 
  2547  1E19                     	;# 
  2548  1E1A                     	;# 
  2549  1E1B                     	;# 
  2550  1E1C                     	;# 
  2551  1E1D                     	;# 
  2552  1E1E                     	;# 
  2553  1E1F                     	;# 
  2554  1E20                     	;# 
  2555  1E21                     	;# 
  2556  1E22                     	;# 
  2557  1E23                     	;# 
  2558  1E24                     	;# 
  2559  1E25                     	;# 
  2560  1E26                     	;# 
  2561  1E27                     	;# 
  2562  1E28                     	;# 
  2563  1E29                     	;# 
  2564  1E2A                     	;# 
  2565  1E2B                     	;# 
  2566  1E2C                     	;# 
  2567  1E2D                     	;# 
  2568  1E2E                     	;# 
  2569  1E2F                     	;# 
  2570  1E30                     	;# 
  2571  1E31                     	;# 
  2572  1E32                     	;# 
  2573  1E33                     	;# 
  2574  1E34                     	;# 
  2575  1E35                     	;# 
  2576  1E36                     	;# 
  2577  1E37                     	;# 
  2578  1E8F                     	;# 
  2579  1E90                     	;# 
  2580  1E91                     	;# 
  2581  1E92                     	;# 
  2582  1E93                     	;# 
  2583  1E9C                     	;# 
  2584  1EA1                     	;# 
  2585  1EA2                     	;# 
  2586  1EB1                     	;# 
  2587  1EBB                     	;# 
  2588  1EBC                     	;# 
  2589  1EBD                     	;# 
  2590  1EBE                     	;# 
  2591  1EC3                     	;# 
  2592  1EC5                     	;# 
  2593  1EC6                     	;# 
  2594  1EC7                     	;# 
  2595  1EC8                     	;# 
  2596  1EC9                     	;# 
  2597  1ECA                     	;# 
  2598  1ECB                     	;# 
  2599  1ECC                     	;# 
  2600  1ECD                     	;# 
  2601  1ECE                     	;# 
  2602  1F10                     	;# 
  2603  1F11                     	;# 
  2604  1F12                     	;# 
  2605  1F13                     	;# 
  2606  1F14                     	;# 
  2607  1F15                     	;# 
  2608  1F16                     	;# 
  2609  1F17                     	;# 
  2610  1F18                     	;# 
  2611  1F19                     	;# 
  2612  1F1A                     	;# 
  2613  1F1B                     	;# 
  2614  1F1C                     	;# 
  2615  1F1D                     	;# 
  2616  1F1E                     	;# 
  2617  1F1F                     	;# 
  2618  1F20                     	;# 
  2619  1F21                     	;# 
  2620  1F22                     	;# 
  2621  1F23                     	;# 
  2622  1F24                     	;# 
  2623  1F25                     	;# 
  2624  1F26                     	;# 
  2625  1F27                     	;# 
  2626  1F28                     	;# 
  2627  1F29                     	;# 
  2628  1F2A                     	;# 
  2629  1F2B                     	;# 
  2630  1F2C                     	;# 
  2631  1F2D                     	;# 
  2632  1F2E                     	;# 
  2633  1F2F                     	;# 
  2634  1F30                     	;# 
  2635  1F31                     	;# 
  2636  1F32                     	;# 
  2637  1F38                     	;# 
  2638  1F39                     	;# 
  2639  1F3A                     	;# 
  2640  1F3B                     	;# 
  2641  1F3C                     	;# 
  2642  1F3D                     	;# 
  2643  1F3E                     	;# 
  2644  1F3F                     	;# 
  2645  1F43                     	;# 
  2646  1F44                     	;# 
  2647  1F45                     	;# 
  2648  1F46                     	;# 
  2649  1F47                     	;# 
  2650  1F48                     	;# 
  2651  1F49                     	;# 
  2652  1F4A                     	;# 
  2653  1F4E                     	;# 
  2654  1F4F                     	;# 
  2655  1F50                     	;# 
  2656  1F51                     	;# 
  2657  1F52                     	;# 
  2658  1F53                     	;# 
  2659  1F54                     	;# 
  2660  1F55                     	;# 
  2661  1F59                     	;# 
  2662  1F5A                     	;# 
  2663  1F5B                     	;# 
  2664  1F5C                     	;# 
  2665  1F5D                     	;# 
  2666  1F64                     	;# 
  2667  1F65                     	;# 
  2668  1F66                     	;# 
  2669  1F67                     	;# 
  2670  1F68                     	;# 
  2671  1F69                     	;# 
  2672  1F6A                     	;# 
  2673  1F6B                     	;# 
  2674  1FE4                     	;# 
  2675  1FE5                     	;# 
  2676  1FE6                     	;# 
  2677  1FE7                     	;# 
  2678  1FE8                     	;# 
  2679  1FE8                     	;# 
  2680  1FE9                     	;# 
  2681  1FEA                     	;# 
  2682  1FEB                     	;# 
  2683  1FED                     	;# 
  2684  1FEE                     	;# 
  2685  1FEF                     	;# 
  2686                           
  2687 ;; Function _wr1RegCompleteHandler is unused but had its address taken
  2688  0000                     
  2689 ;; Function _rd1RegCompleteHandler is unused but had its address taken
  2690  0000                     
  2691 ;; Function _rd2RegCompleteHandler is unused but had its address taken
  2692  0000                     
  2693 ;; Function _wr2RegCompleteHandler is unused but had its address taken
  2694  0000                     
  2695 ;; Function _rdBlkRegCompleteHandler is unused but had its address taken
  2696  0000                     
  2697 ;; Function _rd1RegCompleteHandler@i2c1_master_example$F146 is unused but had its address taken
  2698  0000                     
  2699 ;; Function _rd2RegCompleteHandler@i2c1_master_example$F157 is unused but had its address taken
  2700  0000                     
  2701 ;; Function _wr1RegCompleteHandler@i2c1_master_example$F163 is unused but had its address taken
  2702  0000                     
  2703 ;; Function _wr2RegCompleteHandler@i2c1_master_example$F169 is unused but had its address taken
  2704  0000                     
  2705 ;; Function _rdBlkRegCompleteHandler@i2c1_master_example$F180 is unused but had its address taken
  2706  0000                     
  2707 ;; Function _I2C1_MasterIsr is unused but had its address taken
  2708  0000                     
  2709 ;; Function _I2C1_DO_IDLE is unused but had its address taken
  2710  0000                     
  2711 ;; Function _I2C1_DO_SEND_ADR_READ is unused but had its address taken
  2712  0000                     
  2713 ;; Function _I2C1_DO_SEND_ADR_WRITE is unused but had its address taken
  2714  0000                     
  2715 ;; Function _I2C1_DO_TX is unused but had its address taken
  2716  0000                     
  2717 ;; Function _I2C1_DO_RX is unused but had its address taken
  2718  0000                     
  2719 ;; Function _I2C1_DO_RCEN is unused but had its address taken
  2720  0000                     
  2721 ;; Function _I2C1_DO_TX_EMPTY is unused but had its address taken
  2722  0000                     
  2723 ;; Function _I2C1_DO_SEND_RESTART_READ is unused but had its address taken
  2724  0000                     
  2725 ;; Function _I2C1_DO_SEND_RESTART_WRITE is unused but had its address taken
  2726  0000                     
  2727 ;; Function _I2C1_DO_SEND_RESTART is unused but had its address taken
  2728  0000                     
  2729 ;; Function _I2C1_DO_SEND_STOP is unused but had its address taken
  2730  0000                     
  2731 ;; Function _I2C1_DO_RX_ACK is unused but had its address taken
  2732  0000                     
  2733 ;; Function _I2C1_DO_RX_NACK_STOP is unused but had its address taken
  2734  0000                     
  2735 ;; Function _I2C1_DO_RX_NACK_RESTART is unused but had its address taken
  2736  0000                     
  2737 ;; Function _I2C1_DO_RESET is unused but had its address taken
  2738  0000                     
  2739 ;; Function _I2C1_DO_ADDRESS_NACK is unused but had its address taken
  2740  0000                     
  2741 ;; Function _I2C1_CallbackReturnStop is unused but had its address taken
  2742  0000                     
  2743 ;; Function _I2C1_CallbackReturnReset is unused but had its address taken
  2744  0000                     
  2745 ;; Function _EUSART1_DefaultFramingErrorHandler is unused but had its address taken
  2746  0000                     
  2747 ;; Function _EUSART1_DefaultOverrunErrorHandler is unused but had its address taken
  2748  0000                     
  2749 ;; Function _EUSART1_DefaultErrorHandler is unused but had its address taken
  2750  0000                     
  2751                           	psect	idataBANK1
  2752  0DD3                     __pidataBANK1:
  2753                           
  2754                           ;initializer for main@F8214
  2755  0DD3  3400               	retlw	0
  2756  0DD4  3401               	retlw	1
  2757  0DD5  3402               	retlw	2
  2758  0DD6  3403               	retlw	3
  2759  0DD7  3404               	retlw	4
  2760                           
  2761                           	psect	idataBANK2
  2762  0E50                     __pidataBANK2:
  2763                           
  2764                           ;initializer for I2CSIMPLE_example@F8205
  2765  0E50  3400               	retlw	0
  2766  0E51  3400               	retlw	0
  2767  0E52  34A1               	retlw	161
  2768  0E53  34A2               	retlw	162
  2769  0E54  34A3               	retlw	163
  2770  0E55  34A4               	retlw	164
  2771  0E56  34A5               	retlw	165
  2772  0E57  34A6               	retlw	166
  2773  0E58  34A7               	retlw	167
  2774  0E59  34A8               	retlw	168
  2775  0E5A  34A9               	retlw	169
  2776  0E5B  34AA               	retlw	170
  2777  0E5C  34AB               	retlw	171
  2778  0E5D  34AC               	retlw	172
  2779  0E5E  34AD               	retlw	173
  2780  0E5F  34AE               	retlw	174
  2781  0E60  34AF               	retlw	175
  2782                           
  2783                           	psect	stringtext1
  2784  1022                     __pstringtext1:
  2785  1022                     _i2c1_fsmStateTable:
  2786  1022  3400               	retlw	0
  2787  1023  3400               	retlw	0
  2788  1024  3400               	retlw	0
  2789  1025  3400               	retlw	0
  2790  1026  3400               	retlw	0
  2791  1027  3400               	retlw	0
  2792  1028  3400               	retlw	0
  2793  1029  3400               	retlw	0
  2794  102A  3400               	retlw	0
  2795  102B  3400               	retlw	0
  2796  102C  3400               	retlw	0
  2797  102D  3400               	retlw	0
  2798  102E  3400               	retlw	0
  2799  102F  3400               	retlw	0
  2800  1030  3400               	retlw	0
  2801  1031  3400               	retlw	0
  2802  1032  3400               	retlw	0
  2803  1033  3400               	retlw	0
  2804  1034  3400               	retlw	0
  2805  1035  3400               	retlw	0
  2806  1036  3400               	retlw	0
  2807  1037  3400               	retlw	0
  2808  1038  3400               	retlw	0
  2809  1039  3400               	retlw	0
  2810  103A  3400               	retlw	0
  2811  103B  3400               	retlw	0
  2812  103C  3400               	retlw	0
  2813  103D  3400               	retlw	0
  2814  103E  3400               	retlw	0
  2815  103F  3400               	retlw	0
  2816  1040  3400               	retlw	0
  2817  1041  3400               	retlw	0
  2818  1042                     __end_of_i2c1_fsmStateTable:
  2819                           
  2820                           	psect	nvBANK1
  2821  00E1                     __pnvBANK1:
  2822  00E1                     _EUSART1_ErrorHandler:
  2823  00E1                     	ds	2
  2824  00E3                     _EUSART1_OverrunErrorHandler:
  2825  00E3                     	ds	2
  2826  00E5                     _EUSART1_FramingErrorHandler:
  2827  00E5                     	ds	2
  2828  0015                     _TRISD	set	21
  2829  0014                     _TRISC	set	20
  2830  0013                     _TRISB	set	19
  2831  0012                     _TRISA	set	18
  2832  0016                     _TRISE	set	22
  2833  001A                     _LATC	set	26
  2834  0019                     _LATB	set	25
  2835  0018                     _LATA	set	24
  2836  001B                     _LATD	set	27
  2837  001C                     _LATE	set	28
  2838  011A                     _TX1REG	set	282
  2839  0119                     _RC1REG	set	281
  2840  011D                     _RC1STAbits	set	285
  2841  011E                     _TX1STAbits	set	286
  2842  011C                     _SP1BRGH	set	284
  2843  011B                     _SP1BRGL	set	283
  2844  011E                     _TX1STA	set	286
  2845  011D                     _RC1STA	set	285
  2846  011F                     _BAUD1CON	set	287
  2847  018F                     _SSP1STATbits	set	399
  2848  0191                     _SSP1CON2bits	set	401
  2849  018C                     _SSP1BUF	set	396
  2850  0190                     _SSP1CON1bits	set	400
  2851  018D                     _SSP1ADD	set	397
  2852  0191                     _SSP1CON2	set	401
  2853  0190                     _SSP1CON1	set	400
  2854  018F                     _SSP1STAT	set	399
  2855  0719                     _PIE3bits	set	1817
  2856  070F                     _PIR3bits	set	1807
  2857  079B                     _PMD5	set	1947
  2858  079A                     _PMD4	set	1946
  2859  0799                     _PMD3	set	1945
  2860  0798                     _PMD2	set	1944
  2861  0797                     _PMD1	set	1943
  2862  0796                     _PMD0	set	1942
  2863  0892                     _OSCTUNE	set	2194
  2864  0890                     _OSCSTAT	set	2192
  2865  0893                     _OSCFRQ	set	2195
  2866  0891                     _OSCEN	set	2193
  2867  088F                     _OSCCON3	set	2191
  2868  088D                     _OSCCON1	set	2189
  2869  1ECB                     _RX1DTPPS	set	7883
  2870  1EC6                     _SSP1DATPPS	set	7878
  2871  1EC5                     _SSP1CLKPPS	set	7877
  2872  1F22                     _RC2PPS	set	7970
  2873  1F24                     _RC4PPS	set	7972
  2874  1F23                     _RC3PPS	set	7971
  2875  1F68                     _INLVLE	set	8040
  2876  1F5D                     _INLVLD	set	8029
  2877  1F52                     _INLVLC	set	8018
  2878  1F47                     _INLVLB	set	8007
  2879  1F3C                     _INLVLA	set	7996
  2880  1F67                     _SLRCONE	set	8039
  2881  1F5C                     _SLRCOND	set	8028
  2882  1F51                     _SLRCONC	set	8017
  2883  1F46                     _SLRCONB	set	8006
  2884  1F3B                     _SLRCONA	set	7995
  2885  1F5B                     _ODCOND	set	8027
  2886  1F50                     _ODCONC	set	8016
  2887  1F45                     _ODCONB	set	8005
  2888  1F3A                     _ODCONA	set	7994
  2889  1F66                     _ODCONE	set	8038
  2890  1F4F                     _WPUC	set	8015
  2891  1F39                     _WPUA	set	7993
  2892  1F44                     _WPUB	set	8004
  2893  1F65                     _WPUE	set	8037
  2894  1F5A                     _WPUD	set	8026
  2895  1F38                     _ANSELA	set	7992
  2896  1F64                     _ANSELE	set	8036
  2897  1F43                     _ANSELB	set	8003
  2898  1F4E                     _ANSELC	set	8014
  2899  1F59                     _ANSELD	set	8025
  2900                           
  2901                           	psect	stringtext2
  2902  0800                     __pstringtext2:
  2903  0800                     STR_9:
  2904  0800  342D               	retlw	45	;'-'
  2905  0801  342D               	retlw	45	;'-'
  2906  0802  342D               	retlw	45	;'-'
  2907  0803  342D               	retlw	45	;'-'
  2908  0804  342D               	retlw	45	;'-'
  2909  0805  342D               	retlw	45	;'-'
  2910  0806  342D               	retlw	45	;'-'
  2911  0807  342D               	retlw	45	;'-'
  2912  0808  342D               	retlw	45	;'-'
  2913  0809  342D               	retlw	45	;'-'
  2914  080A  342D               	retlw	45	;'-'
  2915  080B  342D               	retlw	45	;'-'
  2916  080C  342D               	retlw	45	;'-'
  2917  080D  342D               	retlw	45	;'-'
  2918  080E  342D               	retlw	45	;'-'
  2919  080F  342D               	retlw	45	;'-'
  2920  0810  342D               	retlw	45	;'-'
  2921  0811  342D               	retlw	45	;'-'
  2922  0812  342D               	retlw	45	;'-'
  2923  0813  342D               	retlw	45	;'-'
  2924  0814  342D               	retlw	45	;'-'
  2925  0815  342D               	retlw	45	;'-'
  2926  0816  342D               	retlw	45	;'-'
  2927  0817  342D               	retlw	45	;'-'
  2928  0818  342D               	retlw	45	;'-'
  2929  0819  342D               	retlw	45	;'-'
  2930  081A  342D               	retlw	45	;'-'
  2931  081B  342D               	retlw	45	;'-'
  2932  081C  342D               	retlw	45	;'-'
  2933  081D  342D               	retlw	45	;'-'
  2934  081E  342D               	retlw	45	;'-'
  2935  081F  342D               	retlw	45	;'-'
  2936  0820  342D               	retlw	45	;'-'
  2937  0821  342D               	retlw	45	;'-'
  2938  0822  342D               	retlw	45	;'-'
  2939  0823  342D               	retlw	45	;'-'
  2940  0824  342D               	retlw	45	;'-'
  2941  0825  342D               	retlw	45	;'-'
  2942  0826  342D               	retlw	45	;'-'
  2943  0827  342D               	retlw	45	;'-'
  2944  0828  342D               	retlw	45	;'-'
  2945  0829  342D               	retlw	45	;'-'
  2946  082A  342D               	retlw	45	;'-'
  2947  082B  342D               	retlw	45	;'-'
  2948  082C  342D               	retlw	45	;'-'
  2949  082D  342D               	retlw	45	;'-'
  2950  082E  342D               	retlw	45	;'-'
  2951  082F  340A               	retlw	10
  2952  0830  340D               	retlw	13
  2953  0831  3400               	retlw	0
  2954                           
  2955                           	psect	stringtext3
  2956  1000                     __pstringtext3:
  2957  1000                     STR_3:
  2958  1000  340A               	retlw	10
  2959  1001  3444               	retlw	68	;'D'
  2960  1002  3461               	retlw	97	;'a'
  2961  1003  3474               	retlw	116	;'t'
  2962  1004  3461               	retlw	97	;'a'
  2963  1005  3420               	retlw	32	;' '
  2964  1006  3474               	retlw	116	;'t'
  2965  1007  346F               	retlw	111	;'o'
  2966  1008  3420               	retlw	32	;' '
  2967  1009  3462               	retlw	98	;'b'
  2968  100A  3465               	retlw	101	;'e'
  2969  100B  3420               	retlw	32	;' '
  2970  100C  3477               	retlw	119	;'w'
  2971  100D  3472               	retlw	114	;'r'
  2972  100E  3469               	retlw	105	;'i'
  2973  100F  3474               	retlw	116	;'t'
  2974  1010  3474               	retlw	116	;'t'
  2975  1011  3465               	retlw	101	;'e'
  2976  1012  346E               	retlw	110	;'n'
  2977  1013  3420               	retlw	32	;' '
  2978  1014  3474               	retlw	116	;'t'
  2979  1015  346F               	retlw	111	;'o'
  2980  1016  3420               	retlw	32	;' '
  2981  1017  3445               	retlw	69	;'E'
  2982  1018  3445               	retlw	69	;'E'
  2983  1019  3450               	retlw	80	;'P'
  2984  101A  3452               	retlw	82	;'R'
  2985  101B  344F               	retlw	79	;'O'
  2986  101C  344D               	retlw	77	;'M'
  2987  101D  343A               	retlw	58	;':'
  2988  101E  340A               	retlw	10
  2989  101F  340A               	retlw	10
  2990  1020  340D               	retlw	13
  2991  1021  3400               	retlw	0
  2992                           
  2993                           	psect	stringtext4
  2994  1042                     __pstringtext4:
  2995  1042                     STR_1:
  2996  1042  3445               	retlw	69	;'E'
  2997  1043  3445               	retlw	69	;'E'
  2998  1044  3450               	retlw	80	;'P'
  2999  1045  3452               	retlw	82	;'R'
  3000  1046  344F               	retlw	79	;'O'
  3001  1047  344D               	retlw	77	;'M'
  3002  1048  3420               	retlw	32	;' '
  3003  1049  3448               	retlw	72	;'H'
  3004  104A  3469               	retlw	105	;'i'
  3005  104B  3467               	retlw	103	;'g'
  3006  104C  3468               	retlw	104	;'h'
  3007  104D  3420               	retlw	32	;' '
  3008  104E  3441               	retlw	65	;'A'
  3009  104F  3464               	retlw	100	;'d'
  3010  1050  3464               	retlw	100	;'d'
  3011  1051  3472               	retlw	114	;'r'
  3012  1052  3465               	retlw	101	;'e'
  3013  1053  3473               	retlw	115	;'s'
  3014  1054  3473               	retlw	115	;'s'
  3015  1055  343A               	retlw	58	;':'
  3016  1056  3430               	retlw	48	;'0'
  3017  1057  3478               	retlw	120	;'x'
  3018  1058  3425               	retlw	37	;'%'
  3019  1059  3478               	retlw	120	;'x'
  3020  105A  340A               	retlw	10
  3021  105B  340D               	retlw	13
  3022  105C  3400               	retlw	0
  3023                           
  3024                           	psect	stringtext5
  3025  105D                     __pstringtext5:
  3026  105D                     STR_2:
  3027  105D  3445               	retlw	69	;'E'
  3028  105E  3445               	retlw	69	;'E'
  3029  105F  3450               	retlw	80	;'P'
  3030  1060  3452               	retlw	82	;'R'
  3031  1061  344F               	retlw	79	;'O'
  3032  1062  344D               	retlw	77	;'M'
  3033  1063  3420               	retlw	32	;' '
  3034  1064  344C               	retlw	76	;'L'
  3035  1065  346F               	retlw	111	;'o'
  3036  1066  3477               	retlw	119	;'w'
  3037  1067  3420               	retlw	32	;' '
  3038  1068  3441               	retlw	65	;'A'
  3039  1069  3464               	retlw	100	;'d'
  3040  106A  3464               	retlw	100	;'d'
  3041  106B  3472               	retlw	114	;'r'
  3042  106C  3465               	retlw	101	;'e'
  3043  106D  3473               	retlw	115	;'s'
  3044  106E  3473               	retlw	115	;'s'
  3045  106F  343A               	retlw	58	;':'
  3046  1070  3430               	retlw	48	;'0'
  3047  1071  3478               	retlw	120	;'x'
  3048  1072  3425               	retlw	37	;'%'
  3049  1073  3478               	retlw	120	;'x'
  3050  1074  340A               	retlw	10
  3051  1075  340D               	retlw	13
  3052  1076  3400               	retlw	0
  3053                           
  3054                           	psect	stringtext6
  3055  1077                     __pstringtext6:
  3056  1077                     STR_6:
  3057  1077  340A               	retlw	10
  3058  1078  340D               	retlw	13
  3059  1079  3445               	retlw	69	;'E'
  3060  107A  3445               	retlw	69	;'E'
  3061  107B  3450               	retlw	80	;'P'
  3062  107C  3452               	retlw	82	;'R'
  3063  107D  344F               	retlw	79	;'O'
  3064  107E  344D               	retlw	77	;'M'
  3065  107F  3420               	retlw	32	;' '
  3066  1080  3452               	retlw	82	;'R'
  3067  1081  3465               	retlw	101	;'e'
  3068  1082  3461               	retlw	97	;'a'
  3069  1083  3464               	retlw	100	;'d'
  3070  1084  3420               	retlw	32	;' '
  3071  1085  3444               	retlw	68	;'D'
  3072  1086  3461               	retlw	97	;'a'
  3073  1087  3474               	retlw	116	;'t'
  3074  1088  3461               	retlw	97	;'a'
  3075  1089  343A               	retlw	58	;':'
  3076  108A  340A               	retlw	10
  3077  108B  340A               	retlw	10
  3078  108C  340D               	retlw	13
  3079  108D  3400               	retlw	0
  3080                           
  3081                           	psect	stringtext7
  3082  108E                     __pstringtext7:
  3083  108E                     STR_10:
  3084  108E  3461               	retlw	97	;'a'
  3085  108F  343A               	retlw	58	;':'
  3086  1090  3420               	retlw	32	;' '
  3087  1091  3425               	retlw	37	;'%'
  3088  1092  3464               	retlw	100	;'d'
  3089  1093  340A               	retlw	10
  3090  1094  3400               	retlw	0
  3091                           
  3092                           	psect	stringtext8
  3093  1095                     __pstringtext8:
  3094  1095                     STR_4:
  3095  1095  3430               	retlw	48	;'0'
  3096  1096  3478               	retlw	120	;'x'
  3097  1097  3425               	retlw	37	;'%'
  3098  1098  3478               	retlw	120	;'x'
  3099  1099  3420               	retlw	32	;' '
  3100  109A  3420               	retlw	32	;' '
  3101  109B  3400               	retlw	0
  3102                           
  3103                           	psect	stringtext9
  3104  0000                     __pstringtext9:
  3105  101F                     
  3106                           	psect	cinit
  3107  07D5                     start_initialization:	
  3108                           ; #config settings
  3109                           
  3110  07D5                     __initialization:
  3111                           
  3112                           ; Initialize objects allocated to BANK1
  3113  07D5  30D3               	movlw	low __pidataBANK1
  3114  07D6  0084               	movwf	4
  3115  07D7  308D               	movlw	(high __pidataBANK1)| (0+128)
  3116  07D8  0085               	movwf	5
  3117  07D9  30E7               	movlw	low __pdataBANK1
  3118  07DA  0086               	movwf	6
  3119  07DB  3000               	movlw	high __pdataBANK1
  3120  07DC  0087               	movwf	7
  3121  07DD  3005               	movlw	5
  3122  07DE  318D  25F6  3187   	fcall	init_ram
  3123                           
  3124                           ; Initialize objects allocated to BANK2
  3125  07E1  3050               	movlw	low __pidataBANK2
  3126  07E2  0084               	movwf	4
  3127  07E3  308E               	movlw	(high __pidataBANK2)| (0+128)
  3128  07E4  0085               	movwf	5
  3129  07E5  3040               	movlw	low __pdataBANK2
  3130  07E6  0086               	movwf	6
  3131  07E7  3001               	movlw	high __pdataBANK2
  3132  07E8  0087               	movwf	7
  3133  07E9  3011               	movlw	17
  3134  07EA  318D  25F6  3187   	fcall	init_ram
  3135                           
  3136                           ; Clear objects allocated to BANK1
  3137  07ED  30A0               	movlw	low __pbssBANK1
  3138  07EE  0084               	movwf	4
  3139  07EF  3000               	movlw	high __pbssBANK1
  3140  07F0  0085               	movwf	5
  3141  07F1  302D               	movlw	45
  3142  07F2  318D  25F0  3187   	fcall	clear_ram0
  3143                           
  3144                           ; Clear objects allocated to BANK2
  3145  07F5  3020               	movlw	low __pbssBANK2
  3146  07F6  0084               	movwf	4
  3147  07F7  3001               	movlw	high __pbssBANK2
  3148  07F8  0085               	movwf	5
  3149  07F9  3020               	movlw	32
  3150  07FA  318D  25F0  3187   	fcall	clear_ram0
  3151  07FD                     end_of_initialization:	
  3152                           ;End of C runtime variable initialization code
  3153                           
  3154  07FD                     __end_of__initialization:
  3155  07FD  0140               	movlb	0
  3156  07FE  3180  28D3         	ljmp	_main	;jump to C main() function
  3157                           
  3158                           	psect	bssBANK1
  3159  00A0                     __pbssBANK1:
  3160  00A0                     _I2C1_Status:
  3161  00A0                     	ds	29
  3162  00BD                     main@F8216:
  3163  00BD                     	ds	5
  3164  00C2                     _nout:
  3165  00C2                     	ds	2
  3166  00C4                     _width:
  3167  00C4                     	ds	2
  3168  00C6                     _prec:
  3169  00C6                     	ds	2
  3170  00C8                     _flags:
  3171  00C8                     	ds	2
  3172  00CA                     _MSSP1_InterruptHandler:
  3173  00CA                     	ds	2
  3174  00CC                     _eusart1RxLastError:
  3175  00CC                     	ds	1
  3176                           
  3177                           	psect	dataBANK1
  3178  00E7                     __pdataBANK1:
  3179  00E7                     main@F8214:
  3180  00E7                     	ds	5
  3181                           
  3182                           	psect	bssBANK2
  3183  0120                     __pbssBANK2:
  3184  0120                     _dbuf:
  3185  0120                     	ds	32
  3186                           
  3187                           	psect	dataBANK2
  3188  0140                     __pdataBANK2:
  3189  0140                     I2CSIMPLE_example@F8205:
  3190  0140                     	ds	17
  3191                           
  3192                           	psect	inittext
  3193  0DF6                     init_ram:
  3194  0DF6  00FE               	movwf	btemp
  3195  0DF7                     initloop:
  3196  0DF7  0012               	moviw fsr0++
  3197  0DF8  001E               	movwi fsr1++
  3198  0DF9  0BFE               	decfsz	btemp,f
  3199  0DFA  2DF7               	goto	initloop
  3200  0DFB  3400               	retlw	0
  3201                           
  3202                           	psect	clrtext
  3203  0DF0                     clear_ram0:	
  3204                           ;	Called with FSR0 containing the base address, and
  3205                           ;	WREG with the size to clear
  3206                           
  3207  0DF0  0064               	clrwdt	;clear the watchdog before getting into this loop
  3208  0DF1                     clrloop0:
  3209  0DF1  0180               	clrf	0	;clear RAM location pointed to by FSR
  3210  0DF2  3101               	addfsr 0,1
  3211  0DF3  0B89               	decfsz	9,f	;Have we reached the end of clearing yet?
  3212  0DF4  2DF1               	goto	clrloop0	;have we reached the end yet?
  3213  0DF5  3400               	retlw	0	;all done for this memory range, return
  3214                           
  3215                           	psect	cstackBANK1
  3216  00CD                     __pcstackBANK1:
  3217  00CD                     ?_printf:
  3218  00CD                     printf@fmt:	
  3219                           ; 2 bytes @ 0x0
  3220                           
  3221                           
  3222                           ; 2 bytes @ 0x0
  3223  00CD                     	ds	6
  3224  00D3                     printf@ap:
  3225                           
  3226                           ; 1 bytes @ 0x6
  3227  00D3                     	ds	1
  3228  00D4                     ??_main:
  3229                           
  3230                           ; 1 bytes @ 0x7
  3231  00D4                     	ds	2
  3232  00D6                     main@data:
  3233                           
  3234                           ; 5 bytes @ 0x9
  3235  00D6                     	ds	5
  3236  00DB                     main@value:
  3237                           
  3238                           ; 5 bytes @ 0xE
  3239  00DB                     	ds	5
  3240  00E0                     main@a:
  3241                           
  3242                           ; 1 bytes @ 0x13
  3243  00E0                     	ds	1
  3244                           
  3245                           	psect	cstackCOMMON
  3246  0070                     __pcstackCOMMON:
  3247  0070                     ?_I2C1_SetBuffer:
  3248  0070                     ?_I2C1_Open:	
  3249                           ; 1 bytes @ 0x0
  3250                           
  3251  0070                     ?_I2C1_MasterWrite:	
  3252                           ; 1 bytes @ 0x0
  3253                           
  3254  0070                     ?_I2C1_Close:	
  3255                           ; 1 bytes @ 0x0
  3256                           
  3257  0070                     ??_I2C1_Close:	
  3258                           ; 1 bytes @ 0x0
  3259                           
  3260  0070                     ?_I2C1_MasterRead:	
  3261                           ; 1 bytes @ 0x0
  3262                           
  3263  0070                     ?_I2C1_SetInterruptHandler:	
  3264                           ; 1 bytes @ 0x0
  3265                           
  3266  0070                     ?_I2C1_MasterClearIrq:	
  3267                           ; 1 bytes @ 0x0
  3268                           
  3269  0070                     ??_I2C1_MasterClearIrq:	
  3270                           ; 1 bytes @ 0x0
  3271                           
  3272  0070                     ?_I2C1_MasterOpen:	
  3273                           ; 1 bytes @ 0x0
  3274                           
  3275  0070                     ??_I2C1_MasterOpen:	
  3276                           ; 1 bytes @ 0x0
  3277                           
  3278  0070                     ?_I2C1_MasterEnableIrq:	
  3279                           ; 1 bytes @ 0x0
  3280                           
  3281  0070                     ??_I2C1_MasterEnableIrq:	
  3282                           ; 1 bytes @ 0x0
  3283                           
  3284  0070                     ?_I2C1_MasterDisableIrq:	
  3285                           ; 1 bytes @ 0x0
  3286                           
  3287  0070                     ??_I2C1_MasterDisableIrq:	
  3288                           ; 1 bytes @ 0x0
  3289                           
  3290  0070                     ?_I2C1_MasterClose:	
  3291                           ; 1 bytes @ 0x0
  3292                           
  3293  0070                     ??_I2C1_MasterClose:	
  3294                           ; 1 bytes @ 0x0
  3295                           
  3296  0070                     ?_I2C1_MasterStart:	
  3297                           ; 1 bytes @ 0x0
  3298                           
  3299  0070                     ??_I2C1_MasterStart:	
  3300                           ; 1 bytes @ 0x0
  3301                           
  3302  0070                     ?_I2C1_SetCallback:	
  3303                           ; 1 bytes @ 0x0
  3304                           
  3305  0070                     ?_PMD_Initialize:	
  3306                           ; 1 bytes @ 0x0
  3307                           
  3308  0070                     ??_PMD_Initialize:	
  3309                           ; 1 bytes @ 0x0
  3310                           
  3311  0070                     ?_OSCILLATOR_Initialize:	
  3312                           ; 1 bytes @ 0x0
  3313                           
  3314  0070                     ??_OSCILLATOR_Initialize:	
  3315                           ; 1 bytes @ 0x0
  3316                           
  3317  0070                     ?_EUSART1_Initialize:	
  3318                           ; 1 bytes @ 0x0
  3319                           
  3320  0070                     ?_EUSART1_SetFramingErrorHandler:	
  3321                           ; 1 bytes @ 0x0
  3322                           
  3323  0070                     ?_EUSART1_SetOverrunErrorHandler:	
  3324                           ; 1 bytes @ 0x0
  3325                           
  3326  0070                     ?_EUSART1_SetErrorHandler:	
  3327                           ; 1 bytes @ 0x0
  3328                           
  3329  0070                     ?_I2C1_Initialize:	
  3330                           ; 1 bytes @ 0x0
  3331                           
  3332  0070                     ??_I2C1_Initialize:	
  3333                           ; 1 bytes @ 0x0
  3334                           
  3335  0070                     ?_I2C1_MasterOperation:	
  3336                           ; 1 bytes @ 0x0
  3337                           
  3338  0070                     ??_I2C1_MasterOperation:	
  3339                           ; 1 bytes @ 0x0
  3340                           
  3341  0070                     ?_PIN_MANAGER_Initialize:	
  3342                           ; 1 bytes @ 0x0
  3343                           
  3344  0070                     ??_PIN_MANAGER_Initialize:	
  3345                           ; 1 bytes @ 0x0
  3346                           
  3347  0070                     ?_SYSTEM_Initialize:	
  3348                           ; 1 bytes @ 0x0
  3349                           
  3350  0070                     ?_EUSART1_Write:	
  3351                           ; 1 bytes @ 0x0
  3352                           
  3353  0070                     ??_EUSART1_Write:	
  3354                           ; 1 bytes @ 0x0
  3355                           
  3356  0070                     ?_main:	
  3357                           ; 1 bytes @ 0x0
  3358                           
  3359  0070                     ??___aodiv:	
  3360                           ; 1 bytes @ 0x0
  3361                           
  3362  0070                     ??___aomod:	
  3363                           ; 1 bytes @ 0x0
  3364                           
  3365  0070                     ?_strlen:	
  3366                           ; 1 bytes @ 0x0
  3367                           
  3368  0070                     ?_isupper:	
  3369                           ; 2 bytes @ 0x0
  3370                           
  3371  0070                     ?_isalpha:	
  3372                           ; 2 bytes @ 0x0
  3373                           
  3374  0070                     ?_islower:	
  3375                           ; 2 bytes @ 0x0
  3376                           
  3377  0070                     EUSART1_Write@txData:	
  3378                           ; 2 bytes @ 0x0
  3379                           
  3380  0070                     I2C1_SetBuffer@bufferSize:	
  3381                           ; 1 bytes @ 0x0
  3382                           
  3383  0070                     I2C1_SetInterruptHandler@InterruptHandler:	
  3384                           ; 2 bytes @ 0x0
  3385                           
  3386  0070                     I2C1_SetCallback@cb:	
  3387                           ; 2 bytes @ 0x0
  3388                           
  3389  0070                     EUSART1_SetFramingErrorHandler@interruptHandler:	
  3390                           ; 2 bytes @ 0x0
  3391                           
  3392  0070                     EUSART1_SetOverrunErrorHandler@interruptHandler:	
  3393                           ; 2 bytes @ 0x0
  3394                           
  3395  0070                     EUSART1_SetErrorHandler@interruptHandler:	
  3396                           ; 2 bytes @ 0x0
  3397                           
  3398  0070                     isalpha@c:	
  3399                           ; 2 bytes @ 0x0
  3400                           
  3401  0070                     isupper@c:	
  3402                           ; 2 bytes @ 0x0
  3403                           
  3404  0070                     islower@c:	
  3405                           ; 2 bytes @ 0x0
  3406                           
  3407                           
  3408                           ; 2 bytes @ 0x0
  3409  0070                     	ds	1
  3410  0071                     ?_fputc:
  3411  0071                     I2C1_Close@returnValue:	
  3412                           ; 2 bytes @ 0x1
  3413                           
  3414  0071                     I2C1_MasterOperation@read:	
  3415                           ; 1 bytes @ 0x1
  3416                           
  3417  0071                     ___aodiv@counter:	
  3418                           ; 1 bytes @ 0x1
  3419                           
  3420  0071                     ___aomod@counter:	
  3421                           ; 1 bytes @ 0x1
  3422                           
  3423  0071                     fputc@ch:	
  3424                           ; 1 bytes @ 0x1
  3425                           
  3426                           
  3427                           ; 2 bytes @ 0x1
  3428  0071                     	ds	1
  3429  0072                     ??_I2C1_SetBuffer:
  3430  0072                     ??_I2C1_Open:	
  3431                           ; 1 bytes @ 0x2
  3432                           
  3433  0072                     ??_I2C1_SetInterruptHandler:	
  3434                           ; 1 bytes @ 0x2
  3435                           
  3436  0072                     ??_EUSART1_Initialize:	
  3437                           ; 1 bytes @ 0x2
  3438                           
  3439  0072                     ??_EUSART1_SetFramingErrorHandler:	
  3440                           ; 1 bytes @ 0x2
  3441                           
  3442  0072                     ??_EUSART1_SetOverrunErrorHandler:	
  3443                           ; 1 bytes @ 0x2
  3444                           
  3445  0072                     ??_EUSART1_SetErrorHandler:	
  3446                           ; 1 bytes @ 0x2
  3447                           
  3448  0072                     ??_strlen:	
  3449                           ; 1 bytes @ 0x2
  3450                           
  3451  0072                     ??_isupper:	
  3452                           ; 1 bytes @ 0x2
  3453                           
  3454  0072                     ??_isalpha:	
  3455                           ; 1 bytes @ 0x2
  3456                           
  3457  0072                     ??_islower:	
  3458                           ; 1 bytes @ 0x2
  3459                           
  3460  0072                     ??_SYSTEM_Initialize:	
  3461                           ; 1 bytes @ 0x2
  3462                           
  3463  0072                     I2C1_MasterOperation@returnValue:	
  3464                           ; 1 bytes @ 0x2
  3465                           
  3466  0072                     I2C1_SetCallback@ptr:	
  3467                           ; 1 bytes @ 0x2
  3468                           
  3469  0072                     ___aodiv@sign:	
  3470                           ; 1 bytes @ 0x2
  3471                           
  3472  0072                     ___aomod@sign:	
  3473                           ; 1 bytes @ 0x2
  3474                           
  3475                           
  3476                           ; 1 bytes @ 0x2
  3477  0072                     	ds	1
  3478  0073                     ??_I2C1_MasterWrite:
  3479  0073                     ??_I2C1_MasterRead:	
  3480                           ; 1 bytes @ 0x3
  3481                           
  3482  0073                     ??_I2C1_SetCallback:	
  3483                           ; 1 bytes @ 0x3
  3484                           
  3485  0073                     ?_abs:	
  3486                           ; 1 bytes @ 0x3
  3487                           
  3488  0073                     I2C1_Open@address:	
  3489                           ; 2 bytes @ 0x3
  3490                           
  3491  0073                     I2C1_SetBuffer@buffer:	
  3492                           ; 1 bytes @ 0x3
  3493                           
  3494  0073                     fputc@f:	
  3495                           ; 1 bytes @ 0x3
  3496                           
  3497  0073                     strlen@a:	
  3498                           ; 1 bytes @ 0x3
  3499                           
  3500  0073                     abs@a:	
  3501                           ; 1 bytes @ 0x3
  3502                           
  3503  0073                     ___aodiv@quotient:	
  3504                           ; 2 bytes @ 0x3
  3505                           
  3506                           
  3507                           ; 8 bytes @ 0x3
  3508  0073                     	ds	1
  3509  0074                     ??_fputc:
  3510  0074                     ?_fputs:	
  3511                           ; 1 bytes @ 0x4
  3512                           
  3513  0074                     I2C1_Open@returnValue:	
  3514                           ; 2 bytes @ 0x4
  3515                           
  3516  0074                     I2C1_SetCallback@idx:	
  3517                           ; 1 bytes @ 0x4
  3518                           
  3519  0074                     fputs@fp:	
  3520                           ; 1 bytes @ 0x4
  3521                           
  3522  0074                     strlen@s:	
  3523                           ; 1 bytes @ 0x4
  3524                           
  3525                           
  3526                           ; 1 bytes @ 0x4
  3527  0074                     	ds	1
  3528  0075                     ?_I2C1_SetAddressNackCallback:
  3529  0075                     ??_fputs:	
  3530                           ; 1 bytes @ 0x5
  3531                           
  3532  0075                     ??_abs:	
  3533                           ; 1 bytes @ 0x5
  3534                           
  3535  0075                     ?_i2c_readNBytes:	
  3536                           ; 1 bytes @ 0x5
  3537                           
  3538  0075                     i2c_readNBytes@data:	
  3539                           ; 1 bytes @ 0x5
  3540                           
  3541  0075                     I2C1_SetAddressNackCallback@cb:	
  3542                           ; 1 bytes @ 0x5
  3543                           
  3544                           
  3545                           ; 2 bytes @ 0x5
  3546  0075                     	ds	1
  3547  0076                     ?_toupper:
  3548  0076                     i2c_readNBytes@len:	
  3549                           ; 2 bytes @ 0x6
  3550                           
  3551  0076                     toupper@c:	
  3552                           ; 2 bytes @ 0x6
  3553                           
  3554                           
  3555                           ; 2 bytes @ 0x6
  3556  0076                     	ds	1
  3557  0077                     I2C1_SetAddressNackCallback@ptr:
  3558                           
  3559                           ; 1 bytes @ 0x7
  3560  0077                     	ds	1
  3561  0078                     ??_I2C1_SetAddressNackCallback:
  3562  0078                     ??_toupper:	
  3563                           ; 1 bytes @ 0x8
  3564                           
  3565  0078                     ??_i2c_readNBytes:	
  3566                           ; 1 bytes @ 0x8
  3567                           
  3568  0078                     i2c_readNBytes@address:	
  3569                           ; 1 bytes @ 0x8
  3570                           
  3571  0078                     fputs@c:	
  3572                           ; 1 bytes @ 0x8
  3573                           
  3574                           
  3575                           ; 1 bytes @ 0x8
  3576  0078                     	ds	1
  3577  0079                     ?_i2c_writeNBytes:
  3578  0079                     i2c_writeNBytes@data:	
  3579                           ; 1 bytes @ 0x9
  3580                           
  3581  0079                     fputs@i:	
  3582                           ; 1 bytes @ 0x9
  3583                           
  3584                           
  3585                           ; 2 bytes @ 0x9
  3586  0079                     	ds	1
  3587  007A                     i2c_writeNBytes@len:
  3588                           
  3589                           ; 2 bytes @ 0xA
  3590  007A                     	ds	1
  3591  007B                     fputs@s:
  3592                           
  3593                           ; 1 bytes @ 0xB
  3594  007B                     	ds	1
  3595  007C                     ??_i2c_writeNBytes:
  3596  007C                     ??_pad:	
  3597                           ; 1 bytes @ 0xC
  3598                           
  3599  007C                     i2c_writeNBytes@address:	
  3600                           ; 1 bytes @ 0xC
  3601                           
  3602  007C                     _toupper$1816:	
  3603                           ; 1 bytes @ 0xC
  3604                           
  3605                           
  3606                           ; 2 bytes @ 0xC
  3607  007C                     	ds	1
  3608  007D                     ??_EE_Write:
  3609  007D                     ??_EE_Read:	
  3610                           ; 1 bytes @ 0xD
  3611                           
  3612                           
  3613                           ; 1 bytes @ 0xD
  3614  007D                     	ds	1
  3615                           
  3616                           	psect	cstackBANK0
  3617  0020                     __pcstackBANK0:
  3618  0020                     ?_EE_Write:
  3619  0020                     ?_EE_Read:	
  3620                           ; 1 bytes @ 0x0
  3621                           
  3622  0020                     ?_pad:	
  3623                           ; 1 bytes @ 0x0
  3624                           
  3625  0020                     ?___aodiv:	
  3626                           ; 2 bytes @ 0x0
  3627                           
  3628  0020                     ?___aomod:	
  3629                           ; 8 bytes @ 0x0
  3630                           
  3631  0020                     pad@buf:	
  3632                           ; 8 bytes @ 0x0
  3633                           
  3634  0020                     EE_Write@addr:	
  3635                           ; 1 bytes @ 0x0
  3636                           
  3637  0020                     EE_Read@addr:	
  3638                           ; 2 bytes @ 0x0
  3639                           
  3640  0020                     ___aodiv@divisor:	
  3641                           ; 2 bytes @ 0x0
  3642                           
  3643  0020                     ___aomod@divisor:	
  3644                           ; 8 bytes @ 0x0
  3645                           
  3646                           
  3647                           ; 8 bytes @ 0x0
  3648  0020                     	ds	1
  3649  0021                     pad@p:
  3650                           
  3651                           ; 2 bytes @ 0x1
  3652  0021                     	ds	1
  3653  0022                     EE_Write@data:
  3654  0022                     EE_Read@frame:	
  3655                           ; 1 bytes @ 0x2
  3656                           
  3657                           
  3658                           ; 3 bytes @ 0x2
  3659  0022                     	ds	1
  3660  0023                     pad@i:
  3661  0023                     EE_Write@frame:	
  3662                           ; 2 bytes @ 0x3
  3663                           
  3664                           
  3665                           ; 3 bytes @ 0x3
  3666  0023                     	ds	2
  3667  0025                     pad@w:
  3668                           
  3669                           ; 2 bytes @ 0x5
  3670  0025                     	ds	2
  3671  0027                     pad@fp:
  3672                           
  3673                           ; 1 bytes @ 0x7
  3674  0027                     	ds	1
  3675  0028                     ?_xtoa:
  3676  0028                     ___aodiv@dividend:	
  3677                           ; 2 bytes @ 0x8
  3678                           
  3679  0028                     ___aomod@dividend:	
  3680                           ; 8 bytes @ 0x8
  3681                           
  3682  0028                     xtoa@d:	
  3683                           ; 8 bytes @ 0x8
  3684                           
  3685                           
  3686                           ; 8 bytes @ 0x8
  3687  0028                     	ds	8
  3688  0030                     ?_dtoa:
  3689  0030                     xtoa@x:	
  3690                           ; 2 bytes @ 0x10
  3691                           
  3692  0030                     dtoa@d:	
  3693                           ; 1 bytes @ 0x10
  3694                           
  3695                           
  3696                           ; 8 bytes @ 0x10
  3697  0030                     	ds	1
  3698  0031                     ??_xtoa:
  3699                           
  3700                           ; 1 bytes @ 0x11
  3701  0031                     	ds	7
  3702  0038                     ??_dtoa:
  3703                           
  3704                           ; 1 bytes @ 0x18
  3705  0038                     	ds	1
  3706  0039                     _xtoa$1749:
  3707                           
  3708                           ; 2 bytes @ 0x19
  3709  0039                     	ds	2
  3710  003B                     _dtoa$1738:
  3711  003B                     _xtoa$1750:	
  3712                           ; 2 bytes @ 0x1B
  3713                           
  3714                           
  3715                           ; 2 bytes @ 0x1B
  3716  003B                     	ds	2
  3717  003D                     dtoa@p:
  3718  003D                     xtoa@p:	
  3719                           ; 2 bytes @ 0x1D
  3720                           
  3721                           
  3722                           ; 2 bytes @ 0x1D
  3723  003D                     	ds	2
  3724  003F                     dtoa@fp:
  3725  003F                     xtoa@fp:	
  3726                           ; 1 bytes @ 0x1F
  3727                           
  3728                           
  3729                           ; 1 bytes @ 0x1F
  3730  003F                     	ds	1
  3731  0040                     dtoa@w:
  3732  0040                     xtoa@w:	
  3733                           ; 2 bytes @ 0x20
  3734                           
  3735                           
  3736                           ; 2 bytes @ 0x20
  3737  0040                     	ds	2
  3738  0042                     dtoa@s:
  3739  0042                     xtoa@n:	
  3740                           ; 2 bytes @ 0x22
  3741                           
  3742                           
  3743                           ; 8 bytes @ 0x22
  3744  0042                     	ds	2
  3745  0044                     dtoa@n:
  3746                           
  3747                           ; 8 bytes @ 0x24
  3748  0044                     	ds	6
  3749  004A                     xtoa@i:
  3750                           
  3751                           ; 2 bytes @ 0x2A
  3752  004A                     	ds	2
  3753  004C                     dtoa@i:
  3754  004C                     xtoa@c:	
  3755                           ; 2 bytes @ 0x2C
  3756                           
  3757                           
  3758                           ; 2 bytes @ 0x2C
  3759  004C                     	ds	2
  3760  004E                     ?_vfpfcnvrt:
  3761  004E                     vfpfcnvrt@fmt:	
  3762                           ; 2 bytes @ 0x2E
  3763                           
  3764                           
  3765                           ; 1 bytes @ 0x2E
  3766  004E                     	ds	1
  3767  004F                     vfpfcnvrt@ap:
  3768                           
  3769                           ; 1 bytes @ 0x2F
  3770  004F                     	ds	1
  3771  0050                     ??_vfpfcnvrt:
  3772                           
  3773                           ; 1 bytes @ 0x30
  3774  0050                     	ds	5
  3775  0055                     vfpfcnvrt@ll:
  3776                           
  3777                           ; 8 bytes @ 0x35
  3778  0055                     	ds	8
  3779  005D                     vfpfcnvrt@llu:
  3780                           
  3781                           ; 8 bytes @ 0x3D
  3782  005D                     	ds	8
  3783  0065                     vfpfcnvrt@c:
  3784                           
  3785                           ; 1 bytes @ 0x45
  3786  0065                     	ds	1
  3787  0066                     vfpfcnvrt@fp:
  3788                           
  3789                           ; 1 bytes @ 0x46
  3790  0066                     	ds	1
  3791  0067                     ?_vfprintf:
  3792  0067                     vfprintf@fmt:	
  3793                           ; 2 bytes @ 0x47
  3794                           
  3795                           
  3796                           ; 2 bytes @ 0x47
  3797  0067                     	ds	2
  3798  0069                     vfprintf@ap:
  3799                           
  3800                           ; 1 bytes @ 0x49
  3801  0069                     	ds	1
  3802  006A                     ??_vfprintf:
  3803                           
  3804                           ; 1 bytes @ 0x4A
  3805  006A                     	ds	2
  3806  006C                     vfprintf@fp:
  3807                           
  3808                           ; 1 bytes @ 0x4C
  3809  006C                     	ds	1
  3810  006D                     vfprintf@cfmt:
  3811                           
  3812                           ; 2 bytes @ 0x4D
  3813  006D                     	ds	2
  3814  006F                     ??_printf:
  3815                           
  3816                           ; 1 bytes @ 0x4F
  3817  006F                     	ds	1
  3818                           
  3819                           	psect	maintext
  3820  00D3                     __pmaintext:	
  3821 ;;
  3822 ;;Main: autosize = 0, tempsize = 2, incstack = 0, save=0
  3823 ;;
  3824 ;; *************** function _main *****************
  3825 ;; Defined at:
  3826 ;;		line 144 in file "main.c"
  3827 ;; Parameters:    Size  Location     Type
  3828 ;;		None
  3829 ;; Auto vars:     Size  Location     Type
  3830 ;;  value           5   14[BANK1 ] unsigned char [5]
  3831 ;;  data            5    9[BANK1 ] unsigned char [5]
  3832 ;;  a               1   19[BANK1 ] unsigned char 
  3833 ;; Return value:  Size  Location     Type
  3834 ;;                  1    wreg      void 
  3835 ;; Registers used:
  3836 ;;		wreg, fsr0l, fsr0h, fsr1l, fsr1h, status,2, status,0, pclath, cstack
  3837 ;; Tracked objects:
  3838 ;;		On entry : B3F/0
  3839 ;;		On exit  : 0/0
  3840 ;;		Unchanged: 0/0
  3841 ;; Data sizes:     COMMON   BANK0   BANK1   BANK2   BANK3   BANK4   BANK5   BANK6   BANK7   BANK8   BANK9  BANK10  BANK1
      +1  BANK12  BANK13  BANK14  BANK15  BANK16  BANK17  BANK18  BANK19  BANK20  BANK21  BANK22  BANK23  BANK24  BANK25
  3842 ;;      Params:         0       0       0       0       0       0       0       0       0       0       0       0       
      +0       0       0       0       0       0       0       0       0       0       0       0       0       0       0
  3843 ;;      Locals:         0       0      11       0       0       0       0       0       0       0       0       0       
      +0       0       0       0       0       0       0       0       0       0       0       0       0       0       0
  3844 ;;      Temps:          0       0       2       0       0       0       0       0       0       0       0       0       
      +0       0       0       0       0       0       0       0       0       0       0       0       0       0       0
  3845 ;;      Totals:         0       0      13       0       0       0       0       0       0       0       0       0       
      +0       0       0       0       0       0       0       0       0       0       0       0       0       0       0
  3846 ;;Total ram usage:       13 bytes
  3847 ;; Hardware stack levels required when called:    8
  3848 ;; This function calls:
  3849 ;;		_EE_Read
  3850 ;;		_EE_Write
  3851 ;;		_SYSTEM_Initialize
  3852 ;;		_printf
  3853 ;; This function is called by:
  3854 ;;		Startup code after reset
  3855 ;; This function uses a non-reentrant model
  3856 ;;
  3857                           
  3858                           
  3859                           ;psect for function _main
  3860  00D3                     _main:
  3861  00D3                     l3949:	
  3862                           ;incstack = 0
  3863                           ; Regs used in _main: [wreg-fsr1h+status,2+status,0+pclath+cstack]
  3864                           
  3865                           
  3866                           ;main.c: 147:     SYSTEM_Initialize();
  3867  00D3  318E  2640  3180   	fcall	_SYSTEM_Initialize
  3868  00D6                     l3951:
  3869                           
  3870                           ;main.c: 164:     uint8_t data[5]={0,1,2,3,4};
  3871  00D6  30E7               	movlw	low main@F8214
  3872  00D7  0086               	movwf	6
  3873  00D8  3000               	movlw	high main@F8214
  3874  00D9  0087               	movwf	7
  3875  00DA  30D6               	movlw	low main@data
  3876  00DB  0084               	movwf	4
  3877  00DC  3000               	movlw	high main@data
  3878  00DD  0085               	movwf	5
  3879  00DE  3005               	movlw	5
  3880  00DF  0141               	movlb	1	; select bank1
  3881  00E0  00D4               	movwf	??_main^(0+128)
  3882  00E1                     u2660:
  3883  00E1  0016               	moviw fsr1++
  3884  00E2  001A               	movwi fsr0++
  3885  00E3  0BD4               	decfsz	??_main^(0+128),f
  3886  00E4  28E1               	goto	u2660
  3887  00E5                     l3953:
  3888                           
  3889                           ;main.c: 165:     uint8_t value[5]={0};
  3890  00E5  30DB               	movlw	low main@value
  3891  00E6  0086               	movwf	6
  3892  00E7  3000               	movlw	high main@value
  3893  00E8  0087               	movwf	7
  3894  00E9  3005               	movlw	5
  3895  00EA  00D4               	movwf	??_main^(0+128)
  3896  00EB  3000               	movlw	0
  3897  00EC                     u2670:
  3898  00EC  001E               	movwi fsr1++
  3899  00ED  0BD4               	decfsz	??_main^(0+128),f
  3900  00EE  28EC               	goto	u2670
  3901  00EF                     l3955:
  3902  00EF                     l3957:
  3903                           
  3904                           ;main.c: 170:     EE_Write(0x00,0xAA);
  3905  00EF  3000               	movlw	0
  3906  00F0  0140               	movlb	0	; select bank0
  3907  00F1  00A0               	movwf	EE_Write@addr
  3908  00F2  00A1               	movwf	EE_Write@addr+1
  3909  00F3  30AA               	movlw	170
  3910  00F4  0141               	movlb	1	; select bank1
  3911  00F5  00D4               	movwf	??_main^(0+128)
  3912  00F6  0854               	movf	??_main^(0+128),w
  3913  00F7  0140               	movlb	0	; select bank0
  3914  00F8  00A2               	movwf	EE_Write@data
  3915  00F9  318F  274E  3180   	fcall	_EE_Write
  3916  00FC                     l3959:
  3917                           
  3918                           ;main.c: 171:     a=EE_Read(0x00);
  3919  00FC  3000               	movlw	0
  3920  00FD  0140               	movlb	0	; select bank0
  3921  00FE  00A0               	movwf	EE_Read@addr
  3922  00FF  00A1               	movwf	EE_Read@addr+1
  3923  0100  318F  2792  3180   	fcall	_EE_Read
  3924  0103  0141               	movlb	1	; select bank1
  3925  0104  00D4               	movwf	??_main^(0+128)
  3926  0105  0854               	movf	??_main^(0+128),w
  3927  0106  00E0               	movwf	main@a^(0+128)
  3928  0107                     l3961:
  3929                           
  3930                           ;main.c: 172:     printf("a: %d\n",a);
  3931  0107  308E               	movlw	low (STR_10| (0+32768))
  3932  0108  00CD               	movwf	printf@fmt^(0+128)
  3933  0109  3090               	movlw	high (STR_10| (0+32768))
  3934  010A  00CE               	movwf	(printf@fmt^(0+128)+1)
  3935  010B  0860               	movf	main@a^(0+128),w
  3936  010C  00D4               	movwf	??_main^(0+128)
  3937  010D  01D5               	clrf	(??_main^(0+128)+1)
  3938  010E  0854               	movf	??_main^(0+128),w
  3939  010F  00CF               	movwf	(?_printf^(0+128)+2)
  3940  0110  0855               	movf	(??_main+1)^(0+128),w
  3941  0111  00D0               	movwf	((?_printf+1)^(0+128)+2)
  3942  0112  318E  2661  3180   	fcall	_printf
  3943  0115                     l832:	
  3944                           ;main.c: 173:     while (1)
  3945                           
  3946  0115                     l833:	
  3947                           ;main.c: 174:     {;main.c: 191:     }
  3948                           
  3949  0115  2915               	goto	l832
  3950  0116  3180  2802         	ljmp	start
  3951  0118                     __end_of_main:
  3952                           
  3953                           	psect	text1
  3954  0E61                     __ptext1:	
  3955 ;; *************** function _printf *****************
  3956 ;; Defined at:
  3957 ;;		line 5 in file "D:\program files\Microchip\xc8\v2.31\pic\sources\c99\common\printf.c"
  3958 ;; Parameters:    Size  Location     Type
  3959 ;;  fmt             2    0[BANK1 ] PTR const unsigned char 
  3960 ;;		 -> STR_10(7), STR_9(50), STR_8(3), STR_7(7), 
  3961 ;;		 -> STR_6(23), STR_5(3), STR_4(7), STR_3(34), 
  3962 ;;		 -> STR_2(26), STR_1(27), 
  3963 ;; Auto vars:     Size  Location     Type
  3964 ;;  ret             2    0        int 
  3965 ;;  ap              1    6[BANK1 ] PTR void [1]
  3966 ;;		 -> ?_printf(2), 
  3967 ;; Return value:  Size  Location     Type
  3968 ;;                  2    0[BANK1 ] int 
  3969 ;; Registers used:
  3970 ;;		wreg, fsr0l, fsr0h, fsr1l, fsr1h, status,2, status,0, pclath, cstack
  3971 ;; Tracked objects:
  3972 ;;		On entry : 0/0
  3973 ;;		On exit  : 0/0
  3974 ;;		Unchanged: 0/0
  3975 ;; Data sizes:     COMMON   BANK0   BANK1   BANK2   BANK3   BANK4   BANK5   BANK6   BANK7   BANK8   BANK9  BANK10  BANK1
      +1  BANK12  BANK13  BANK14  BANK15  BANK16  BANK17  BANK18  BANK19  BANK20  BANK21  BANK22  BANK23  BANK24  BANK25
  3976 ;;      Params:         0       0       4       0       0       0       0       0       0       0       0       0       
      +0       0       0       0       0       0       0       0       0       0       0       0       0       0       0
  3977 ;;      Locals:         0       0       3       0       0       0       0       0       0       0       0       0       
      +0       0       0       0       0       0       0       0       0       0       0       0       0       0       0
  3978 ;;      Temps:          0       1       0       0       0       0       0       0       0       0       0       0       
      +0       0       0       0       0       0       0       0       0       0       0       0       0       0       0
  3979 ;;      Totals:         0       1       7       0       0       0       0       0       0       0       0       0       
      +0       0       0       0       0       0       0       0       0       0       0       0       0       0       0
  3980 ;;Total ram usage:        8 bytes
  3981 ;; Hardware stack levels used:    1
  3982 ;; Hardware stack levels required when called:    7
  3983 ;; This function calls:
  3984 ;;		_vfprintf
  3985 ;; This function is called by:
  3986 ;;		_main
  3987 ;;		_I2CSIMPLE_example
  3988 ;; This function uses a non-reentrant model
  3989 ;;
  3990                           
  3991                           
  3992                           ;psect for function _printf
  3993  0E61                     _printf:
  3994  0E61                     l3403:	
  3995                           ;incstack = 0
  3996                           ; Regs used in _printf: [wreg-fsr1h+status,2+status,0+pclath+cstack]
  3997                           
  3998  0E61  30CF               	movlw	(low ((?_printf| 0+2)))& (0+255)
  3999  0E62  0140               	movlb	0	; select bank0
  4000  0E63  00EF               	movwf	??_printf
  4001  0E64  086F               	movf	??_printf,w
  4002  0E65  0141               	movlb	1	; select bank1
  4003  0E66  00D3               	movwf	printf@ap^(0+128)
  4004  0E67                     l3405:
  4005  0E67  084E               	movf	(printf@fmt+1)^(0+128),w
  4006  0E68  0140               	movlb	0	; select bank0
  4007  0E69  00E8               	movwf	vfprintf@fmt+1
  4008  0E6A  0141               	movlb	1	; select bank1
  4009  0E6B  084D               	movf	printf@fmt^(0+128),w
  4010  0E6C  0140               	movlb	0	; select bank0
  4011  0E6D  00E7               	movwf	vfprintf@fmt
  4012  0E6E  30D3               	movlw	(low (printf@ap| 0))& (0+255)
  4013  0E6F  00EF               	movwf	??_printf
  4014  0E70  086F               	movf	??_printf,w
  4015  0E71  00E9               	movwf	vfprintf@ap
  4016  0E72  3000               	movlw	0
  4017  0E73  3180  205E  318E   	fcall	_vfprintf
  4018  0E76                     l1366:
  4019  0E76  0008               	return
  4020  0E77                     __end_of_printf:
  4021                           
  4022                           	psect	text2
  4023  005E                     __ptext2:	
  4024 ;; *************** function _vfprintf *****************
  4025 ;; Defined at:
  4026 ;;		line 1390 in file "D:\program files\Microchip\xc8\v2.31\pic\sources\c99\common\doprnt.c"
  4027 ;; Parameters:    Size  Location     Type
  4028 ;;  fp              1    wreg     PTR struct _IO_FILE
  4029 ;;		 -> NULL(0), 
  4030 ;;  fmt             2   71[BANK0 ] PTR const unsigned char 
  4031 ;;		 -> STR_10(7), STR_9(50), STR_8(3), STR_7(7), 
  4032 ;;		 -> STR_6(23), STR_5(3), STR_4(7), STR_3(34), 
  4033 ;;		 -> STR_2(26), STR_1(27), 
  4034 ;;  ap              1   73[BANK0 ] PTR PTR void 
  4035 ;;		 -> printf@ap(1), 
  4036 ;; Auto vars:     Size  Location     Type
  4037 ;;  fp              1   76[BANK0 ] PTR struct _IO_FILE
  4038 ;;		 -> NULL(0), 
  4039 ;;  cfmt            2   77[BANK0 ] PTR unsigned char 
  4040 ;;		 -> STR_10(7), STR_9(50), STR_8(3), STR_7(7), 
  4041 ;;		 -> STR_6(23), STR_5(3), STR_4(7), STR_3(34), 
  4042 ;;		 -> STR_2(26), STR_1(27), 
  4043 ;; Return value:  Size  Location     Type
  4044 ;;                  2   71[BANK0 ] int 
  4045 ;; Registers used:
  4046 ;;		wreg, fsr0l, fsr0h, fsr1l, fsr1h, status,2, status,0, pclath, cstack
  4047 ;; Tracked objects:
  4048 ;;		On entry : 0/0
  4049 ;;		On exit  : 0/0
  4050 ;;		Unchanged: 0/0
  4051 ;; Data sizes:     COMMON   BANK0   BANK1   BANK2   BANK3   BANK4   BANK5   BANK6   BANK7   BANK8   BANK9  BANK10  BANK1
      +1  BANK12  BANK13  BANK14  BANK15  BANK16  BANK17  BANK18  BANK19  BANK20  BANK21  BANK22  BANK23  BANK24  BANK25
  4052 ;;      Params:         0       3       0       0       0       0       0       0       0       0       0       0       
      +0       0       0       0       0       0       0       0       0       0       0       0       0       0       0
  4053 ;;      Locals:         0       3       0       0       0       0       0       0       0       0       0       0       
      +0       0       0       0       0       0       0       0       0       0       0       0       0       0       0
  4054 ;;      Temps:          0       2       0       0       0       0       0       0       0       0       0       0       
      +0       0       0       0       0       0       0       0       0       0       0       0       0       0       0
  4055 ;;      Totals:         0       8       0       0       0       0       0       0       0       0       0       0       
      +0       0       0       0       0       0       0       0       0       0       0       0       0       0       0
  4056 ;;Total ram usage:        8 bytes
  4057 ;; Hardware stack levels used:    1
  4058 ;; Hardware stack levels required when called:    6
  4059 ;; This function calls:
  4060 ;;		_vfpfcnvrt
  4061 ;; This function is called by:
  4062 ;;		_printf
  4063 ;; This function uses a non-reentrant model
  4064 ;;
  4065                           
  4066                           
  4067                           ;psect for function _vfprintf
  4068  005E                     _vfprintf:
  4069                           
  4070                           ;incstack = 0
  4071                           ; Regs used in _vfprintf: [wreg-fsr1h+status,2+status,0+pclath+cstack]
  4072                           ;vfprintf@fp stored from wreg
  4073  005E  0140               	movlb	0	; select bank0
  4074  005F  00EC               	movwf	vfprintf@fp
  4075  0060                     l3315:
  4076                           
  4077                           ;D:\program files\Microchip\xc8\v2.31\pic\sources\c99\common\doprnt.c: 1390: int vfprint
      +                          f(FILE *fp, const char *fmt, va_list ap);D:\program files\Microchip\xc8\v2.31\pic\source
      +                          s\c99\common\doprnt.c: 1391: {;D:\program files\Microchip\xc8\v2.31\pic\sources\c99\comm
      +                          on\doprnt.c: 1393:     char *cfmt;;D:\program files\Microchip\xc8\v2.31\pic\sources\c99\
      +                          common\doprnt.c: 1395:     cfmt = (char *)fmt;
  4078  0060  0868               	movf	vfprintf@fmt+1,w
  4079  0061  00EE               	movwf	vfprintf@cfmt+1
  4080  0062  0867               	movf	vfprintf@fmt,w
  4081  0063  00ED               	movwf	vfprintf@cfmt
  4082  0064                     l3317:
  4083                           
  4084                           ;D:\program files\Microchip\xc8\v2.31\pic\sources\c99\common\doprnt.c: 1396:     nout = 
      +                          0;
  4085  0064  0141               	movlb	1	; select bank1
  4086  0065  01C2               	clrf	_nout^(0+128)
  4087  0066  01C3               	clrf	(_nout+1)^(0+128)
  4088                           
  4089                           ;D:\program files\Microchip\xc8\v2.31\pic\sources\c99\common\doprnt.c: 1397:     while (
      +                          *cfmt) {
  4090  0067  287C               	goto	l3321
  4091  0068                     l3319:
  4092                           
  4093                           ;D:\program files\Microchip\xc8\v2.31\pic\sources\c99\common\doprnt.c: 1398:         nou
      +                          t += vfpfcnvrt(fp, &cfmt, ap);
  4094  0068  306D               	movlw	(low (vfprintf@cfmt| 0))& (0+255)
  4095  0069  00EA               	movwf	??_vfprintf
  4096  006A  086A               	movf	??_vfprintf,w
  4097  006B  00CE               	movwf	vfpfcnvrt@fmt
  4098  006C  0869               	movf	vfprintf@ap,w
  4099  006D  00EB               	movwf	??_vfprintf+1
  4100  006E  086B               	movf	??_vfprintf+1,w
  4101  006F  00CF               	movwf	vfpfcnvrt@ap
  4102  0070  086C               	movf	vfprintf@fp,w
  4103  0071  3183  23AA  3180   	fcall	_vfpfcnvrt
  4104  0074  0140               	movlb	0	; select bank0
  4105  0075  084E               	movf	?_vfpfcnvrt,w
  4106  0076  0141               	movlb	1	; select bank1
  4107  0077  07C2               	addwf	_nout^(0+128),f
  4108  0078  0140               	movlb	0	; select bank0
  4109  0079  084F               	movf	?_vfpfcnvrt+1,w
  4110  007A  0141               	movlb	1	; select bank1
  4111  007B  3DC3               	addwfc	(_nout+1)^(0+128),f
  4112  007C                     l3321:
  4113                           
  4114                           ;D:\program files\Microchip\xc8\v2.31\pic\sources\c99\common\doprnt.c: 1397:     while (
      +                          *cfmt) {
  4115  007C  0140               	movlb	0	; select bank0
  4116  007D  086D               	movf	vfprintf@cfmt,w
  4117  007E  0084               	movwf	4
  4118  007F  086E               	movf	vfprintf@cfmt+1,w
  4119  0080  0085               	movwf	5
  4120  0081  0012               	moviw fsr0++
  4121  0082  1D03               	btfss	3,2
  4122  0083  2885               	goto	u2251
  4123  0084  2886               	goto	u2250
  4124  0085                     u2251:
  4125  0085  2868               	goto	l3319
  4126  0086                     u2250:
  4127  0086                     l3323:
  4128                           
  4129                           ;D:\program files\Microchip\xc8\v2.31\pic\sources\c99\common\doprnt.c: 1400:     return 
      +                          nout;
  4130  0086  0141               	movlb	1	; select bank1
  4131  0087  0843               	movf	(_nout+1)^(0+128),w
  4132  0088  0140               	movlb	0	; select bank0
  4133  0089  00E8               	movwf	?_vfprintf+1
  4134  008A  0141               	movlb	1	; select bank1
  4135  008B  0842               	movf	_nout^(0+128),w
  4136  008C  0140               	movlb	0	; select bank0
  4137  008D  00E7               	movwf	?_vfprintf
  4138  008E                     l1477:
  4139  008E  0008               	return
  4140  008F                     __end_of_vfprintf:
  4141                           
  4142                           	psect	text3
  4143  03AA                     __ptext3:	
  4144 ;; *************** function _vfpfcnvrt *****************
  4145 ;; Defined at:
  4146 ;;		line 692 in file "D:\program files\Microchip\xc8\v2.31\pic\sources\c99\common\doprnt.c"
  4147 ;; Parameters:    Size  Location     Type
  4148 ;;  fp              1    wreg     PTR struct _IO_FILE
  4149 ;;		 -> NULL(0), 
  4150 ;;  fmt             1   46[BANK0 ] PTR PTR unsigned char 
  4151 ;;		 -> vfprintf@cfmt(2), 
  4152 ;;  ap              1   47[BANK0 ] PTR PTR void 
  4153 ;;		 -> printf@ap(1), 
  4154 ;; Auto vars:     Size  Location     Type
  4155 ;;  fp              1   70[BANK0 ] PTR struct _IO_FILE
  4156 ;;		 -> NULL(0), 
  4157 ;;  llu             8   61[BANK0 ] unsigned long long 
  4158 ;;  ll              8   53[BANK0 ] long long 
  4159 ;;  f               4    0        long long 
  4160 ;;  ct              3    0        unsigned char [3]
  4161 ;;  vp              2    0        PTR void 
  4162 ;;  i               2    0        int 
  4163 ;;  done            2    0        int 
  4164 ;;  cp              2    0        PTR unsigned char 
  4165 ;;  c               1   69[BANK0 ] unsigned char 
  4166 ;; Return value:  Size  Location     Type
  4167 ;;                  2   46[BANK0 ] int 
  4168 ;; Registers used:
  4169 ;;		wreg, fsr0l, fsr0h, fsr1l, fsr1h, status,2, status,0, pclath, cstack
  4170 ;; Tracked objects:
  4171 ;;		On entry : 0/0
  4172 ;;		On exit  : 0/0
  4173 ;;		Unchanged: 0/0
  4174 ;; Data sizes:     COMMON   BANK0   BANK1   BANK2   BANK3   BANK4   BANK5   BANK6   BANK7   BANK8   BANK9  BANK10  BANK1
      +1  BANK12  BANK13  BANK14  BANK15  BANK16  BANK17  BANK18  BANK19  BANK20  BANK21  BANK22  BANK23  BANK24  BANK25
  4175 ;;      Params:         0       2       0       0       0       0       0       0       0       0       0       0       
      +0       0       0       0       0       0       0       0       0       0       0       0       0       0       0
  4176 ;;      Locals:         0      18       0       0       0       0       0       0       0       0       0       0       
      +0       0       0       0       0       0       0       0       0       0       0       0       0       0       0
  4177 ;;      Temps:          0       5       0       0       0       0       0       0       0       0       0       0       
      +0       0       0       0       0       0       0       0       0       0       0       0       0       0       0
  4178 ;;      Totals:         0      25       0       0       0       0       0       0       0       0       0       0       
      +0       0       0       0       0       0       0       0       0       0       0       0       0       0       0
  4179 ;;Total ram usage:       25 bytes
  4180 ;; Hardware stack levels used:    1
  4181 ;; Hardware stack levels required when called:    5
  4182 ;; This function calls:
  4183 ;;		_dtoa
  4184 ;;		_fputc
  4185 ;;		_xtoa
  4186 ;; This function is called by:
  4187 ;;		_vfprintf
  4188 ;; This function uses a non-reentrant model
  4189 ;;
  4190                           
  4191                           
  4192                           ;psect for function _vfpfcnvrt
  4193  03AA                     _vfpfcnvrt:
  4194                           
  4195                           ;incstack = 0
  4196                           ; Regs used in _vfpfcnvrt: [wreg-fsr1h+status,2+status,0+pclath+cstack]
  4197                           ;vfpfcnvrt@fp stored from wreg
  4198  03AA  0140               	movlb	0	; select bank0
  4199  03AB  00E6               	movwf	vfpfcnvrt@fp
  4200  03AC                     l3149:
  4201                           
  4202                           ;D:\program files\Microchip\xc8\v2.31\pic\sources\c99\common\doprnt.c: 692: static int v
      +                          fpfcnvrt(FILE *fp, char *fmt[], va_list ap);D:\program files\Microchip\xc8\v2.31\pic\sou
      +                          rces\c99\common\doprnt.c: 693: {;D:\program files\Microchip\xc8\v2.31\pic\sources\c99\co
      +                          mmon\doprnt.c: 694:     char c, *cp, ct[3];;D:\program files\Microchip\xc8\v2.31\pic\sou
      +                          rces\c99\common\doprnt.c: 695:     int done, i;;D:\program files\Microchip\xc8\v2.31\pic
      +                          \sources\c99\common\doprnt.c: 696:     long long ll;;D:\program files\Microchip\xc8\v2.3
      +                          1\pic\sources\c99\common\doprnt.c: 697:     unsigned long long llu;
  4203  03AC  084E               	movf	vfpfcnvrt@fmt,w
  4204  03AD  0086               	movwf	6
  4205  03AE  0187               	clrf	7
  4206  03AF  3F40               	moviw [0]fsr1
  4207  03B0  00D0               	movwf	??_vfpfcnvrt
  4208  03B1  3F41               	moviw [1]fsr1
  4209  03B2  00D1               	movwf	??_vfpfcnvrt+1
  4210  03B3  0850               	movf	??_vfpfcnvrt,w
  4211  03B4  0084               	movwf	4
  4212  03B5  0851               	movf	??_vfpfcnvrt+1,w
  4213  03B6  0085               	movwf	5
  4214  03B7  0012               	moviw fsr0++
  4215  03B8  3A25               	xorlw	37
  4216  03B9  1D03               	btfss	3,2
  4217  03BA  2BBC               	goto	u2151
  4218  03BB  2BBD               	goto	u2150
  4219  03BC                     u2151:
  4220  03BC  2CCA               	goto	l3199
  4221  03BD                     u2150:
  4222  03BD                     l3151:
  4223                           
  4224                           ;D:\program files\Microchip\xc8\v2.31\pic\sources\c99\common\doprnt.c: 703:         ++*f
      +                          mt;
  4225  03BD  084E               	movf	vfpfcnvrt@fmt,w
  4226  03BE  0086               	movwf	6
  4227  03BF  0187               	clrf	7
  4228  03C0  3001               	movlw	1
  4229  03C1  0781               	addwf	1,f
  4230  03C2  3141               	addfsr 1,1
  4231  03C3  1803               	skipnc
  4232  03C4  0A81               	incf	1,f
  4233  03C5                     l3153:
  4234                           
  4235                           ;D:\program files\Microchip\xc8\v2.31\pic\sources\c99\common\doprnt.c: 705:         flag
      +                          s = width = 0;
  4236  03C5  0141               	movlb	1	; select bank1
  4237  03C6  01C4               	clrf	_width^(0+128)
  4238  03C7  01C5               	clrf	(_width+1)^(0+128)
  4239  03C8  01C8               	clrf	_flags^(0+128)
  4240  03C9  01C9               	clrf	(_flags+1)^(0+128)
  4241  03CA                     l3155:
  4242                           
  4243                           ;D:\program files\Microchip\xc8\v2.31\pic\sources\c99\common\doprnt.c: 706:         prec
      +                           = -1;
  4244  03CA  30FF               	movlw	255
  4245  03CB  00C6               	movwf	_prec^(0+128)
  4246  03CC  30FF               	movlw	255
  4247  03CD  00C7               	movwf	(_prec^(0+128)+1)
  4248  03CE                     l3157:
  4249                           
  4250                           ;D:\program files\Microchip\xc8\v2.31\pic\sources\c99\common\doprnt.c: 847:         if (
      +                          (*fmt[0] == 'd') || (*fmt[0] == 'i')) {
  4251  03CE  0140               	movlb	0	; select bank0
  4252  03CF  084E               	movf	vfpfcnvrt@fmt,w
  4253  03D0  0086               	movwf	6
  4254  03D1  0187               	clrf	7
  4255  03D2  3F40               	moviw [0]fsr1
  4256  03D3  00D0               	movwf	??_vfpfcnvrt
  4257  03D4  3F41               	moviw [1]fsr1
  4258  03D5  00D1               	movwf	??_vfpfcnvrt+1
  4259  03D6  0850               	movf	??_vfpfcnvrt,w
  4260  03D7  0084               	movwf	4
  4261  03D8  0851               	movf	??_vfpfcnvrt+1,w
  4262  03D9  0085               	movwf	5
  4263  03DA  0012               	moviw fsr0++
  4264  03DB  3A64               	xorlw	100
  4265  03DC  1903               	btfsc	3,2
  4266  03DD  2BDF               	goto	u2161
  4267  03DE  2BE0               	goto	u2160
  4268  03DF                     u2161:
  4269  03DF  2BF1               	goto	l3161
  4270  03E0                     u2160:
  4271  03E0                     l3159:
  4272  03E0  084E               	movf	vfpfcnvrt@fmt,w
  4273  03E1  0086               	movwf	6
  4274  03E2  0187               	clrf	7
  4275  03E3  3F40               	moviw [0]fsr1
  4276  03E4  00D0               	movwf	??_vfpfcnvrt
  4277  03E5  3F41               	moviw [1]fsr1
  4278  03E6  00D1               	movwf	??_vfpfcnvrt+1
  4279  03E7  0850               	movf	??_vfpfcnvrt,w
  4280  03E8  0084               	movwf	4
  4281  03E9  0851               	movf	??_vfpfcnvrt+1,w
  4282  03EA  0085               	movwf	5
  4283  03EB  0012               	moviw fsr0++
  4284  03EC  3A69               	xorlw	105
  4285  03ED  1D03               	btfss	3,2
  4286  03EE  2BF0               	goto	u2171
  4287  03EF  2BF1               	goto	u2170
  4288  03F0                     u2171:
  4289  03F0  2C2C               	goto	l3169
  4290  03F1                     u2170:
  4291  03F1                     l3161:
  4292                           
  4293                           ;D:\program files\Microchip\xc8\v2.31\pic\sources\c99\common\doprnt.c: 849:             
      +                          ++*fmt;
  4294  03F1  084E               	movf	vfpfcnvrt@fmt,w
  4295  03F2  0086               	movwf	6
  4296  03F3  0187               	clrf	7
  4297  03F4  3001               	movlw	1
  4298  03F5  0781               	addwf	1,f
  4299  03F6  3141               	addfsr 1,1
  4300  03F7  1803               	skipnc
  4301  03F8  0A81               	incf	1,f
  4302  03F9                     l3163:
  4303                           
  4304                           ;D:\program files\Microchip\xc8\v2.31\pic\sources\c99\common\doprnt.c: 850:             
      +                          ll = (long long)(*(int *)__va_arg(*(int **)ap, (int)0));
  4305  03F9  084F               	movf	vfpfcnvrt@ap,w
  4306  03FA  0086               	movwf	6
  4307  03FB  0187               	clrf	7
  4308  03FC  0801               	movf	1,w
  4309  03FD  0084               	movwf	4
  4310  03FE  0185               	clrf	5
  4311  03FF  3002               	movlw	2
  4312  0400  0781               	addwf	1,f
  4313  0401  3F00               	moviw [0]fsr0
  4314  0402  00D0               	movwf	??_vfpfcnvrt
  4315  0403  3F01               	moviw [1]fsr0
  4316  0404  00D1               	movwf	??_vfpfcnvrt+1
  4317  0405  0850               	movf	??_vfpfcnvrt,w
  4318  0406  00D5               	movwf	vfpfcnvrt@ll
  4319  0407  0851               	movf	??_vfpfcnvrt+1,w
  4320  0408  00D6               	movwf	vfpfcnvrt@ll+1
  4321  0409  0D89               	rlf	9,f
  4322  040A  3B89               	subwfb	9,f
  4323  040B  0989               	comf	9,f
  4324  040C  00D7               	movwf	vfpfcnvrt@ll+2
  4325  040D  00D8               	movwf	vfpfcnvrt@ll+3
  4326  040E  00D9               	movwf	vfpfcnvrt@ll+4
  4327  040F  00DA               	movwf	vfpfcnvrt@ll+5
  4328  0410  00DB               	movwf	vfpfcnvrt@ll+6
  4329  0411  00DC               	movwf	vfpfcnvrt@ll+7
  4330  0412                     l3165:
  4331                           
  4332                           ;D:\program files\Microchip\xc8\v2.31\pic\sources\c99\common\doprnt.c: 852:             
      +                          return dtoa(fp, ll);
  4333  0412  0855               	movf	vfpfcnvrt@ll,w
  4334  0413  00B0               	movwf	dtoa@d
  4335  0414  0856               	movf	vfpfcnvrt@ll+1,w
  4336  0415  00B1               	movwf	dtoa@d+1
  4337  0416  0857               	movf	vfpfcnvrt@ll+2,w
  4338  0417  00B2               	movwf	dtoa@d+2
  4339  0418  0858               	movf	vfpfcnvrt@ll+3,w
  4340  0419  00B3               	movwf	dtoa@d+3
  4341  041A  0859               	movf	vfpfcnvrt@ll+4,w
  4342  041B  00B4               	movwf	dtoa@d+4
  4343  041C  085A               	movf	vfpfcnvrt@ll+5,w
  4344  041D  00B5               	movwf	dtoa@d+5
  4345  041E  085B               	movf	vfpfcnvrt@ll+6,w
  4346  041F  00B6               	movwf	dtoa@d+6
  4347  0420  085C               	movf	vfpfcnvrt@ll+7,w
  4348  0421  00B7               	movwf	dtoa@d+7
  4349  0422  0866               	movf	vfpfcnvrt@fp,w
  4350  0423  3184  24EE  3183   	fcall	_dtoa
  4351  0426  0140               	movlb	0	; select bank0
  4352  0427  0831               	movf	?_dtoa+1,w
  4353  0428  00CF               	movwf	?_vfpfcnvrt+1
  4354  0429  0830               	movf	?_dtoa,w
  4355  042A  00CE               	movwf	?_vfpfcnvrt
  4356  042B  2CED               	goto	l1467
  4357  042C                     l3169:
  4358                           
  4359                           ;D:\program files\Microchip\xc8\v2.31\pic\sources\c99\common\doprnt.c: 1296:         if 
      +                          ((*fmt[0] == 'x') || (*fmt[0] == 'X')) {
  4360  042C  084E               	movf	vfpfcnvrt@fmt,w
  4361  042D  0086               	movwf	6
  4362  042E  0187               	clrf	7
  4363  042F  3F40               	moviw [0]fsr1
  4364  0430  00D0               	movwf	??_vfpfcnvrt
  4365  0431  3F41               	moviw [1]fsr1
  4366  0432  00D1               	movwf	??_vfpfcnvrt+1
  4367  0433  0850               	movf	??_vfpfcnvrt,w
  4368  0434  0084               	movwf	4
  4369  0435  0851               	movf	??_vfpfcnvrt+1,w
  4370  0436  0085               	movwf	5
  4371  0437  0012               	moviw fsr0++
  4372  0438  3A78               	xorlw	120
  4373  0439  1903               	btfsc	3,2
  4374  043A  2C3C               	goto	u2181
  4375  043B  2C3D               	goto	u2180
  4376  043C                     u2181:
  4377  043C  2C4E               	goto	l3173
  4378  043D                     u2180:
  4379  043D                     l3171:
  4380  043D  084E               	movf	vfpfcnvrt@fmt,w
  4381  043E  0086               	movwf	6
  4382  043F  0187               	clrf	7
  4383  0440  3F40               	moviw [0]fsr1
  4384  0441  00D0               	movwf	??_vfpfcnvrt
  4385  0442  3F41               	moviw [1]fsr1
  4386  0443  00D1               	movwf	??_vfpfcnvrt+1
  4387  0444  0850               	movf	??_vfpfcnvrt,w
  4388  0445  0084               	movwf	4
  4389  0446  0851               	movf	??_vfpfcnvrt+1,w
  4390  0447  0085               	movwf	5
  4391  0448  0012               	moviw fsr0++
  4392  0449  3A58               	xorlw	88
  4393  044A  1D03               	btfss	3,2
  4394  044B  2C4D               	goto	u2191
  4395  044C  2C4E               	goto	u2190
  4396  044D                     u2191:
  4397  044D  2C95               	goto	l3183
  4398  044E                     u2190:
  4399  044E                     l3173:
  4400                           
  4401                           ;D:\program files\Microchip\xc8\v2.31\pic\sources\c99\common\doprnt.c: 1298:            
      +                           c = (*fmt)[0];
  4402  044E  084E               	movf	vfpfcnvrt@fmt,w
  4403  044F  0086               	movwf	6
  4404  0450  0187               	clrf	7
  4405  0451  3F40               	moviw [0]fsr1
  4406  0452  00D0               	movwf	??_vfpfcnvrt
  4407  0453  3F41               	moviw [1]fsr1
  4408  0454  00D1               	movwf	??_vfpfcnvrt+1
  4409  0455  0850               	movf	??_vfpfcnvrt,w
  4410  0456  0084               	movwf	4
  4411  0457  0851               	movf	??_vfpfcnvrt+1,w
  4412  0458  0085               	movwf	5
  4413  0459  0800               	movf	0,w	;code access
  4414  045A  00D2               	movwf	??_vfpfcnvrt+2
  4415  045B  0852               	movf	??_vfpfcnvrt+2,w
  4416  045C  00E5               	movwf	vfpfcnvrt@c
  4417  045D                     l3175:
  4418                           
  4419                           ;D:\program files\Microchip\xc8\v2.31\pic\sources\c99\common\doprnt.c: 1299:            
      +                           ++*fmt;
  4420  045D  084E               	movf	vfpfcnvrt@fmt,w
  4421  045E  0086               	movwf	6
  4422  045F  0187               	clrf	7
  4423  0460  3001               	movlw	1
  4424  0461  0781               	addwf	1,f
  4425  0462  3141               	addfsr 1,1
  4426  0463  1803               	skipnc
  4427  0464  0A81               	incf	1,f
  4428  0465                     l3177:
  4429                           
  4430                           ;D:\program files\Microchip\xc8\v2.31\pic\sources\c99\common\doprnt.c: 1300:            
      +                           llu = (unsigned long long)(*(unsigned int *)__va_arg(*(unsigned int **)ap, (unsigned in
      +                          t)0));
  4431  0465  084F               	movf	vfpfcnvrt@ap,w
  4432  0466  0086               	movwf	6
  4433  0467  0187               	clrf	7
  4434  0468  0801               	movf	1,w
  4435  0469  0084               	movwf	4
  4436  046A  0185               	clrf	5
  4437  046B  3002               	movlw	2
  4438  046C  0781               	addwf	1,f
  4439  046D  3F00               	moviw [0]fsr0
  4440  046E  00DD               	movwf	vfpfcnvrt@llu
  4441  046F  3F01               	moviw [1]fsr0
  4442  0470  00DE               	movwf	vfpfcnvrt@llu+1
  4443  0471  01DF               	clrf	vfpfcnvrt@llu+2
  4444  0472  01E0               	clrf	vfpfcnvrt@llu+3
  4445  0473  01E1               	clrf	vfpfcnvrt@llu+4
  4446  0474  01E2               	clrf	vfpfcnvrt@llu+5
  4447  0475  01E3               	clrf	vfpfcnvrt@llu+6
  4448  0476  01E4               	clrf	vfpfcnvrt@llu+7
  4449  0477                     l3179:
  4450                           
  4451                           ;D:\program files\Microchip\xc8\v2.31\pic\sources\c99\common\doprnt.c: 1302:            
      +                           return xtoa(fp, llu, c);
  4452  0477  085D               	movf	vfpfcnvrt@llu,w
  4453  0478  00A8               	movwf	xtoa@d
  4454  0479  085E               	movf	vfpfcnvrt@llu+1,w
  4455  047A  00A9               	movwf	xtoa@d+1
  4456  047B  085F               	movf	vfpfcnvrt@llu+2,w
  4457  047C  00AA               	movwf	xtoa@d+2
  4458  047D  0860               	movf	vfpfcnvrt@llu+3,w
  4459  047E  00AB               	movwf	xtoa@d+3
  4460  047F  0861               	movf	vfpfcnvrt@llu+4,w
  4461  0480  00AC               	movwf	xtoa@d+4
  4462  0481  0862               	movf	vfpfcnvrt@llu+5,w
  4463  0482  00AD               	movwf	xtoa@d+5
  4464  0483  0863               	movf	vfpfcnvrt@llu+6,w
  4465  0484  00AE               	movwf	xtoa@d+6
  4466  0485  0864               	movf	vfpfcnvrt@llu+7,w
  4467  0486  00AF               	movwf	xtoa@d+7
  4468  0487  0865               	movf	vfpfcnvrt@c,w
  4469  0488  00D0               	movwf	??_vfpfcnvrt
  4470  0489  0850               	movf	??_vfpfcnvrt,w
  4471  048A  00B0               	movwf	xtoa@x
  4472  048B  0866               	movf	vfpfcnvrt@fp,w
  4473  048C  3186  265E  3183   	fcall	_xtoa
  4474  048F  0140               	movlb	0	; select bank0
  4475  0490  0829               	movf	?_xtoa+1,w
  4476  0491  00CF               	movwf	?_vfpfcnvrt+1
  4477  0492  0828               	movf	?_xtoa,w
  4478  0493  00CE               	movwf	?_vfpfcnvrt
  4479  0494  2CED               	goto	l1467
  4480  0495                     l3183:
  4481                           
  4482                           ;D:\program files\Microchip\xc8\v2.31\pic\sources\c99\common\doprnt.c: 1372:         if 
      +                          ((*fmt)[0] == '%') {
  4483  0495  084E               	movf	vfpfcnvrt@fmt,w
  4484  0496  0086               	movwf	6
  4485  0497  0187               	clrf	7
  4486  0498  3F40               	moviw [0]fsr1
  4487  0499  00D0               	movwf	??_vfpfcnvrt
  4488  049A  3F41               	moviw [1]fsr1
  4489  049B  00D1               	movwf	??_vfpfcnvrt+1
  4490  049C  0850               	movf	??_vfpfcnvrt,w
  4491  049D  0084               	movwf	4
  4492  049E  0851               	movf	??_vfpfcnvrt+1,w
  4493  049F  0085               	movwf	5
  4494  04A0  0012               	moviw fsr0++
  4495  04A1  3A25               	xorlw	37
  4496  04A2  1D03               	btfss	3,2
  4497  04A3  2CA5               	goto	u2201
  4498  04A4  2CA6               	goto	u2200
  4499  04A5                     u2201:
  4500  04A5  2CBF               	goto	l3193
  4501  04A6                     u2200:
  4502  04A6                     l3185:
  4503                           
  4504                           ;D:\program files\Microchip\xc8\v2.31\pic\sources\c99\common\doprnt.c: 1373:            
      +                           ++*fmt;
  4505  04A6  084E               	movf	vfpfcnvrt@fmt,w
  4506  04A7  0086               	movwf	6
  4507  04A8  0187               	clrf	7
  4508  04A9  3001               	movlw	1
  4509  04AA  0781               	addwf	1,f
  4510  04AB  3141               	addfsr 1,1
  4511  04AC  1803               	skipnc
  4512  04AD  0A81               	incf	1,f
  4513  04AE                     l3187:
  4514                           
  4515                           ;D:\program files\Microchip\xc8\v2.31\pic\sources\c99\common\doprnt.c: 1374:            
      +                           fputc((int)'%', fp);
  4516  04AE  3025               	movlw	37
  4517  04AF  00F1               	movwf	fputc@ch
  4518  04B0  3000               	movlw	0
  4519  04B1  00F2               	movwf	fputc@ch+1
  4520  04B2  0866               	movf	vfpfcnvrt@fp,w
  4521  04B3  00D0               	movwf	??_vfpfcnvrt
  4522  04B4  0850               	movf	??_vfpfcnvrt,w
  4523  04B5  00F3               	movwf	fputc@f
  4524  04B6  318D  25CE  3183   	fcall	_fputc
  4525  04B9                     l3189:
  4526                           
  4527                           ;D:\program files\Microchip\xc8\v2.31\pic\sources\c99\common\doprnt.c: 1375:            
      +                           return 1;
  4528  04B9  3001               	movlw	1
  4529  04BA  0140               	movlb	0	; select bank0
  4530  04BB  00CE               	movwf	?_vfpfcnvrt
  4531  04BC  3000               	movlw	0
  4532  04BD  00CF               	movwf	?_vfpfcnvrt+1
  4533  04BE  2CED               	goto	l1467
  4534  04BF                     l3193:
  4535                           
  4536                           ;D:\program files\Microchip\xc8\v2.31\pic\sources\c99\common\doprnt.c: 1379:         ++*
      +                          fmt;
  4537  04BF  084E               	movf	vfpfcnvrt@fmt,w
  4538  04C0  0086               	movwf	6
  4539  04C1  0187               	clrf	7
  4540  04C2  3001               	movlw	1
  4541  04C3  0781               	addwf	1,f
  4542  04C4  3141               	addfsr 1,1
  4543  04C5  1803               	skipnc
  4544  04C6  0A81               	incf	1,f
  4545  04C7                     l3195:
  4546                           
  4547                           ;D:\program files\Microchip\xc8\v2.31\pic\sources\c99\common\doprnt.c: 1380:         ret
      +                          urn 0;
  4548  04C7  01CE               	clrf	?_vfpfcnvrt
  4549  04C8  01CF               	clrf	?_vfpfcnvrt+1
  4550  04C9  2CED               	goto	l1467
  4551  04CA                     l3199:
  4552                           
  4553                           ;D:\program files\Microchip\xc8\v2.31\pic\sources\c99\common\doprnt.c: 1384:     fputc((
      +                          int)(*fmt)[0], fp);
  4554  04CA  084E               	movf	vfpfcnvrt@fmt,w
  4555  04CB  0086               	movwf	6
  4556  04CC  0187               	clrf	7
  4557  04CD  3F40               	moviw [0]fsr1
  4558  04CE  00D0               	movwf	??_vfpfcnvrt
  4559  04CF  3F41               	moviw [1]fsr1
  4560  04D0  00D1               	movwf	??_vfpfcnvrt+1
  4561  04D1  0850               	movf	??_vfpfcnvrt,w
  4562  04D2  0084               	movwf	4
  4563  04D3  0851               	movf	??_vfpfcnvrt+1,w
  4564  04D4  0085               	movwf	5
  4565  04D5  0800               	movf	0,w	;code access
  4566  04D6  00D2               	movwf	??_vfpfcnvrt+2
  4567  04D7  01D3               	clrf	??_vfpfcnvrt+3
  4568  04D8  0852               	movf	??_vfpfcnvrt+2,w
  4569  04D9  00F1               	movwf	fputc@ch
  4570  04DA  0853               	movf	??_vfpfcnvrt+3,w
  4571  04DB  00F2               	movwf	fputc@ch+1
  4572  04DC  0866               	movf	vfpfcnvrt@fp,w
  4573  04DD  00D4               	movwf	??_vfpfcnvrt+4
  4574  04DE  0854               	movf	??_vfpfcnvrt+4,w
  4575  04DF  00F3               	movwf	fputc@f
  4576  04E0  318D  25CE  3183   	fcall	_fputc
  4577  04E3                     l3201:
  4578                           
  4579                           ;D:\program files\Microchip\xc8\v2.31\pic\sources\c99\common\doprnt.c: 1385:     ++*fmt;
  4580  04E3  0140               	movlb	0	; select bank0
  4581  04E4  084E               	movf	vfpfcnvrt@fmt,w
  4582  04E5  0086               	movwf	6
  4583  04E6  0187               	clrf	7
  4584  04E7  3001               	movlw	1
  4585  04E8  0781               	addwf	1,f
  4586  04E9  3141               	addfsr 1,1
  4587  04EA  1803               	skipnc
  4588  04EB  0A81               	incf	1,f
  4589  04EC  2CB9               	goto	l3189
  4590  04ED                     l1467:
  4591  04ED  0008               	return
  4592  04EE                     __end_of_vfpfcnvrt:
  4593                           
  4594                           	psect	text4
  4595  065E                     __ptext4:	
  4596 ;; *************** function _xtoa *****************
  4597 ;; Defined at:
  4598 ;;		line 645 in file "D:\program files\Microchip\xc8\v2.31\pic\sources\c99\common\doprnt.c"
  4599 ;; Parameters:    Size  Location     Type
  4600 ;;  fp              1    wreg     PTR struct _IO_FILE
  4601 ;;		 -> NULL(0), 
  4602 ;;  d               8    8[BANK0 ] unsigned long long 
  4603 ;;  x               1   16[BANK0 ] unsigned char 
  4604 ;; Auto vars:     Size  Location     Type
  4605 ;;  fp              1   31[BANK0 ] PTR struct _IO_FILE
  4606 ;;		 -> NULL(0), 
  4607 ;;  n               8   34[BANK0 ] unsigned long long 
  4608 ;;  c               2   44[BANK0 ] int 
  4609 ;;  i               2   42[BANK0 ] int 
  4610 ;;  w               2   32[BANK0 ] int 
  4611 ;;  p               2   29[BANK0 ] int 
  4612 ;; Return value:  Size  Location     Type
  4613 ;;                  2    8[BANK0 ] int 
  4614 ;; Registers used:
  4615 ;;		wreg, fsr1l, fsr1h, status,2, status,0, pclath, cstack
  4616 ;; Tracked objects:
  4617 ;;		On entry : 0/0
  4618 ;;		On exit  : 0/0
  4619 ;;		Unchanged: 0/0
  4620 ;; Data sizes:     COMMON   BANK0   BANK1   BANK2   BANK3   BANK4   BANK5   BANK6   BANK7   BANK8   BANK9  BANK10  BANK1
      +1  BANK12  BANK13  BANK14  BANK15  BANK16  BANK17  BANK18  BANK19  BANK20  BANK21  BANK22  BANK23  BANK24  BANK25
  4621 ;;      Params:         0       9       0       0       0       0       0       0       0       0       0       0       
      +0       0       0       0       0       0       0       0       0       0       0       0       0       0       0
  4622 ;;      Locals:         0      21       0       0       0       0       0       0       0       0       0       0       
      +0       0       0       0       0       0       0       0       0       0       0       0       0       0       0
  4623 ;;      Temps:          0       8       0       0       0       0       0       0       0       0       0       0       
      +0       0       0       0       0       0       0       0       0       0       0       0       0       0       0
  4624 ;;      Totals:         0      38       0       0       0       0       0       0       0       0       0       0       
      +0       0       0       0       0       0       0       0       0       0       0       0       0       0       0
  4625 ;;Total ram usage:       38 bytes
  4626 ;; Hardware stack levels used:    1
  4627 ;; Hardware stack levels required when called:    4
  4628 ;; This function calls:
  4629 ;;		_isalpha
  4630 ;;		_isupper
  4631 ;;		_pad
  4632 ;;		_toupper
  4633 ;; This function is called by:
  4634 ;;		_vfpfcnvrt
  4635 ;; This function uses a non-reentrant model
  4636 ;;
  4637                           
  4638                           
  4639                           ;psect for function _xtoa
  4640  065E                     _xtoa:
  4641                           
  4642                           ;incstack = 0
  4643                           ; Regs used in _xtoa: [wreg+fsr1l+fsr1h+status,2+status,0+pclath+cstack]
  4644                           ;xtoa@fp stored from wreg
  4645  065E  0140               	movlb	0	; select bank0
  4646  065F  00BF               	movwf	xtoa@fp
  4647  0660                     l3009:
  4648                           
  4649                           ;D:\program files\Microchip\xc8\v2.31\pic\sources\c99\common\doprnt.c: 645: static int x
      +                          toa(FILE *fp, unsigned long long d, char x);D:\program files\Microchip\xc8\v2.31\pic\sou
      +                          rces\c99\common\doprnt.c: 646: {;D:\program files\Microchip\xc8\v2.31\pic\sources\c99\co
      +                          mmon\doprnt.c: 647:     int c, i, p, w;;D:\program files\Microchip\xc8\v2.31\pic\sources
      +                          \c99\common\doprnt.c: 648:     unsigned long long n;;D:\program files\Microchip\xc8\v2.3
      +                          1\pic\sources\c99\common\doprnt.c: 651:     if (!(prec < 0)) {
  4650  0660  0141               	movlb	1	; select bank1
  4651  0661  1BC7               	btfsc	(_prec+1)^(0+128),7
  4652  0662  2E64               	goto	u1951
  4653  0663  2E65               	goto	u1950
  4654  0664                     u1951:
  4655  0664  2E69               	goto	l1433
  4656  0665                     u1950:
  4657  0665                     l3011:
  4658                           
  4659                           ;D:\program files\Microchip\xc8\v2.31\pic\sources\c99\common\doprnt.c: 652:         flag
      +                          s &= ~(1 << 1);
  4660  0665  30FD               	movlw	253
  4661  0666  05C8               	andwf	_flags^(0+128),f
  4662  0667  30FF               	movlw	255
  4663  0668  05C9               	andwf	(_flags+1)^(0+128),f
  4664  0669                     l1433:	
  4665                           ;D:\program files\Microchip\xc8\v2.31\pic\sources\c99\common\doprnt.c: 653:     }
  4666                           
  4667                           
  4668                           ;D:\program files\Microchip\xc8\v2.31\pic\sources\c99\common\doprnt.c: 654:     p = (0 <
      +                           prec) ? prec : 1;
  4669  0669  0847               	movf	(_prec+1)^(0+128),w
  4670  066A  3A80               	xorlw	128
  4671  066B  0140               	movlb	0	; select bank0
  4672  066C  00B1               	movwf	??_xtoa
  4673  066D  3080               	movlw	128
  4674  066E  0231               	subwf	??_xtoa,w
  4675  066F  1D03               	skipz
  4676  0670  2E74               	goto	u1965
  4677  0671  3001               	movlw	1
  4678  0672  0141               	movlb	1	; select bank1
  4679  0673  0246               	subwf	_prec^(0+128),w
  4680  0674                     u1965:
  4681  0674  1803               	skipnc
  4682  0675  2E77               	goto	u1961
  4683  0676  2E78               	goto	u1960
  4684  0677                     u1961:
  4685  0677  2E7E               	goto	l3015
  4686  0678                     u1960:
  4687  0678                     l3013:
  4688  0678  3001               	movlw	1
  4689  0679  0140               	movlb	0	; select bank0
  4690  067A  00BD               	movwf	xtoa@p
  4691  067B  3000               	movlw	0
  4692  067C  00BE               	movwf	xtoa@p+1
  4693  067D  2E86               	goto	l1437
  4694  067E                     l3015:
  4695  067E  0141               	movlb	1	; select bank1
  4696  067F  0847               	movf	(_prec+1)^(0+128),w
  4697  0680  0140               	movlb	0	; select bank0
  4698  0681  00BE               	movwf	xtoa@p+1
  4699  0682  0141               	movlb	1	; select bank1
  4700  0683  0846               	movf	_prec^(0+128),w
  4701  0684  0140               	movlb	0	; select bank0
  4702  0685  00BD               	movwf	xtoa@p
  4703  0686                     l1437:
  4704                           
  4705                           ;D:\program files\Microchip\xc8\v2.31\pic\sources\c99\common\doprnt.c: 655:     w = widt
      +                          h;
  4706  0686  0141               	movlb	1	; select bank1
  4707  0687  0845               	movf	(_width+1)^(0+128),w
  4708  0688  0140               	movlb	0	; select bank0
  4709  0689  00C1               	movwf	xtoa@w+1
  4710  068A  0141               	movlb	1	; select bank1
  4711  068B  0844               	movf	_width^(0+128),w
  4712  068C  0140               	movlb	0	; select bank0
  4713  068D  00C0               	movwf	xtoa@w
  4714  068E                     l3017:
  4715                           
  4716                           ;D:\program files\Microchip\xc8\v2.31\pic\sources\c99\common\doprnt.c: 656:     if (flag
      +                          s & (1 << 4)) {
  4717  068E  0141               	movlb	1	; select bank1
  4718  068F  1E48               	btfss	_flags^(0+128),4
  4719  0690  2E92               	goto	u1971
  4720  0691  2E93               	goto	u1970
  4721  0692                     u1971:
  4722  0692  2E98               	goto	l3021
  4723  0693                     u1970:
  4724  0693                     l3019:
  4725                           
  4726                           ;D:\program files\Microchip\xc8\v2.31\pic\sources\c99\common\doprnt.c: 657:         w -=
      +                           2;
  4727  0693  30FE               	movlw	254
  4728  0694  0140               	movlb	0	; select bank0
  4729  0695  07C0               	addwf	xtoa@w,f
  4730  0696  30FF               	movlw	255
  4731  0697  3DC1               	addwfc	xtoa@w+1,f
  4732  0698                     l3021:
  4733                           
  4734                           ;D:\program files\Microchip\xc8\v2.31\pic\sources\c99\common\doprnt.c: 661:     n = d;
  4735  0698  0140               	movlb	0	; select bank0
  4736  0699  0828               	movf	xtoa@d,w
  4737  069A  00C2               	movwf	xtoa@n
  4738  069B  0829               	movf	xtoa@d+1,w
  4739  069C  00C3               	movwf	xtoa@n+1
  4740  069D  082A               	movf	xtoa@d+2,w
  4741  069E  00C4               	movwf	xtoa@n+2
  4742  069F  082B               	movf	xtoa@d+3,w
  4743  06A0  00C5               	movwf	xtoa@n+3
  4744  06A1  082C               	movf	xtoa@d+4,w
  4745  06A2  00C6               	movwf	xtoa@n+4
  4746  06A3  082D               	movf	xtoa@d+5,w
  4747  06A4  00C7               	movwf	xtoa@n+5
  4748  06A5  082E               	movf	xtoa@d+6,w
  4749  06A6  00C8               	movwf	xtoa@n+6
  4750  06A7  082F               	movf	xtoa@d+7,w
  4751  06A8  00C9               	movwf	xtoa@n+7
  4752                           
  4753                           ;D:\program files\Microchip\xc8\v2.31\pic\sources\c99\common\doprnt.c: 662:     i = size
      +                          of(dbuf) - 1;
  4754  06A9  301F               	movlw	31
  4755  06AA  00CA               	movwf	xtoa@i
  4756  06AB  3000               	movlw	0
  4757  06AC  00CB               	movwf	xtoa@i+1
  4758  06AD                     l3023:
  4759                           
  4760                           ;D:\program files\Microchip\xc8\v2.31\pic\sources\c99\common\doprnt.c: 663:     dbuf[i] 
      +                          = '\0';
  4761  06AD  0142               	movlb	2	; select bank2
  4762  06AE  01BF               	clrf	(_dbuf^(0+256)+31)
  4763                           
  4764                           ;D:\program files\Microchip\xc8\v2.31\pic\sources\c99\common\doprnt.c: 664:     while (!
      +                          (i < 2) && (n || (0 < p) || ((0 < w) && (flags & (1 << 1))))) {
  4765  06AF  2F66               	goto	l3053
  4766  06B0                     l3025:
  4767                           
  4768                           ;D:\program files\Microchip\xc8\v2.31\pic\sources\c99\common\doprnt.c: 665:         --i;
  4769  06B0  30FF               	movlw	255
  4770  06B1  0140               	movlb	0	; select bank0
  4771  06B2  07CA               	addwf	xtoa@i,f
  4772  06B3  30FF               	movlw	255
  4773  06B4  3DCB               	addwfc	xtoa@i+1,f
  4774                           
  4775                           ;D:\program files\Microchip\xc8\v2.31\pic\sources\c99\common\doprnt.c: 666:         c = 
      +                          n & 0x0f;
  4776  06B5  300F               	movlw	15
  4777  06B6  0542               	andwf	xtoa@n,w
  4778  06B7  00CC               	movwf	xtoa@c
  4779  06B8  3000               	movlw	0
  4780  06B9  0543               	andwf	xtoa@n+1,w
  4781  06BA  00CD               	movwf	xtoa@c+1
  4782                           
  4783                           ;D:\program files\Microchip\xc8\v2.31\pic\sources\c99\common\doprnt.c: 667:         c = 
      +                          (c < 10) ? (int)'0' + c : (int)'a' + (c - 10);
  4784  06BB  084D               	movf	xtoa@c+1,w
  4785  06BC  3A80               	xorlw	128
  4786  06BD  00B1               	movwf	??_xtoa
  4787  06BE  3080               	movlw	128
  4788  06BF  0231               	subwf	??_xtoa,w
  4789  06C0  1D03               	skipz
  4790  06C1  2EC4               	goto	u1985
  4791  06C2  300A               	movlw	10
  4792  06C3  024C               	subwf	xtoa@c,w
  4793  06C4                     u1985:
  4794  06C4  1C03               	skipc
  4795  06C5  2EC7               	goto	u1981
  4796  06C6  2EC8               	goto	u1980
  4797  06C7                     u1981:
  4798  06C7  2ED0               	goto	l3029
  4799  06C8                     u1980:
  4800  06C8                     l3027:
  4801  06C8  0140               	movlb	0	; select bank0
  4802  06C9  084C               	movf	xtoa@c,w
  4803  06CA  3E57               	addlw	87
  4804  06CB  00CC               	movwf	xtoa@c
  4805  06CC  3000               	movlw	0
  4806  06CD  3D4D               	addwfc	xtoa@c+1,w
  4807  06CE  00CD               	movwf	xtoa@c+1
  4808  06CF  2ED7               	goto	l3031
  4809  06D0                     l3029:
  4810  06D0  0140               	movlb	0	; select bank0
  4811  06D1  084C               	movf	xtoa@c,w
  4812  06D2  3E30               	addlw	48
  4813  06D3  00CC               	movwf	xtoa@c
  4814  06D4  3000               	movlw	0
  4815  06D5  3D4D               	addwfc	xtoa@c+1,w
  4816  06D6  00CD               	movwf	xtoa@c+1
  4817  06D7                     l3031:
  4818  06D7  0830               	movf	xtoa@x,w
  4819  06D8  3EBF               	addlw	191
  4820  06D9  00B1               	movwf	??_xtoa
  4821  06DA  30FF               	movlw	255
  4822  06DB  1803               	skipnc
  4823  06DC  3000               	movlw	0
  4824  06DD  00B2               	movwf	??_xtoa+1
  4825  06DE  3000               	movlw	0
  4826  06DF  0232               	subwf	??_xtoa+1,w
  4827  06E0  301A               	movlw	26
  4828  06E1  1903               	skipnz
  4829  06E2  0231               	subwf	??_xtoa,w
  4830  06E3  1C03               	skipc
  4831  06E4  2EE6               	goto	u1991
  4832  06E5  2EE8               	goto	u1990
  4833  06E6                     u1991:
  4834  06E6  3001               	movlw	1
  4835  06E7  2EE9               	goto	u2000
  4836  06E8                     u1990:
  4837  06E8  3000               	movlw	0
  4838  06E9                     u2000:
  4839  06E9  00B3               	movwf	??_xtoa+2
  4840  06EA  01B4               	clrf	??_xtoa+3
  4841  06EB  0833               	movf	??_xtoa+2,w
  4842  06EC  00B9               	movwf	_xtoa$1749
  4843  06ED  0834               	movf	??_xtoa+3,w
  4844  06EE  00BA               	movwf	_xtoa$1749+1
  4845  06EF                     l3035:
  4846  06EF  0839               	movf	_xtoa$1749,w
  4847  06F0  043A               	iorwf	_xtoa$1749+1,w
  4848  06F1  1903               	btfsc	3,2
  4849  06F2  2EF4               	goto	u2011
  4850  06F3  2EF5               	goto	u2010
  4851  06F4                     u2011:
  4852  06F4  2F24               	goto	l3045
  4853  06F5                     u2010:
  4854  06F5                     l3037:
  4855  06F5  3020               	movlw	32
  4856  06F6  044C               	iorwf	xtoa@c,w
  4857  06F7  00B1               	movwf	??_xtoa
  4858  06F8  3000               	movlw	0
  4859  06F9  044D               	iorwf	xtoa@c+1,w
  4860  06FA  00B2               	movwf	??_xtoa+1
  4861  06FB  0831               	movf	??_xtoa,w
  4862  06FC  3E9F               	addlw	159
  4863  06FD  00B3               	movwf	??_xtoa+2
  4864  06FE  30FF               	movlw	255
  4865  06FF  3D32               	addwfc	??_xtoa+1,w
  4866  0700  00B4               	movwf	??_xtoa+3
  4867  0701  3000               	movlw	0
  4868  0702  0234               	subwf	??_xtoa+3,w
  4869  0703  301A               	movlw	26
  4870  0704  1903               	skipnz
  4871  0705  0233               	subwf	??_xtoa+2,w
  4872  0706  1C03               	skipc
  4873  0707  2F09               	goto	u2021
  4874  0708  2F0B               	goto	u2020
  4875  0709                     u2021:
  4876  0709  3001               	movlw	1
  4877  070A  2F0C               	goto	u2030
  4878  070B                     u2020:
  4879  070B  3000               	movlw	0
  4880  070C                     u2030:
  4881  070C  00B5               	movwf	??_xtoa+4
  4882  070D  01B6               	clrf	??_xtoa+5
  4883  070E  0835               	movf	??_xtoa+4,w
  4884  070F  00BB               	movwf	_xtoa$1750
  4885  0710  0836               	movf	??_xtoa+5,w
  4886  0711  00BC               	movwf	_xtoa$1750+1
  4887  0712                     l3041:
  4888  0712  083B               	movf	_xtoa$1750,w
  4889  0713  043C               	iorwf	_xtoa$1750+1,w
  4890  0714  1903               	btfsc	3,2
  4891  0715  2F17               	goto	u2041
  4892  0716  2F18               	goto	u2040
  4893  0717                     u2041:
  4894  0717  2F24               	goto	l3045
  4895  0718                     u2040:
  4896  0718                     l3043:
  4897                           
  4898                           ;D:\program files\Microchip\xc8\v2.31\pic\sources\c99\common\doprnt.c: 669:             
      +                          c = toupper(c);
  4899  0718  084D               	movf	xtoa@c+1,w
  4900  0719  00F7               	movwf	toupper@c+1
  4901  071A  084C               	movf	xtoa@c,w
  4902  071B  00F6               	movwf	toupper@c
  4903  071C  318F  27DB  3186   	fcall	_toupper
  4904  071F  0877               	movf	?_toupper+1,w
  4905  0720  0140               	movlb	0	; select bank0
  4906  0721  00CD               	movwf	xtoa@c+1
  4907  0722  0876               	movf	?_toupper,w
  4908  0723  00CC               	movwf	xtoa@c
  4909  0724                     l3045:
  4910                           
  4911                           ;D:\program files\Microchip\xc8\v2.31\pic\sources\c99\common\doprnt.c: 671:         dbuf
      +                          [i] = (char)c;
  4912  0724  084C               	movf	xtoa@c,w
  4913  0725  00B1               	movwf	??_xtoa
  4914  0726  084A               	movf	xtoa@i,w
  4915  0727  3E20               	addlw	(low (_dbuf| (0+256)))& (0+255)
  4916  0728  0086               	movwf	6
  4917  0729  3001               	movlw	1	; select bank2/3
  4918  072A  0087               	movwf	7
  4919  072B  0831               	movf	??_xtoa,w
  4920  072C  0081               	movwf	1
  4921  072D                     l3047:
  4922                           
  4923                           ;D:\program files\Microchip\xc8\v2.31\pic\sources\c99\common\doprnt.c: 672:         --p;
  4924  072D  30FF               	movlw	255
  4925  072E  07BD               	addwf	xtoa@p,f
  4926  072F  30FF               	movlw	255
  4927  0730  3DBE               	addwfc	xtoa@p+1,f
  4928  0731                     l3049:
  4929                           
  4930                           ;D:\program files\Microchip\xc8\v2.31\pic\sources\c99\common\doprnt.c: 673:         --w;
  4931  0731  30FF               	movlw	255
  4932  0732  07C0               	addwf	xtoa@w,f
  4933  0733  30FF               	movlw	255
  4934  0734  3DC1               	addwfc	xtoa@w+1,f
  4935  0735                     l3051:
  4936                           
  4937                           ;D:\program files\Microchip\xc8\v2.31\pic\sources\c99\common\doprnt.c: 674:         n = 
      +                          n >> 4;
  4938  0735  3042               	movlw	low xtoa@n
  4939  0736  0086               	movwf	6
  4940  0737  3000               	movlw	high xtoa@n
  4941  0738  0087               	movwf	7
  4942  0739  3F40               	moviw [0]fsr1
  4943  073A  00B1               	movwf	??_xtoa
  4944  073B  3F41               	moviw [1]fsr1
  4945  073C  00B2               	movwf	??_xtoa+1
  4946  073D  3F42               	moviw [2]fsr1
  4947  073E  00B3               	movwf	??_xtoa+2
  4948  073F  3F43               	moviw [3]fsr1
  4949  0740  00B4               	movwf	??_xtoa+3
  4950  0741  3F44               	moviw [4]fsr1
  4951  0742  00B5               	movwf	??_xtoa+4
  4952  0743  3F45               	moviw [5]fsr1
  4953  0744  00B6               	movwf	??_xtoa+5
  4954  0745  3F46               	moviw [6]fsr1
  4955  0746  00B7               	movwf	??_xtoa+6
  4956  0747  3F47               	moviw [7]fsr1
  4957  0748  00B8               	movwf	??_xtoa+7
  4958  0749  3004               	movlw	4
  4959  074A                     u2055:
  4960  074A  0140               	movlb	0	; select bank0
  4961  074B  36B8               	lsrf	??_xtoa+7,f
  4962  074C  0CB7               	rrf	??_xtoa+6,f
  4963  074D  0CB6               	rrf	??_xtoa+5,f
  4964  074E  0CB5               	rrf	??_xtoa+4,f
  4965  074F  0CB4               	rrf	??_xtoa+3,f
  4966  0750  0CB3               	rrf	??_xtoa+2,f
  4967  0751  0CB2               	rrf	??_xtoa+1,f
  4968  0752  0CB1               	rrf	??_xtoa,f
  4969  0753                     u2050:
  4970  0753  0B89               	decfsz	9,f
  4971  0754  2F4A               	goto	u2055
  4972  0755  0140               	movlb	0	; select bank0
  4973  0756  0838               	movf	??_xtoa+7,w
  4974  0757  00C9               	movwf	xtoa@n+7
  4975  0758  0837               	movf	??_xtoa+6,w
  4976  0759  00C8               	movwf	xtoa@n+6
  4977  075A  0836               	movf	??_xtoa+5,w
  4978  075B  00C7               	movwf	xtoa@n+5
  4979  075C  0835               	movf	??_xtoa+4,w
  4980  075D  00C6               	movwf	xtoa@n+4
  4981  075E  0834               	movf	??_xtoa+3,w
  4982  075F  00C5               	movwf	xtoa@n+3
  4983  0760  0833               	movf	??_xtoa+2,w
  4984  0761  00C4               	movwf	xtoa@n+2
  4985  0762  0832               	movf	??_xtoa+1,w
  4986  0763  00C3               	movwf	xtoa@n+1
  4987  0764  0831               	movf	??_xtoa,w
  4988  0765  00C2               	movwf	xtoa@n
  4989  0766                     l3053:
  4990                           
  4991                           ;D:\program files\Microchip\xc8\v2.31\pic\sources\c99\common\doprnt.c: 664:     while (!
      +                          (i < 2) && (n || (0 < p) || ((0 < w) && (flags & (1 << 1))))) {
  4992  0766  0140               	movlb	0	; select bank0
  4993  0767  084B               	movf	xtoa@i+1,w
  4994  0768  3A80               	xorlw	128
  4995  0769  00B1               	movwf	??_xtoa
  4996  076A  3080               	movlw	128
  4997  076B  0231               	subwf	??_xtoa,w
  4998  076C  1D03               	skipz
  4999  076D  2F70               	goto	u2065
  5000  076E  3002               	movlw	2
  5001  076F  024A               	subwf	xtoa@i,w
  5002  0770                     u2065:
  5003  0770  1C03               	skipc
  5004  0771  2F73               	goto	u2061
  5005  0772  2F74               	goto	u2060
  5006  0773                     u2061:
  5007  0773  2FA1               	goto	l1458
  5008  0774                     u2060:
  5009  0774                     l3055:
  5010  0774  0140               	movlb	0	; select bank0
  5011  0775  0842               	movf	xtoa@n,w
  5012  0776  0443               	iorwf	xtoa@n+1,w
  5013  0777  0444               	iorwf	xtoa@n+2,w
  5014  0778  0445               	iorwf	xtoa@n+3,w
  5015  0779  0446               	iorwf	xtoa@n+4,w
  5016  077A  0447               	iorwf	xtoa@n+5,w
  5017  077B  0448               	iorwf	xtoa@n+6,w
  5018  077C  0449               	iorwf	xtoa@n+7,w
  5019  077D  1D03               	skipz
  5020  077E  2F80               	goto	u2071
  5021  077F  2F81               	goto	u2070
  5022  0780                     u2071:
  5023  0780  2EB0               	goto	l3025
  5024  0781                     u2070:
  5025  0781                     l3057:
  5026  0781  083E               	movf	xtoa@p+1,w
  5027  0782  3A80               	xorlw	128
  5028  0783  00B1               	movwf	??_xtoa
  5029  0784  3080               	movlw	128
  5030  0785  0231               	subwf	??_xtoa,w
  5031  0786  1D03               	skipz
  5032  0787  2F8A               	goto	u2085
  5033  0788  3001               	movlw	1
  5034  0789  023D               	subwf	xtoa@p,w
  5035  078A                     u2085:
  5036  078A  1803               	skipnc
  5037  078B  2F8D               	goto	u2081
  5038  078C  2F8E               	goto	u2080
  5039  078D                     u2081:
  5040  078D  2EB0               	goto	l3025
  5041  078E                     u2080:
  5042  078E                     l3059:
  5043  078E  0140               	movlb	0	; select bank0
  5044  078F  0841               	movf	xtoa@w+1,w
  5045  0790  3A80               	xorlw	128
  5046  0791  00B1               	movwf	??_xtoa
  5047  0792  3080               	movlw	128
  5048  0793  0231               	subwf	??_xtoa,w
  5049  0794  1D03               	skipz
  5050  0795  2F98               	goto	u2095
  5051  0796  3001               	movlw	1
  5052  0797  0240               	subwf	xtoa@w,w
  5053  0798                     u2095:
  5054  0798  1C03               	skipc
  5055  0799  2F9B               	goto	u2091
  5056  079A  2F9C               	goto	u2090
  5057  079B                     u2091:
  5058  079B  2FA1               	goto	l1458
  5059  079C                     u2090:
  5060  079C                     l3061:
  5061  079C  0141               	movlb	1	; select bank1
  5062  079D  18C8               	btfsc	_flags^(0+128),1
  5063  079E  2FA0               	goto	u2101
  5064  079F  2FA1               	goto	u2100
  5065  07A0                     u2101:
  5066  07A0  2EB0               	goto	l3025
  5067  07A1                     u2100:
  5068  07A1                     l1458:
  5069                           
  5070                           ;D:\program files\Microchip\xc8\v2.31\pic\sources\c99\common\doprnt.c: 678:     if (flag
      +                          s & (1 << 4)) {
  5071  07A1  0141               	movlb	1	; select bank1
  5072  07A2  1E48               	btfss	_flags^(0+128),4
  5073  07A3  2FA5               	goto	u2111
  5074  07A4  2FA6               	goto	u2110
  5075  07A5                     u2111:
  5076  07A5  2FC1               	goto	l3069
  5077  07A6                     u2110:
  5078  07A6                     l3063:
  5079                           
  5080                           ;D:\program files\Microchip\xc8\v2.31\pic\sources\c99\common\doprnt.c: 679:         --i;
  5081  07A6  30FF               	movlw	255
  5082  07A7  0140               	movlb	0	; select bank0
  5083  07A8  07CA               	addwf	xtoa@i,f
  5084  07A9  30FF               	movlw	255
  5085  07AA  3DCB               	addwfc	xtoa@i+1,f
  5086  07AB                     l3065:
  5087                           
  5088                           ;D:\program files\Microchip\xc8\v2.31\pic\sources\c99\common\doprnt.c: 680:         dbuf
      +                          [i] = x;
  5089  07AB  0830               	movf	xtoa@x,w
  5090  07AC  00B1               	movwf	??_xtoa
  5091  07AD  084A               	movf	xtoa@i,w
  5092  07AE  3E20               	addlw	(low (_dbuf| (0+256)))& (0+255)
  5093  07AF  0086               	movwf	6
  5094  07B0  3001               	movlw	1	; select bank2/3
  5095  07B1  0087               	movwf	7
  5096  07B2  0831               	movf	??_xtoa,w
  5097  07B3  0081               	movwf	1
  5098  07B4                     l3067:
  5099                           
  5100                           ;D:\program files\Microchip\xc8\v2.31\pic\sources\c99\common\doprnt.c: 681:         --i;
  5101  07B4  30FF               	movlw	255
  5102  07B5  07CA               	addwf	xtoa@i,f
  5103  07B6  30FF               	movlw	255
  5104  07B7  3DCB               	addwfc	xtoa@i+1,f
  5105                           
  5106                           ;D:\program files\Microchip\xc8\v2.31\pic\sources\c99\common\doprnt.c: 682:         dbuf
      +                          [i] = '0';
  5107  07B8  3030               	movlw	48
  5108  07B9  00B1               	movwf	??_xtoa
  5109  07BA  084A               	movf	xtoa@i,w
  5110  07BB  3E20               	addlw	(low (_dbuf| (0+256)))& (0+255)
  5111  07BC  0086               	movwf	6
  5112  07BD  3001               	movlw	1	; select bank2/3
  5113  07BE  0087               	movwf	7
  5114  07BF  0831               	movf	??_xtoa,w
  5115  07C0  0081               	movwf	1
  5116  07C1                     l3069:
  5117                           
  5118                           ;D:\program files\Microchip\xc8\v2.31\pic\sources\c99\common\doprnt.c: 686:     return p
      +                          ad(fp, &dbuf[i], w);
  5119  07C1  0140               	movlb	0	; select bank0
  5120  07C2  084A               	movf	xtoa@i,w
  5121  07C3  3E20               	addlw	(low (_dbuf| (0+256)))& (0+255)
  5122  07C4  00B1               	movwf	??_xtoa
  5123  07C5  0831               	movf	??_xtoa,w
  5124  07C6  00A0               	movwf	pad@buf
  5125  07C7  0841               	movf	xtoa@w+1,w
  5126  07C8  00A2               	movwf	pad@p+1
  5127  07C9  0840               	movf	xtoa@w,w
  5128  07CA  00A1               	movwf	pad@p
  5129  07CB  083F               	movf	xtoa@fp,w
  5130  07CC  3181  2166  3186   	fcall	_pad
  5131  07CF  0140               	movlb	0	; select bank0
  5132  07D0  0821               	movf	?_pad+1,w
  5133  07D1  00A9               	movwf	?_xtoa+1
  5134  07D2  0820               	movf	?_pad,w
  5135  07D3  00A8               	movwf	?_xtoa
  5136  07D4                     l1460:
  5137  07D4  0008               	return
  5138  07D5                     __end_of_xtoa:
  5139                           
  5140                           	psect	text5
  5141  0FDB                     __ptext5:	
  5142 ;; *************** function _toupper *****************
  5143 ;; Defined at:
  5144 ;;		line 4 in file "D:\program files\Microchip\xc8\v2.31\pic\sources\c99\common\toupper.c"
  5145 ;; Parameters:    Size  Location     Type
  5146 ;;  c               2    6[COMMON] int 
  5147 ;; Auto vars:     Size  Location     Type
  5148 ;;		None
  5149 ;; Return value:  Size  Location     Type
  5150 ;;                  2    6[COMMON] int 
  5151 ;; Registers used:
  5152 ;;		wreg, status,2, status,0
  5153 ;; Tracked objects:
  5154 ;;		On entry : 0/0
  5155 ;;		On exit  : 0/0
  5156 ;;		Unchanged: 0/0
  5157 ;; Data sizes:     COMMON   BANK0   BANK1   BANK2   BANK3   BANK4   BANK5   BANK6   BANK7   BANK8   BANK9  BANK10  BANK1
      +1  BANK12  BANK13  BANK14  BANK15  BANK16  BANK17  BANK18  BANK19  BANK20  BANK21  BANK22  BANK23  BANK24  BANK25
  5158 ;;      Params:         2       0       0       0       0       0       0       0       0       0       0       0       
      +0       0       0       0       0       0       0       0       0       0       0       0       0       0       0
  5159 ;;      Locals:         2       0       0       0       0       0       0       0       0       0       0       0       
      +0       0       0       0       0       0       0       0       0       0       0       0       0       0       0
  5160 ;;      Temps:          4       0       0       0       0       0       0       0       0       0       0       0       
      +0       0       0       0       0       0       0       0       0       0       0       0       0       0       0
  5161 ;;      Totals:         8       0       0       0       0       0       0       0       0       0       0       0       
      +0       0       0       0       0       0       0       0       0       0       0       0       0       0       0
  5162 ;;Total ram usage:        8 bytes
  5163 ;; Hardware stack levels used:    1
  5164 ;; Hardware stack levels required when called:    1
  5165 ;; This function calls:
  5166 ;;		_islower
  5167 ;; This function is called by:
  5168 ;;		_xtoa
  5169 ;; This function uses a non-reentrant model
  5170 ;;
  5171                           
  5172                           
  5173                           ;psect for function _toupper
  5174  0FDB                     _toupper:
  5175  0FDB                     l2895:	
  5176                           ;incstack = 0
  5177                           ; Regs used in _toupper: [wreg+status,2+status,0]
  5178                           
  5179  0FDB  0876               	movf	toupper@c,w
  5180  0FDC  3E9F               	addlw	159
  5181  0FDD  00F8               	movwf	??_toupper
  5182  0FDE  30FF               	movlw	255
  5183  0FDF  3D77               	addwfc	toupper@c+1,w
  5184  0FE0  00F9               	movwf	??_toupper+1
  5185  0FE1  3000               	movlw	0
  5186  0FE2  0279               	subwf	??_toupper+1,w
  5187  0FE3  301A               	movlw	26
  5188  0FE4  1903               	skipnz
  5189  0FE5  0278               	subwf	??_toupper,w
  5190  0FE6  1C03               	skipc
  5191  0FE7  2FE9               	goto	u1721
  5192  0FE8  2FEB               	goto	u1720
  5193  0FE9                     u1721:
  5194  0FE9  3001               	movlw	1
  5195  0FEA  2FEC               	goto	u1730
  5196  0FEB                     u1720:
  5197  0FEB  3000               	movlw	0
  5198  0FEC                     u1730:
  5199  0FEC  00FA               	movwf	??_toupper+2
  5200  0FED  01FB               	clrf	??_toupper+3
  5201  0FEE  087A               	movf	??_toupper+2,w
  5202  0FEF  00FC               	movwf	_toupper$1816
  5203  0FF0  087B               	movf	??_toupper+3,w
  5204  0FF1  00FD               	movwf	_toupper$1816+1
  5205  0FF2                     l2899:
  5206  0FF2  087C               	movf	_toupper$1816,w
  5207  0FF3  047D               	iorwf	_toupper$1816+1,w
  5208  0FF4  1903               	btfsc	3,2
  5209  0FF5  2FF7               	goto	u1741
  5210  0FF6  2FF8               	goto	u1740
  5211  0FF7                     u1741:
  5212  0FF7  2FFF               	goto	l1515
  5213  0FF8                     u1740:
  5214  0FF8                     l2901:
  5215  0FF8  305F               	movlw	95
  5216  0FF9  0576               	andwf	toupper@c,w
  5217  0FFA  00F6               	movwf	?_toupper
  5218  0FFB  3000               	movlw	0
  5219  0FFC  0577               	andwf	toupper@c+1,w
  5220  0FFD  00F7               	movwf	?_toupper+1
  5221  0FFE  2FFF               	goto	l1520
  5222  0FFF                     l1515:
  5223  0FFF                     l1520:
  5224  0FFF  0008               	return
  5225  1000                     __end_of_toupper:
  5226                           
  5227                           	psect	text6
  5228  0E8F                     __ptext6:	
  5229 ;; *************** function _islower *****************
  5230 ;; Defined at:
  5231 ;;		line 5 in file "D:\program files\Microchip\xc8\v2.31\pic\sources\c99\common\islower.c"
  5232 ;; Parameters:    Size  Location     Type
  5233 ;;  c               2    0[COMMON] int 
  5234 ;; Auto vars:     Size  Location     Type
  5235 ;;		None
  5236 ;; Return value:  Size  Location     Type
  5237 ;;                  2    0[COMMON] int 
  5238 ;; Registers used:
  5239 ;;		wreg, status,2, status,0
  5240 ;; Tracked objects:
  5241 ;;		On entry : 0/0
  5242 ;;		On exit  : 0/0
  5243 ;;		Unchanged: 0/0
  5244 ;; Data sizes:     COMMON   BANK0   BANK1   BANK2   BANK3   BANK4   BANK5   BANK6   BANK7   BANK8   BANK9  BANK10  BANK1
      +1  BANK12  BANK13  BANK14  BANK15  BANK16  BANK17  BANK18  BANK19  BANK20  BANK21  BANK22  BANK23  BANK24  BANK25
  5245 ;;      Params:         2       0       0       0       0       0       0       0       0       0       0       0       
      +0       0       0       0       0       0       0       0       0       0       0       0       0       0       0
  5246 ;;      Locals:         0       0       0       0       0       0       0       0       0       0       0       0       
      +0       0       0       0       0       0       0       0       0       0       0       0       0       0       0
  5247 ;;      Temps:          4       0       0       0       0       0       0       0       0       0       0       0       
      +0       0       0       0       0       0       0       0       0       0       0       0       0       0       0
  5248 ;;      Totals:         6       0       0       0       0       0       0       0       0       0       0       0       
      +0       0       0       0       0       0       0       0       0       0       0       0       0       0       0
  5249 ;;Total ram usage:        6 bytes
  5250 ;; Hardware stack levels used:    1
  5251 ;; This function calls:
  5252 ;;		Nothing
  5253 ;; This function is called by:
  5254 ;;		_toupper
  5255 ;; This function uses a non-reentrant model
  5256 ;;
  5257                           
  5258                           
  5259                           ;psect for function _islower
  5260  0E8F                     _islower:
  5261  0E8F                     l2789:	
  5262                           ;incstack = 0
  5263                           ; Regs used in _islower: [wreg+status,2+status,0]
  5264                           
  5265  0E8F  0870               	movf	islower@c,w
  5266  0E90  3E9F               	addlw	159
  5267  0E91  00F2               	movwf	??_islower
  5268  0E92  30FF               	movlw	255
  5269  0E93  3D71               	addwfc	islower@c+1,w
  5270  0E94  00F3               	movwf	??_islower+1
  5271  0E95  3000               	movlw	0
  5272  0E96  0273               	subwf	??_islower+1,w
  5273  0E97  301A               	movlw	26
  5274  0E98  1903               	skipnz
  5275  0E99  0272               	subwf	??_islower,w
  5276  0E9A  1C03               	skipc
  5277  0E9B  2E9D               	goto	u1401
  5278  0E9C  2E9F               	goto	u1400
  5279  0E9D                     u1401:
  5280  0E9D  3001               	movlw	1
  5281  0E9E  2EA0               	goto	u1410
  5282  0E9F                     u1400:
  5283  0E9F  3000               	movlw	0
  5284  0EA0                     u1410:
  5285  0EA0  00F4               	movwf	??_islower+2
  5286  0EA1  01F5               	clrf	??_islower+3
  5287  0EA2  0874               	movf	??_islower+2,w
  5288  0EA3  00F0               	movwf	?_islower
  5289  0EA4  0875               	movf	??_islower+3,w
  5290  0EA5  00F1               	movwf	?_islower+1
  5291  0EA6                     l1526:
  5292  0EA6  0008               	return
  5293  0EA7                     __end_of_islower:
  5294                           
  5295                           	psect	text7
  5296  0E77                     __ptext7:	
  5297 ;; *************** function _isupper *****************
  5298 ;; Defined at:
  5299 ;;		line 5 in file "D:\program files\Microchip\xc8\v2.31\pic\sources\c99\common\isupper.c"
  5300 ;; Parameters:    Size  Location     Type
  5301 ;;  c               2    0[COMMON] int 
  5302 ;; Auto vars:     Size  Location     Type
  5303 ;;		None
  5304 ;; Return value:  Size  Location     Type
  5305 ;;                  2    0[COMMON] int 
  5306 ;; Registers used:
  5307 ;;		wreg, status,2, status,0
  5308 ;; Tracked objects:
  5309 ;;		On entry : 0/0
  5310 ;;		On exit  : 0/0
  5311 ;;		Unchanged: 0/0
  5312 ;; Data sizes:     COMMON   BANK0   BANK1   BANK2   BANK3   BANK4   BANK5   BANK6   BANK7   BANK8   BANK9  BANK10  BANK1
      +1  BANK12  BANK13  BANK14  BANK15  BANK16  BANK17  BANK18  BANK19  BANK20  BANK21  BANK22  BANK23  BANK24  BANK25
  5313 ;;      Params:         2       0       0       0       0       0       0       0       0       0       0       0       
      +0       0       0       0       0       0       0       0       0       0       0       0       0       0       0
  5314 ;;      Locals:         0       0       0       0       0       0       0       0       0       0       0       0       
      +0       0       0       0       0       0       0       0       0       0       0       0       0       0       0
  5315 ;;      Temps:          4       0       0       0       0       0       0       0       0       0       0       0       
      +0       0       0       0       0       0       0       0       0       0       0       0       0       0       0
  5316 ;;      Totals:         6       0       0       0       0       0       0       0       0       0       0       0       
      +0       0       0       0       0       0       0       0       0       0       0       0       0       0       0
  5317 ;;Total ram usage:        6 bytes
  5318 ;; Hardware stack levels used:    1
  5319 ;; This function calls:
  5320 ;;		Nothing
  5321 ;; This function is called by:
  5322 ;;		_xtoa
  5323 ;; This function uses a non-reentrant model
  5324 ;;
  5325                           
  5326                           
  5327                           ;psect for function _isupper
  5328  0E77                     _isupper:
  5329  0E77                     l2887:	
  5330                           ;incstack = 0
  5331                           ; Regs used in _isupper: [wreg+status,2+status,0]
  5332                           
  5333  0E77  0870               	movf	isupper@c,w
  5334  0E78  3EBF               	addlw	191
  5335  0E79  00F2               	movwf	??_isupper
  5336  0E7A  30FF               	movlw	255
  5337  0E7B  3D71               	addwfc	isupper@c+1,w
  5338  0E7C  00F3               	movwf	??_isupper+1
  5339  0E7D  3000               	movlw	0
  5340  0E7E  0273               	subwf	??_isupper+1,w
  5341  0E7F  301A               	movlw	26
  5342  0E80  1903               	skipnz
  5343  0E81  0272               	subwf	??_isupper,w
  5344  0E82  1C03               	skipc
  5345  0E83  2E85               	goto	u1681
  5346  0E84  2E87               	goto	u1680
  5347  0E85                     u1681:
  5348  0E85  3001               	movlw	1
  5349  0E86  2E88               	goto	u1690
  5350  0E87                     u1680:
  5351  0E87  3000               	movlw	0
  5352  0E88                     u1690:
  5353  0E88  00F4               	movwf	??_isupper+2
  5354  0E89  01F5               	clrf	??_isupper+3
  5355  0E8A  0874               	movf	??_isupper+2,w
  5356  0E8B  00F0               	movwf	?_isupper
  5357  0E8C  0875               	movf	??_isupper+3,w
  5358  0E8D  00F1               	movwf	?_isupper+1
  5359  0E8E                     l1493:
  5360  0E8E  0008               	return
  5361  0E8F                     __end_of_isupper:
  5362                           
  5363                           	psect	text8
  5364  0F30                     __ptext8:	
  5365 ;; *************** function _isalpha *****************
  5366 ;; Defined at:
  5367 ;;		line 5 in file "D:\program files\Microchip\xc8\v2.31\pic\sources\c99\common\isalpha.c"
  5368 ;; Parameters:    Size  Location     Type
  5369 ;;  c               2    0[COMMON] int 
  5370 ;; Auto vars:     Size  Location     Type
  5371 ;;		None
  5372 ;; Return value:  Size  Location     Type
  5373 ;;                  2    0[COMMON] int 
  5374 ;; Registers used:
  5375 ;;		wreg, status,2, status,0
  5376 ;; Tracked objects:
  5377 ;;		On entry : 0/0
  5378 ;;		On exit  : 0/0
  5379 ;;		Unchanged: 0/0
  5380 ;; Data sizes:     COMMON   BANK0   BANK1   BANK2   BANK3   BANK4   BANK5   BANK6   BANK7   BANK8   BANK9  BANK10  BANK1
      +1  BANK12  BANK13  BANK14  BANK15  BANK16  BANK17  BANK18  BANK19  BANK20  BANK21  BANK22  BANK23  BANK24  BANK25
  5381 ;;      Params:         2       0       0       0       0       0       0       0       0       0       0       0       
      +0       0       0       0       0       0       0       0       0       0       0       0       0       0       0
  5382 ;;      Locals:         0       0       0       0       0       0       0       0       0       0       0       0       
      +0       0       0       0       0       0       0       0       0       0       0       0       0       0       0
  5383 ;;      Temps:          6       0       0       0       0       0       0       0       0       0       0       0       
      +0       0       0       0       0       0       0       0       0       0       0       0       0       0       0
  5384 ;;      Totals:         8       0       0       0       0       0       0       0       0       0       0       0       
      +0       0       0       0       0       0       0       0       0       0       0       0       0       0       0
  5385 ;;Total ram usage:        8 bytes
  5386 ;; Hardware stack levels used:    1
  5387 ;; This function calls:
  5388 ;;		Nothing
  5389 ;; This function is called by:
  5390 ;;		_xtoa
  5391 ;; This function uses a non-reentrant model
  5392 ;;
  5393                           
  5394                           
  5395                           ;psect for function _isalpha
  5396  0F30                     _isalpha:
  5397  0F30                     l2891:	
  5398                           ;incstack = 0
  5399                           ; Regs used in _isalpha: [wreg+status,2+status,0]
  5400                           
  5401  0F30  3020               	movlw	32
  5402  0F31  0470               	iorwf	isalpha@c,w
  5403  0F32  00F2               	movwf	??_isalpha
  5404  0F33  3000               	movlw	0
  5405  0F34  0471               	iorwf	isalpha@c+1,w
  5406  0F35  00F3               	movwf	??_isalpha+1
  5407  0F36  0872               	movf	??_isalpha,w
  5408  0F37  3E9F               	addlw	159
  5409  0F38  00F4               	movwf	??_isalpha+2
  5410  0F39  30FF               	movlw	255
  5411  0F3A  3D73               	addwfc	??_isalpha+1,w
  5412  0F3B  00F5               	movwf	??_isalpha+3
  5413  0F3C  3000               	movlw	0
  5414  0F3D  0275               	subwf	??_isalpha+3,w
  5415  0F3E  301A               	movlw	26
  5416  0F3F  1903               	skipnz
  5417  0F40  0274               	subwf	??_isalpha+2,w
  5418  0F41  1C03               	skipc
  5419  0F42  2F44               	goto	u1701
  5420  0F43  2F46               	goto	u1700
  5421  0F44                     u1701:
  5422  0F44  3001               	movlw	1
  5423  0F45  2F47               	goto	u1710
  5424  0F46                     u1700:
  5425  0F46  3000               	movlw	0
  5426  0F47                     u1710:
  5427  0F47  00F6               	movwf	??_isalpha+4
  5428  0F48  01F7               	clrf	??_isalpha+5
  5429  0F49  0876               	movf	??_isalpha+4,w
  5430  0F4A  00F0               	movwf	?_isalpha
  5431  0F4B  0877               	movf	??_isalpha+5,w
  5432  0F4C  00F1               	movwf	?_isalpha+1
  5433  0F4D                     l1487:
  5434  0F4D  0008               	return
  5435  0F4E                     __end_of_isalpha:
  5436                           
  5437                           	psect	text9
  5438  04EE                     __ptext9:	
  5439 ;; *************** function _dtoa *****************
  5440 ;; Defined at:
  5441 ;;		line 287 in file "D:\program files\Microchip\xc8\v2.31\pic\sources\c99\common\doprnt.c"
  5442 ;; Parameters:    Size  Location     Type
  5443 ;;  fp              1    wreg     PTR struct _IO_FILE
  5444 ;;		 -> NULL(0), 
  5445 ;;  d               8   16[BANK0 ] long long 
  5446 ;; Auto vars:     Size  Location     Type
  5447 ;;  fp              1   31[BANK0 ] PTR struct _IO_FILE
  5448 ;;		 -> NULL(0), 
  5449 ;;  n               8   36[BANK0 ] long long 
  5450 ;;  i               2   44[BANK0 ] int 
  5451 ;;  s               2   34[BANK0 ] int 
  5452 ;;  w               2   32[BANK0 ] int 
  5453 ;;  p               2   29[BANK0 ] int 
  5454 ;; Return value:  Size  Location     Type
  5455 ;;                  2   16[BANK0 ] int 
  5456 ;; Registers used:
  5457 ;;		wreg, fsr1l, fsr1h, status,2, status,0, pclath, cstack
  5458 ;; Tracked objects:
  5459 ;;		On entry : 0/0
  5460 ;;		On exit  : 0/0
  5461 ;;		Unchanged: 0/0
  5462 ;; Data sizes:     COMMON   BANK0   BANK1   BANK2   BANK3   BANK4   BANK5   BANK6   BANK7   BANK8   BANK9  BANK10  BANK1
      +1  BANK12  BANK13  BANK14  BANK15  BANK16  BANK17  BANK18  BANK19  BANK20  BANK21  BANK22  BANK23  BANK24  BANK25
  5463 ;;      Params:         0       8       0       0       0       0       0       0       0       0       0       0       
      +0       0       0       0       0       0       0       0       0       0       0       0       0       0       0
  5464 ;;      Locals:         0      19       0       0       0       0       0       0       0       0       0       0       
      +0       0       0       0       0       0       0       0       0       0       0       0       0       0       0
  5465 ;;      Temps:          0       3       0       0       0       0       0       0       0       0       0       0       
      +0       0       0       0       0       0       0       0       0       0       0       0       0       0       0
  5466 ;;      Totals:         0      30       0       0       0       0       0       0       0       0       0       0       
      +0       0       0       0       0       0       0       0       0       0       0       0       0       0       0
  5467 ;;Total ram usage:       30 bytes
  5468 ;; Hardware stack levels used:    1
  5469 ;; Hardware stack levels required when called:    4
  5470 ;; This function calls:
  5471 ;;		___aodiv
  5472 ;;		___aomod
  5473 ;;		_abs
  5474 ;;		_pad
  5475 ;; This function is called by:
  5476 ;;		_vfpfcnvrt
  5477 ;; This function uses a non-reentrant model
  5478 ;;
  5479                           
  5480                           
  5481                           ;psect for function _dtoa
  5482  04EE                     _dtoa:
  5483                           
  5484                           ;incstack = 0
  5485                           ; Regs used in _dtoa: [wreg+fsr1l+fsr1h+status,2+status,0+pclath+cstack]
  5486                           ;dtoa@fp stored from wreg
  5487  04EE  0140               	movlb	0	; select bank0
  5488  04EF  00BF               	movwf	dtoa@fp
  5489  04F0                     l2951:
  5490                           
  5491                           ;D:\program files\Microchip\xc8\v2.31\pic\sources\c99\common\doprnt.c: 287: static int d
      +                          toa(FILE *fp, long long d);D:\program files\Microchip\xc8\v2.31\pic\sources\c99\common\d
      +                          oprnt.c: 288: {;D:\program files\Microchip\xc8\v2.31\pic\sources\c99\common\doprnt.c: 28
      +                          9:     int i, p, s, w;;D:\program files\Microchip\xc8\v2.31\pic\sources\c99\common\doprn
      +                          t.c: 290:     long long n;;D:\program files\Microchip\xc8\v2.31\pic\sources\c99\common\d
      +                          oprnt.c: 293:     n = d;
  5492  04F0  0830               	movf	dtoa@d,w
  5493  04F1  00C4               	movwf	dtoa@n
  5494  04F2  0831               	movf	dtoa@d+1,w
  5495  04F3  00C5               	movwf	dtoa@n+1
  5496  04F4  0832               	movf	dtoa@d+2,w
  5497  04F5  00C6               	movwf	dtoa@n+2
  5498  04F6  0833               	movf	dtoa@d+3,w
  5499  04F7  00C7               	movwf	dtoa@n+3
  5500  04F8  0834               	movf	dtoa@d+4,w
  5501  04F9  00C8               	movwf	dtoa@n+4
  5502  04FA  0835               	movf	dtoa@d+5,w
  5503  04FB  00C9               	movwf	dtoa@n+5
  5504  04FC  0836               	movf	dtoa@d+6,w
  5505  04FD  00CA               	movwf	dtoa@n+6
  5506  04FE  0837               	movf	dtoa@d+7,w
  5507  04FF  00CB               	movwf	dtoa@n+7
  5508  0500                     l2953:
  5509                           
  5510                           ;D:\program files\Microchip\xc8\v2.31\pic\sources\c99\common\doprnt.c: 294:     s = n < 
      +                          0 ? 1 : 0;
  5511  0500  3044               	movlw	low dtoa@n
  5512  0501  0086               	movwf	6
  5513  0502  3000               	movlw	high dtoa@n
  5514  0503  0087               	movwf	7
  5515  0504  3F47               	moviw [7]fsr1
  5516  0505  00B8               	movwf	??_dtoa
  5517  0506  1BB8               	btfsc	??_dtoa,7
  5518  0507  2D09               	goto	u1791
  5519  0508  2D0B               	goto	u1790
  5520  0509                     u1791:
  5521  0509  3001               	movlw	1
  5522  050A  2D0C               	goto	u1800
  5523  050B                     u1790:
  5524  050B  3000               	movlw	0
  5525  050C                     u1800:
  5526  050C  0140               	movlb	0	; select bank0
  5527  050D  00B9               	movwf	??_dtoa+1
  5528  050E  01BA               	clrf	??_dtoa+2
  5529  050F  0839               	movf	??_dtoa+1,w
  5530  0510  00C2               	movwf	dtoa@s
  5531  0511  083A               	movf	??_dtoa+2,w
  5532  0512  00C3               	movwf	dtoa@s+1
  5533  0513                     l2955:
  5534                           
  5535                           ;D:\program files\Microchip\xc8\v2.31\pic\sources\c99\common\doprnt.c: 295:     if (s) {
  5536  0513  0842               	movf	dtoa@s,w
  5537  0514  0443               	iorwf	dtoa@s+1,w
  5538  0515  1903               	btfsc	3,2
  5539  0516  2D18               	goto	u1811
  5540  0517  2D19               	goto	u1810
  5541  0518                     u1811:
  5542  0518  2D37               	goto	l1407
  5543  0519                     u1810:
  5544  0519                     l2957:
  5545                           
  5546                           ;D:\program files\Microchip\xc8\v2.31\pic\sources\c99\common\doprnt.c: 296:         n = 
      +                          -n;
  5547  0519  09C4               	comf	dtoa@n,f
  5548  051A  09C5               	comf	dtoa@n+1,f
  5549  051B  09C6               	comf	dtoa@n+2,f
  5550  051C  09C7               	comf	dtoa@n+3,f
  5551  051D  09C8               	comf	dtoa@n+4,f
  5552  051E  09C9               	comf	dtoa@n+5,f
  5553  051F  09CA               	comf	dtoa@n+6,f
  5554  0520  09CB               	comf	dtoa@n+7,f
  5555  0521  0AC4               	incf	dtoa@n,f
  5556  0522  1D03               	skipz
  5557  0523  2D37               	goto	u182lld
  5558  0524  0AC5               	incf	dtoa@n+1,f
  5559  0525  1D03               	skipz
  5560  0526  2D37               	goto	u182lld
  5561  0527  0AC6               	incf	dtoa@n+2,f
  5562  0528  1D03               	skipz
  5563  0529  2D37               	goto	u182lld
  5564  052A  0AC7               	incf	dtoa@n+3,f
  5565  052B  1D03               	skipz
  5566  052C  2D37               	goto	u182lld
  5567  052D  0AC8               	incf	dtoa@n+4,f
  5568  052E  1D03               	skipz
  5569  052F  2D37               	goto	u182lld
  5570  0530  0AC9               	incf	dtoa@n+5,f
  5571  0531  1D03               	skipz
  5572  0532  2D37               	goto	u182lld
  5573  0533  0ACA               	incf	dtoa@n+6,f
  5574  0534  1D03               	skipz
  5575  0535  2D37               	goto	u182lld
  5576  0536  0ACB               	incf	dtoa@n+7,f
  5577  0537                     u182lld:
  5578  0537                     l1407:	
  5579                           ;D:\program files\Microchip\xc8\v2.31\pic\sources\c99\common\doprnt.c: 297:     }
  5580                           
  5581                           
  5582                           ;D:\program files\Microchip\xc8\v2.31\pic\sources\c99\common\doprnt.c: 300:     if (!(pr
      +                          ec < 0)) {
  5583  0537  0141               	movlb	1	; select bank1
  5584  0538  1BC7               	btfsc	(_prec+1)^(0+128),7
  5585  0539  2D3B               	goto	u1831
  5586  053A  2D3C               	goto	u1830
  5587  053B                     u1831:
  5588  053B  2D40               	goto	l1408
  5589  053C                     u1830:
  5590  053C                     l2959:
  5591                           
  5592                           ;D:\program files\Microchip\xc8\v2.31\pic\sources\c99\common\doprnt.c: 301:         flag
      +                          s &= ~(1 << 1);
  5593  053C  30FD               	movlw	253
  5594  053D  05C8               	andwf	_flags^(0+128),f
  5595  053E  30FF               	movlw	255
  5596  053F  05C9               	andwf	(_flags+1)^(0+128),f
  5597  0540                     l1408:	
  5598                           ;D:\program files\Microchip\xc8\v2.31\pic\sources\c99\common\doprnt.c: 302:     }
  5599                           
  5600                           
  5601                           ;D:\program files\Microchip\xc8\v2.31\pic\sources\c99\common\doprnt.c: 303:     p = (0 <
      +                           prec) ? prec : 1;
  5602  0540  0847               	movf	(_prec+1)^(0+128),w
  5603  0541  3A80               	xorlw	128
  5604  0542  0140               	movlb	0	; select bank0
  5605  0543  00B8               	movwf	??_dtoa
  5606  0544  3080               	movlw	128
  5607  0545  0238               	subwf	??_dtoa,w
  5608  0546  1D03               	skipz
  5609  0547  2D4B               	goto	u1845
  5610  0548  3001               	movlw	1
  5611  0549  0141               	movlb	1	; select bank1
  5612  054A  0246               	subwf	_prec^(0+128),w
  5613  054B                     u1845:
  5614  054B  1803               	skipnc
  5615  054C  2D4E               	goto	u1841
  5616  054D  2D4F               	goto	u1840
  5617  054E                     u1841:
  5618  054E  2D55               	goto	l2963
  5619  054F                     u1840:
  5620  054F                     l2961:
  5621  054F  3001               	movlw	1
  5622  0550  0140               	movlb	0	; select bank0
  5623  0551  00BD               	movwf	dtoa@p
  5624  0552  3000               	movlw	0
  5625  0553  00BE               	movwf	dtoa@p+1
  5626  0554  2D5D               	goto	l1412
  5627  0555                     l2963:
  5628  0555  0141               	movlb	1	; select bank1
  5629  0556  0847               	movf	(_prec+1)^(0+128),w
  5630  0557  0140               	movlb	0	; select bank0
  5631  0558  00BE               	movwf	dtoa@p+1
  5632  0559  0141               	movlb	1	; select bank1
  5633  055A  0846               	movf	_prec^(0+128),w
  5634  055B  0140               	movlb	0	; select bank0
  5635  055C  00BD               	movwf	dtoa@p
  5636  055D                     l1412:
  5637                           
  5638                           ;D:\program files\Microchip\xc8\v2.31\pic\sources\c99\common\doprnt.c: 304:     w = widt
      +                          h;
  5639  055D  0141               	movlb	1	; select bank1
  5640  055E  0845               	movf	(_width+1)^(0+128),w
  5641  055F  0140               	movlb	0	; select bank0
  5642  0560  00C1               	movwf	dtoa@w+1
  5643  0561  0141               	movlb	1	; select bank1
  5644  0562  0844               	movf	_width^(0+128),w
  5645  0563  0140               	movlb	0	; select bank0
  5646  0564  00C0               	movwf	dtoa@w
  5647  0565                     l2965:
  5648                           
  5649                           ;D:\program files\Microchip\xc8\v2.31\pic\sources\c99\common\doprnt.c: 305:     if (s ||
      +                           (flags & (1 << 2))) {
  5650  0565  0842               	movf	dtoa@s,w
  5651  0566  0443               	iorwf	dtoa@s+1,w
  5652  0567  1D03               	btfss	3,2
  5653  0568  2D6A               	goto	u1851
  5654  0569  2D6B               	goto	u1850
  5655  056A                     u1851:
  5656  056A  2D70               	goto	l2969
  5657  056B                     u1850:
  5658  056B                     l2967:
  5659  056B  0141               	movlb	1	; select bank1
  5660  056C  1D48               	btfss	_flags^(0+128),2
  5661  056D  2D6F               	goto	u1861
  5662  056E  2D70               	goto	u1860
  5663  056F                     u1861:
  5664  056F  2D75               	goto	l1413
  5665  0570                     u1860:
  5666  0570                     l2969:
  5667                           
  5668                           ;D:\program files\Microchip\xc8\v2.31\pic\sources\c99\common\doprnt.c: 306:         --w;
  5669  0570  30FF               	movlw	255
  5670  0571  0140               	movlb	0	; select bank0
  5671  0572  07C0               	addwf	dtoa@w,f
  5672  0573  30FF               	movlw	255
  5673  0574  3DC1               	addwfc	dtoa@w+1,f
  5674  0575                     l1413:	
  5675                           ;D:\program files\Microchip\xc8\v2.31\pic\sources\c99\common\doprnt.c: 307:     }
  5676                           
  5677                           
  5678                           ;D:\program files\Microchip\xc8\v2.31\pic\sources\c99\common\doprnt.c: 310:     i = size
      +                          of(dbuf) - 1;
  5679  0575  301F               	movlw	31
  5680  0576  0140               	movlb	0	; select bank0
  5681  0577  00CC               	movwf	dtoa@i
  5682  0578  3000               	movlw	0
  5683  0579  00CD               	movwf	dtoa@i+1
  5684  057A                     l2971:
  5685                           
  5686                           ;D:\program files\Microchip\xc8\v2.31\pic\sources\c99\common\doprnt.c: 311:     dbuf[i] 
      +                          = '\0';
  5687  057A  0142               	movlb	2	; select bank2
  5688  057B  01BF               	clrf	(_dbuf^(0+256)+31)
  5689                           
  5690                           ;D:\program files\Microchip\xc8\v2.31\pic\sources\c99\common\doprnt.c: 312:     while (!
      +                          (i < 1) && (n || (0 < p) || ((0 < w) && (flags & (1 << 1))))) {
  5691  057C  2DE6               	goto	l1416
  5692  057D                     l2973:
  5693                           
  5694                           ;D:\program files\Microchip\xc8\v2.31\pic\sources\c99\common\doprnt.c: 313:         --i;
  5695  057D  30FF               	movlw	255
  5696  057E  0140               	movlb	0	; select bank0
  5697  057F  07CC               	addwf	dtoa@i,f
  5698  0580  30FF               	movlw	255
  5699  0581  3DCD               	addwfc	dtoa@i+1,f
  5700  0582                     l2975:
  5701                           
  5702                           ;D:\program files\Microchip\xc8\v2.31\pic\sources\c99\common\doprnt.c: 314:         dbuf
      +                          [i] = (char)((int)'0' + abs(n % 10));
  5703  0582  300A               	movlw	10
  5704  0583  00A0               	movwf	___aomod@divisor
  5705  0584  01A1               	clrf	___aomod@divisor+1
  5706  0585  01A2               	clrf	___aomod@divisor+2
  5707  0586  01A3               	clrf	___aomod@divisor+3
  5708  0587  01A4               	clrf	___aomod@divisor+4
  5709  0588  01A5               	clrf	___aomod@divisor+5
  5710  0589  01A6               	clrf	___aomod@divisor+6
  5711  058A  01A7               	clrf	___aomod@divisor+7
  5712  058B  0844               	movf	dtoa@n,w
  5713  058C  00A8               	movwf	___aomod@dividend
  5714  058D  0845               	movf	dtoa@n+1,w
  5715  058E  00A9               	movwf	___aomod@dividend+1
  5716  058F  0846               	movf	dtoa@n+2,w
  5717  0590  00AA               	movwf	___aomod@dividend+2
  5718  0591  0847               	movf	dtoa@n+3,w
  5719  0592  00AB               	movwf	___aomod@dividend+3
  5720  0593  0848               	movf	dtoa@n+4,w
  5721  0594  00AC               	movwf	___aomod@dividend+4
  5722  0595  0849               	movf	dtoa@n+5,w
  5723  0596  00AD               	movwf	___aomod@dividend+5
  5724  0597  084A               	movf	dtoa@n+6,w
  5725  0598  00AE               	movwf	___aomod@dividend+6
  5726  0599  084B               	movf	dtoa@n+7,w
  5727  059A  00AF               	movwf	___aomod@dividend+7
  5728  059B  3181  21BF  3184   	fcall	___aomod
  5729  059E  0140               	movlb	0	; select bank0
  5730  059F  0821               	movf	?___aomod+1,w
  5731  05A0  00F4               	movwf	abs@a+1
  5732  05A1  0820               	movf	?___aomod,w
  5733  05A2  00F3               	movwf	abs@a
  5734  05A3  318E  26A7  3184   	fcall	_abs
  5735  05A6  0873               	movf	?_abs,w
  5736  05A7  3E30               	addlw	48
  5737  05A8  0140               	movlb	0	; select bank0
  5738  05A9  00B8               	movwf	??_dtoa
  5739  05AA  084C               	movf	dtoa@i,w
  5740  05AB  3E20               	addlw	(low (_dbuf| (0+256)))& (0+255)
  5741  05AC  0086               	movwf	6
  5742  05AD  3001               	movlw	1	; select bank2/3
  5743  05AE  0087               	movwf	7
  5744  05AF  0838               	movf	??_dtoa,w
  5745  05B0  0081               	movwf	1
  5746  05B1                     l2977:
  5747                           
  5748                           ;D:\program files\Microchip\xc8\v2.31\pic\sources\c99\common\doprnt.c: 315:         --p;
  5749  05B1  30FF               	movlw	255
  5750  05B2  07BD               	addwf	dtoa@p,f
  5751  05B3  30FF               	movlw	255
  5752  05B4  3DBE               	addwfc	dtoa@p+1,f
  5753  05B5                     l2979:
  5754                           
  5755                           ;D:\program files\Microchip\xc8\v2.31\pic\sources\c99\common\doprnt.c: 316:         --w;
  5756  05B5  30FF               	movlw	255
  5757  05B6  07C0               	addwf	dtoa@w,f
  5758  05B7  30FF               	movlw	255
  5759  05B8  3DC1               	addwfc	dtoa@w+1,f
  5760  05B9                     l2981:
  5761                           
  5762                           ;D:\program files\Microchip\xc8\v2.31\pic\sources\c99\common\doprnt.c: 317:         n = 
      +                          n / 10;
  5763  05B9  300A               	movlw	10
  5764  05BA  00A0               	movwf	___aodiv@divisor
  5765  05BB  01A1               	clrf	___aodiv@divisor+1
  5766  05BC  01A2               	clrf	___aodiv@divisor+2
  5767  05BD  01A3               	clrf	___aodiv@divisor+3
  5768  05BE  01A4               	clrf	___aodiv@divisor+4
  5769  05BF  01A5               	clrf	___aodiv@divisor+5
  5770  05C0  01A6               	clrf	___aodiv@divisor+6
  5771  05C1  01A7               	clrf	___aodiv@divisor+7
  5772  05C2  0844               	movf	dtoa@n,w
  5773  05C3  00A8               	movwf	___aodiv@dividend
  5774  05C4  0845               	movf	dtoa@n+1,w
  5775  05C5  00A9               	movwf	___aodiv@dividend+1
  5776  05C6  0846               	movf	dtoa@n+2,w
  5777  05C7  00AA               	movwf	___aodiv@dividend+2
  5778  05C8  0847               	movf	dtoa@n+3,w
  5779  05C9  00AB               	movwf	___aodiv@dividend+3
  5780  05CA  0848               	movf	dtoa@n+4,w
  5781  05CB  00AC               	movwf	___aodiv@dividend+4
  5782  05CC  0849               	movf	dtoa@n+5,w
  5783  05CD  00AD               	movwf	___aodiv@dividend+5
  5784  05CE  084A               	movf	dtoa@n+6,w
  5785  05CF  00AE               	movwf	___aodiv@dividend+6
  5786  05D0  084B               	movf	dtoa@n+7,w
  5787  05D1  00AF               	movwf	___aodiv@dividend+7
  5788  05D2  3182  22A9  3184   	fcall	___aodiv
  5789  05D5  0140               	movlb	0	; select bank0
  5790  05D6  0820               	movf	?___aodiv,w
  5791  05D7  00C4               	movwf	dtoa@n
  5792  05D8  0821               	movf	?___aodiv+1,w
  5793  05D9  00C5               	movwf	dtoa@n+1
  5794  05DA  0822               	movf	?___aodiv+2,w
  5795  05DB  00C6               	movwf	dtoa@n+2
  5796  05DC  0823               	movf	?___aodiv+3,w
  5797  05DD  00C7               	movwf	dtoa@n+3
  5798  05DE  0824               	movf	?___aodiv+4,w
  5799  05DF  00C8               	movwf	dtoa@n+4
  5800  05E0  0825               	movf	?___aodiv+5,w
  5801  05E1  00C9               	movwf	dtoa@n+5
  5802  05E2  0826               	movf	?___aodiv+6,w
  5803  05E3  00CA               	movwf	dtoa@n+6
  5804  05E4  0827               	movf	?___aodiv+7,w
  5805  05E5  00CB               	movwf	dtoa@n+7
  5806  05E6                     l1416:	
  5807                           ;D:\program files\Microchip\xc8\v2.31\pic\sources\c99\common\doprnt.c: 318:     }
  5808                           
  5809                           
  5810                           ;D:\program files\Microchip\xc8\v2.31\pic\sources\c99\common\doprnt.c: 312:     while (!
      +                          (i < 1) && (n || (0 < p) || ((0 < w) && (flags & (1 << 1))))) {
  5811  05E6  0140               	movlb	0	; select bank0
  5812  05E7  084D               	movf	dtoa@i+1,w
  5813  05E8  3A80               	xorlw	128
  5814  05E9  00B8               	movwf	??_dtoa
  5815  05EA  3080               	movlw	128
  5816  05EB  0238               	subwf	??_dtoa,w
  5817  05EC  1D03               	skipz
  5818  05ED  2DF0               	goto	u1875
  5819  05EE  3001               	movlw	1
  5820  05EF  024C               	subwf	dtoa@i,w
  5821  05F0                     u1875:
  5822  05F0  1C03               	skipc
  5823  05F1  2DF3               	goto	u1871
  5824  05F2  2DF4               	goto	u1870
  5825  05F3                     u1871:
  5826  05F3  2E21               	goto	l2991
  5827  05F4                     u1870:
  5828  05F4                     l2983:
  5829  05F4  0140               	movlb	0	; select bank0
  5830  05F5  0844               	movf	dtoa@n,w
  5831  05F6  0445               	iorwf	dtoa@n+1,w
  5832  05F7  0446               	iorwf	dtoa@n+2,w
  5833  05F8  0447               	iorwf	dtoa@n+3,w
  5834  05F9  0448               	iorwf	dtoa@n+4,w
  5835  05FA  0449               	iorwf	dtoa@n+5,w
  5836  05FB  044A               	iorwf	dtoa@n+6,w
  5837  05FC  044B               	iorwf	dtoa@n+7,w
  5838  05FD  1D03               	skipz
  5839  05FE  2E00               	goto	u1881
  5840  05FF  2E01               	goto	u1880
  5841  0600                     u1881:
  5842  0600  2D7D               	goto	l2973
  5843  0601                     u1880:
  5844  0601                     l2985:
  5845  0601  083E               	movf	dtoa@p+1,w
  5846  0602  3A80               	xorlw	128
  5847  0603  00B8               	movwf	??_dtoa
  5848  0604  3080               	movlw	128
  5849  0605  0238               	subwf	??_dtoa,w
  5850  0606  1D03               	skipz
  5851  0607  2E0A               	goto	u1895
  5852  0608  3001               	movlw	1
  5853  0609  023D               	subwf	dtoa@p,w
  5854  060A                     u1895:
  5855  060A  1803               	skipnc
  5856  060B  2E0D               	goto	u1891
  5857  060C  2E0E               	goto	u1890
  5858  060D                     u1891:
  5859  060D  2D7D               	goto	l2973
  5860  060E                     u1890:
  5861  060E                     l2987:
  5862  060E  0140               	movlb	0	; select bank0
  5863  060F  0841               	movf	dtoa@w+1,w
  5864  0610  3A80               	xorlw	128
  5865  0611  00B8               	movwf	??_dtoa
  5866  0612  3080               	movlw	128
  5867  0613  0238               	subwf	??_dtoa,w
  5868  0614  1D03               	skipz
  5869  0615  2E18               	goto	u1905
  5870  0616  3001               	movlw	1
  5871  0617  0240               	subwf	dtoa@w,w
  5872  0618                     u1905:
  5873  0618  1C03               	skipc
  5874  0619  2E1B               	goto	u1901
  5875  061A  2E1C               	goto	u1900
  5876  061B                     u1901:
  5877  061B  2E21               	goto	l2991
  5878  061C                     u1900:
  5879  061C                     l2989:
  5880  061C  0141               	movlb	1	; select bank1
  5881  061D  18C8               	btfsc	_flags^(0+128),1
  5882  061E  2E20               	goto	u1911
  5883  061F  2E21               	goto	u1910
  5884  0620                     u1911:
  5885  0620  2D7D               	goto	l2973
  5886  0621                     u1910:
  5887  0621                     l2991:
  5888                           
  5889                           ;D:\program files\Microchip\xc8\v2.31\pic\sources\c99\common\doprnt.c: 321:     if (s ||
      +                           (flags & (1 << 2))) {
  5890  0621  0140               	movlb	0	; select bank0
  5891  0622  0842               	movf	dtoa@s,w
  5892  0623  0443               	iorwf	dtoa@s+1,w
  5893  0624  1D03               	btfss	3,2
  5894  0625  2E27               	goto	u1921
  5895  0626  2E28               	goto	u1920
  5896  0627                     u1921:
  5897  0627  2E2D               	goto	l2995
  5898  0628                     u1920:
  5899  0628                     l2993:
  5900  0628  0141               	movlb	1	; select bank1
  5901  0629  1D48               	btfss	_flags^(0+128),2
  5902  062A  2E2C               	goto	u1931
  5903  062B  2E2D               	goto	u1930
  5904  062C                     u1931:
  5905  062C  2E4A               	goto	l3005
  5906  062D                     u1930:
  5907  062D                     l2995:
  5908                           
  5909                           ;D:\program files\Microchip\xc8\v2.31\pic\sources\c99\common\doprnt.c: 322:         --i;
  5910  062D  30FF               	movlw	255
  5911  062E  0140               	movlb	0	; select bank0
  5912  062F  07CC               	addwf	dtoa@i,f
  5913  0630  30FF               	movlw	255
  5914  0631  3DCD               	addwfc	dtoa@i+1,f
  5915  0632                     l2997:
  5916                           
  5917                           ;D:\program files\Microchip\xc8\v2.31\pic\sources\c99\common\doprnt.c: 323:         dbuf
      +                          [i] = s ? '-' : '+';
  5918  0632  0842               	movf	dtoa@s,w
  5919  0633  0443               	iorwf	dtoa@s+1,w
  5920  0634  1D03               	btfss	3,2
  5921  0635  2E37               	goto	u1941
  5922  0636  2E38               	goto	u1940
  5923  0637                     u1941:
  5924  0637  2E3D               	goto	l3001
  5925  0638                     u1940:
  5926  0638                     l2999:
  5927  0638  302B               	movlw	43
  5928  0639  00BB               	movwf	_dtoa$1738
  5929  063A  3000               	movlw	0
  5930  063B  00BC               	movwf	_dtoa$1738+1
  5931  063C  2E41               	goto	l3003
  5932  063D                     l3001:
  5933  063D  302D               	movlw	45
  5934  063E  00BB               	movwf	_dtoa$1738
  5935  063F  3000               	movlw	0
  5936  0640  00BC               	movwf	_dtoa$1738+1
  5937  0641                     l3003:
  5938  0641  083B               	movf	_dtoa$1738,w
  5939  0642  00B8               	movwf	??_dtoa
  5940  0643  084C               	movf	dtoa@i,w
  5941  0644  3E20               	addlw	(low (_dbuf| (0+256)))& (0+255)
  5942  0645  0086               	movwf	6
  5943  0646  3001               	movlw	1	; select bank2/3
  5944  0647  0087               	movwf	7
  5945  0648  0838               	movf	??_dtoa,w
  5946  0649  0081               	movwf	1
  5947  064A                     l3005:
  5948                           
  5949                           ;D:\program files\Microchip\xc8\v2.31\pic\sources\c99\common\doprnt.c: 327:     return p
      +                          ad(fp, &dbuf[i], w);
  5950  064A  0140               	movlb	0	; select bank0
  5951  064B  084C               	movf	dtoa@i,w
  5952  064C  3E20               	addlw	(low (_dbuf| (0+256)))& (0+255)
  5953  064D  00B8               	movwf	??_dtoa
  5954  064E  0838               	movf	??_dtoa,w
  5955  064F  00A0               	movwf	pad@buf
  5956  0650  0841               	movf	dtoa@w+1,w
  5957  0651  00A2               	movwf	pad@p+1
  5958  0652  0840               	movf	dtoa@w,w
  5959  0653  00A1               	movwf	pad@p
  5960  0654  083F               	movf	dtoa@fp,w
  5961  0655  3181  2166  3184   	fcall	_pad
  5962  0658  0140               	movlb	0	; select bank0
  5963  0659  0821               	movf	?_pad+1,w
  5964  065A  00B1               	movwf	?_dtoa+1
  5965  065B  0820               	movf	?_pad,w
  5966  065C  00B0               	movwf	?_dtoa
  5967  065D                     l1430:
  5968  065D  0008               	return
  5969  065E                     __end_of_dtoa:
  5970                           
  5971                           	psect	text10
  5972  0166                     __ptext10:	
  5973 ;; *************** function _pad *****************
  5974 ;; Defined at:
  5975 ;;		line 72 in file "D:\program files\Microchip\xc8\v2.31\pic\sources\c99\common\doprnt.c"
  5976 ;; Parameters:    Size  Location     Type
  5977 ;;  fp              1    wreg     PTR struct _IO_FILE
  5978 ;;		 -> NULL(0), 
  5979 ;;  buf             1    0[BANK0 ] PTR unsigned char 
  5980 ;;		 -> dbuf(32), 
  5981 ;;  p               2    1[BANK0 ] int 
  5982 ;; Auto vars:     Size  Location     Type
  5983 ;;  fp              1    7[BANK0 ] PTR struct _IO_FILE
  5984 ;;		 -> NULL(0), 
  5985 ;;  w               2    5[BANK0 ] int 
  5986 ;;  i               2    3[BANK0 ] int 
  5987 ;; Return value:  Size  Location     Type
  5988 ;;                  2    0[BANK0 ] int 
  5989 ;; Registers used:
  5990 ;;		wreg, fsr1l, fsr1h, status,2, status,0, pclath, cstack
  5991 ;; Tracked objects:
  5992 ;;		On entry : 0/0
  5993 ;;		On exit  : 0/0
  5994 ;;		Unchanged: 0/0
  5995 ;; Data sizes:     COMMON   BANK0   BANK1   BANK2   BANK3   BANK4   BANK5   BANK6   BANK7   BANK8   BANK9  BANK10  BANK1
      +1  BANK12  BANK13  BANK14  BANK15  BANK16  BANK17  BANK18  BANK19  BANK20  BANK21  BANK22  BANK23  BANK24  BANK25
  5996 ;;      Params:         0       3       0       0       0       0       0       0       0       0       0       0       
      +0       0       0       0       0       0       0       0       0       0       0       0       0       0       0
  5997 ;;      Locals:         0       5       0       0       0       0       0       0       0       0       0       0       
      +0       0       0       0       0       0       0       0       0       0       0       0       0       0       0
  5998 ;;      Temps:          1       0       0       0       0       0       0       0       0       0       0       0       
      +0       0       0       0       0       0       0       0       0       0       0       0       0       0       0
  5999 ;;      Totals:         1       8       0       0       0       0       0       0       0       0       0       0       
      +0       0       0       0       0       0       0       0       0       0       0       0       0       0       0
  6000 ;;Total ram usage:        9 bytes
  6001 ;; Hardware stack levels used:    1
  6002 ;; Hardware stack levels required when called:    3
  6003 ;; This function calls:
  6004 ;;		_fputc
  6005 ;;		_fputs
  6006 ;;		_strlen
  6007 ;; This function is called by:
  6008 ;;		_dtoa
  6009 ;;		_xtoa
  6010 ;; This function uses a non-reentrant model
  6011 ;;
  6012                           
  6013                           
  6014                           ;psect for function _pad
  6015  0166                     _pad:
  6016                           
  6017                           ;incstack = 0
  6018                           ; Regs used in _pad: [wreg+fsr1l+fsr1h+status,2+status,0+pclath+cstack]
  6019                           ;pad@fp stored from wreg
  6020  0166  0140               	movlb	0	; select bank0
  6021  0167  00A7               	movwf	pad@fp
  6022  0168                     l2863:
  6023                           
  6024                           ;D:\program files\Microchip\xc8\v2.31\pic\sources\c99\common\doprnt.c: 72: static int pa
      +                          d(FILE *fp, char *buf, int p);D:\program files\Microchip\xc8\v2.31\pic\sources\c99\commo
      +                          n\doprnt.c: 73: {;D:\program files\Microchip\xc8\v2.31\pic\sources\c99\common\doprnt.c: 
      +                          74:     int i, w;;D:\program files\Microchip\xc8\v2.31\pic\sources\c99\common\doprnt.c: 
      +                          77:     if (flags & (1 << 0)) {
  6025  0168  0141               	movlb	1	; select bank1
  6026  0169  1C48               	btfss	_flags^(0+128),0
  6027  016A  296C               	goto	u1631
  6028  016B  296D               	goto	u1630
  6029  016C                     u1631:
  6030  016C  2976               	goto	l2867
  6031  016D                     u1630:
  6032  016D                     l2865:
  6033                           
  6034                           ;D:\program files\Microchip\xc8\v2.31\pic\sources\c99\common\doprnt.c: 78:         fputs
      +                          ((const char *)buf, fp);
  6035  016D  0140               	movlb	0	; select bank0
  6036  016E  0827               	movf	pad@fp,w
  6037  016F  00FC               	movwf	??_pad
  6038  0170  087C               	movf	??_pad,w
  6039  0171  00F4               	movwf	fputs@fp
  6040  0172  0820               	movf	pad@buf,w
  6041  0173  3180  2037  3181   	fcall	_fputs
  6042  0176                     l2867:
  6043                           
  6044                           ;D:\program files\Microchip\xc8\v2.31\pic\sources\c99\common\doprnt.c: 82:     w = (p < 
      +                          0) ? 0 : p;
  6045  0176  0140               	movlb	0	; select bank0
  6046  0177  1BA2               	btfsc	pad@p+1,7
  6047  0178  297A               	goto	u1641
  6048  0179  297B               	goto	u1640
  6049  017A                     u1641:
  6050  017A  2980               	goto	l2871
  6051  017B                     u1640:
  6052  017B                     l2869:
  6053  017B  0822               	movf	pad@p+1,w
  6054  017C  00A6               	movwf	pad@w+1
  6055  017D  0821               	movf	pad@p,w
  6056  017E  00A5               	movwf	pad@w
  6057  017F  2982               	goto	l1399
  6058  0180                     l2871:
  6059  0180  01A5               	clrf	pad@w
  6060  0181  01A6               	clrf	pad@w+1
  6061  0182                     l1399:
  6062                           
  6063                           ;D:\program files\Microchip\xc8\v2.31\pic\sources\c99\common\doprnt.c: 83:     i = 0;
  6064  0182  01A3               	clrf	pad@i
  6065  0183  01A4               	clrf	pad@i+1
  6066                           
  6067                           ;D:\program files\Microchip\xc8\v2.31\pic\sources\c99\common\doprnt.c: 84:     while (i 
      +                          < w) {
  6068  0184  2996               	goto	l2877
  6069  0185                     l2873:
  6070                           
  6071                           ;D:\program files\Microchip\xc8\v2.31\pic\sources\c99\common\doprnt.c: 85:         fputc
      +                          (' ', fp);
  6072  0185  3020               	movlw	32
  6073  0186  00F1               	movwf	fputc@ch
  6074  0187  3000               	movlw	0
  6075  0188  00F2               	movwf	fputc@ch+1
  6076  0189  0140               	movlb	0	; select bank0
  6077  018A  0827               	movf	pad@fp,w
  6078  018B  00FC               	movwf	??_pad
  6079  018C  087C               	movf	??_pad,w
  6080  018D  00F3               	movwf	fputc@f
  6081  018E  318D  25CE  3181   	fcall	_fputc
  6082  0191                     l2875:
  6083                           
  6084                           ;D:\program files\Microchip\xc8\v2.31\pic\sources\c99\common\doprnt.c: 86:         ++i;
  6085  0191  3001               	movlw	1
  6086  0192  0140               	movlb	0	; select bank0
  6087  0193  07A3               	addwf	pad@i,f
  6088  0194  3000               	movlw	0
  6089  0195  3DA4               	addwfc	pad@i+1,f
  6090  0196                     l2877:
  6091                           
  6092                           ;D:\program files\Microchip\xc8\v2.31\pic\sources\c99\common\doprnt.c: 84:     while (i 
      +                          < w) {
  6093  0196  0824               	movf	pad@i+1,w
  6094  0197  3A80               	xorlw	128
  6095  0198  00FC               	movwf	??_pad
  6096  0199  0826               	movf	pad@w+1,w
  6097  019A  3A80               	xorlw	128
  6098  019B  027C               	subwf	??_pad,w
  6099  019C  1D03               	skipz
  6100  019D  29A0               	goto	u1655
  6101  019E  0825               	movf	pad@w,w
  6102  019F  0223               	subwf	pad@i,w
  6103  01A0                     u1655:
  6104  01A0  1C03               	skipc
  6105  01A1  29A3               	goto	u1651
  6106  01A2  29A4               	goto	u1650
  6107  01A3                     u1651:
  6108  01A3  2985               	goto	l2873
  6109  01A4                     u1650:
  6110  01A4                     l1402:
  6111                           
  6112                           ;D:\program files\Microchip\xc8\v2.31\pic\sources\c99\common\doprnt.c: 90:     if (!(fla
      +                          gs & (1 << 0))) {
  6113  01A4  0141               	movlb	1	; select bank1
  6114  01A5  1848               	btfsc	_flags^(0+128),0
  6115  01A6  29A8               	goto	u1661
  6116  01A7  29A9               	goto	u1660
  6117  01A8                     u1661:
  6118  01A8  29B2               	goto	l1403
  6119  01A9                     u1660:
  6120  01A9                     l2879:
  6121                           
  6122                           ;D:\program files\Microchip\xc8\v2.31\pic\sources\c99\common\doprnt.c: 91:         fputs
      +                          ((const char *)buf, fp);
  6123  01A9  0140               	movlb	0	; select bank0
  6124  01AA  0827               	movf	pad@fp,w
  6125  01AB  00FC               	movwf	??_pad
  6126  01AC  087C               	movf	??_pad,w
  6127  01AD  00F4               	movwf	fputs@fp
  6128  01AE  0820               	movf	pad@buf,w
  6129  01AF  3180  2037  3181   	fcall	_fputs
  6130  01B2                     l1403:	
  6131                           ;D:\program files\Microchip\xc8\v2.31\pic\sources\c99\common\doprnt.c: 92:     }
  6132                           
  6133                           
  6134                           ;D:\program files\Microchip\xc8\v2.31\pic\sources\c99\common\doprnt.c: 94:     return (i
      +                          nt)(strlen(buf) + (size_t)w);
  6135  01B2  0140               	movlb	0	; select bank0
  6136  01B3  0820               	movf	pad@buf,w
  6137  01B4  318E  26C1  3181   	fcall	_strlen
  6138  01B7  0140               	movlb	0	; select bank0
  6139  01B8  0825               	movf	pad@w,w
  6140  01B9  0770               	addwf	?_strlen,w
  6141  01BA  00A0               	movwf	?_pad
  6142  01BB  0826               	movf	pad@w+1,w
  6143  01BC  3D71               	addwfc	?_strlen+1,w
  6144  01BD  00A1               	movwf	?_pad+1
  6145  01BE                     l1404:
  6146  01BE  0008               	return
  6147  01BF                     __end_of_pad:
  6148                           
  6149                           	psect	text11
  6150  0EC1                     __ptext11:	
  6151 ;; *************** function _strlen *****************
  6152 ;; Defined at:
  6153 ;;		line 5 in file "D:\program files\Microchip\xc8\v2.31\pic\sources\c99\common\strlen.c"
  6154 ;; Parameters:    Size  Location     Type
  6155 ;;  s               1    wreg     PTR const unsigned char 
  6156 ;;		 -> dbuf(32), 
  6157 ;; Auto vars:     Size  Location     Type
  6158 ;;  s               1    4[COMMON] PTR const unsigned char 
  6159 ;;		 -> dbuf(32), 
  6160 ;;  a               1    3[COMMON] PTR const unsigned char 
  6161 ;;		 -> dbuf(32), 
  6162 ;; Return value:  Size  Location     Type
  6163 ;;                  2    0[COMMON] unsigned int 
  6164 ;; Registers used:
  6165 ;;		wreg, fsr1l, fsr1h, status,2, status,0
  6166 ;; Tracked objects:
  6167 ;;		On entry : 0/0
  6168 ;;		On exit  : 0/0
  6169 ;;		Unchanged: 0/0
  6170 ;; Data sizes:     COMMON   BANK0   BANK1   BANK2   BANK3   BANK4   BANK5   BANK6   BANK7   BANK8   BANK9  BANK10  BANK1
      +1  BANK12  BANK13  BANK14  BANK15  BANK16  BANK17  BANK18  BANK19  BANK20  BANK21  BANK22  BANK23  BANK24  BANK25
  6171 ;;      Params:         2       0       0       0       0       0       0       0       0       0       0       0       
      +0       0       0       0       0       0       0       0       0       0       0       0       0       0       0
  6172 ;;      Locals:         2       0       0       0       0       0       0       0       0       0       0       0       
      +0       0       0       0       0       0       0       0       0       0       0       0       0       0       0
  6173 ;;      Temps:          1       0       0       0       0       0       0       0       0       0       0       0       
      +0       0       0       0       0       0       0       0       0       0       0       0       0       0       0
  6174 ;;      Totals:         5       0       0       0       0       0       0       0       0       0       0       0       
      +0       0       0       0       0       0       0       0       0       0       0       0       0       0       0
  6175 ;;Total ram usage:        5 bytes
  6176 ;; Hardware stack levels used:    1
  6177 ;; This function calls:
  6178 ;;		Nothing
  6179 ;; This function is called by:
  6180 ;;		_pad
  6181 ;; This function uses a non-reentrant model
  6182 ;;
  6183                           
  6184                           
  6185                           ;psect for function _strlen
  6186  0EC1                     _strlen:
  6187                           
  6188                           ;incstack = 0
  6189                           ; Regs used in _strlen: [wreg+fsr1l+fsr1h+status,2+status,0]
  6190                           ;strlen@s stored from wreg
  6191  0EC1  00F4               	movwf	strlen@s
  6192  0EC2                     l2779:
  6193  0EC2  0874               	movf	strlen@s,w
  6194  0EC3  00F2               	movwf	??_strlen
  6195  0EC4  0872               	movf	??_strlen,w
  6196  0EC5  00F3               	movwf	strlen@a
  6197  0EC6  2ECB               	goto	l2783
  6198  0EC7                     l2781:
  6199  0EC7  3001               	movlw	1
  6200  0EC8  00F2               	movwf	??_strlen
  6201  0EC9  0872               	movf	??_strlen,w
  6202  0ECA  07F4               	addwf	strlen@s,f
  6203  0ECB                     l2783:
  6204  0ECB  0874               	movf	strlen@s,w
  6205  0ECC  0086               	movwf	6
  6206  0ECD  3001               	movlw	1	; select bank2/3
  6207  0ECE  0087               	movwf	7
  6208  0ECF  0801               	movf	1,w
  6209  0ED0  1D03               	btfss	3,2
  6210  0ED1  2ED3               	goto	u1391
  6211  0ED2  2ED4               	goto	u1390
  6212  0ED3                     u1391:
  6213  0ED3  2EC7               	goto	l2781
  6214  0ED4                     u1390:
  6215  0ED4                     l2785:
  6216  0ED4  0873               	movf	strlen@a,w
  6217  0ED5  0274               	subwf	strlen@s,w
  6218  0ED6  00F0               	movwf	?_strlen
  6219  0ED7  01F1               	clrf	?_strlen+1
  6220  0ED8  1BF0               	btfsc	?_strlen,7
  6221  0ED9  03F1               	decf	?_strlen+1,f
  6222  0EDA                     l1510:
  6223  0EDA  0008               	return
  6224  0EDB                     __end_of_strlen:
  6225                           
  6226                           	psect	text12
  6227  0037                     __ptext12:	
  6228 ;; *************** function _fputs *****************
  6229 ;; Defined at:
  6230 ;;		line 8 in file "D:\program files\Microchip\xc8\v2.31\pic\sources\c99\common\nf_fputs.c"
  6231 ;; Parameters:    Size  Location     Type
  6232 ;;  s               1    wreg     PTR const unsigned char 
  6233 ;;		 -> dbuf(32), 
  6234 ;;  fp              1    4[COMMON] PTR struct _IO_FILE
  6235 ;;		 -> NULL(0), 
  6236 ;; Auto vars:     Size  Location     Type
  6237 ;;  s               1   11[COMMON] PTR const unsigned char 
  6238 ;;		 -> dbuf(32), 
  6239 ;;  i               2    9[COMMON] int 
  6240 ;;  c               1    8[COMMON] unsigned char 
  6241 ;; Return value:  Size  Location     Type
  6242 ;;                  2    4[COMMON] int 
  6243 ;; Registers used:
  6244 ;;		wreg, fsr1l, fsr1h, status,2, status,0, pclath, cstack
  6245 ;; Tracked objects:
  6246 ;;		On entry : 0/0
  6247 ;;		On exit  : 0/0
  6248 ;;		Unchanged: 0/0
  6249 ;; Data sizes:     COMMON   BANK0   BANK1   BANK2   BANK3   BANK4   BANK5   BANK6   BANK7   BANK8   BANK9  BANK10  BANK1
      +1  BANK12  BANK13  BANK14  BANK15  BANK16  BANK17  BANK18  BANK19  BANK20  BANK21  BANK22  BANK23  BANK24  BANK25
  6250 ;;      Params:         1       0       0       0       0       0       0       0       0       0       0       0       
      +0       0       0       0       0       0       0       0       0       0       0       0       0       0       0
  6251 ;;      Locals:         4       0       0       0       0       0       0       0       0       0       0       0       
      +0       0       0       0       0       0       0       0       0       0       0       0       0       0       0
  6252 ;;      Temps:          3       0       0       0       0       0       0       0       0       0       0       0       
      +0       0       0       0       0       0       0       0       0       0       0       0       0       0       0
  6253 ;;      Totals:         8       0       0       0       0       0       0       0       0       0       0       0       
      +0       0       0       0       0       0       0       0       0       0       0       0       0       0       0
  6254 ;;Total ram usage:        8 bytes
  6255 ;; Hardware stack levels used:    1
  6256 ;; Hardware stack levels required when called:    2
  6257 ;; This function calls:
  6258 ;;		_fputc
  6259 ;; This function is called by:
  6260 ;;		_pad
  6261 ;; This function uses a non-reentrant model
  6262 ;;
  6263                           
  6264                           
  6265                           ;psect for function _fputs
  6266  0037                     _fputs:
  6267                           
  6268                           ;incstack = 0
  6269                           ; Regs used in _fputs: [wreg+fsr1l+fsr1h+status,2+status,0+pclath+cstack]
  6270                           ;fputs@s stored from wreg
  6271  0037  00FB               	movwf	fputs@s
  6272  0038                     l2771:
  6273  0038  01F9               	clrf	fputs@i
  6274  0039  01FA               	clrf	fputs@i+1
  6275  003A  284D               	goto	l2777
  6276  003B                     l2773:
  6277  003B  0878               	movf	fputs@c,w
  6278  003C  00F5               	movwf	??_fputs
  6279  003D  01F6               	clrf	??_fputs+1
  6280  003E  0875               	movf	??_fputs,w
  6281  003F  00F1               	movwf	fputc@ch
  6282  0040  0876               	movf	??_fputs+1,w
  6283  0041  00F2               	movwf	fputc@ch+1
  6284  0042  0874               	movf	fputs@fp,w
  6285  0043  00F7               	movwf	??_fputs+2
  6286  0044  0877               	movf	??_fputs+2,w
  6287  0045  00F3               	movwf	fputc@f
  6288  0046  318D  25CE  3180   	fcall	_fputc
  6289  0049                     l2775:
  6290  0049  3001               	movlw	1
  6291  004A  07F9               	addwf	fputs@i,f
  6292  004B  3000               	movlw	0
  6293  004C  3DFA               	addwfc	fputs@i+1,f
  6294  004D                     l2777:
  6295  004D  0879               	movf	fputs@i,w
  6296  004E  077B               	addwf	fputs@s,w
  6297  004F  00F5               	movwf	??_fputs
  6298  0050  0875               	movf	??_fputs,w
  6299  0051  0086               	movwf	6
  6300  0052  3001               	movlw	1	; select bank2/3
  6301  0053  0087               	movwf	7
  6302  0054  0801               	movf	1,w
  6303  0055  00F6               	movwf	??_fputs+1
  6304  0056  0876               	movf	??_fputs+1,w
  6305  0057  00F8               	movwf	fputs@c
  6306  0058  0878               	movf	fputs@c,w
  6307  0059  1D03               	btfss	3,2
  6308  005A  285C               	goto	u1381
  6309  005B  285D               	goto	u1380
  6310  005C                     u1381:
  6311  005C  283B               	goto	l2773
  6312  005D                     u1380:
  6313  005D                     l1504:
  6314  005D  0008               	return
  6315  005E                     __end_of_fputs:
  6316                           
  6317                           	psect	text13
  6318  0DCE                     __ptext13:	
  6319 ;; *************** function _fputc *****************
  6320 ;; Defined at:
  6321 ;;		line 52 in file "main.c"
  6322 ;; Parameters:    Size  Location     Type
  6323 ;;  ch              2    1[COMMON] int 
  6324 ;;  f               1    3[COMMON] PTR struct _IO_FILE
  6325 ;;		 -> NULL(0), 
  6326 ;; Auto vars:     Size  Location     Type
  6327 ;;		None
  6328 ;; Return value:  Size  Location     Type
  6329 ;;                  2    1[COMMON] int 
  6330 ;; Registers used:
  6331 ;;		wreg, status,2, status,0, pclath, cstack
  6332 ;; Tracked objects:
  6333 ;;		On entry : 0/0
  6334 ;;		On exit  : 0/0
  6335 ;;		Unchanged: 0/0
  6336 ;; Data sizes:     COMMON   BANK0   BANK1   BANK2   BANK3   BANK4   BANK5   BANK6   BANK7   BANK8   BANK9  BANK10  BANK1
      +1  BANK12  BANK13  BANK14  BANK15  BANK16  BANK17  BANK18  BANK19  BANK20  BANK21  BANK22  BANK23  BANK24  BANK25
  6337 ;;      Params:         3       0       0       0       0       0       0       0       0       0       0       0       
      +0       0       0       0       0       0       0       0       0       0       0       0       0       0       0
  6338 ;;      Locals:         0       0       0       0       0       0       0       0       0       0       0       0       
      +0       0       0       0       0       0       0       0       0       0       0       0       0       0       0
  6339 ;;      Temps:          0       0       0       0       0       0       0       0       0       0       0       0       
      +0       0       0       0       0       0       0       0       0       0       0       0       0       0       0
  6340 ;;      Totals:         3       0       0       0       0       0       0       0       0       0       0       0       
      +0       0       0       0       0       0       0       0       0       0       0       0       0       0       0
  6341 ;;Total ram usage:        3 bytes
  6342 ;; Hardware stack levels used:    1
  6343 ;; Hardware stack levels required when called:    1
  6344 ;; This function calls:
  6345 ;;		_EUSART1_Write
  6346 ;; This function is called by:
  6347 ;;		_pad
  6348 ;;		_vfpfcnvrt
  6349 ;;		_fputs
  6350 ;; This function uses a non-reentrant model
  6351 ;;
  6352                           
  6353                           
  6354                           ;psect for function _fputc
  6355  0DCE                     _fputc:
  6356  0DCE                     l2767:	
  6357                           ;incstack = 0
  6358                           ; Regs used in _fputc: [wreg+status,2+status,0+pclath+cstack]
  6359                           
  6360                           
  6361                           ;main.c: 54:     EUSART1_Write((char)ch);
  6362  0DCE  0871               	movf	fputc@ch,w
  6363  0DCF  318E  2618  318D   	fcall	_EUSART1_Write
  6364  0DD2                     l817:
  6365  0DD2  0008               	return
  6366  0DD3                     __end_of_fputc:
  6367                           
  6368                           	psect	text14
  6369  0E18                     __ptext14:	
  6370 ;; *************** function _EUSART1_Write *****************
  6371 ;; Defined at:
  6372 ;;		line 132 in file "mcc_generated_files/eusart1.c"
  6373 ;; Parameters:    Size  Location     Type
  6374 ;;  txData          1    wreg     unsigned char 
  6375 ;; Auto vars:     Size  Location     Type
  6376 ;;  txData          1    0[COMMON] unsigned char 
  6377 ;; Return value:  Size  Location     Type
  6378 ;;                  1    wreg      void 
  6379 ;; Registers used:
  6380 ;;		wreg
  6381 ;; Tracked objects:
  6382 ;;		On entry : 0/0
  6383 ;;		On exit  : 0/0
  6384 ;;		Unchanged: 0/0
  6385 ;; Data sizes:     COMMON   BANK0   BANK1   BANK2   BANK3   BANK4   BANK5   BANK6   BANK7   BANK8   BANK9  BANK10  BANK1
      +1  BANK12  BANK13  BANK14  BANK15  BANK16  BANK17  BANK18  BANK19  BANK20  BANK21  BANK22  BANK23  BANK24  BANK25
  6386 ;;      Params:         0       0       0       0       0       0       0       0       0       0       0       0       
      +0       0       0       0       0       0       0       0       0       0       0       0       0       0       0
  6387 ;;      Locals:         1       0       0       0       0       0       0       0       0       0       0       0       
      +0       0       0       0       0       0       0       0       0       0       0       0       0       0       0
  6388 ;;      Temps:          0       0       0       0       0       0       0       0       0       0       0       0       
      +0       0       0       0       0       0       0       0       0       0       0       0       0       0       0
  6389 ;;      Totals:         1       0       0       0       0       0       0       0       0       0       0       0       
      +0       0       0       0       0       0       0       0       0       0       0       0       0       0       0
  6390 ;;Total ram usage:        1 bytes
  6391 ;; Hardware stack levels used:    1
  6392 ;; This function calls:
  6393 ;;		Nothing
  6394 ;; This function is called by:
  6395 ;;		_fputc
  6396 ;; This function uses a non-reentrant model
  6397 ;;
  6398                           
  6399                           
  6400                           ;psect for function _EUSART1_Write
  6401  0E18                     _EUSART1_Write:
  6402                           
  6403                           ;incstack = 0
  6404                           ; Regs used in _EUSART1_Write: [wreg]
  6405                           ;EUSART1_Write@txData stored from wreg
  6406  0E18  00F0               	movwf	EUSART1_Write@txData
  6407  0E19                     l2763:
  6408  0E19                     l762:	
  6409                           ;mcc_generated_files/eusart1.c: 135:     {;mcc_generated_files/eusart1.c: 136:     }
  6410                           
  6411                           
  6412                           ;mcc_generated_files/eusart1.c: 134:     while(0 == PIR3bits.TX1IF)
  6413  0E19  014E               	movlb	14	; select bank14
  6414  0E1A  1E0F               	btfss	15,4	;volatile
  6415  0E1B  2E1D               	goto	u1371
  6416  0E1C  2E1E               	goto	u1370
  6417  0E1D                     u1371:
  6418  0E1D  2E19               	goto	l762
  6419  0E1E                     u1370:
  6420  0E1E                     l2765:
  6421                           
  6422                           ;mcc_generated_files/eusart1.c: 138:     TX1REG = txData;
  6423  0E1E  0870               	movf	EUSART1_Write@txData,w
  6424  0E1F  0142               	movlb	2	; select bank2
  6425  0E20  009A               	movwf	26	;volatile
  6426  0E21                     l765:
  6427  0E21  0008               	return
  6428  0E22                     __end_of_EUSART1_Write:
  6429                           
  6430                           	psect	text15
  6431  0EA7                     __ptext15:	
  6432 ;; *************** function _abs *****************
  6433 ;; Defined at:
  6434 ;;		line 1 in file "D:\program files\Microchip\xc8\v2.31\pic\sources\c99\common\abs.c"
  6435 ;; Parameters:    Size  Location     Type
  6436 ;;  a               2    3[COMMON] int 
  6437 ;; Auto vars:     Size  Location     Type
  6438 ;;		None
  6439 ;; Return value:  Size  Location     Type
  6440 ;;                  2    3[COMMON] int 
  6441 ;; Registers used:
  6442 ;;		wreg, status,2, status,0
  6443 ;; Tracked objects:
  6444 ;;		On entry : 0/0
  6445 ;;		On exit  : 0/0
  6446 ;;		Unchanged: 0/0
  6447 ;; Data sizes:     COMMON   BANK0   BANK1   BANK2   BANK3   BANK4   BANK5   BANK6   BANK7   BANK8   BANK9  BANK10  BANK1
      +1  BANK12  BANK13  BANK14  BANK15  BANK16  BANK17  BANK18  BANK19  BANK20  BANK21  BANK22  BANK23  BANK24  BANK25
  6448 ;;      Params:         2       0       0       0       0       0       0       0       0       0       0       0       
      +0       0       0       0       0       0       0       0       0       0       0       0       0       0       0
  6449 ;;      Locals:         0       0       0       0       0       0       0       0       0       0       0       0       
      +0       0       0       0       0       0       0       0       0       0       0       0       0       0       0
  6450 ;;      Temps:          2       0       0       0       0       0       0       0       0       0       0       0       
      +0       0       0       0       0       0       0       0       0       0       0       0       0       0       0
  6451 ;;      Totals:         4       0       0       0       0       0       0       0       0       0       0       0       
      +0       0       0       0       0       0       0       0       0       0       0       0       0       0       0
  6452 ;;Total ram usage:        4 bytes
  6453 ;; Hardware stack levels used:    1
  6454 ;; This function calls:
  6455 ;;		Nothing
  6456 ;; This function is called by:
  6457 ;;		_dtoa
  6458 ;; This function uses a non-reentrant model
  6459 ;;
  6460                           
  6461                           
  6462                           ;psect for function _abs
  6463  0EA7                     _abs:
  6464  0EA7                     l2883:	
  6465                           ;incstack = 0
  6466                           ; Regs used in _abs: [wreg+status,2+status,0]
  6467                           
  6468  0EA7  0874               	movf	abs@a+1,w
  6469  0EA8  3A80               	xorlw	128
  6470  0EA9  00F5               	movwf	??_abs
  6471  0EAA  3080               	movlw	128
  6472  0EAB  0275               	subwf	??_abs,w
  6473  0EAC  1D03               	skipz
  6474  0EAD  2EB0               	goto	u1675
  6475  0EAE  3001               	movlw	1
  6476  0EAF  0273               	subwf	abs@a,w
  6477  0EB0                     u1675:
  6478  0EB0  1803               	skipnc
  6479  0EB1  2EB3               	goto	u1671
  6480  0EB2  2EB4               	goto	u1670
  6481  0EB3                     u1671:
  6482  0EB3  2EC0               	goto	l1481
  6483  0EB4                     u1670:
  6484  0EB4                     l2885:
  6485  0EB4  0973               	comf	abs@a,w
  6486  0EB5  00F5               	movwf	??_abs
  6487  0EB6  0974               	comf	abs@a+1,w
  6488  0EB7  00F6               	movwf	??_abs+1
  6489  0EB8  0AF5               	incf	??_abs,f
  6490  0EB9  1903               	skipnz
  6491  0EBA  0AF6               	incf	??_abs+1,f
  6492  0EBB  0875               	movf	??_abs,w
  6493  0EBC  00F3               	movwf	?_abs
  6494  0EBD  0876               	movf	??_abs+1,w
  6495  0EBE  00F4               	movwf	?_abs+1
  6496  0EBF  2EC0               	goto	l1484
  6497  0EC0                     l1481:
  6498  0EC0                     l1484:
  6499  0EC0  0008               	return
  6500  0EC1                     __end_of_abs:
  6501                           
  6502                           	psect	text16
  6503  01BF                     __ptext16:	
  6504 ;; *************** function ___aomod *****************
  6505 ;; Defined at:
  6506 ;;		line 7 in file "D:\program files\Microchip\xc8\v2.31\pic\sources\c99\common\aomod.c"
  6507 ;; Parameters:    Size  Location     Type
  6508 ;;  divisor         8    0[BANK0 ] long long 
  6509 ;;  dividend        8    8[BANK0 ] long long 
  6510 ;; Auto vars:     Size  Location     Type
  6511 ;;  sign            1    2[COMMON] unsigned char 
  6512 ;;  counter         1    1[COMMON] unsigned char 
  6513 ;; Return value:  Size  Location     Type
  6514 ;;                  8    0[BANK0 ] long long 
  6515 ;; Registers used:
  6516 ;;		wreg, fsr1l, fsr1h, status,2, status,0
  6517 ;; Tracked objects:
  6518 ;;		On entry : 0/0
  6519 ;;		On exit  : 0/0
  6520 ;;		Unchanged: 0/0
  6521 ;; Data sizes:     COMMON   BANK0   BANK1   BANK2   BANK3   BANK4   BANK5   BANK6   BANK7   BANK8   BANK9  BANK10  BANK1
      +1  BANK12  BANK13  BANK14  BANK15  BANK16  BANK17  BANK18  BANK19  BANK20  BANK21  BANK22  BANK23  BANK24  BANK25
  6522 ;;      Params:         0      16       0       0       0       0       0       0       0       0       0       0       
      +0       0       0       0       0       0       0       0       0       0       0       0       0       0       0
  6523 ;;      Locals:         2       0       0       0       0       0       0       0       0       0       0       0       
      +0       0       0       0       0       0       0       0       0       0       0       0       0       0       0
  6524 ;;      Temps:          1       0       0       0       0       0       0       0       0       0       0       0       
      +0       0       0       0       0       0       0       0       0       0       0       0       0       0       0
  6525 ;;      Totals:         3      16       0       0       0       0       0       0       0       0       0       0       
      +0       0       0       0       0       0       0       0       0       0       0       0       0       0       0
  6526 ;;Total ram usage:       19 bytes
  6527 ;; Hardware stack levels used:    1
  6528 ;; This function calls:
  6529 ;;		Nothing
  6530 ;; This function is called by:
  6531 ;;		_dtoa
  6532 ;; This function uses a non-reentrant model
  6533 ;;
  6534                           
  6535                           
  6536                           ;psect for function ___aomod
  6537  01BF                     ___aomod:
  6538  01BF                     l2833:	
  6539                           ;incstack = 0
  6540                           ; Regs used in ___aomod: [wreg+fsr1l+fsr1h+status,2+status,0]
  6541                           
  6542  01BF  01F2               	clrf	___aomod@sign
  6543  01C0                     l2835:
  6544  01C0  3028               	movlw	low ___aomod@dividend
  6545  01C1  0086               	movwf	6
  6546  01C2  3000               	movlw	high ___aomod@dividend
  6547  01C3  0087               	movwf	7
  6548  01C4  3F47               	moviw [7]fsr1
  6549  01C5  00F0               	movwf	??___aomod
  6550  01C6  1FF0               	btfss	??___aomod,7
  6551  01C7  29C9               	goto	u1531
  6552  01C8  29CA               	goto	u1530
  6553  01C9                     u1531:
  6554  01C9  29EB               	goto	l2839
  6555  01CA                     u1530:
  6556  01CA                     l2837:
  6557  01CA  0140               	movlb	0	; select bank0
  6558  01CB  09A8               	comf	___aomod@dividend,f
  6559  01CC  09A9               	comf	___aomod@dividend+1,f
  6560  01CD  09AA               	comf	___aomod@dividend+2,f
  6561  01CE  09AB               	comf	___aomod@dividend+3,f
  6562  01CF  09AC               	comf	___aomod@dividend+4,f
  6563  01D0  09AD               	comf	___aomod@dividend+5,f
  6564  01D1  09AE               	comf	___aomod@dividend+6,f
  6565  01D2  09AF               	comf	___aomod@dividend+7,f
  6566  01D3  0AA8               	incf	___aomod@dividend,f
  6567  01D4  1D03               	skipz
  6568  01D5  29E9               	goto	u154lld
  6569  01D6  0AA9               	incf	___aomod@dividend+1,f
  6570  01D7  1D03               	skipz
  6571  01D8  29E9               	goto	u154lld
  6572  01D9  0AAA               	incf	___aomod@dividend+2,f
  6573  01DA  1D03               	skipz
  6574  01DB  29E9               	goto	u154lld
  6575  01DC  0AAB               	incf	___aomod@dividend+3,f
  6576  01DD  1D03               	skipz
  6577  01DE  29E9               	goto	u154lld
  6578  01DF  0AAC               	incf	___aomod@dividend+4,f
  6579  01E0  1D03               	skipz
  6580  01E1  29E9               	goto	u154lld
  6581  01E2  0AAD               	incf	___aomod@dividend+5,f
  6582  01E3  1D03               	skipz
  6583  01E4  29E9               	goto	u154lld
  6584  01E5  0AAE               	incf	___aomod@dividend+6,f
  6585  01E6  1D03               	skipz
  6586  01E7  29E9               	goto	u154lld
  6587  01E8  0AAF               	incf	___aomod@dividend+7,f
  6588  01E9                     u154lld:
  6589  01E9  01F2               	clrf	___aomod@sign
  6590  01EA  0AF2               	incf	___aomod@sign,f
  6591  01EB                     l2839:
  6592  01EB  3020               	movlw	low ___aomod@divisor
  6593  01EC  0086               	movwf	6
  6594  01ED  3000               	movlw	high ___aomod@divisor
  6595  01EE  0087               	movwf	7
  6596  01EF  3F47               	moviw [7]fsr1
  6597  01F0  00F0               	movwf	??___aomod
  6598  01F1  1FF0               	btfss	??___aomod,7
  6599  01F2  29F4               	goto	u1551
  6600  01F3  29F5               	goto	u1550
  6601  01F4                     u1551:
  6602  01F4  2A14               	goto	l2843
  6603  01F5                     u1550:
  6604  01F5                     l2841:
  6605  01F5  0140               	movlb	0	; select bank0
  6606  01F6  09A0               	comf	___aomod@divisor,f
  6607  01F7  09A1               	comf	___aomod@divisor+1,f
  6608  01F8  09A2               	comf	___aomod@divisor+2,f
  6609  01F9  09A3               	comf	___aomod@divisor+3,f
  6610  01FA  09A4               	comf	___aomod@divisor+4,f
  6611  01FB  09A5               	comf	___aomod@divisor+5,f
  6612  01FC  09A6               	comf	___aomod@divisor+6,f
  6613  01FD  09A7               	comf	___aomod@divisor+7,f
  6614  01FE  0AA0               	incf	___aomod@divisor,f
  6615  01FF  1D03               	skipz
  6616  0200  2A14               	goto	u156lld
  6617  0201  0AA1               	incf	___aomod@divisor+1,f
  6618  0202  1D03               	skipz
  6619  0203  2A14               	goto	u156lld
  6620  0204  0AA2               	incf	___aomod@divisor+2,f
  6621  0205  1D03               	skipz
  6622  0206  2A14               	goto	u156lld
  6623  0207  0AA3               	incf	___aomod@divisor+3,f
  6624  0208  1D03               	skipz
  6625  0209  2A14               	goto	u156lld
  6626  020A  0AA4               	incf	___aomod@divisor+4,f
  6627  020B  1D03               	skipz
  6628  020C  2A14               	goto	u156lld
  6629  020D  0AA5               	incf	___aomod@divisor+5,f
  6630  020E  1D03               	skipz
  6631  020F  2A14               	goto	u156lld
  6632  0210  0AA6               	incf	___aomod@divisor+6,f
  6633  0211  1D03               	skipz
  6634  0212  2A14               	goto	u156lld
  6635  0213  0AA7               	incf	___aomod@divisor+7,f
  6636  0214                     u156lld:
  6637  0214                     l2843:
  6638  0214  0140               	movlb	0	; select bank0
  6639  0215  0820               	movf	___aomod@divisor,w
  6640  0216  0421               	iorwf	___aomod@divisor+1,w
  6641  0217  0422               	iorwf	___aomod@divisor+2,w
  6642  0218  0423               	iorwf	___aomod@divisor+3,w
  6643  0219  0424               	iorwf	___aomod@divisor+4,w
  6644  021A  0425               	iorwf	___aomod@divisor+5,w
  6645  021B  0426               	iorwf	___aomod@divisor+6,w
  6646  021C  0427               	iorwf	___aomod@divisor+7,w
  6647  021D  1903               	skipnz
  6648  021E  2A20               	goto	u1571
  6649  021F  2A21               	goto	u1570
  6650  0220                     u1571:
  6651  0220  2A74               	goto	l2859
  6652  0221                     u1570:
  6653  0221                     l2845:
  6654  0221  01F1               	clrf	___aomod@counter
  6655  0222  0AF1               	incf	___aomod@counter,f
  6656  0223  2A30               	goto	l2851
  6657  0224                     l2847:
  6658  0224  35A0               	lslf	___aomod@divisor,f
  6659  0225  0DA1               	rlf	___aomod@divisor+1,f
  6660  0226  0DA2               	rlf	___aomod@divisor+2,f
  6661  0227  0DA3               	rlf	___aomod@divisor+3,f
  6662  0228  0DA4               	rlf	___aomod@divisor+4,f
  6663  0229  0DA5               	rlf	___aomod@divisor+5,f
  6664  022A  0DA6               	rlf	___aomod@divisor+6,f
  6665  022B  0DA7               	rlf	___aomod@divisor+7,f
  6666  022C                     l2849:
  6667  022C  3001               	movlw	1
  6668  022D  00F0               	movwf	??___aomod
  6669  022E  0870               	movf	??___aomod,w
  6670  022F  07F1               	addwf	___aomod@counter,f
  6671  0230                     l2851:
  6672  0230  1FA7               	btfss	___aomod@divisor+7,7
  6673  0231  2A33               	goto	u1581
  6674  0232  2A34               	goto	u1580
  6675  0233                     u1581:
  6676  0233  2A24               	goto	l2847
  6677  0234                     u1580:
  6678  0234                     l2853:
  6679  0234  0827               	movf	___aomod@divisor+7,w
  6680  0235  022F               	subwf	___aomod@dividend+7,w
  6681  0236  1D03               	skipz
  6682  0237  2A52               	goto	u1595
  6683  0238  0826               	movf	___aomod@divisor+6,w
  6684  0239  022E               	subwf	___aomod@dividend+6,w
  6685  023A  1D03               	skipz
  6686  023B  2A52               	goto	u1595
  6687  023C  0825               	movf	___aomod@divisor+5,w
  6688  023D  022D               	subwf	___aomod@dividend+5,w
  6689  023E  1D03               	skipz
  6690  023F  2A52               	goto	u1595
  6691  0240  0824               	movf	___aomod@divisor+4,w
  6692  0241  022C               	subwf	___aomod@dividend+4,w
  6693  0242  1D03               	skipz
  6694  0243  2A52               	goto	u1595
  6695  0244  0823               	movf	___aomod@divisor+3,w
  6696  0245  022B               	subwf	___aomod@dividend+3,w
  6697  0246  1D03               	skipz
  6698  0247  2A52               	goto	u1595
  6699  0248  0822               	movf	___aomod@divisor+2,w
  6700  0249  022A               	subwf	___aomod@dividend+2,w
  6701  024A  1D03               	skipz
  6702  024B  2A52               	goto	u1595
  6703  024C  0821               	movf	___aomod@divisor+1,w
  6704  024D  0229               	subwf	___aomod@dividend+1,w
  6705  024E  1D03               	skipz
  6706  024F  2A52               	goto	u1595
  6707  0250  0820               	movf	___aomod@divisor,w
  6708  0251  0228               	subwf	___aomod@dividend,w
  6709  0252                     u1595:
  6710  0252  1C03               	skipc
  6711  0253  2A55               	goto	u1591
  6712  0254  2A56               	goto	u1590
  6713  0255                     u1591:
  6714  0255  2A66               	goto	l2857
  6715  0256                     u1590:
  6716  0256                     l2855:
  6717  0256  0820               	movf	___aomod@divisor,w
  6718  0257  02A8               	subwf	___aomod@dividend,f
  6719  0258  0821               	movf	___aomod@divisor+1,w
  6720  0259  3BA9               	subwfb	___aomod@dividend+1,f
  6721  025A  0822               	movf	___aomod@divisor+2,w
  6722  025B  3BAA               	subwfb	___aomod@dividend+2,f
  6723  025C  0823               	movf	___aomod@divisor+3,w
  6724  025D  3BAB               	subwfb	___aomod@dividend+3,f
  6725  025E  0824               	movf	___aomod@divisor+4,w
  6726  025F  3BAC               	subwfb	___aomod@dividend+4,f
  6727  0260  0825               	movf	___aomod@divisor+5,w
  6728  0261  3BAD               	subwfb	___aomod@dividend+5,f
  6729  0262  0826               	movf	___aomod@divisor+6,w
  6730  0263  3BAE               	subwfb	___aomod@dividend+6,f
  6731  0264  0827               	movf	___aomod@divisor+7,w
  6732  0265  3BAF               	subwfb	___aomod@dividend+7,f
  6733  0266                     l2857:
  6734  0266  36A7               	lsrf	___aomod@divisor+7,f
  6735  0267  0CA6               	rrf	___aomod@divisor+6,f
  6736  0268  0CA5               	rrf	___aomod@divisor+5,f
  6737  0269  0CA4               	rrf	___aomod@divisor+4,f
  6738  026A  0CA3               	rrf	___aomod@divisor+3,f
  6739  026B  0CA2               	rrf	___aomod@divisor+2,f
  6740  026C  0CA1               	rrf	___aomod@divisor+1,f
  6741  026D  0CA0               	rrf	___aomod@divisor,f
  6742  026E  3001               	movlw	1
  6743  026F  02F1               	subwf	___aomod@counter,f
  6744  0270  1D03               	btfss	3,2
  6745  0271  2A73               	goto	u1601
  6746  0272  2A74               	goto	u1600
  6747  0273                     u1601:
  6748  0273  2A34               	goto	l2853
  6749  0274                     u1600:
  6750  0274                     l2859:
  6751  0274  0872               	movf	___aomod@sign,w
  6752  0275  1903               	btfsc	3,2
  6753  0276  2A78               	goto	u1611
  6754  0277  2A79               	goto	u1610
  6755  0278                     u1611:
  6756  0278  2A97               	goto	l1016
  6757  0279                     u1610:
  6758  0279                     l2861:
  6759  0279  09A8               	comf	___aomod@dividend,f
  6760  027A  09A9               	comf	___aomod@dividend+1,f
  6761  027B  09AA               	comf	___aomod@dividend+2,f
  6762  027C  09AB               	comf	___aomod@dividend+3,f
  6763  027D  09AC               	comf	___aomod@dividend+4,f
  6764  027E  09AD               	comf	___aomod@dividend+5,f
  6765  027F  09AE               	comf	___aomod@dividend+6,f
  6766  0280  09AF               	comf	___aomod@dividend+7,f
  6767  0281  0AA8               	incf	___aomod@dividend,f
  6768  0282  1D03               	skipz
  6769  0283  2A97               	goto	u162lld
  6770  0284  0AA9               	incf	___aomod@dividend+1,f
  6771  0285  1D03               	skipz
  6772  0286  2A97               	goto	u162lld
  6773  0287  0AAA               	incf	___aomod@dividend+2,f
  6774  0288  1D03               	skipz
  6775  0289  2A97               	goto	u162lld
  6776  028A  0AAB               	incf	___aomod@dividend+3,f
  6777  028B  1D03               	skipz
  6778  028C  2A97               	goto	u162lld
  6779  028D  0AAC               	incf	___aomod@dividend+4,f
  6780  028E  1D03               	skipz
  6781  028F  2A97               	goto	u162lld
  6782  0290  0AAD               	incf	___aomod@dividend+5,f
  6783  0291  1D03               	skipz
  6784  0292  2A97               	goto	u162lld
  6785  0293  0AAE               	incf	___aomod@dividend+6,f
  6786  0294  1D03               	skipz
  6787  0295  2A97               	goto	u162lld
  6788  0296  0AAF               	incf	___aomod@dividend+7,f
  6789  0297                     u162lld:
  6790  0297                     l1016:
  6791  0297  0140               	movlb	0	; select bank0
  6792  0298  0828               	movf	___aomod@dividend,w
  6793  0299  00A0               	movwf	?___aomod
  6794  029A  0829               	movf	___aomod@dividend+1,w
  6795  029B  00A1               	movwf	?___aomod+1
  6796  029C  082A               	movf	___aomod@dividend+2,w
  6797  029D  00A2               	movwf	?___aomod+2
  6798  029E  082B               	movf	___aomod@dividend+3,w
  6799  029F  00A3               	movwf	?___aomod+3
  6800  02A0  082C               	movf	___aomod@dividend+4,w
  6801  02A1  00A4               	movwf	?___aomod+4
  6802  02A2  082D               	movf	___aomod@dividend+5,w
  6803  02A3  00A5               	movwf	?___aomod+5
  6804  02A4  082E               	movf	___aomod@dividend+6,w
  6805  02A5  00A6               	movwf	?___aomod+6
  6806  02A6  082F               	movf	___aomod@dividend+7,w
  6807  02A7  00A7               	movwf	?___aomod+7
  6808  02A8                     l1017:
  6809  02A8  0008               	return
  6810  02A9                     __end_of___aomod:
  6811                           
  6812                           	psect	text17
  6813  02A9                     __ptext17:	
  6814 ;; *************** function ___aodiv *****************
  6815 ;; Defined at:
  6816 ;;		line 7 in file "D:\program files\Microchip\xc8\v2.31\pic\sources\c99\common\aodiv.c"
  6817 ;; Parameters:    Size  Location     Type
  6818 ;;  divisor         8    0[BANK0 ] long long 
  6819 ;;  dividend        8    8[BANK0 ] long long 
  6820 ;; Auto vars:     Size  Location     Type
  6821 ;;  quotient        8    3[COMMON] long long 
  6822 ;;  sign            1    2[COMMON] unsigned char 
  6823 ;;  counter         1    1[COMMON] unsigned char 
  6824 ;; Return value:  Size  Location     Type
  6825 ;;                  8    0[BANK0 ] long long 
  6826 ;; Registers used:
  6827 ;;		wreg, fsr1l, fsr1h, status,2, status,0
  6828 ;; Tracked objects:
  6829 ;;		On entry : 0/0
  6830 ;;		On exit  : 0/0
  6831 ;;		Unchanged: 0/0
  6832 ;; Data sizes:     COMMON   BANK0   BANK1   BANK2   BANK3   BANK4   BANK5   BANK6   BANK7   BANK8   BANK9  BANK10  BANK1
      +1  BANK12  BANK13  BANK14  BANK15  BANK16  BANK17  BANK18  BANK19  BANK20  BANK21  BANK22  BANK23  BANK24  BANK25
  6833 ;;      Params:         0      16       0       0       0       0       0       0       0       0       0       0       
      +0       0       0       0       0       0       0       0       0       0       0       0       0       0       0
  6834 ;;      Locals:        10       0       0       0       0       0       0       0       0       0       0       0       
      +0       0       0       0       0       0       0       0       0       0       0       0       0       0       0
  6835 ;;      Temps:          1       0       0       0       0       0       0       0       0       0       0       0       
      +0       0       0       0       0       0       0       0       0       0       0       0       0       0       0
  6836 ;;      Totals:        11      16       0       0       0       0       0       0       0       0       0       0       
      +0       0       0       0       0       0       0       0       0       0       0       0       0       0       0
  6837 ;;Total ram usage:       27 bytes
  6838 ;; Hardware stack levels used:    1
  6839 ;; This function calls:
  6840 ;;		Nothing
  6841 ;; This function is called by:
  6842 ;;		_dtoa
  6843 ;; This function uses a non-reentrant model
  6844 ;;
  6845                           
  6846                           
  6847                           ;psect for function ___aodiv
  6848  02A9                     ___aodiv:
  6849  02A9                     l2795:	
  6850                           ;incstack = 0
  6851                           ; Regs used in ___aodiv: [wreg+fsr1l+fsr1h+status,2+status,0]
  6852                           
  6853  02A9  01F2               	clrf	___aodiv@sign
  6854  02AA                     l2797:
  6855  02AA  3020               	movlw	low ___aodiv@divisor
  6856  02AB  0086               	movwf	6
  6857  02AC  3000               	movlw	high ___aodiv@divisor
  6858  02AD  0087               	movwf	7
  6859  02AE  3F47               	moviw [7]fsr1
  6860  02AF  00F0               	movwf	??___aodiv
  6861  02B0  1FF0               	btfss	??___aodiv,7
  6862  02B1  2AB3               	goto	u1421
  6863  02B2  2AB4               	goto	u1420
  6864  02B3                     u1421:
  6865  02B3  2AD5               	goto	l2801
  6866  02B4                     u1420:
  6867  02B4                     l2799:
  6868  02B4  0140               	movlb	0	; select bank0
  6869  02B5  09A0               	comf	___aodiv@divisor,f
  6870  02B6  09A1               	comf	___aodiv@divisor+1,f
  6871  02B7  09A2               	comf	___aodiv@divisor+2,f
  6872  02B8  09A3               	comf	___aodiv@divisor+3,f
  6873  02B9  09A4               	comf	___aodiv@divisor+4,f
  6874  02BA  09A5               	comf	___aodiv@divisor+5,f
  6875  02BB  09A6               	comf	___aodiv@divisor+6,f
  6876  02BC  09A7               	comf	___aodiv@divisor+7,f
  6877  02BD  0AA0               	incf	___aodiv@divisor,f
  6878  02BE  1D03               	skipz
  6879  02BF  2AD3               	goto	u143lld
  6880  02C0  0AA1               	incf	___aodiv@divisor+1,f
  6881  02C1  1D03               	skipz
  6882  02C2  2AD3               	goto	u143lld
  6883  02C3  0AA2               	incf	___aodiv@divisor+2,f
  6884  02C4  1D03               	skipz
  6885  02C5  2AD3               	goto	u143lld
  6886  02C6  0AA3               	incf	___aodiv@divisor+3,f
  6887  02C7  1D03               	skipz
  6888  02C8  2AD3               	goto	u143lld
  6889  02C9  0AA4               	incf	___aodiv@divisor+4,f
  6890  02CA  1D03               	skipz
  6891  02CB  2AD3               	goto	u143lld
  6892  02CC  0AA5               	incf	___aodiv@divisor+5,f
  6893  02CD  1D03               	skipz
  6894  02CE  2AD3               	goto	u143lld
  6895  02CF  0AA6               	incf	___aodiv@divisor+6,f
  6896  02D0  1D03               	skipz
  6897  02D1  2AD3               	goto	u143lld
  6898  02D2  0AA7               	incf	___aodiv@divisor+7,f
  6899  02D3                     u143lld:
  6900  02D3  01F2               	clrf	___aodiv@sign
  6901  02D4  0AF2               	incf	___aodiv@sign,f
  6902  02D5                     l2801:
  6903  02D5  3028               	movlw	low ___aodiv@dividend
  6904  02D6  0086               	movwf	6
  6905  02D7  3000               	movlw	high ___aodiv@dividend
  6906  02D8  0087               	movwf	7
  6907  02D9  3F47               	moviw [7]fsr1
  6908  02DA  00F0               	movwf	??___aodiv
  6909  02DB  1FF0               	btfss	??___aodiv,7
  6910  02DC  2ADE               	goto	u1441
  6911  02DD  2ADF               	goto	u1440
  6912  02DE                     u1441:
  6913  02DE  2B02               	goto	l2807
  6914  02DF                     u1440:
  6915  02DF                     l2803:
  6916  02DF  0140               	movlb	0	; select bank0
  6917  02E0  09A8               	comf	___aodiv@dividend,f
  6918  02E1  09A9               	comf	___aodiv@dividend+1,f
  6919  02E2  09AA               	comf	___aodiv@dividend+2,f
  6920  02E3  09AB               	comf	___aodiv@dividend+3,f
  6921  02E4  09AC               	comf	___aodiv@dividend+4,f
  6922  02E5  09AD               	comf	___aodiv@dividend+5,f
  6923  02E6  09AE               	comf	___aodiv@dividend+6,f
  6924  02E7  09AF               	comf	___aodiv@dividend+7,f
  6925  02E8  0AA8               	incf	___aodiv@dividend,f
  6926  02E9  1D03               	skipz
  6927  02EA  2AFE               	goto	u145lld
  6928  02EB  0AA9               	incf	___aodiv@dividend+1,f
  6929  02EC  1D03               	skipz
  6930  02ED  2AFE               	goto	u145lld
  6931  02EE  0AAA               	incf	___aodiv@dividend+2,f
  6932  02EF  1D03               	skipz
  6933  02F0  2AFE               	goto	u145lld
  6934  02F1  0AAB               	incf	___aodiv@dividend+3,f
  6935  02F2  1D03               	skipz
  6936  02F3  2AFE               	goto	u145lld
  6937  02F4  0AAC               	incf	___aodiv@dividend+4,f
  6938  02F5  1D03               	skipz
  6939  02F6  2AFE               	goto	u145lld
  6940  02F7  0AAD               	incf	___aodiv@dividend+5,f
  6941  02F8  1D03               	skipz
  6942  02F9  2AFE               	goto	u145lld
  6943  02FA  0AAE               	incf	___aodiv@dividend+6,f
  6944  02FB  1D03               	skipz
  6945  02FC  2AFE               	goto	u145lld
  6946  02FD  0AAF               	incf	___aodiv@dividend+7,f
  6947  02FE                     u145lld:
  6948  02FE                     l2805:
  6949  02FE  3001               	movlw	1
  6950  02FF  00F0               	movwf	??___aodiv
  6951  0300  0870               	movf	??___aodiv,w
  6952  0301  06F2               	xorwf	___aodiv@sign,f
  6953  0302                     l2807:
  6954  0302  3073               	movlw	low ___aodiv@quotient
  6955  0303  0086               	movwf	6
  6956  0304  3000               	movlw	high ___aodiv@quotient
  6957  0305  0087               	movwf	7
  6958  0306  3008               	movlw	8
  6959  0307  00F0               	movwf	??___aodiv
  6960  0308  3000               	movlw	0
  6961  0309                     u1460:
  6962  0309  001E               	movwi fsr1++
  6963  030A  0BF0               	decfsz	??___aodiv,f
  6964  030B  2B09               	goto	u1460
  6965  030C                     l2809:
  6966  030C  0140               	movlb	0	; select bank0
  6967  030D  0820               	movf	___aodiv@divisor,w
  6968  030E  0421               	iorwf	___aodiv@divisor+1,w
  6969  030F  0422               	iorwf	___aodiv@divisor+2,w
  6970  0310  0423               	iorwf	___aodiv@divisor+3,w
  6971  0311  0424               	iorwf	___aodiv@divisor+4,w
  6972  0312  0425               	iorwf	___aodiv@divisor+5,w
  6973  0313  0426               	iorwf	___aodiv@divisor+6,w
  6974  0314  0427               	iorwf	___aodiv@divisor+7,w
  6975  0315  1903               	skipnz
  6976  0316  2B18               	goto	u1471
  6977  0317  2B19               	goto	u1470
  6978  0318                     u1471:
  6979  0318  2B75               	goto	l2829
  6980  0319                     u1470:
  6981  0319                     l2811:
  6982  0319  01F1               	clrf	___aodiv@counter
  6983  031A  0AF1               	incf	___aodiv@counter,f
  6984  031B  2B28               	goto	l2817
  6985  031C                     l2813:
  6986  031C  35A0               	lslf	___aodiv@divisor,f
  6987  031D  0DA1               	rlf	___aodiv@divisor+1,f
  6988  031E  0DA2               	rlf	___aodiv@divisor+2,f
  6989  031F  0DA3               	rlf	___aodiv@divisor+3,f
  6990  0320  0DA4               	rlf	___aodiv@divisor+4,f
  6991  0321  0DA5               	rlf	___aodiv@divisor+5,f
  6992  0322  0DA6               	rlf	___aodiv@divisor+6,f
  6993  0323  0DA7               	rlf	___aodiv@divisor+7,f
  6994  0324                     l2815:
  6995  0324  3001               	movlw	1
  6996  0325  00F0               	movwf	??___aodiv
  6997  0326  0870               	movf	??___aodiv,w
  6998  0327  07F1               	addwf	___aodiv@counter,f
  6999  0328                     l2817:
  7000  0328  1FA7               	btfss	___aodiv@divisor+7,7
  7001  0329  2B2B               	goto	u1481
  7002  032A  2B2C               	goto	u1480
  7003  032B                     u1481:
  7004  032B  2B1C               	goto	l2813
  7005  032C                     u1480:
  7006  032C                     l2819:
  7007  032C  35F3               	lslf	___aodiv@quotient,f
  7008  032D  0DF4               	rlf	___aodiv@quotient+1,f
  7009  032E  0DF5               	rlf	___aodiv@quotient+2,f
  7010  032F  0DF6               	rlf	___aodiv@quotient+3,f
  7011  0330  0DF7               	rlf	___aodiv@quotient+4,f
  7012  0331  0DF8               	rlf	___aodiv@quotient+5,f
  7013  0332  0DF9               	rlf	___aodiv@quotient+6,f
  7014  0333  0DFA               	rlf	___aodiv@quotient+7,f
  7015  0334                     l2821:
  7016  0334  0827               	movf	___aodiv@divisor+7,w
  7017  0335  022F               	subwf	___aodiv@dividend+7,w
  7018  0336  1D03               	skipz
  7019  0337  2B52               	goto	u1495
  7020  0338  0826               	movf	___aodiv@divisor+6,w
  7021  0339  022E               	subwf	___aodiv@dividend+6,w
  7022  033A  1D03               	skipz
  7023  033B  2B52               	goto	u1495
  7024  033C  0825               	movf	___aodiv@divisor+5,w
  7025  033D  022D               	subwf	___aodiv@dividend+5,w
  7026  033E  1D03               	skipz
  7027  033F  2B52               	goto	u1495
  7028  0340  0824               	movf	___aodiv@divisor+4,w
  7029  0341  022C               	subwf	___aodiv@dividend+4,w
  7030  0342  1D03               	skipz
  7031  0343  2B52               	goto	u1495
  7032  0344  0823               	movf	___aodiv@divisor+3,w
  7033  0345  022B               	subwf	___aodiv@dividend+3,w
  7034  0346  1D03               	skipz
  7035  0347  2B52               	goto	u1495
  7036  0348  0822               	movf	___aodiv@divisor+2,w
  7037  0349  022A               	subwf	___aodiv@dividend+2,w
  7038  034A  1D03               	skipz
  7039  034B  2B52               	goto	u1495
  7040  034C  0821               	movf	___aodiv@divisor+1,w
  7041  034D  0229               	subwf	___aodiv@dividend+1,w
  7042  034E  1D03               	skipz
  7043  034F  2B52               	goto	u1495
  7044  0350  0820               	movf	___aodiv@divisor,w
  7045  0351  0228               	subwf	___aodiv@dividend,w
  7046  0352                     u1495:
  7047  0352  1C03               	skipc
  7048  0353  2B55               	goto	u1491
  7049  0354  2B56               	goto	u1490
  7050  0355                     u1491:
  7051  0355  2B67               	goto	l2827
  7052  0356                     u1490:
  7053  0356                     l2823:
  7054  0356  0820               	movf	___aodiv@divisor,w
  7055  0357  02A8               	subwf	___aodiv@dividend,f
  7056  0358  0821               	movf	___aodiv@divisor+1,w
  7057  0359  3BA9               	subwfb	___aodiv@dividend+1,f
  7058  035A  0822               	movf	___aodiv@divisor+2,w
  7059  035B  3BAA               	subwfb	___aodiv@dividend+2,f
  7060  035C  0823               	movf	___aodiv@divisor+3,w
  7061  035D  3BAB               	subwfb	___aodiv@dividend+3,f
  7062  035E  0824               	movf	___aodiv@divisor+4,w
  7063  035F  3BAC               	subwfb	___aodiv@dividend+4,f
  7064  0360  0825               	movf	___aodiv@divisor+5,w
  7065  0361  3BAD               	subwfb	___aodiv@dividend+5,f
  7066  0362  0826               	movf	___aodiv@divisor+6,w
  7067  0363  3BAE               	subwfb	___aodiv@dividend+6,f
  7068  0364  0827               	movf	___aodiv@divisor+7,w
  7069  0365  3BAF               	subwfb	___aodiv@dividend+7,f
  7070  0366                     l2825:
  7071  0366  1473               	bsf	___aodiv@quotient,0
  7072  0367                     l2827:
  7073  0367  36A7               	lsrf	___aodiv@divisor+7,f
  7074  0368  0CA6               	rrf	___aodiv@divisor+6,f
  7075  0369  0CA5               	rrf	___aodiv@divisor+5,f
  7076  036A  0CA4               	rrf	___aodiv@divisor+4,f
  7077  036B  0CA3               	rrf	___aodiv@divisor+3,f
  7078  036C  0CA2               	rrf	___aodiv@divisor+2,f
  7079  036D  0CA1               	rrf	___aodiv@divisor+1,f
  7080  036E  0CA0               	rrf	___aodiv@divisor,f
  7081  036F  3001               	movlw	1
  7082  0370  02F1               	subwf	___aodiv@counter,f
  7083  0371  1D03               	btfss	3,2
  7084  0372  2B74               	goto	u1501
  7085  0373  2B75               	goto	u1500
  7086  0374                     u1501:
  7087  0374  2B2C               	goto	l2819
  7088  0375                     u1500:
  7089  0375                     l2829:
  7090  0375  0872               	movf	___aodiv@sign,w
  7091  0376  1903               	btfsc	3,2
  7092  0377  2B79               	goto	u1511
  7093  0378  2B7A               	goto	u1510
  7094  0379                     u1511:
  7095  0379  2B98               	goto	l1003
  7096  037A                     u1510:
  7097  037A                     l2831:
  7098  037A  09F3               	comf	___aodiv@quotient,f
  7099  037B  09F4               	comf	___aodiv@quotient+1,f
  7100  037C  09F5               	comf	___aodiv@quotient+2,f
  7101  037D  09F6               	comf	___aodiv@quotient+3,f
  7102  037E  09F7               	comf	___aodiv@quotient+4,f
  7103  037F  09F8               	comf	___aodiv@quotient+5,f
  7104  0380  09F9               	comf	___aodiv@quotient+6,f
  7105  0381  09FA               	comf	___aodiv@quotient+7,f
  7106  0382  0AF3               	incf	___aodiv@quotient,f
  7107  0383  1D03               	skipz
  7108  0384  2B98               	goto	u152lld
  7109  0385  0AF4               	incf	___aodiv@quotient+1,f
  7110  0386  1D03               	skipz
  7111  0387  2B98               	goto	u152lld
  7112  0388  0AF5               	incf	___aodiv@quotient+2,f
  7113  0389  1D03               	skipz
  7114  038A  2B98               	goto	u152lld
  7115  038B  0AF6               	incf	___aodiv@quotient+3,f
  7116  038C  1D03               	skipz
  7117  038D  2B98               	goto	u152lld
  7118  038E  0AF7               	incf	___aodiv@quotient+4,f
  7119  038F  1D03               	skipz
  7120  0390  2B98               	goto	u152lld
  7121  0391  0AF8               	incf	___aodiv@quotient+5,f
  7122  0392  1D03               	skipz
  7123  0393  2B98               	goto	u152lld
  7124  0394  0AF9               	incf	___aodiv@quotient+6,f
  7125  0395  1D03               	skipz
  7126  0396  2B98               	goto	u152lld
  7127  0397  0AFA               	incf	___aodiv@quotient+7,f
  7128  0398                     u152lld:
  7129  0398                     l1003:
  7130  0398  0873               	movf	___aodiv@quotient,w
  7131  0399  0140               	movlb	0	; select bank0
  7132  039A  00A0               	movwf	?___aodiv
  7133  039B  0874               	movf	___aodiv@quotient+1,w
  7134  039C  00A1               	movwf	?___aodiv+1
  7135  039D  0875               	movf	___aodiv@quotient+2,w
  7136  039E  00A2               	movwf	?___aodiv+2
  7137  039F  0876               	movf	___aodiv@quotient+3,w
  7138  03A0  00A3               	movwf	?___aodiv+3
  7139  03A1  0877               	movf	___aodiv@quotient+4,w
  7140  03A2  00A4               	movwf	?___aodiv+4
  7141  03A3  0878               	movf	___aodiv@quotient+5,w
  7142  03A4  00A5               	movwf	?___aodiv+5
  7143  03A5  0879               	movf	___aodiv@quotient+6,w
  7144  03A6  00A6               	movwf	?___aodiv+6
  7145  03A7  087A               	movf	___aodiv@quotient+7,w
  7146  03A8  00A7               	movwf	?___aodiv+7
  7147  03A9                     l1004:
  7148  03A9  0008               	return
  7149  03AA                     __end_of___aodiv:
  7150                           
  7151                           	psect	text18
  7152  0E40                     __ptext18:	
  7153 ;; *************** function _SYSTEM_Initialize *****************
  7154 ;; Defined at:
  7155 ;;		line 50 in file "mcc_generated_files/mcc.c"
  7156 ;; Parameters:    Size  Location     Type
  7157 ;;		None
  7158 ;; Auto vars:     Size  Location     Type
  7159 ;;		None
  7160 ;; Return value:  Size  Location     Type
  7161 ;;                  1    wreg      void 
  7162 ;; Registers used:
  7163 ;;		wreg, status,2, status,0, pclath, cstack
  7164 ;; Tracked objects:
  7165 ;;		On entry : 0/0
  7166 ;;		On exit  : 0/0
  7167 ;;		Unchanged: 0/0
  7168 ;; Data sizes:     COMMON   BANK0   BANK1   BANK2   BANK3   BANK4   BANK5   BANK6   BANK7   BANK8   BANK9  BANK10  BANK1
      +1  BANK12  BANK13  BANK14  BANK15  BANK16  BANK17  BANK18  BANK19  BANK20  BANK21  BANK22  BANK23  BANK24  BANK25
  7169 ;;      Params:         0       0       0       0       0       0       0       0       0       0       0       0       
      +0       0       0       0       0       0       0       0       0       0       0       0       0       0       0
  7170 ;;      Locals:         0       0       0       0       0       0       0       0       0       0       0       0       
      +0       0       0       0       0       0       0       0       0       0       0       0       0       0       0
  7171 ;;      Temps:          0       0       0       0       0       0       0       0       0       0       0       0       
      +0       0       0       0       0       0       0       0       0       0       0       0       0       0       0
  7172 ;;      Totals:         0       0       0       0       0       0       0       0       0       0       0       0       
      +0       0       0       0       0       0       0       0       0       0       0       0       0       0       0
  7173 ;;Total ram usage:        0 bytes
  7174 ;; Hardware stack levels used:    1
  7175 ;; Hardware stack levels required when called:    2
  7176 ;; This function calls:
  7177 ;;		_EUSART1_Initialize
  7178 ;;		_I2C1_Initialize
  7179 ;;		_OSCILLATOR_Initialize
  7180 ;;		_PIN_MANAGER_Initialize
  7181 ;;		_PMD_Initialize
  7182 ;; This function is called by:
  7183 ;;		_main
  7184 ;; This function uses a non-reentrant model
  7185 ;;
  7186                           
  7187                           
  7188                           ;psect for function _SYSTEM_Initialize
  7189  0E40                     _SYSTEM_Initialize:
  7190  0E40                     l3421:	
  7191                           ;incstack = 0
  7192                           ; Regs used in _SYSTEM_Initialize: [wreg+status,2+status,0+pclath+cstack]
  7193                           
  7194                           
  7195                           ;mcc_generated_files/mcc.c: 52:     PMD_Initialize();
  7196  0E40  318D  25FC  318E   	fcall	_PMD_Initialize
  7197  0E43                     l3423:
  7198                           
  7199                           ;mcc_generated_files/mcc.c: 53:     I2C1_Initialize();
  7200  0E43  318E  2604  318E   	fcall	_I2C1_Initialize
  7201  0E46                     l3425:
  7202                           
  7203                           ;mcc_generated_files/mcc.c: 54:     PIN_MANAGER_Initialize();
  7204  0E46  3181  2118  318E   	fcall	_PIN_MANAGER_Initialize
  7205  0E49                     l3427:
  7206                           
  7207                           ;mcc_generated_files/mcc.c: 55:     OSCILLATOR_Initialize();
  7208  0E49  318E  260E  318E   	fcall	_OSCILLATOR_Initialize
  7209  0E4C                     l3429:
  7210                           
  7211                           ;mcc_generated_files/mcc.c: 56:     EUSART1_Initialize();
  7212  0E4C  318F  2770  318E   	fcall	_EUSART1_Initialize
  7213  0E4F                     l689:
  7214  0E4F  0008               	return
  7215  0E50                     __end_of_SYSTEM_Initialize:
  7216                           
  7217                           	psect	text19
  7218  0DFC                     __ptext19:	
  7219 ;; *************** function _PMD_Initialize *****************
  7220 ;; Defined at:
  7221 ;;		line 75 in file "mcc_generated_files/mcc.c"
  7222 ;; Parameters:    Size  Location     Type
  7223 ;;		None
  7224 ;; Auto vars:     Size  Location     Type
  7225 ;;		None
  7226 ;; Return value:  Size  Location     Type
  7227 ;;                  1    wreg      void 
  7228 ;; Registers used:
  7229 ;;		status,2
  7230 ;; Tracked objects:
  7231 ;;		On entry : 0/0
  7232 ;;		On exit  : 0/0
  7233 ;;		Unchanged: 0/0
  7234 ;; Data sizes:     COMMON   BANK0   BANK1   BANK2   BANK3   BANK4   BANK5   BANK6   BANK7   BANK8   BANK9  BANK10  BANK1
      +1  BANK12  BANK13  BANK14  BANK15  BANK16  BANK17  BANK18  BANK19  BANK20  BANK21  BANK22  BANK23  BANK24  BANK25
  7235 ;;      Params:         0       0       0       0       0       0       0       0       0       0       0       0       
      +0       0       0       0       0       0       0       0       0       0       0       0       0       0       0
  7236 ;;      Locals:         0       0       0       0       0       0       0       0       0       0       0       0       
      +0       0       0       0       0       0       0       0       0       0       0       0       0       0       0
  7237 ;;      Temps:          0       0       0       0       0       0       0       0       0       0       0       0       
      +0       0       0       0       0       0       0       0       0       0       0       0       0       0       0
  7238 ;;      Totals:         0       0       0       0       0       0       0       0       0       0       0       0       
      +0       0       0       0       0       0       0       0       0       0       0       0       0       0       0
  7239 ;;Total ram usage:        0 bytes
  7240 ;; Hardware stack levels used:    1
  7241 ;; This function calls:
  7242 ;;		Nothing
  7243 ;; This function is called by:
  7244 ;;		_SYSTEM_Initialize
  7245 ;; This function uses a non-reentrant model
  7246 ;;
  7247                           
  7248                           
  7249                           ;psect for function _PMD_Initialize
  7250  0DFC                     _PMD_Initialize:
  7251  0DFC                     l3291:	
  7252                           ;incstack = 0
  7253                           ; Regs used in _PMD_Initialize: [status,2]
  7254                           
  7255                           
  7256                           ;mcc_generated_files/mcc.c: 78:     PMD0 = 0x00;
  7257  0DFC  014F               	movlb	15	; select bank15
  7258  0DFD  0196               	clrf	22	;volatile
  7259                           
  7260                           ;mcc_generated_files/mcc.c: 80:     PMD1 = 0x00;
  7261  0DFE  0197               	clrf	23	;volatile
  7262                           
  7263                           ;mcc_generated_files/mcc.c: 82:     PMD2 = 0x00;
  7264  0DFF  0198               	clrf	24	;volatile
  7265                           
  7266                           ;mcc_generated_files/mcc.c: 84:     PMD3 = 0x00;
  7267  0E00  0199               	clrf	25	;volatile
  7268                           
  7269                           ;mcc_generated_files/mcc.c: 86:     PMD4 = 0x00;
  7270  0E01  019A               	clrf	26	;volatile
  7271                           
  7272                           ;mcc_generated_files/mcc.c: 88:     PMD5 = 0x00;
  7273  0E02  019B               	clrf	27	;volatile
  7274  0E03                     l695:
  7275  0E03  0008               	return
  7276  0E04                     __end_of_PMD_Initialize:
  7277                           
  7278                           	psect	text20
  7279  0118                     __ptext20:	
  7280 ;; *************** function _PIN_MANAGER_Initialize *****************
  7281 ;; Defined at:
  7282 ;;		line 55 in file "mcc_generated_files/pin_manager.c"
  7283 ;; Parameters:    Size  Location     Type
  7284 ;;		None
  7285 ;; Auto vars:     Size  Location     Type
  7286 ;;		None
  7287 ;; Return value:  Size  Location     Type
  7288 ;;                  1    wreg      void 
  7289 ;; Registers used:
  7290 ;;		wreg, status,2
  7291 ;; Tracked objects:
  7292 ;;		On entry : 0/0
  7293 ;;		On exit  : 0/0
  7294 ;;		Unchanged: 0/0
  7295 ;; Data sizes:     COMMON   BANK0   BANK1   BANK2   BANK3   BANK4   BANK5   BANK6   BANK7   BANK8   BANK9  BANK10  BANK1
      +1  BANK12  BANK13  BANK14  BANK15  BANK16  BANK17  BANK18  BANK19  BANK20  BANK21  BANK22  BANK23  BANK24  BANK25
  7296 ;;      Params:         0       0       0       0       0       0       0       0       0       0       0       0       
      +0       0       0       0       0       0       0       0       0       0       0       0       0       0       0
  7297 ;;      Locals:         0       0       0       0       0       0       0       0       0       0       0       0       
      +0       0       0       0       0       0       0       0       0       0       0       0       0       0       0
  7298 ;;      Temps:          0       0       0       0       0       0       0       0       0       0       0       0       
      +0       0       0       0       0       0       0       0       0       0       0       0       0       0       0
  7299 ;;      Totals:         0       0       0       0       0       0       0       0       0       0       0       0       
      +0       0       0       0       0       0       0       0       0       0       0       0       0       0       0
  7300 ;;Total ram usage:        0 bytes
  7301 ;; Hardware stack levels used:    1
  7302 ;; This function calls:
  7303 ;;		Nothing
  7304 ;; This function is called by:
  7305 ;;		_SYSTEM_Initialize
  7306 ;; This function uses a non-reentrant model
  7307 ;;
  7308                           
  7309                           
  7310                           ;psect for function _PIN_MANAGER_Initialize
  7311  0118                     _PIN_MANAGER_Initialize:
  7312  0118                     l3237:	
  7313                           ;incstack = 0
  7314                           ; Regs used in _PIN_MANAGER_Initialize: [wreg+status,2]
  7315                           
  7316                           
  7317                           ;mcc_generated_files/pin_manager.c: 60:     LATE = 0x00;
  7318  0118  0140               	movlb	0	; select bank0
  7319  0119  019C               	clrf	28	;volatile
  7320  011A                     l3239:
  7321                           
  7322                           ;mcc_generated_files/pin_manager.c: 61:     LATD = 0x08;
  7323  011A  3008               	movlw	8
  7324  011B  009B               	movwf	27	;volatile
  7325  011C                     l3241:
  7326                           
  7327                           ;mcc_generated_files/pin_manager.c: 62:     LATA = 0x00;
  7328  011C  0198               	clrf	24	;volatile
  7329                           
  7330                           ;mcc_generated_files/pin_manager.c: 63:     LATB = 0x08;
  7331  011D  3008               	movlw	8
  7332  011E  0099               	movwf	25	;volatile
  7333                           
  7334                           ;mcc_generated_files/pin_manager.c: 64:     LATC = 0x18;
  7335  011F  3018               	movlw	24
  7336  0120  009A               	movwf	26	;volatile
  7337                           
  7338                           ;mcc_generated_files/pin_manager.c: 69:     TRISE = 0x09;
  7339  0121  3009               	movlw	9
  7340  0122  0096               	movwf	22	;volatile
  7341                           
  7342                           ;mcc_generated_files/pin_manager.c: 70:     TRISA = 0xE4;
  7343  0123  30E4               	movlw	228
  7344  0124  0092               	movwf	18	;volatile
  7345                           
  7346                           ;mcc_generated_files/pin_manager.c: 71:     TRISB = 0xF8;
  7347  0125  30F8               	movlw	248
  7348  0126  0093               	movwf	19	;volatile
  7349                           
  7350                           ;mcc_generated_files/pin_manager.c: 72:     TRISC = 0xFB;
  7351  0127  30FB               	movlw	251
  7352  0128  0094               	movwf	20	;volatile
  7353                           
  7354                           ;mcc_generated_files/pin_manager.c: 73:     TRISD = 0x77;
  7355  0129  3077               	movlw	119
  7356  012A  0095               	movwf	21	;volatile
  7357                           
  7358                           ;mcc_generated_files/pin_manager.c: 78:     ANSELD = 0x77;
  7359  012B  3077               	movlw	119
  7360  012C  017E               	movlb	62	; select bank62
  7361  012D  00D9               	movwf	89	;volatile
  7362                           
  7363                           ;mcc_generated_files/pin_manager.c: 79:     ANSELC = 0xE1;
  7364  012E  30E1               	movlw	225
  7365  012F  00CE               	movwf	78	;volatile
  7366                           
  7367                           ;mcc_generated_files/pin_manager.c: 80:     ANSELB = 0xF0;
  7368  0130  30F0               	movlw	240
  7369  0131  00C3               	movwf	67	;volatile
  7370                           
  7371                           ;mcc_generated_files/pin_manager.c: 81:     ANSELE = 0x01;
  7372  0132  3001               	movlw	1
  7373  0133  00E4               	movwf	100	;volatile
  7374                           
  7375                           ;mcc_generated_files/pin_manager.c: 82:     ANSELA = 0xE4;
  7376  0134  30E4               	movlw	228
  7377  0135  00B8               	movwf	56	;volatile
  7378  0136                     l3243:
  7379                           
  7380                           ;mcc_generated_files/pin_manager.c: 87:     WPUD = 0x00;
  7381  0136  01DA               	clrf	90	;volatile
  7382  0137                     l3245:
  7383                           
  7384                           ;mcc_generated_files/pin_manager.c: 88:     WPUE = 0x00;
  7385  0137  01E5               	clrf	101	;volatile
  7386  0138                     l3247:
  7387                           
  7388                           ;mcc_generated_files/pin_manager.c: 89:     WPUB = 0x00;
  7389  0138  01C4               	clrf	68	;volatile
  7390  0139                     l3249:
  7391                           
  7392                           ;mcc_generated_files/pin_manager.c: 90:     WPUA = 0x00;
  7393  0139  01B9               	clrf	57	;volatile
  7394                           
  7395                           ;mcc_generated_files/pin_manager.c: 91:     WPUC = 0x18;
  7396  013A  3018               	movlw	24
  7397  013B  00CF               	movwf	79	;volatile
  7398  013C                     l3251:
  7399                           
  7400                           ;mcc_generated_files/pin_manager.c: 96:     ODCONE = 0x00;
  7401  013C  01E6               	clrf	102	;volatile
  7402  013D                     l3253:
  7403                           
  7404                           ;mcc_generated_files/pin_manager.c: 97:     ODCONA = 0x00;
  7405  013D  01BA               	clrf	58	;volatile
  7406  013E                     l3255:
  7407                           
  7408                           ;mcc_generated_files/pin_manager.c: 98:     ODCONB = 0x00;
  7409  013E  01C5               	clrf	69	;volatile
  7410  013F                     l3257:
  7411                           
  7412                           ;mcc_generated_files/pin_manager.c: 99:     ODCONC = 0x18;
  7413  013F  3018               	movlw	24
  7414  0140  00D0               	movwf	80	;volatile
  7415                           
  7416                           ;mcc_generated_files/pin_manager.c: 100:     ODCOND = 0x00;
  7417  0141  01DB               	clrf	91	;volatile
  7418  0142                     l3259:
  7419                           
  7420                           ;mcc_generated_files/pin_manager.c: 105:     SLRCONA = 0xFF;
  7421  0142  30FF               	movlw	255
  7422  0143  00BB               	movwf	59	;volatile
  7423  0144                     l3261:
  7424                           
  7425                           ;mcc_generated_files/pin_manager.c: 106:     SLRCONB = 0xFF;
  7426  0144  30FF               	movlw	255
  7427  0145  00C6               	movwf	70	;volatile
  7428  0146                     l3263:
  7429                           
  7430                           ;mcc_generated_files/pin_manager.c: 107:     SLRCONC = 0xFF;
  7431  0146  30FF               	movlw	255
  7432  0147  00D1               	movwf	81	;volatile
  7433  0148                     l3265:
  7434                           
  7435                           ;mcc_generated_files/pin_manager.c: 108:     SLRCOND = 0xFF;
  7436  0148  30FF               	movlw	255
  7437  0149  00DC               	movwf	92	;volatile
  7438  014A                     l3267:
  7439                           
  7440                           ;mcc_generated_files/pin_manager.c: 109:     SLRCONE = 0x07;
  7441  014A  3007               	movlw	7
  7442  014B  00E7               	movwf	103	;volatile
  7443  014C                     l3269:
  7444                           
  7445                           ;mcc_generated_files/pin_manager.c: 114:     INLVLA = 0xFF;
  7446  014C  30FF               	movlw	255
  7447  014D  00BC               	movwf	60	;volatile
  7448  014E                     l3271:
  7449                           
  7450                           ;mcc_generated_files/pin_manager.c: 115:     INLVLB = 0xFF;
  7451  014E  30FF               	movlw	255
  7452  014F  00C7               	movwf	71	;volatile
  7453  0150                     l3273:
  7454                           
  7455                           ;mcc_generated_files/pin_manager.c: 116:     INLVLC = 0xFF;
  7456  0150  30FF               	movlw	255
  7457  0151  00D2               	movwf	82	;volatile
  7458  0152                     l3275:
  7459                           
  7460                           ;mcc_generated_files/pin_manager.c: 117:     INLVLD = 0xFF;
  7461  0152  30FF               	movlw	255
  7462  0153  00DD               	movwf	93	;volatile
  7463  0154                     l3277:
  7464                           
  7465                           ;mcc_generated_files/pin_manager.c: 118:     INLVLE = 0x0F;
  7466  0154  300F               	movlw	15
  7467  0155  00E8               	movwf	104	;volatile
  7468  0156                     l3279:
  7469                           
  7470                           ;mcc_generated_files/pin_manager.c: 127:     SSP1CLKPPS = 0x13;
  7471  0156  3013               	movlw	19
  7472  0157  017D               	movlb	61	; select bank61
  7473  0158  00C5               	movwf	69	;volatile
  7474  0159                     l3281:
  7475                           
  7476                           ;mcc_generated_files/pin_manager.c: 128:     RC3PPS = 0x15;
  7477  0159  3015               	movlw	21
  7478  015A  017E               	movlb	62	; select bank62
  7479  015B  00A3               	movwf	35	;volatile
  7480  015C                     l3283:
  7481                           
  7482                           ;mcc_generated_files/pin_manager.c: 129:     RC4PPS = 0x16;
  7483  015C  3016               	movlw	22
  7484  015D  00A4               	movwf	36	;volatile
  7485  015E                     l3285:
  7486                           
  7487                           ;mcc_generated_files/pin_manager.c: 130:     RC2PPS = 0x0F;
  7488  015E  300F               	movlw	15
  7489  015F  00A2               	movwf	34	;volatile
  7490  0160                     l3287:
  7491                           
  7492                           ;mcc_generated_files/pin_manager.c: 131:     SSP1DATPPS = 0x14;
  7493  0160  3014               	movlw	20
  7494  0161  017D               	movlb	61	; select bank61
  7495  0162  00C6               	movwf	70	;volatile
  7496  0163                     l3289:
  7497                           
  7498                           ;mcc_generated_files/pin_manager.c: 132:     RX1DTPPS = 0x11;
  7499  0163  3011               	movlw	17
  7500  0164  00CB               	movwf	75	;volatile
  7501  0165                     l647:
  7502  0165  0008               	return
  7503  0166                     __end_of_PIN_MANAGER_Initialize:
  7504                           
  7505                           	psect	text21
  7506  0E0E                     __ptext21:	
  7507 ;; *************** function _OSCILLATOR_Initialize *****************
  7508 ;; Defined at:
  7509 ;;		line 59 in file "mcc_generated_files/mcc.c"
  7510 ;; Parameters:    Size  Location     Type
  7511 ;;		None
  7512 ;; Auto vars:     Size  Location     Type
  7513 ;;		None
  7514 ;; Return value:  Size  Location     Type
  7515 ;;                  1    wreg      void 
  7516 ;; Registers used:
  7517 ;;		wreg, status,2
  7518 ;; Tracked objects:
  7519 ;;		On entry : 0/0
  7520 ;;		On exit  : 0/0
  7521 ;;		Unchanged: 0/0
  7522 ;; Data sizes:     COMMON   BANK0   BANK1   BANK2   BANK3   BANK4   BANK5   BANK6   BANK7   BANK8   BANK9  BANK10  BANK1
      +1  BANK12  BANK13  BANK14  BANK15  BANK16  BANK17  BANK18  BANK19  BANK20  BANK21  BANK22  BANK23  BANK24  BANK25
  7523 ;;      Params:         0       0       0       0       0       0       0       0       0       0       0       0       
      +0       0       0       0       0       0       0       0       0       0       0       0       0       0       0
  7524 ;;      Locals:         0       0       0       0       0       0       0       0       0       0       0       0       
      +0       0       0       0       0       0       0       0       0       0       0       0       0       0       0
  7525 ;;      Temps:          0       0       0       0       0       0       0       0       0       0       0       0       
      +0       0       0       0       0       0       0       0       0       0       0       0       0       0       0
  7526 ;;      Totals:         0       0       0       0       0       0       0       0       0       0       0       0       
      +0       0       0       0       0       0       0       0       0       0       0       0       0       0       0
  7527 ;;Total ram usage:        0 bytes
  7528 ;; Hardware stack levels used:    1
  7529 ;; This function calls:
  7530 ;;		Nothing
  7531 ;; This function is called by:
  7532 ;;		_SYSTEM_Initialize
  7533 ;; This function uses a non-reentrant model
  7534 ;;
  7535                           
  7536                           
  7537                           ;psect for function _OSCILLATOR_Initialize
  7538  0E0E                     _OSCILLATOR_Initialize:
  7539  0E0E                     l3293:	
  7540                           ;incstack = 0
  7541                           ; Regs used in _OSCILLATOR_Initialize: [wreg+status,2]
  7542                           
  7543                           
  7544                           ;mcc_generated_files/mcc.c: 62:     OSCCON1 = 0x60;
  7545  0E0E  3060               	movlw	96
  7546  0E0F  0151               	movlb	17	; select bank17
  7547  0E10  008D               	movwf	13	;volatile
  7548  0E11                     l3295:
  7549                           
  7550                           ;mcc_generated_files/mcc.c: 64:     OSCCON3 = 0x00;
  7551  0E11  018F               	clrf	15	;volatile
  7552  0E12                     l3297:
  7553                           
  7554                           ;mcc_generated_files/mcc.c: 66:     OSCEN = 0x00;
  7555  0E12  0191               	clrf	17	;volatile
  7556                           
  7557                           ;mcc_generated_files/mcc.c: 68:     OSCFRQ = 0x02;
  7558  0E13  3002               	movlw	2
  7559  0E14  0093               	movwf	19	;volatile
  7560  0E15                     l3299:
  7561                           
  7562                           ;mcc_generated_files/mcc.c: 70:     OSCSTAT = 0x00;
  7563  0E15  0190               	clrf	16	;volatile
  7564  0E16                     l3301:
  7565                           
  7566                           ;mcc_generated_files/mcc.c: 72:     OSCTUNE = 0x00;
  7567  0E16  0192               	clrf	18	;volatile
  7568  0E17                     l692:
  7569  0E17  0008               	return
  7570  0E18                     __end_of_OSCILLATOR_Initialize:
  7571                           
  7572                           	psect	text22
  7573  0E04                     __ptext22:	
  7574 ;; *************** function _I2C1_Initialize *****************
  7575 ;; Defined at:
  7576 ;;		line 167 in file "mcc_generated_files/i2c1_master.c"
  7577 ;; Parameters:    Size  Location     Type
  7578 ;;		None
  7579 ;; Auto vars:     Size  Location     Type
  7580 ;;		None
  7581 ;; Return value:  Size  Location     Type
  7582 ;;                  1    wreg      void 
  7583 ;; Registers used:
  7584 ;;		wreg, status,2
  7585 ;; Tracked objects:
  7586 ;;		On entry : 0/0
  7587 ;;		On exit  : 0/0
  7588 ;;		Unchanged: 0/0
  7589 ;; Data sizes:     COMMON   BANK0   BANK1   BANK2   BANK3   BANK4   BANK5   BANK6   BANK7   BANK8   BANK9  BANK10  BANK1
      +1  BANK12  BANK13  BANK14  BANK15  BANK16  BANK17  BANK18  BANK19  BANK20  BANK21  BANK22  BANK23  BANK24  BANK25
  7590 ;;      Params:         0       0       0       0       0       0       0       0       0       0       0       0       
      +0       0       0       0       0       0       0       0       0       0       0       0       0       0       0
  7591 ;;      Locals:         0       0       0       0       0       0       0       0       0       0       0       0       
      +0       0       0       0       0       0       0       0       0       0       0       0       0       0       0
  7592 ;;      Temps:          0       0       0       0       0       0       0       0       0       0       0       0       
      +0       0       0       0       0       0       0       0       0       0       0       0       0       0       0
  7593 ;;      Totals:         0       0       0       0       0       0       0       0       0       0       0       0       
      +0       0       0       0       0       0       0       0       0       0       0       0       0       0       0
  7594 ;;Total ram usage:        0 bytes
  7595 ;; Hardware stack levels used:    1
  7596 ;; This function calls:
  7597 ;;		Nothing
  7598 ;; This function is called by:
  7599 ;;		_SYSTEM_Initialize
  7600 ;; This function uses a non-reentrant model
  7601 ;;
  7602                           
  7603                           
  7604                           ;psect for function _I2C1_Initialize
  7605  0E04                     _I2C1_Initialize:
  7606  0E04                     l3229:	
  7607                           ;incstack = 0
  7608                           ; Regs used in _I2C1_Initialize: [wreg+status,2]
  7609                           
  7610                           
  7611                           ;mcc_generated_files/i2c1_master.c: 169:     SSP1STAT = 0x80;
  7612  0E04  3080               	movlw	128
  7613  0E05  0143               	movlb	3	; select bank3
  7614  0E06  008F               	movwf	15	;volatile
  7615                           
  7616                           ;mcc_generated_files/i2c1_master.c: 170:     SSP1CON1 = 0x08;
  7617  0E07  3008               	movlw	8
  7618  0E08  0090               	movwf	16	;volatile
  7619  0E09                     l3231:
  7620                           
  7621                           ;mcc_generated_files/i2c1_master.c: 171:     SSP1CON2 = 0x00;
  7622  0E09  0191               	clrf	17	;volatile
  7623  0E0A                     l3233:
  7624                           
  7625                           ;mcc_generated_files/i2c1_master.c: 172:     SSP1ADD = 0x09;
  7626  0E0A  3009               	movlw	9
  7627  0E0B  008D               	movwf	13	;volatile
  7628  0E0C                     l3235:
  7629                           
  7630                           ;mcc_generated_files/i2c1_master.c: 173:     SSP1CON1bits.SSPEN = 0;
  7631  0E0C  1290               	bcf	16,5	;volatile
  7632  0E0D                     l332:
  7633  0E0D  0008               	return
  7634  0E0E                     __end_of_I2C1_Initialize:
  7635                           
  7636                           	psect	text23
  7637  0F70                     __ptext23:	
  7638 ;; *************** function _EUSART1_Initialize *****************
  7639 ;; Defined at:
  7640 ;;		line 66 in file "mcc_generated_files/eusart1.c"
  7641 ;; Parameters:    Size  Location     Type
  7642 ;;		None
  7643 ;; Auto vars:     Size  Location     Type
  7644 ;;		None
  7645 ;; Return value:  Size  Location     Type
  7646 ;;                  1    wreg      void 
  7647 ;; Registers used:
  7648 ;;		wreg, status,2, status,0, pclath, cstack
  7649 ;; Tracked objects:
  7650 ;;		On entry : 0/0
  7651 ;;		On exit  : 0/0
  7652 ;;		Unchanged: 0/0
  7653 ;; Data sizes:     COMMON   BANK0   BANK1   BANK2   BANK3   BANK4   BANK5   BANK6   BANK7   BANK8   BANK9  BANK10  BANK1
      +1  BANK12  BANK13  BANK14  BANK15  BANK16  BANK17  BANK18  BANK19  BANK20  BANK21  BANK22  BANK23  BANK24  BANK25
  7654 ;;      Params:         0       0       0       0       0       0       0       0       0       0       0       0       
      +0       0       0       0       0       0       0       0       0       0       0       0       0       0       0
  7655 ;;      Locals:         0       0       0       0       0       0       0       0       0       0       0       0       
      +0       0       0       0       0       0       0       0       0       0       0       0       0       0       0
  7656 ;;      Temps:          0       0       0       0       0       0       0       0       0       0       0       0       
      +0       0       0       0       0       0       0       0       0       0       0       0       0       0       0
  7657 ;;      Totals:         0       0       0       0       0       0       0       0       0       0       0       0       
      +0       0       0       0       0       0       0       0       0       0       0       0       0       0       0
  7658 ;;Total ram usage:        0 bytes
  7659 ;; Hardware stack levels used:    1
  7660 ;; Hardware stack levels required when called:    1
  7661 ;; This function calls:
  7662 ;;		_EUSART1_SetErrorHandler
  7663 ;;		_EUSART1_SetFramingErrorHandler
  7664 ;;		_EUSART1_SetOverrunErrorHandler
  7665 ;; This function is called by:
  7666 ;;		_SYSTEM_Initialize
  7667 ;; This function uses a non-reentrant model
  7668 ;;
  7669                           
  7670                           
  7671                           ;psect for function _EUSART1_Initialize
  7672  0F70                     _EUSART1_Initialize:
  7673  0F70                     l3303:	
  7674                           ;incstack = 0
  7675                           ; Regs used in _EUSART1_Initialize: [wreg+status,2+status,0+pclath+cstack]
  7676                           
  7677                           
  7678                           ;mcc_generated_files/eusart1.c: 71:     BAUD1CON = 0x08;
  7679  0F70  3008               	movlw	8
  7680  0F71  0142               	movlb	2	; select bank2
  7681  0F72  009F               	movwf	31	;volatile
  7682                           
  7683                           ;mcc_generated_files/eusart1.c: 74:     RC1STA = 0x90;
  7684  0F73  3090               	movlw	144
  7685  0F74  009D               	movwf	29	;volatile
  7686                           
  7687                           ;mcc_generated_files/eusart1.c: 77:     TX1STA = 0x24;
  7688  0F75  3024               	movlw	36
  7689  0F76  009E               	movwf	30	;volatile
  7690                           
  7691                           ;mcc_generated_files/eusart1.c: 80:     SP1BRGL = 0x67;
  7692  0F77  3067               	movlw	103
  7693  0F78  009B               	movwf	27	;volatile
  7694  0F79                     l3305:
  7695                           
  7696                           ;mcc_generated_files/eusart1.c: 83:     SP1BRGH = 0x00;
  7697  0F79  019C               	clrf	28	;volatile
  7698  0F7A                     l3307:
  7699                           
  7700                           ;mcc_generated_files/eusart1.c: 86:     EUSART1_SetFramingErrorHandler(EUSART1_DefaultFr
      +                          amingErrorHandler);
  7701  0F7A  3000               	movlw	0
  7702  0F7B  00F0               	movwf	EUSART1_SetFramingErrorHandler@interruptHandler
  7703  0F7C  3000               	movlw	0
  7704  0F7D  00F1               	movwf	EUSART1_SetFramingErrorHandler@interruptHandler+1
  7705  0F7E  318D  25E4  318F   	fcall	_EUSART1_SetFramingErrorHandler
  7706  0F81                     l3309:
  7707                           
  7708                           ;mcc_generated_files/eusart1.c: 87:     EUSART1_SetOverrunErrorHandler(EUSART1_DefaultOv
      +                          errunErrorHandler);
  7709  0F81  3000               	movlw	0
  7710  0F82  00F0               	movwf	EUSART1_SetOverrunErrorHandler@interruptHandler
  7711  0F83  3000               	movlw	0
  7712  0F84  00F1               	movwf	EUSART1_SetOverrunErrorHandler@interruptHandler+1
  7713  0F85  318D  25EA  318F   	fcall	_EUSART1_SetOverrunErrorHandler
  7714  0F88                     l3311:
  7715                           
  7716                           ;mcc_generated_files/eusart1.c: 88:     EUSART1_SetErrorHandler(EUSART1_DefaultErrorHand
      +                          ler);
  7717  0F88  3000               	movlw	0
  7718  0F89  00F0               	movwf	EUSART1_SetErrorHandler@interruptHandler
  7719  0F8A  3000               	movlw	0
  7720  0F8B  00F1               	movwf	EUSART1_SetErrorHandler@interruptHandler+1
  7721  0F8C  318D  25DE  318F   	fcall	_EUSART1_SetErrorHandler
  7722  0F8F                     l3313:
  7723                           
  7724                           ;mcc_generated_files/eusart1.c: 90:     eusart1RxLastError.status = 0;
  7725  0F8F  0141               	movlb	1	; select bank1
  7726  0F90  01CC               	clrf	_eusart1RxLastError^(0+128)	;volatile
  7727  0F91                     l738:
  7728  0F91  0008               	return
  7729  0F92                     __end_of_EUSART1_Initialize:
  7730                           
  7731                           	psect	text24
  7732  0DEA                     __ptext24:	
  7733 ;; *************** function _EUSART1_SetOverrunErrorHandler *****************
  7734 ;; Defined at:
  7735 ;;		line 161 in file "mcc_generated_files/eusart1.c"
  7736 ;; Parameters:    Size  Location     Type
  7737 ;;  interruptHan    2    0[COMMON] PTR FTN()void 
  7738 ;;		 -> EUSART1_DefaultOverrunErrorHandler(1), 
  7739 ;; Auto vars:     Size  Location     Type
  7740 ;;		None
  7741 ;; Return value:  Size  Location     Type
  7742 ;;                  1    wreg      void 
  7743 ;; Registers used:
  7744 ;;		wreg
  7745 ;; Tracked objects:
  7746 ;;		On entry : 0/0
  7747 ;;		On exit  : 0/0
  7748 ;;		Unchanged: 0/0
  7749 ;; Data sizes:     COMMON   BANK0   BANK1   BANK2   BANK3   BANK4   BANK5   BANK6   BANK7   BANK8   BANK9  BANK10  BANK1
      +1  BANK12  BANK13  BANK14  BANK15  BANK16  BANK17  BANK18  BANK19  BANK20  BANK21  BANK22  BANK23  BANK24  BANK25
  7750 ;;      Params:         2       0       0       0       0       0       0       0       0       0       0       0       
      +0       0       0       0       0       0       0       0       0       0       0       0       0       0       0
  7751 ;;      Locals:         0       0       0       0       0       0       0       0       0       0       0       0       
      +0       0       0       0       0       0       0       0       0       0       0       0       0       0       0
  7752 ;;      Temps:          0       0       0       0       0       0       0       0       0       0       0       0       
      +0       0       0       0       0       0       0       0       0       0       0       0       0       0       0
  7753 ;;      Totals:         2       0       0       0       0       0       0       0       0       0       0       0       
      +0       0       0       0       0       0       0       0       0       0       0       0       0       0       0
  7754 ;;Total ram usage:        2 bytes
  7755 ;; Hardware stack levels used:    1
  7756 ;; This function calls:
  7757 ;;		Nothing
  7758 ;; This function is called by:
  7759 ;;		_EUSART1_Initialize
  7760 ;; This function uses a non-reentrant model
  7761 ;;
  7762                           
  7763                           
  7764                           ;psect for function _EUSART1_SetOverrunErrorHandler
  7765  0DEA                     _EUSART1_SetOverrunErrorHandler:
  7766  0DEA                     l3145:	
  7767                           ;incstack = 0
  7768                           ; Regs used in _EUSART1_SetOverrunErrorHandler: [wreg]
  7769                           
  7770                           
  7771                           ;mcc_generated_files/eusart1.c: 162:     EUSART1_OverrunErrorHandler = interruptHandler;
  7772  0DEA  0871               	movf	EUSART1_SetOverrunErrorHandler@interruptHandler+1,w
  7773  0DEB  0141               	movlb	1	; select bank1
  7774  0DEC  00E4               	movwf	(_EUSART1_OverrunErrorHandler+1)^(0+128)
  7775  0DED  0870               	movf	EUSART1_SetOverrunErrorHandler@interruptHandler,w
  7776  0DEE  00E3               	movwf	_EUSART1_OverrunErrorHandler^(0+128)
  7777  0DEF                     l780:
  7778  0DEF  0008               	return
  7779  0DF0                     __end_of_EUSART1_SetOverrunErrorHandler:
  7780                           
  7781                           	psect	text25
  7782  0DE4                     __ptext25:	
  7783 ;; *************** function _EUSART1_SetFramingErrorHandler *****************
  7784 ;; Defined at:
  7785 ;;		line 157 in file "mcc_generated_files/eusart1.c"
  7786 ;; Parameters:    Size  Location     Type
  7787 ;;  interruptHan    2    0[COMMON] PTR FTN()void 
  7788 ;;		 -> EUSART1_DefaultFramingErrorHandler(1), 
  7789 ;; Auto vars:     Size  Location     Type
  7790 ;;		None
  7791 ;; Return value:  Size  Location     Type
  7792 ;;                  1    wreg      void 
  7793 ;; Registers used:
  7794 ;;		wreg
  7795 ;; Tracked objects:
  7796 ;;		On entry : 0/0
  7797 ;;		On exit  : 0/0
  7798 ;;		Unchanged: 0/0
  7799 ;; Data sizes:     COMMON   BANK0   BANK1   BANK2   BANK3   BANK4   BANK5   BANK6   BANK7   BANK8   BANK9  BANK10  BANK1
      +1  BANK12  BANK13  BANK14  BANK15  BANK16  BANK17  BANK18  BANK19  BANK20  BANK21  BANK22  BANK23  BANK24  BANK25
  7800 ;;      Params:         2       0       0       0       0       0       0       0       0       0       0       0       
      +0       0       0       0       0       0       0       0       0       0       0       0       0       0       0
  7801 ;;      Locals:         0       0       0       0       0       0       0       0       0       0       0       0       
      +0       0       0       0       0       0       0       0       0       0       0       0       0       0       0
  7802 ;;      Temps:          0       0       0       0       0       0       0       0       0       0       0       0       
      +0       0       0       0       0       0       0       0       0       0       0       0       0       0       0
  7803 ;;      Totals:         2       0       0       0       0       0       0       0       0       0       0       0       
      +0       0       0       0       0       0       0       0       0       0       0       0       0       0       0
  7804 ;;Total ram usage:        2 bytes
  7805 ;; Hardware stack levels used:    1
  7806 ;; This function calls:
  7807 ;;		Nothing
  7808 ;; This function is called by:
  7809 ;;		_EUSART1_Initialize
  7810 ;; This function uses a non-reentrant model
  7811 ;;
  7812                           
  7813                           
  7814                           ;psect for function _EUSART1_SetFramingErrorHandler
  7815  0DE4                     _EUSART1_SetFramingErrorHandler:
  7816  0DE4                     l3143:	
  7817                           ;incstack = 0
  7818                           ; Regs used in _EUSART1_SetFramingErrorHandler: [wreg]
  7819                           
  7820                           
  7821                           ;mcc_generated_files/eusart1.c: 158:     EUSART1_FramingErrorHandler = interruptHandler;
  7822  0DE4  0871               	movf	EUSART1_SetFramingErrorHandler@interruptHandler+1,w
  7823  0DE5  0141               	movlb	1	; select bank1
  7824  0DE6  00E6               	movwf	(_EUSART1_FramingErrorHandler+1)^(0+128)
  7825  0DE7  0870               	movf	EUSART1_SetFramingErrorHandler@interruptHandler,w
  7826  0DE8  00E5               	movwf	_EUSART1_FramingErrorHandler^(0+128)
  7827  0DE9                     l777:
  7828  0DE9  0008               	return
  7829  0DEA                     __end_of_EUSART1_SetFramingErrorHandler:
  7830                           
  7831                           	psect	text26
  7832  0DDE                     __ptext26:	
  7833 ;; *************** function _EUSART1_SetErrorHandler *****************
  7834 ;; Defined at:
  7835 ;;		line 165 in file "mcc_generated_files/eusart1.c"
  7836 ;; Parameters:    Size  Location     Type
  7837 ;;  interruptHan    2    0[COMMON] PTR FTN()void 
  7838 ;;		 -> EUSART1_DefaultErrorHandler(1), 
  7839 ;; Auto vars:     Size  Location     Type
  7840 ;;		None
  7841 ;; Return value:  Size  Location     Type
  7842 ;;                  1    wreg      void 
  7843 ;; Registers used:
  7844 ;;		wreg
  7845 ;; Tracked objects:
  7846 ;;		On entry : 0/0
  7847 ;;		On exit  : 0/0
  7848 ;;		Unchanged: 0/0
  7849 ;; Data sizes:     COMMON   BANK0   BANK1   BANK2   BANK3   BANK4   BANK5   BANK6   BANK7   BANK8   BANK9  BANK10  BANK1
      +1  BANK12  BANK13  BANK14  BANK15  BANK16  BANK17  BANK18  BANK19  BANK20  BANK21  BANK22  BANK23  BANK24  BANK25
  7850 ;;      Params:         2       0       0       0       0       0       0       0       0       0       0       0       
      +0       0       0       0       0       0       0       0       0       0       0       0       0       0       0
  7851 ;;      Locals:         0       0       0       0       0       0       0       0       0       0       0       0       
      +0       0       0       0       0       0       0       0       0       0       0       0       0       0       0
  7852 ;;      Temps:          0       0       0       0       0       0       0       0       0       0       0       0       
      +0       0       0       0       0       0       0       0       0       0       0       0       0       0       0
  7853 ;;      Totals:         2       0       0       0       0       0       0       0       0       0       0       0       
      +0       0       0       0       0       0       0       0       0       0       0       0       0       0       0
  7854 ;;Total ram usage:        2 bytes
  7855 ;; Hardware stack levels used:    1
  7856 ;; This function calls:
  7857 ;;		Nothing
  7858 ;; This function is called by:
  7859 ;;		_EUSART1_Initialize
  7860 ;; This function uses a non-reentrant model
  7861 ;;
  7862                           
  7863                           
  7864                           ;psect for function _EUSART1_SetErrorHandler
  7865  0DDE                     _EUSART1_SetErrorHandler:
  7866  0DDE                     l3147:	
  7867                           ;incstack = 0
  7868                           ; Regs used in _EUSART1_SetErrorHandler: [wreg]
  7869                           
  7870                           
  7871                           ;mcc_generated_files/eusart1.c: 166:     EUSART1_ErrorHandler = interruptHandler;
  7872  0DDE  0871               	movf	EUSART1_SetErrorHandler@interruptHandler+1,w
  7873  0DDF  0141               	movlb	1	; select bank1
  7874  0DE0  00E2               	movwf	(_EUSART1_ErrorHandler+1)^(0+128)
  7875  0DE1  0870               	movf	EUSART1_SetErrorHandler@interruptHandler,w
  7876  0DE2  00E1               	movwf	_EUSART1_ErrorHandler^(0+128)
  7877  0DE3                     l783:
  7878  0DE3  0008               	return
  7879  0DE4                     __end_of_EUSART1_SetErrorHandler:
  7880                           
  7881                           	psect	text27
  7882  0F4E                     __ptext27:	
  7883 ;; *************** function _EE_Write *****************
  7884 ;; Defined at:
  7885 ;;		line 119 in file "main.c"
  7886 ;; Parameters:    Size  Location     Type
  7887 ;;  addr            2    0[BANK0 ] unsigned short 
  7888 ;;  data            1    2[BANK0 ] unsigned char 
  7889 ;; Auto vars:     Size  Location     Type
  7890 ;;  frame           3    3[BANK0 ] unsigned char [3]
  7891 ;; Return value:  Size  Location     Type
  7892 ;;                  1    wreg      void 
  7893 ;; Registers used:
  7894 ;;		wreg, fsr1l, fsr1h, status,2, status,0, pclath, cstack
  7895 ;; Tracked objects:
  7896 ;;		On entry : 0/0
  7897 ;;		On exit  : 0/0
  7898 ;;		Unchanged: 0/0
  7899 ;; Data sizes:     COMMON   BANK0   BANK1   BANK2   BANK3   BANK4   BANK5   BANK6   BANK7   BANK8   BANK9  BANK10  BANK1
      +1  BANK12  BANK13  BANK14  BANK15  BANK16  BANK17  BANK18  BANK19  BANK20  BANK21  BANK22  BANK23  BANK24  BANK25
  7900 ;;      Params:         0       3       0       0       0       0       0       0       0       0       0       0       
      +0       0       0       0       0       0       0       0       0       0       0       0       0       0       0
  7901 ;;      Locals:         0       3       0       0       0       0       0       0       0       0       0       0       
      +0       0       0       0       0       0       0       0       0       0       0       0       0       0       0
  7902 ;;      Temps:          1       0       0       0       0       0       0       0       0       0       0       0       
      +0       0       0       0       0       0       0       0       0       0       0       0       0       0       0
  7903 ;;      Totals:         1       6       0       0       0       0       0       0       0       0       0       0       
      +0       0       0       0       0       0       0       0       0       0       0       0       0       0       0
  7904 ;;Total ram usage:        7 bytes
  7905 ;; Hardware stack levels used:    1
  7906 ;; Hardware stack levels required when called:    4
  7907 ;; This function calls:
  7908 ;;		_i2c_writeNBytes
  7909 ;; This function is called by:
  7910 ;;		_main
  7911 ;; This function uses a non-reentrant model
  7912 ;;
  7913                           
  7914                           
  7915                           ;psect for function _EE_Write
  7916  0F4E                     _EE_Write:
  7917  0F4E                     l3431:	
  7918                           ;incstack = 0
  7919                           ; Regs used in _EE_Write: [wreg+fsr1l+fsr1h+status,2+status,0+pclath+cstack]
  7920                           
  7921                           
  7922                           ;main.c: 119: void EE_Write(uint16_t addr, uint8_t data);main.c: 120: {;main.c: 121:    
      +                           uint8_t frame[3];;main.c: 123:     frame[0]=(uint8_t) (addr>>8);
  7923  0F4E  0140               	movlb	0	; select bank0
  7924  0F4F  0821               	movf	EE_Write@addr+1,w
  7925  0F50  00FD               	movwf	??_EE_Write
  7926  0F51  087D               	movf	??_EE_Write,w
  7927  0F52  00A3               	movwf	EE_Write@frame
  7928  0F53                     l3433:
  7929                           
  7930                           ;main.c: 124:     frame[1]=(uint8_t) addr;
  7931  0F53  0820               	movf	EE_Write@addr,w
  7932  0F54  00FD               	movwf	??_EE_Write
  7933  0F55  087D               	movf	??_EE_Write,w
  7934  0F56  00A4               	movwf	EE_Write@frame+1
  7935  0F57                     l3435:
  7936                           
  7937                           ;main.c: 125:     frame[2]=data;
  7938  0F57  0822               	movf	EE_Write@data,w
  7939  0F58  00FD               	movwf	??_EE_Write
  7940  0F59  087D               	movf	??_EE_Write,w
  7941  0F5A  00A5               	movwf	EE_Write@frame+2
  7942  0F5B                     l3437:
  7943                           
  7944                           ;main.c: 127:     i2c_writeNBytes(0b01010000, &frame[0], 3);
  7945  0F5B  3023               	movlw	(low (EE_Write@frame| 0))& (0+255)
  7946  0F5C  00FD               	movwf	??_EE_Write
  7947  0F5D  087D               	movf	??_EE_Write,w
  7948  0F5E  00F9               	movwf	i2c_writeNBytes@data
  7949  0F5F  3003               	movlw	3
  7950  0F60  00FA               	movwf	i2c_writeNBytes@len
  7951  0F61  3000               	movlw	0
  7952  0F62  00FB               	movwf	i2c_writeNBytes@len+1
  7953  0F63  3050               	movlw	80
  7954  0F64  318F  27B6  318F   	fcall	_i2c_writeNBytes
  7955  0F67                     l3439:
  7956                           
  7957                           ;main.c: 128:     _delay((unsigned long)((5)*(4000000/4000.0)));
  7958  0F67  3007               	movlw	7
  7959  0F68  00FD               	movwf	??_EE_Write
  7960  0F69  307D               	movlw	125
  7961  0F6A                     u2777:
  7962  0F6A  0B89               	decfsz	9,f
  7963  0F6B  2F6A               	goto	u2777
  7964  0F6C  0BFD               	decfsz	??_EE_Write,f
  7965  0F6D  2F6A               	goto	u2777
  7966  0F6E  0000               	nop
  7967  0F6F                     l820:
  7968  0F6F  0008               	return
  7969  0F70                     __end_of_EE_Write:
  7970                           
  7971                           	psect	text28
  7972  0F92                     __ptext28:	
  7973 ;; *************** function _EE_Read *****************
  7974 ;; Defined at:
  7975 ;;		line 132 in file "main.c"
  7976 ;; Parameters:    Size  Location     Type
  7977 ;;  addr            2    0[BANK0 ] unsigned short 
  7978 ;; Auto vars:     Size  Location     Type
  7979 ;;  frame           3    2[BANK0 ] unsigned char [3]
  7980 ;; Return value:  Size  Location     Type
  7981 ;;                  1    wreg      unsigned char 
  7982 ;; Registers used:
  7983 ;;		wreg, fsr1l, fsr1h, status,2, status,0, pclath, cstack
  7984 ;; Tracked objects:
  7985 ;;		On entry : 0/0
  7986 ;;		On exit  : 0/0
  7987 ;;		Unchanged: 0/0
  7988 ;; Data sizes:     COMMON   BANK0   BANK1   BANK2   BANK3   BANK4   BANK5   BANK6   BANK7   BANK8   BANK9  BANK10  BANK1
      +1  BANK12  BANK13  BANK14  BANK15  BANK16  BANK17  BANK18  BANK19  BANK20  BANK21  BANK22  BANK23  BANK24  BANK25
  7989 ;;      Params:         0       2       0       0       0       0       0       0       0       0       0       0       
      +0       0       0       0       0       0       0       0       0       0       0       0       0       0       0
  7990 ;;      Locals:         0       3       0       0       0       0       0       0       0       0       0       0       
      +0       0       0       0       0       0       0       0       0       0       0       0       0       0       0
  7991 ;;      Temps:          1       0       0       0       0       0       0       0       0       0       0       0       
      +0       0       0       0       0       0       0       0       0       0       0       0       0       0       0
  7992 ;;      Totals:         1       5       0       0       0       0       0       0       0       0       0       0       
      +0       0       0       0       0       0       0       0       0       0       0       0       0       0       0
  7993 ;;Total ram usage:        6 bytes
  7994 ;; Hardware stack levels used:    1
  7995 ;; Hardware stack levels required when called:    4
  7996 ;; This function calls:
  7997 ;;		_i2c_readNBytes
  7998 ;;		_i2c_writeNBytes
  7999 ;; This function is called by:
  8000 ;;		_main
  8001 ;; This function uses a non-reentrant model
  8002 ;;
  8003                           
  8004                           
  8005                           ;psect for function _EE_Read
  8006  0F92                     _EE_Read:
  8007  0F92                     l3441:	
  8008                           ;incstack = 0
  8009                           ; Regs used in _EE_Read: [wreg+fsr1l+fsr1h+status,2+status,0+pclath+cstack]
  8010                           
  8011                           
  8012                           ;main.c: 132: uint8_t EE_Read(uint16_t addr);main.c: 133: {;main.c: 134:     uint8_t fra
      +                          me[3];;main.c: 136:     frame[0]=(uint8_t) (addr>>8);
  8013  0F92  0140               	movlb	0	; select bank0
  8014  0F93  0821               	movf	EE_Read@addr+1,w
  8015  0F94  00FD               	movwf	??_EE_Read
  8016  0F95  087D               	movf	??_EE_Read,w
  8017  0F96  00A2               	movwf	EE_Read@frame
  8018  0F97                     l3443:
  8019                           
  8020                           ;main.c: 137:     frame[1]=(uint8_t) addr;
  8021  0F97  0820               	movf	EE_Read@addr,w
  8022  0F98  00FD               	movwf	??_EE_Read
  8023  0F99  087D               	movf	??_EE_Read,w
  8024  0F9A  00A3               	movwf	EE_Read@frame+1
  8025  0F9B                     l3445:
  8026                           
  8027                           ;main.c: 138:     i2c_writeNBytes(0b01010000, &frame[0], 2);
  8028  0F9B  3022               	movlw	(low (EE_Read@frame| 0))& (0+255)
  8029  0F9C  00FD               	movwf	??_EE_Read
  8030  0F9D  087D               	movf	??_EE_Read,w
  8031  0F9E  00F9               	movwf	i2c_writeNBytes@data
  8032  0F9F  3002               	movlw	2
  8033  0FA0  00FA               	movwf	i2c_writeNBytes@len
  8034  0FA1  3000               	movlw	0
  8035  0FA2  00FB               	movwf	i2c_writeNBytes@len+1
  8036  0FA3  3050               	movlw	80
  8037  0FA4  318F  27B6  318F   	fcall	_i2c_writeNBytes
  8038  0FA7                     l3447:
  8039                           
  8040                           ;main.c: 139:     i2c_readNBytes(0b01010000, &frame[2], 1);
  8041  0FA7  3024               	movlw	(low ((EE_Read@frame| 0+2)))& (0+255)
  8042  0FA8  00FD               	movwf	??_EE_Read
  8043  0FA9  087D               	movf	??_EE_Read,w
  8044  0FAA  00F5               	movwf	i2c_readNBytes@data
  8045  0FAB  3001               	movlw	1
  8046  0FAC  00F6               	movwf	i2c_readNBytes@len
  8047  0FAD  3000               	movlw	0
  8048  0FAE  00F7               	movwf	i2c_readNBytes@len+1
  8049  0FAF  3050               	movlw	80
  8050  0FB0  318F  2712  318F   	fcall	_i2c_readNBytes
  8051  0FB3                     l3449:
  8052                           
  8053                           ;main.c: 141:     return frame[2];
  8054  0FB3  0140               	movlb	0	; select bank0
  8055  0FB4  0824               	movf	EE_Read@frame+2,w
  8056  0FB5                     l823:
  8057  0FB5  0008               	return
  8058  0FB6                     __end_of_EE_Read:
  8059                           
  8060                           	psect	text29
  8061  0FB6                     __ptext29:	
  8062 ;; *************** function _i2c_writeNBytes *****************
  8063 ;; Defined at:
  8064 ;;		line 71 in file "mcc_generated_files/drivers/i2c_simple_master.c"
  8065 ;; Parameters:    Size  Location     Type
  8066 ;;  address         1    wreg     unsigned char 
  8067 ;;  data            1    9[COMMON] PTR void 
  8068 ;;		 -> EE_Read@frame(3), EE_Write@frame(3), I2CSIMPLE_example@sendData(17), 
  8069 ;;  len             2   10[COMMON] unsigned int 
  8070 ;; Auto vars:     Size  Location     Type
  8071 ;;  address         1   12[COMMON] unsigned char 
  8072 ;; Return value:  Size  Location     Type
  8073 ;;                  1    wreg      void 
  8074 ;; Registers used:
  8075 ;;		wreg, fsr1l, fsr1h, status,2, status,0, pclath, cstack
  8076 ;; Tracked objects:
  8077 ;;		On entry : 0/0
  8078 ;;		On exit  : 0/0
  8079 ;;		Unchanged: 0/0
  8080 ;; Data sizes:     COMMON   BANK0   BANK1   BANK2   BANK3   BANK4   BANK5   BANK6   BANK7   BANK8   BANK9  BANK10  BANK1
      +1  BANK12  BANK13  BANK14  BANK15  BANK16  BANK17  BANK18  BANK19  BANK20  BANK21  BANK22  BANK23  BANK24  BANK25
  8081 ;;      Params:         3       0       0       0       0       0       0       0       0       0       0       0       
      +0       0       0       0       0       0       0       0       0       0       0       0       0       0       0
  8082 ;;      Locals:         1       0       0       0       0       0       0       0       0       0       0       0       
      +0       0       0       0       0       0       0       0       0       0       0       0       0       0       0
  8083 ;;      Temps:          0       0       0       0       0       0       0       0       0       0       0       0       
      +0       0       0       0       0       0       0       0       0       0       0       0       0       0       0
  8084 ;;      Totals:         4       0       0       0       0       0       0       0       0       0       0       0       
      +0       0       0       0       0       0       0       0       0       0       0       0       0       0       0
  8085 ;;Total ram usage:        4 bytes
  8086 ;; Hardware stack levels used:    1
  8087 ;; Hardware stack levels required when called:    3
  8088 ;; This function calls:
  8089 ;;		_I2C1_Close
  8090 ;;		_I2C1_MasterWrite
  8091 ;;		_I2C1_Open
  8092 ;;		_I2C1_SetAddressNackCallback
  8093 ;;		_I2C1_SetBuffer
  8094 ;; This function is called by:
  8095 ;;		_EE_Write
  8096 ;;		_EE_Read
  8097 ;;		_I2CSIMPLE_example
  8098 ;; This function uses a non-reentrant model
  8099 ;;
  8100                           
  8101                           
  8102                           ;psect for function _i2c_writeNBytes
  8103  0FB6                     _i2c_writeNBytes:
  8104                           
  8105                           ;incstack = 0
  8106                           ; Regs used in _i2c_writeNBytes: [wreg+fsr1l+fsr1h+status,2+status,0+pclath+cstack]
  8107                           ;i2c_writeNBytes@address stored from wreg
  8108  0FB6  00FC               	movwf	i2c_writeNBytes@address
  8109  0FB7                     l3209:
  8110  0FB7                     l3211:	
  8111                           ;mcc_generated_files/drivers/i2c_simple_master.c: 71: void i2c_writeNBytes(i2c1_address_
      +                          t address, void* data, size_t len);mcc_generated_files/drivers/i2c_simple_master.c: 72: 
      +                          {;mcc_generated_files/drivers/i2c_simple_master.c: 73:     while(!I2C1_Open(address));
  8112                           
  8113  0FB7  087C               	movf	i2c_writeNBytes@address,w
  8114  0FB8  3180  208F  318F   	fcall	_I2C1_Open
  8115  0FBB  3A00               	xorlw	0
  8116  0FBC  1903               	skipnz
  8117  0FBD  2FBF               	goto	u2211
  8118  0FBE  2FC0               	goto	u2210
  8119  0FBF                     u2211:
  8120  0FBF  2FB7               	goto	l3211
  8121  0FC0                     u2210:
  8122  0FC0                     l3213:
  8123                           
  8124                           ;mcc_generated_files/drivers/i2c_simple_master.c: 74:     I2C1_SetBuffer(data,len);
  8125  0FC0  087B               	movf	i2c_writeNBytes@len+1,w
  8126  0FC1  00F1               	movwf	I2C1_SetBuffer@bufferSize+1
  8127  0FC2  087A               	movf	i2c_writeNBytes@len,w
  8128  0FC3  00F0               	movwf	I2C1_SetBuffer@bufferSize
  8129  0FC4  0879               	movf	i2c_writeNBytes@data,w
  8130  0FC5  318E  2630  318F   	fcall	_I2C1_SetBuffer
  8131  0FC8                     l3215:
  8132                           
  8133                           ;mcc_generated_files/drivers/i2c_simple_master.c: 75:     I2C1_SetAddressNackCallback(((
      +                          void*)0),((void*)0));
  8134  0FC8  3000               	movlw	0
  8135  0FC9  00F5               	movwf	I2C1_SetAddressNackCallback@cb
  8136  0FCA  00F6               	movwf	I2C1_SetAddressNackCallback@cb+1
  8137  0FCB  01F7               	clrf	I2C1_SetAddressNackCallback@ptr
  8138  0FCC  3180  2004  318F   	fcall	_I2C1_SetAddressNackCallback
  8139  0FCF                     l3217:
  8140                           
  8141                           ;mcc_generated_files/drivers/i2c_simple_master.c: 76:     I2C1_MasterWrite();
  8142  0FCF  318D  25C9  318F   	fcall	_I2C1_MasterWrite
  8143  0FD2                     l3219:	
  8144                           ;mcc_generated_files/drivers/i2c_simple_master.c: 77:     while(I2C1_BUSY == I2C1_Close(
      +                          ));
  8145                           
  8146  0FD2  318E  26F6  318F   	fcall	_I2C1_Close
  8147  0FD5  3A01               	xorlw	1
  8148  0FD6  1903               	skipnz
  8149  0FD7  2FD9               	goto	u2221
  8150  0FD8  2FDA               	goto	u2220
  8151  0FD9                     u2221:
  8152  0FD9  2FD2               	goto	l3219
  8153  0FDA                     u2220:
  8154  0FDA                     l37:
  8155  0FDA  0008               	return
  8156  0FDB                     __end_of_i2c_writeNBytes:
  8157                           
  8158                           	psect	text30
  8159  0004                     __ptext30:	
  8160 ;; *************** function _I2C1_SetAddressNackCallback *****************
  8161 ;; Defined at:
  8162 ;;		line 284 in file "mcc_generated_files/i2c1_master.c"
  8163 ;; Parameters:    Size  Location     Type
  8164 ;;  cb              2    5[COMMON] PTR FTN(PTR void ,)enum 
  8165 ;;		 -> Absolute function(1), 
  8166 ;;  ptr             1    7[COMMON] PTR void 
  8167 ;;		 -> NULL(0), 
  8168 ;; Auto vars:     Size  Location     Type
  8169 ;;		None
  8170 ;; Return value:  Size  Location     Type
  8171 ;;                  1    wreg      void 
  8172 ;; Registers used:
  8173 ;;		wreg, fsr1l, fsr1h, status,2, status,0, pclath, cstack
  8174 ;; Tracked objects:
  8175 ;;		On entry : 0/0
  8176 ;;		On exit  : 0/0
  8177 ;;		Unchanged: 0/0
  8178 ;; Data sizes:     COMMON   BANK0   BANK1   BANK2   BANK3   BANK4   BANK5   BANK6   BANK7   BANK8   BANK9  BANK10  BANK1
      +1  BANK12  BANK13  BANK14  BANK15  BANK16  BANK17  BANK18  BANK19  BANK20  BANK21  BANK22  BANK23  BANK24  BANK25
  8179 ;;      Params:         3       0       0       0       0       0       0       0       0       0       0       0       
      +0       0       0       0       0       0       0       0       0       0       0       0       0       0       0
  8180 ;;      Locals:         0       0       0       0       0       0       0       0       0       0       0       0       
      +0       0       0       0       0       0       0       0       0       0       0       0       0       0       0
  8181 ;;      Temps:          1       0       0       0       0       0       0       0       0       0       0       0       
      +0       0       0       0       0       0       0       0       0       0       0       0       0       0       0
  8182 ;;      Totals:         4       0       0       0       0       0       0       0       0       0       0       0       
      +0       0       0       0       0       0       0       0       0       0       0       0       0       0       0
  8183 ;;Total ram usage:        4 bytes
  8184 ;; Hardware stack levels used:    1
  8185 ;; Hardware stack levels required when called:    1
  8186 ;; This function calls:
  8187 ;;		_I2C1_SetCallback
  8188 ;; This function is called by:
  8189 ;;		_i2c_writeNBytes
  8190 ;;		_i2c_write1ByteRegister
  8191 ;;		_i2c_read1ByteRegister
  8192 ;;		_i2c_read2ByteRegister
  8193 ;;		_i2c_write2ByteRegister
  8194 ;;		_i2c_readDataBlock
  8195 ;;		_I2C1_Read1ByteRegister
  8196 ;;		_I2C1_Read2ByteRegister
  8197 ;;		_I2C1_Write1ByteRegister
  8198 ;;		_I2C1_Write2ByteRegister
  8199 ;;		_I2C1_WriteNBytes
  8200 ;;		_I2C1_ReadDataBlock
  8201 ;; This function uses a non-reentrant model
  8202 ;;
  8203                           
  8204                           
  8205                           ;psect for function _I2C1_SetAddressNackCallback
  8206  0004                     _I2C1_SetAddressNackCallback:
  8207  0004                     l3115:	
  8208                           ;incstack = 0
  8209                           ; Regs used in _I2C1_SetAddressNackCallback: [wreg+fsr1l+fsr1h+status,2+status,0+pclath+
      +                          cstack]
  8210                           
  8211                           
  8212                           ;mcc_generated_files/i2c1_master.c: 284: void I2C1_SetAddressNackCallback(i2c1_callback_
      +                          t cb, void *ptr);mcc_generated_files/i2c1_master.c: 285: {;mcc_generated_files/i2c1_mast
      +                          er.c: 286:     I2C1_SetCallback(I2C1_ADDR_NACK, cb, ptr);
  8213  0004  0876               	movf	I2C1_SetAddressNackCallback@cb+1,w
  8214  0005  00F1               	movwf	I2C1_SetCallback@cb+1
  8215  0006  0875               	movf	I2C1_SetAddressNackCallback@cb,w
  8216  0007  00F0               	movwf	I2C1_SetCallback@cb
  8217  0008  0877               	movf	I2C1_SetAddressNackCallback@ptr,w
  8218  0009  00F8               	movwf	??_I2C1_SetAddressNackCallback
  8219  000A  0878               	movf	??_I2C1_SetAddressNackCallback,w
  8220  000B  00F2               	movwf	I2C1_SetCallback@ptr
  8221  000C  3002               	movlw	2
  8222  000D  3180  2011  3180   	fcall	_I2C1_SetCallback
  8223  0010                     l368:
  8224  0010  0008               	return
  8225  0011                     __end_of_I2C1_SetAddressNackCallback:
  8226                           
  8227                           	psect	text31
  8228  0011                     __ptext31:	
  8229 ;; *************** function _I2C1_SetCallback *****************
  8230 ;; Defined at:
  8231 ;;		line 304 in file "mcc_generated_files/i2c1_master.c"
  8232 ;; Parameters:    Size  Location     Type
  8233 ;;  idx             1    wreg     enum E8143
  8234 ;;  cb              2    0[COMMON] PTR FTN(PTR void ,)enum 
  8235 ;;		 -> Absolute function(1), rdBlkRegCompleteHandler@i2c1_master_example$F180(1), wr2RegCompleteHandler@i2c1_master_exa
      +mple$F169(1), wr1RegCompleteHandler@i2c1_master_example$F163(1), 
  8236 ;;		 -> rd2RegCompleteHandler@i2c1_master_example$F157(1), rd1RegCompleteHandler@i2c1_master_example$F146(1), rdBlkRegCo
      +mpleteHandler(1), wr2RegCompleteHandler(1), 
  8237 ;;		 -> rd2RegCompleteHandler(1), rd1RegCompleteHandler(1), wr1RegCompleteHandler(1), 
  8238 ;;  ptr             1    2[COMMON] PTR void 
  8239 ;;		 -> I2C1_ReadDataBlock@bufferBlock(3), I2C1_Write2ByteRegister@data(2), I2C1_Write1ByteRegister@data(1), I2C1_Read2B
      +yteRegister@returnValue(2), 
  8240 ;;		 -> I2C1_Read1ByteRegister@returnValue(1), i2c_readDataBlock@d(3), i2c_write2ByteRegister@data(2), i2c_read2ByteRegi
      +ster@result(2), 
  8241 ;;		 -> i2c_read1ByteRegister@d2(1), i2c_write1ByteRegister@data(1), NULL(0), 
  8242 ;; Auto vars:     Size  Location     Type
  8243 ;;  idx             1    4[COMMON] enum E8143
  8244 ;; Return value:  Size  Location     Type
  8245 ;;                  1    wreg      void 
  8246 ;; Registers used:
  8247 ;;		wreg, fsr1l, fsr1h, status,2, status,0
  8248 ;; Tracked objects:
  8249 ;;		On entry : 0/0
  8250 ;;		On exit  : 0/0
  8251 ;;		Unchanged: 0/0
  8252 ;; Data sizes:     COMMON   BANK0   BANK1   BANK2   BANK3   BANK4   BANK5   BANK6   BANK7   BANK8   BANK9  BANK10  BANK1
      +1  BANK12  BANK13  BANK14  BANK15  BANK16  BANK17  BANK18  BANK19  BANK20  BANK21  BANK22  BANK23  BANK24  BANK25
  8253 ;;      Params:         3       0       0       0       0       0       0       0       0       0       0       0       
      +0       0       0       0       0       0       0       0       0       0       0       0       0       0       0
  8254 ;;      Locals:         1       0       0       0       0       0       0       0       0       0       0       0       
      +0       0       0       0       0       0       0       0       0       0       0       0       0       0       0
  8255 ;;      Temps:          1       0       0       0       0       0       0       0       0       0       0       0       
      +0       0       0       0       0       0       0       0       0       0       0       0       0       0       0
  8256 ;;      Totals:         5       0       0       0       0       0       0       0       0       0       0       0       
      +0       0       0       0       0       0       0       0       0       0       0       0       0       0       0
  8257 ;;Total ram usage:        5 bytes
  8258 ;; Hardware stack levels used:    1
  8259 ;; This function calls:
  8260 ;;		Nothing
  8261 ;; This function is called by:
  8262 ;;		_I2C1_SetAddressNackCallback
  8263 ;;		_I2C1_SetDataCompleteCallback
  8264 ;;		_I2C1_SetWriteCollisionCallback
  8265 ;;		_I2C1_SetDataNackCallback
  8266 ;;		_I2C1_SetTimeoutCallback
  8267 ;; This function uses a non-reentrant model
  8268 ;;
  8269                           
  8270                           
  8271                           ;psect for function _I2C1_SetCallback
  8272  0011                     _I2C1_SetCallback:
  8273                           
  8274                           ;incstack = 0
  8275                           ; Regs used in _I2C1_SetCallback: [wreg+fsr1l+fsr1h+status,2+status,0]
  8276                           ;I2C1_SetCallback@idx stored from wreg
  8277  0011  00F4               	movwf	I2C1_SetCallback@idx
  8278  0012                     l2945:
  8279                           
  8280                           ;mcc_generated_files/i2c1_master.c: 304: static void I2C1_SetCallback(i2c1_callbackIndex
      +                          _t idx, i2c1_callback_t cb, void *ptr);mcc_generated_files/i2c1_master.c: 305: {;mcc_gen
      +                          erated_files/i2c1_master.c: 306:     if(cb)
  8281  0012  0870               	movf	I2C1_SetCallback@cb,w
  8282  0013  0471               	iorwf	I2C1_SetCallback@cb+1,w
  8283  0014  1903               	btfsc	3,2
  8284  0015  2817               	goto	u1781
  8285  0016  2818               	goto	u1780
  8286  0017                     u1781:
  8287  0017  2829               	goto	l2949
  8288  0018                     u1780:
  8289  0018                     l2947:
  8290                           
  8291                           ;mcc_generated_files/i2c1_master.c: 307:     {;mcc_generated_files/i2c1_master.c: 308:  
      +                                 I2C1_Status.callbackTable[idx] = cb;
  8292  0018  3574               	lslf	I2C1_SetCallback@idx,w
  8293  0019  3EA0               	addlw	(low (_I2C1_Status| 0))& (0+255)
  8294  001A  0086               	movwf	6
  8295  001B  0187               	clrf	7
  8296  001C  0870               	movf	I2C1_SetCallback@cb,w
  8297  001D  3FC0               	movwi [0]fsr1
  8298  001E  0871               	movf	I2C1_SetCallback@cb+1,w
  8299  001F  3FC1               	movwi [1]fsr1
  8300                           
  8301                           ;mcc_generated_files/i2c1_master.c: 309:         I2C1_Status.callbackPayload[idx] = ptr;
  8302  0020  0872               	movf	I2C1_SetCallback@ptr,w
  8303  0021  00F3               	movwf	??_I2C1_SetCallback
  8304  0022  0874               	movf	I2C1_SetCallback@idx,w
  8305  0023  3EAC               	addlw	(low ((_I2C1_Status| 0+12)))& (0+255)
  8306  0024  0086               	movwf	6
  8307  0025  0187               	clrf	7
  8308  0026  0873               	movf	??_I2C1_SetCallback,w
  8309  0027  0081               	movwf	1
  8310                           
  8311                           ;mcc_generated_files/i2c1_master.c: 310:     }
  8312  0028  2836               	goto	l382
  8313  0029                     l2949:
  8314                           
  8315                           ;mcc_generated_files/i2c1_master.c: 312:     {;mcc_generated_files/i2c1_master.c: 313:  
      +                                 I2C1_Status.callbackTable[idx] = I2C1_CallbackReturnStop;
  8316  0029  3574               	lslf	I2C1_SetCallback@idx,w
  8317  002A  3EA0               	addlw	(low (_I2C1_Status| 0))& (0+255)
  8318  002B  0086               	movwf	6
  8319  002C  0187               	clrf	7
  8320  002D  3000               	movlw	0
  8321  002E  3FC0               	movwi [0]fsr1
  8322  002F  3000               	movlw	0
  8323  0030  3FC1               	movwi [1]fsr1
  8324                           
  8325                           ;mcc_generated_files/i2c1_master.c: 314:         I2C1_Status.callbackPayload[idx] = ((vo
      +                          id*)0);
  8326  0031  0874               	movf	I2C1_SetCallback@idx,w
  8327  0032  3EAC               	addlw	(low ((_I2C1_Status| 0+12)))& (0+255)
  8328  0033  0086               	movwf	6
  8329  0034  0187               	clrf	7
  8330  0035  0181               	clrf	1
  8331  0036                     l382:
  8332  0036  0008               	return
  8333  0037                     __end_of_I2C1_SetCallback:
  8334                           
  8335                           	psect	text32
  8336  0DC9                     __ptext32:	
  8337 ;; *************** function _I2C1_MasterWrite *****************
  8338 ;; Defined at:
  8339 ;;		line 252 in file "mcc_generated_files/i2c1_master.c"
  8340 ;; Parameters:    Size  Location     Type
  8341 ;;		None
  8342 ;; Auto vars:     Size  Location     Type
  8343 ;;		None
  8344 ;; Return value:  Size  Location     Type
  8345 ;;                  1    wreg      enum E355
  8346 ;; Registers used:
  8347 ;;		wreg, status,2, status,0, pclath, cstack
  8348 ;; Tracked objects:
  8349 ;;		On entry : 0/0
  8350 ;;		On exit  : 0/0
  8351 ;;		Unchanged: 0/0
  8352 ;; Data sizes:     COMMON   BANK0   BANK1   BANK2   BANK3   BANK4   BANK5   BANK6   BANK7   BANK8   BANK9  BANK10  BANK1
      +1  BANK12  BANK13  BANK14  BANK15  BANK16  BANK17  BANK18  BANK19  BANK20  BANK21  BANK22  BANK23  BANK24  BANK25
  8353 ;;      Params:         0       0       0       0       0       0       0       0       0       0       0       0       
      +0       0       0       0       0       0       0       0       0       0       0       0       0       0       0
  8354 ;;      Locals:         0       0       0       0       0       0       0       0       0       0       0       0       
      +0       0       0       0       0       0       0       0       0       0       0       0       0       0       0
  8355 ;;      Temps:          0       0       0       0       0       0       0       0       0       0       0       0       
      +0       0       0       0       0       0       0       0       0       0       0       0       0       0       0
  8356 ;;      Totals:         0       0       0       0       0       0       0       0       0       0       0       0       
      +0       0       0       0       0       0       0       0       0       0       0       0       0       0       0
  8357 ;;Total ram usage:        0 bytes
  8358 ;; Hardware stack levels used:    1
  8359 ;; Hardware stack levels required when called:    2
  8360 ;; This function calls:
  8361 ;;		_I2C1_MasterOperation
  8362 ;; This function is called by:
  8363 ;;		_i2c_writeNBytes
  8364 ;;		_i2c_write1ByteRegister
  8365 ;;		_i2c_read1ByteRegister
  8366 ;;		_i2c_read2ByteRegister
  8367 ;;		_i2c_write2ByteRegister
  8368 ;;		_i2c_readDataBlock
  8369 ;;		_I2C1_Read1ByteRegister
  8370 ;;		_I2C1_Read2ByteRegister
  8371 ;;		_I2C1_Write1ByteRegister
  8372 ;;		_I2C1_Write2ByteRegister
  8373 ;;		_I2C1_WriteNBytes
  8374 ;;		_I2C1_ReadDataBlock
  8375 ;; This function uses a non-reentrant model
  8376 ;;
  8377                           
  8378                           
  8379                           ;psect for function _I2C1_MasterWrite
  8380  0DC9                     _I2C1_MasterWrite:
  8381  0DC9                     l3117:	
  8382                           ;incstack = 0
  8383                           ; Regs used in _I2C1_MasterWrite: [wreg+status,2+status,0+pclath+cstack]
  8384                           
  8385                           
  8386                           ;mcc_generated_files/i2c1_master.c: 254:     return I2C1_MasterOperation(0);;	Return val
      +                          ue of _I2C1_MasterWrite is never used
  8387  0DC9  3000               	movlw	0
  8388  0DCA  318E  26DB  318D   	fcall	_I2C1_MasterOperation
  8389  0DCD                     l352:
  8390  0DCD  0008               	return
  8391  0DCE                     __end_of_I2C1_MasterWrite:
  8392                           
  8393                           	psect	text33
  8394  0F12                     __ptext33:	
  8395 ;; *************** function _i2c_readNBytes *****************
  8396 ;; Defined at:
  8397 ;;		line 228 in file "mcc_generated_files/drivers/i2c_simple_master.c"
  8398 ;; Parameters:    Size  Location     Type
  8399 ;;  address         1    wreg     unsigned char 
  8400 ;;  data            1    5[COMMON] PTR void 
  8401 ;;		 -> EE_Read@frame(3), I2CSIMPLE_example@receiveData(15), 
  8402 ;;  len             2    6[COMMON] unsigned int 
  8403 ;; Auto vars:     Size  Location     Type
  8404 ;;  address         1    8[COMMON] unsigned char 
  8405 ;; Return value:  Size  Location     Type
  8406 ;;                  1    wreg      void 
  8407 ;; Registers used:
  8408 ;;		wreg, status,2, status,0, pclath, cstack
  8409 ;; Tracked objects:
  8410 ;;		On entry : 0/0
  8411 ;;		On exit  : 0/0
  8412 ;;		Unchanged: 0/0
  8413 ;; Data sizes:     COMMON   BANK0   BANK1   BANK2   BANK3   BANK4   BANK5   BANK6   BANK7   BANK8   BANK9  BANK10  BANK1
      +1  BANK12  BANK13  BANK14  BANK15  BANK16  BANK17  BANK18  BANK19  BANK20  BANK21  BANK22  BANK23  BANK24  BANK25
  8414 ;;      Params:         3       0       0       0       0       0       0       0       0       0       0       0       
      +0       0       0       0       0       0       0       0       0       0       0       0       0       0       0
  8415 ;;      Locals:         1       0       0       0       0       0       0       0       0       0       0       0       
      +0       0       0       0       0       0       0       0       0       0       0       0       0       0       0
  8416 ;;      Temps:          0       0       0       0       0       0       0       0       0       0       0       0       
      +0       0       0       0       0       0       0       0       0       0       0       0       0       0       0
  8417 ;;      Totals:         4       0       0       0       0       0       0       0       0       0       0       0       
      +0       0       0       0       0       0       0       0       0       0       0       0       0       0       0
  8418 ;;Total ram usage:        4 bytes
  8419 ;; Hardware stack levels used:    1
  8420 ;; Hardware stack levels required when called:    3
  8421 ;; This function calls:
  8422 ;;		_I2C1_Close
  8423 ;;		_I2C1_MasterRead
  8424 ;;		_I2C1_Open
  8425 ;;		_I2C1_SetBuffer
  8426 ;; This function is called by:
  8427 ;;		_EE_Read
  8428 ;;		_I2CSIMPLE_example
  8429 ;; This function uses a non-reentrant model
  8430 ;;
  8431                           
  8432                           
  8433                           ;psect for function _i2c_readNBytes
  8434  0F12                     _i2c_readNBytes:
  8435                           
  8436                           ;incstack = 0
  8437                           ; Regs used in _i2c_readNBytes: [wreg+status,2+status,0+pclath+cstack]
  8438                           ;i2c_readNBytes@address stored from wreg
  8439  0F12  00F8               	movwf	i2c_readNBytes@address
  8440  0F13                     l3221:
  8441  0F13                     l3223:	
  8442                           ;mcc_generated_files/drivers/i2c_simple_master.c: 228: void i2c_readNBytes(i2c1_address_
      +                          t address, void *data, size_t len);mcc_generated_files/drivers/i2c_simple_master.c: 229:
      +                           {;mcc_generated_files/drivers/i2c_simple_master.c: 230:     while(!I2C1_Open(address));
  8443                           
  8444  0F13  0878               	movf	i2c_readNBytes@address,w
  8445  0F14  3180  208F  318F   	fcall	_I2C1_Open
  8446  0F17  3A00               	xorlw	0
  8447  0F18  1903               	skipnz
  8448  0F19  2F1B               	goto	u2231
  8449  0F1A  2F1C               	goto	u2230
  8450  0F1B                     u2231:
  8451  0F1B  2F13               	goto	l3223
  8452  0F1C                     u2230:
  8453  0F1C                     l3225:
  8454                           
  8455                           ;mcc_generated_files/drivers/i2c_simple_master.c: 231:     I2C1_SetBuffer(data,len);
  8456  0F1C  0877               	movf	i2c_readNBytes@len+1,w
  8457  0F1D  00F1               	movwf	I2C1_SetBuffer@bufferSize+1
  8458  0F1E  0876               	movf	i2c_readNBytes@len,w
  8459  0F1F  00F0               	movwf	I2C1_SetBuffer@bufferSize
  8460  0F20  0875               	movf	i2c_readNBytes@data,w
  8461  0F21  318E  2630  318F   	fcall	_I2C1_SetBuffer
  8462                           
  8463                           ;mcc_generated_files/drivers/i2c_simple_master.c: 232:     I2C1_MasterRead();
  8464  0F24  318D  25C4  318F   	fcall	_I2C1_MasterRead
  8465  0F27                     l3227:	
  8466                           ;mcc_generated_files/drivers/i2c_simple_master.c: 233:     while(I2C1_BUSY == I2C1_Close
      +                          ());
  8467                           
  8468  0F27  318E  26F6  318F   	fcall	_I2C1_Close
  8469  0F2A  3A01               	xorlw	1
  8470  0F2B  1903               	skipnz
  8471  0F2C  2F2E               	goto	u2241
  8472  0F2D  2F2F               	goto	u2240
  8473  0F2E                     u2241:
  8474  0F2E  2F27               	goto	l3227
  8475  0F2F                     u2240:
  8476  0F2F                     l97:
  8477  0F2F  0008               	return
  8478  0F30                     __end_of_i2c_readNBytes:
  8479                           
  8480                           	psect	text34
  8481  0E30                     __ptext34:	
  8482 ;; *************** function _I2C1_SetBuffer *****************
  8483 ;; Defined at:
  8484 ;;		line 264 in file "mcc_generated_files/i2c1_master.c"
  8485 ;; Parameters:    Size  Location     Type
  8486 ;;  buffer          1    wreg     PTR void 
  8487 ;;		 -> EE_Read@frame(3), EE_Write@frame(3), I2CSIMPLE_example@receiveData(15), I2CSIMPLE_example@sendData(17), 
  8488 ;;		 -> I2C1_ReadDataBlock@reg(1), I2C1_ReadDataBlock@bufferBlock(3), I2C1_Write2ByteRegister@reg(1), I2C1_Write2ByteReg
      +ister@data(2), 
  8489 ;;		 -> I2C1_Write1ByteRegister@reg(1), I2C1_Write1ByteRegister@data(1), I2C1_Read2ByteRegister@reg(1), I2C1_Read2ByteRe
      +gister@returnValue(2), 
  8490 ;;		 -> I2C1_Read1ByteRegister@reg(1), I2C1_Read1ByteRegister@returnValue(1), i2c_readDataBlock@reg(1), i2c_readDataBloc
      +k@d(3), 
  8491 ;;		 -> i2c_write2ByteRegister@reg(1), i2c_write2ByteRegister@data(2), i2c_read2ByteRegister@reg(1), i2c_read2ByteRegist
      +er@result(2), 
  8492 ;;		 -> i2c_read1ByteRegister@reg(1), i2c_read1ByteRegister@d2(1), i2c_write1ByteRegister@reg(1), i2c_write1ByteRegister
      +@data(1), 
  8493 ;;		 -> NULL(0), 
  8494 ;;  bufferSize      2    0[COMMON] unsigned int 
  8495 ;; Auto vars:     Size  Location     Type
  8496 ;;  buffer          1    3[COMMON] PTR void 
  8497 ;;		 -> EE_Read@frame(3), EE_Write@frame(3), I2CSIMPLE_example@receiveData(15), I2CSIMPLE_example@sendData(17), 
  8498 ;;		 -> I2C1_ReadDataBlock@reg(1), I2C1_ReadDataBlock@bufferBlock(3), I2C1_Write2ByteRegister@reg(1), I2C1_Write2ByteReg
      +ister@data(2), 
  8499 ;;		 -> I2C1_Write1ByteRegister@reg(1), I2C1_Write1ByteRegister@data(1), I2C1_Read2ByteRegister@reg(1), I2C1_Read2ByteRe
      +gister@returnValue(2), 
  8500 ;;		 -> I2C1_Read1ByteRegister@reg(1), I2C1_Read1ByteRegister@returnValue(1), i2c_readDataBlock@reg(1), i2c_readDataBloc
      +k@d(3), 
  8501 ;;		 -> i2c_write2ByteRegister@reg(1), i2c_write2ByteRegister@data(2), i2c_read2ByteRegister@reg(1), i2c_read2ByteRegist
      +er@result(2), 
  8502 ;;		 -> i2c_read1ByteRegister@reg(1), i2c_read1ByteRegister@d2(1), i2c_write1ByteRegister@reg(1), i2c_write1ByteRegister
      +@data(1), 
  8503 ;;		 -> NULL(0), 
  8504 ;; Return value:  Size  Location     Type
  8505 ;;                  1    wreg      void 
  8506 ;; Registers used:
  8507 ;;		wreg
  8508 ;; Tracked objects:
  8509 ;;		On entry : 0/0
  8510 ;;		On exit  : 0/0
  8511 ;;		Unchanged: 0/0
  8512 ;; Data sizes:     COMMON   BANK0   BANK1   BANK2   BANK3   BANK4   BANK5   BANK6   BANK7   BANK8   BANK9  BANK10  BANK1
      +1  BANK12  BANK13  BANK14  BANK15  BANK16  BANK17  BANK18  BANK19  BANK20  BANK21  BANK22  BANK23  BANK24  BANK25
  8513 ;;      Params:         2       0       0       0       0       0       0       0       0       0       0       0       
      +0       0       0       0       0       0       0       0       0       0       0       0       0       0       0
  8514 ;;      Locals:         1       0       0       0       0       0       0       0       0       0       0       0       
      +0       0       0       0       0       0       0       0       0       0       0       0       0       0       0
  8515 ;;      Temps:          1       0       0       0       0       0       0       0       0       0       0       0       
      +0       0       0       0       0       0       0       0       0       0       0       0       0       0       0
  8516 ;;      Totals:         4       0       0       0       0       0       0       0       0       0       0       0       
      +0       0       0       0       0       0       0       0       0       0       0       0       0       0       0
  8517 ;;Total ram usage:        4 bytes
  8518 ;; Hardware stack levels used:    1
  8519 ;; This function calls:
  8520 ;;		Nothing
  8521 ;; This function is called by:
  8522 ;;		_i2c_writeNBytes
  8523 ;;		_i2c_readNBytes
  8524 ;;		_wr1RegCompleteHandler
  8525 ;;		_i2c_write1ByteRegister
  8526 ;;		_rd1RegCompleteHandler
  8527 ;;		_i2c_read1ByteRegister
  8528 ;;		_rd2RegCompleteHandler
  8529 ;;		_i2c_read2ByteRegister
  8530 ;;		_wr2RegCompleteHandler
  8531 ;;		_i2c_write2ByteRegister
  8532 ;;		_rdBlkRegCompleteHandler
  8533 ;;		_i2c_readDataBlock
  8534 ;;		_I2C1_Read1ByteRegister
  8535 ;;		_I2C1_Read2ByteRegister
  8536 ;;		_I2C1_Write1ByteRegister
  8537 ;;		_I2C1_Write2ByteRegister
  8538 ;;		_I2C1_WriteNBytes
  8539 ;;		_I2C1_ReadNBytes
  8540 ;;		_I2C1_ReadDataBlock
  8541 ;;		_rd1RegCompleteHandler@i2c1_master_example$F146
  8542 ;;		_rd2RegCompleteHandler@i2c1_master_example$F157
  8543 ;;		_wr1RegCompleteHandler@i2c1_master_example$F163
  8544 ;;		_wr2RegCompleteHandler@i2c1_master_example$F169
  8545 ;;		_rdBlkRegCompleteHandler@i2c1_master_example$F180
  8546 ;; This function uses a non-reentrant model
  8547 ;;
  8548                           
  8549                           
  8550                           ;psect for function _I2C1_SetBuffer
  8551  0E30                     _I2C1_SetBuffer:
  8552                           
  8553                           ;incstack = 0
  8554                           ; Regs used in _I2C1_SetBuffer: [wreg]
  8555                           ;I2C1_SetBuffer@buffer stored from wreg
  8556  0E30  00F3               	movwf	I2C1_SetBuffer@buffer
  8557  0E31                     l3073:
  8558                           
  8559                           ;mcc_generated_files/i2c1_master.c: 264: void I2C1_SetBuffer(void *buffer, size_t buffer
      +                          Size);mcc_generated_files/i2c1_master.c: 265: {;mcc_generated_files/i2c1_master.c: 266: 
      +                              if(I2C1_Status.bufferFree)
  8560  0E31  0141               	movlb	1	; select bank1
  8561  0E32  1DBC               	btfss	(_I2C1_Status^(0+128)+28),3
  8562  0E33  2E35               	goto	u2121
  8563  0E34  2E36               	goto	u2120
  8564  0E35                     u2121:
  8565  0E35  2E3F               	goto	l359
  8566  0E36                     u2120:
  8567  0E36                     l3075:
  8568                           
  8569                           ;mcc_generated_files/i2c1_master.c: 267:     {;mcc_generated_files/i2c1_master.c: 268:  
      +                                 I2C1_Status.data_ptr = buffer;
  8570  0E36  0873               	movf	I2C1_SetBuffer@buffer,w
  8571  0E37  00F2               	movwf	??_I2C1_SetBuffer
  8572  0E38  0872               	movf	??_I2C1_SetBuffer,w
  8573  0E39  00B7               	movwf	(low ((_I2C1_Status| 0+23)))^(0+128)
  8574                           
  8575                           ;mcc_generated_files/i2c1_master.c: 269:         I2C1_Status.data_length = bufferSize;
  8576  0E3A  0871               	movf	I2C1_SetBuffer@bufferSize+1,w
  8577  0E3B  00B9               	movwf	((_I2C1_Status+1)^(0+128)+24)
  8578  0E3C  0870               	movf	I2C1_SetBuffer@bufferSize,w
  8579  0E3D  00B8               	movwf	(_I2C1_Status^(0+128)+24)
  8580  0E3E                     l3077:
  8581                           
  8582                           ;mcc_generated_files/i2c1_master.c: 270:         I2C1_Status.bufferFree = 0;
  8583  0E3E  11BC               	bcf	(_I2C1_Status^(0+128)+28),3
  8584  0E3F                     l359:
  8585  0E3F  0008               	return
  8586  0E40                     __end_of_I2C1_SetBuffer:
  8587                           
  8588                           	psect	text35
  8589  008F                     __ptext35:	
  8590 ;; *************** function _I2C1_Open *****************
  8591 ;; Defined at:
  8592 ;;		line 176 in file "mcc_generated_files/i2c1_master.c"
  8593 ;; Parameters:    Size  Location     Type
  8594 ;;  address         1    wreg     unsigned char 
  8595 ;; Auto vars:     Size  Location     Type
  8596 ;;  address         1    3[COMMON] unsigned char 
  8597 ;;  returnValue     1    4[COMMON] enum E355
  8598 ;; Return value:  Size  Location     Type
  8599 ;;                  1    wreg      enum E355
  8600 ;; Registers used:
  8601 ;;		wreg, status,2, status,0, pclath, cstack
  8602 ;; Tracked objects:
  8603 ;;		On entry : 0/0
  8604 ;;		On exit  : 0/0
  8605 ;;		Unchanged: 0/0
  8606 ;; Data sizes:     COMMON   BANK0   BANK1   BANK2   BANK3   BANK4   BANK5   BANK6   BANK7   BANK8   BANK9  BANK10  BANK1
      +1  BANK12  BANK13  BANK14  BANK15  BANK16  BANK17  BANK18  BANK19  BANK20  BANK21  BANK22  BANK23  BANK24  BANK25
  8607 ;;      Params:         0       0       0       0       0       0       0       0       0       0       0       0       
      +0       0       0       0       0       0       0       0       0       0       0       0       0       0       0
  8608 ;;      Locals:         2       0       0       0       0       0       0       0       0       0       0       0       
      +0       0       0       0       0       0       0       0       0       0       0       0       0       0       0
  8609 ;;      Temps:          1       0       0       0       0       0       0       0       0       0       0       0       
      +0       0       0       0       0       0       0       0       0       0       0       0       0       0       0
  8610 ;;      Totals:         3       0       0       0       0       0       0       0       0       0       0       0       
      +0       0       0       0       0       0       0       0       0       0       0       0       0       0       0
  8611 ;;Total ram usage:        3 bytes
  8612 ;; Hardware stack levels used:    1
  8613 ;; Hardware stack levels required when called:    1
  8614 ;; This function calls:
  8615 ;;		_I2C1_MasterClearIrq
  8616 ;;		_I2C1_MasterEnableIrq
  8617 ;;		_I2C1_MasterOpen
  8618 ;;		_I2C1_SetInterruptHandler
  8619 ;; This function is called by:
  8620 ;;		_i2c_writeNBytes
  8621 ;;		_i2c_readNBytes
  8622 ;;		_i2c_write1ByteRegister
  8623 ;;		_i2c_read1ByteRegister
  8624 ;;		_i2c_read2ByteRegister
  8625 ;;		_i2c_write2ByteRegister
  8626 ;;		_i2c_readDataBlock
  8627 ;;		_I2C1_Read1ByteRegister
  8628 ;;		_I2C1_Read2ByteRegister
  8629 ;;		_I2C1_Write1ByteRegister
  8630 ;;		_I2C1_Write2ByteRegister
  8631 ;;		_I2C1_WriteNBytes
  8632 ;;		_I2C1_ReadNBytes
  8633 ;;		_I2C1_ReadDataBlock
  8634 ;; This function uses a non-reentrant model
  8635 ;;
  8636                           
  8637                           
  8638                           ;psect for function _I2C1_Open
  8639  008F                     _I2C1_Open:
  8640                           
  8641                           ;incstack = 0
  8642                           ; Regs used in _I2C1_Open: [wreg+status,2+status,0+pclath+cstack]
  8643                           ;I2C1_Open@address stored from wreg
  8644  008F  00F3               	movwf	I2C1_Open@address
  8645  0090                     l3079:
  8646                           
  8647                           ;mcc_generated_files/i2c1_master.c: 176: i2c1_error_t I2C1_Open(i2c1_address_t address);
      +                          mcc_generated_files/i2c1_master.c: 177: {;mcc_generated_files/i2c1_master.c: 178:     i2
      +                          c1_error_t returnValue = I2C1_BUSY;
  8648  0090  01F4               	clrf	I2C1_Open@returnValue
  8649  0091  0AF4               	incf	I2C1_Open@returnValue,f
  8650                           
  8651                           ;mcc_generated_files/i2c1_master.c: 180:     if(!I2C1_Status.inUse)
  8652  0092  0141               	movlb	1	; select bank1
  8653  0093  193C               	btfsc	(_I2C1_Status^(0+128)+28),2
  8654  0094  2896               	goto	u2131
  8655  0095  2897               	goto	u2130
  8656  0096                     u2131:
  8657  0096  28D1               	goto	l3111
  8658  0097                     u2130:
  8659  0097                     l3081:
  8660                           
  8661                           ;mcc_generated_files/i2c1_master.c: 181:     {;mcc_generated_files/i2c1_master.c: 182:  
      +                                 I2C1_Status.address = address;
  8662  0097  0873               	movf	I2C1_Open@address,w
  8663  0098  00F2               	movwf	??_I2C1_Open
  8664  0099  0872               	movf	??_I2C1_Open,w
  8665  009A  00B6               	movwf	(_I2C1_Status^(0+128)+22)
  8666  009B                     l3083:
  8667                           
  8668                           ;mcc_generated_files/i2c1_master.c: 183:         I2C1_Status.busy = 0;
  8669  009B  10BC               	bcf	(_I2C1_Status^(0+128)+28),1
  8670  009C                     l3085:
  8671                           
  8672                           ;mcc_generated_files/i2c1_master.c: 184:         I2C1_Status.inUse = 1;
  8673  009C  153C               	bsf	(_I2C1_Status^(0+128)+28),2
  8674  009D                     l3087:
  8675                           
  8676                           ;mcc_generated_files/i2c1_master.c: 185:         I2C1_Status.addressNackCheck = 0;
  8677  009D  103C               	bcf	(_I2C1_Status^(0+128)+28),0
  8678                           
  8679                           ;mcc_generated_files/i2c1_master.c: 186:         I2C1_Status.state = I2C1_RESET;
  8680  009E  300E               	movlw	14
  8681  009F  00F2               	movwf	??_I2C1_Open
  8682  00A0  0872               	movf	??_I2C1_Open,w
  8683  00A1  00BA               	movwf	(_I2C1_Status^(0+128)+26)
  8684                           
  8685                           ;mcc_generated_files/i2c1_master.c: 187:         I2C1_Status.time_out_value = 500;
  8686  00A2  30F4               	movlw	244
  8687  00A3  00B4               	movwf	(_I2C1_Status^(0+128)+20)
  8688  00A4  3001               	movlw	1
  8689  00A5  00B5               	movwf	(_I2C1_Status^(0+128)+21)
  8690  00A6                     l3089:
  8691                           
  8692                           ;mcc_generated_files/i2c1_master.c: 188:         I2C1_Status.bufferFree = 1;
  8693  00A6  15BC               	bsf	(_I2C1_Status^(0+128)+28),3
  8694                           
  8695                           ;mcc_generated_files/i2c1_master.c: 191:         I2C1_Status.callbackTable[I2C1_DATA_COM
      +                          PLETE]=I2C1_CallbackReturnStop;
  8696  00A7  3000               	movlw	0
  8697  00A8  00A0               	movwf	_I2C1_Status^(0+128)
  8698  00A9  3000               	movlw	0
  8699  00AA  00A1               	movwf	(_I2C1_Status^(0+128)+1)
  8700  00AB                     l3091:
  8701                           
  8702                           ;mcc_generated_files/i2c1_master.c: 192:         I2C1_Status.callbackPayload[I2C1_DATA_C
      +                          OMPLETE] = ((void*)0);
  8703  00AB  01AC               	clrf	(low ((_I2C1_Status| 0+12)))^(0+128)
  8704  00AC                     l3093:
  8705                           
  8706                           ;mcc_generated_files/i2c1_master.c: 193:         I2C1_Status.callbackTable[I2C1_WRITE_CO
      +                          LLISION]=I2C1_CallbackReturnStop;
  8707  00AC  3000               	movlw	0
  8708  00AD  00A2               	movwf	(low ((_I2C1_Status| 0+2)))^(0+128)
  8709  00AE  3000               	movlw	0
  8710  00AF  00A3               	movwf	((low ((_I2C1_Status| 0+2)))^(0+128)+1)
  8711                           
  8712                           ;mcc_generated_files/i2c1_master.c: 194:         I2C1_Status.callbackPayload[I2C1_WRITE_
      +                          COLLISION] = ((void*)0);
  8713  00B0  01AD               	clrf	(low ((_I2C1_Status| 0+13)))^(0+128)
  8714  00B1                     l3095:
  8715                           
  8716                           ;mcc_generated_files/i2c1_master.c: 195:         I2C1_Status.callbackTable[I2C1_ADDR_NAC
      +                          K]=I2C1_CallbackReturnStop;
  8717  00B1  3000               	movlw	0
  8718  00B2  00A4               	movwf	(low ((_I2C1_Status| 0+4)))^(0+128)
  8719  00B3  3000               	movlw	0
  8720  00B4  00A5               	movwf	((low ((_I2C1_Status| 0+4)))^(0+128)+1)
  8721  00B5                     l3097:
  8722                           
  8723                           ;mcc_generated_files/i2c1_master.c: 196:         I2C1_Status.callbackPayload[I2C1_ADDR_N
      +                          ACK] = ((void*)0);
  8724  00B5  01AE               	clrf	(low ((_I2C1_Status| 0+14)))^(0+128)
  8725                           
  8726                           ;mcc_generated_files/i2c1_master.c: 197:         I2C1_Status.callbackTable[I2C1_DATA_NAC
      +                          K]=I2C1_CallbackReturnStop;
  8727  00B6  3000               	movlw	0
  8728  00B7  00A6               	movwf	(low ((_I2C1_Status| 0+6)))^(0+128)
  8729  00B8  3000               	movlw	0
  8730  00B9  00A7               	movwf	((low ((_I2C1_Status| 0+6)))^(0+128)+1)
  8731  00BA                     l3099:
  8732                           
  8733                           ;mcc_generated_files/i2c1_master.c: 198:         I2C1_Status.callbackPayload[I2C1_DATA_N
      +                          ACK] = ((void*)0);
  8734  00BA  01AF               	clrf	(low ((_I2C1_Status| 0+15)))^(0+128)
  8735  00BB                     l3101:
  8736                           
  8737                           ;mcc_generated_files/i2c1_master.c: 199:         I2C1_Status.callbackTable[I2C1_TIMEOUT]
      +                          =I2C1_CallbackReturnReset;
  8738  00BB  3000               	movlw	0
  8739  00BC  00A8               	movwf	(low ((_I2C1_Status| 0+8)))^(0+128)
  8740  00BD  3000               	movlw	0
  8741  00BE  00A9               	movwf	((low ((_I2C1_Status| 0+8)))^(0+128)+1)
  8742                           
  8743                           ;mcc_generated_files/i2c1_master.c: 200:         I2C1_Status.callbackPayload[I2C1_TIMEOU
      +                          T] = ((void*)0);
  8744  00BF  01B0               	clrf	(low ((_I2C1_Status| 0+16)))^(0+128)
  8745  00C0                     l3103:
  8746                           
  8747                           ;mcc_generated_files/i2c1_master.c: 202:         I2C1_SetInterruptHandler(I2C1_MasterIsr
      +                          );
  8748  00C0  3000               	movlw	0
  8749  00C1  00F0               	movwf	I2C1_SetInterruptHandler@InterruptHandler
  8750  00C2  3000               	movlw	0
  8751  00C3  00F1               	movwf	I2C1_SetInterruptHandler@InterruptHandler+1
  8752  00C4  318D  25D8  3180   	fcall	_I2C1_SetInterruptHandler
  8753  00C7                     l3105:
  8754                           
  8755                           ;mcc_generated_files/i2c1_master.c: 203:         I2C1_MasterClearIrq();
  8756  00C7  318D  25B5  3180   	fcall	_I2C1_MasterClearIrq
  8757  00CA                     l3107:
  8758                           
  8759                           ;mcc_generated_files/i2c1_master.c: 204:         I2C1_MasterOpen();
  8760  00CA  318E  2622  3180   	fcall	_I2C1_MasterOpen
  8761  00CD                     l3109:
  8762                           
  8763                           ;mcc_generated_files/i2c1_master.c: 205:         I2C1_MasterEnableIrq();
  8764  00CD  318D  25C1  3180   	fcall	_I2C1_MasterEnableIrq
  8765                           
  8766                           ;mcc_generated_files/i2c1_master.c: 206:         returnValue = I2C1_NOERR;
  8767  00D0  01F4               	clrf	I2C1_Open@returnValue
  8768  00D1                     l3111:
  8769                           
  8770                           ;mcc_generated_files/i2c1_master.c: 208:     return returnValue;
  8771  00D1  0874               	movf	I2C1_Open@returnValue,w
  8772  00D2                     l336:
  8773  00D2  0008               	return
  8774  00D3                     __end_of_I2C1_Open:
  8775                           
  8776                           	psect	text36
  8777  0DD8                     __ptext36:	
  8778 ;; *************** function _I2C1_SetInterruptHandler *****************
  8779 ;; Defined at:
  8780 ;;		line 299 in file "mcc_generated_files/i2c1_master.c"
  8781 ;; Parameters:    Size  Location     Type
  8782 ;;  InterruptHan    2    0[COMMON] PTR FTN()void 
  8783 ;;		 -> I2C1_MasterIsr(1), 
  8784 ;; Auto vars:     Size  Location     Type
  8785 ;;		None
  8786 ;; Return value:  Size  Location     Type
  8787 ;;                  1    wreg      void 
  8788 ;; Registers used:
  8789 ;;		wreg
  8790 ;; Tracked objects:
  8791 ;;		On entry : 0/0
  8792 ;;		On exit  : 0/0
  8793 ;;		Unchanged: 0/0
  8794 ;; Data sizes:     COMMON   BANK0   BANK1   BANK2   BANK3   BANK4   BANK5   BANK6   BANK7   BANK8   BANK9  BANK10  BANK1
      +1  BANK12  BANK13  BANK14  BANK15  BANK16  BANK17  BANK18  BANK19  BANK20  BANK21  BANK22  BANK23  BANK24  BANK25
  8795 ;;      Params:         2       0       0       0       0       0       0       0       0       0       0       0       
      +0       0       0       0       0       0       0       0       0       0       0       0       0       0       0
  8796 ;;      Locals:         0       0       0       0       0       0       0       0       0       0       0       0       
      +0       0       0       0       0       0       0       0       0       0       0       0       0       0       0
  8797 ;;      Temps:          0       0       0       0       0       0       0       0       0       0       0       0       
      +0       0       0       0       0       0       0       0       0       0       0       0       0       0       0
  8798 ;;      Totals:         2       0       0       0       0       0       0       0       0       0       0       0       
      +0       0       0       0       0       0       0       0       0       0       0       0       0       0       0
  8799 ;;Total ram usage:        2 bytes
  8800 ;; Hardware stack levels used:    1
  8801 ;; This function calls:
  8802 ;;		Nothing
  8803 ;; This function is called by:
  8804 ;;		_I2C1_Open
  8805 ;; This function uses a non-reentrant model
  8806 ;;
  8807                           
  8808                           
  8809                           ;psect for function _I2C1_SetInterruptHandler
  8810  0DD8                     _I2C1_SetInterruptHandler:
  8811  0DD8                     l2905:	
  8812                           ;incstack = 0
  8813                           ; Regs used in _I2C1_SetInterruptHandler: [wreg]
  8814                           
  8815                           
  8816                           ;mcc_generated_files/i2c1_master.c: 299: void I2C1_SetInterruptHandler(void (* Interrupt
      +                          Handler)(void));mcc_generated_files/i2c1_master.c: 300: {;mcc_generated_files/i2c1_maste
      +                          r.c: 301:     MSSP1_InterruptHandler = InterruptHandler;
  8817  0DD8  0871               	movf	I2C1_SetInterruptHandler@InterruptHandler+1,w
  8818  0DD9  0141               	movlb	1	; select bank1
  8819  0DDA  00CB               	movwf	(_MSSP1_InterruptHandler+1)^(0+128)
  8820  0DDB  0870               	movf	I2C1_SetInterruptHandler@InterruptHandler,w
  8821  0DDC  00CA               	movwf	_MSSP1_InterruptHandler^(0+128)
  8822  0DDD                     l377:
  8823  0DDD  0008               	return
  8824  0DDE                     __end_of_I2C1_SetInterruptHandler:
  8825                           
  8826                           	psect	text37
  8827  0E22                     __ptext37:	
  8828 ;; *************** function _I2C1_MasterOpen *****************
  8829 ;; Defined at:
  8830 ;;		line 544 in file "mcc_generated_files/i2c1_master.c"
  8831 ;; Parameters:    Size  Location     Type
  8832 ;;		None
  8833 ;; Auto vars:     Size  Location     Type
  8834 ;;		None
  8835 ;; Return value:  Size  Location     Type
  8836 ;;                  1    wreg      _Bool 
  8837 ;; Registers used:
  8838 ;;		wreg, status,2
  8839 ;; Tracked objects:
  8840 ;;		On entry : 0/0
  8841 ;;		On exit  : 0/0
  8842 ;;		Unchanged: 0/0
  8843 ;; Data sizes:     COMMON   BANK0   BANK1   BANK2   BANK3   BANK4   BANK5   BANK6   BANK7   BANK8   BANK9  BANK10  BANK1
      +1  BANK12  BANK13  BANK14  BANK15  BANK16  BANK17  BANK18  BANK19  BANK20  BANK21  BANK22  BANK23  BANK24  BANK25
  8844 ;;      Params:         0       0       0       0       0       0       0       0       0       0       0       0       
      +0       0       0       0       0       0       0       0       0       0       0       0       0       0       0
  8845 ;;      Locals:         0       0       0       0       0       0       0       0       0       0       0       0       
      +0       0       0       0       0       0       0       0       0       0       0       0       0       0       0
  8846 ;;      Temps:          0       0       0       0       0       0       0       0       0       0       0       0       
      +0       0       0       0       0       0       0       0       0       0       0       0       0       0       0
  8847 ;;      Totals:         0       0       0       0       0       0       0       0       0       0       0       0       
      +0       0       0       0       0       0       0       0       0       0       0       0       0       0       0
  8848 ;;Total ram usage:        0 bytes
  8849 ;; Hardware stack levels used:    1
  8850 ;; This function calls:
  8851 ;;		Nothing
  8852 ;; This function is called by:
  8853 ;;		_I2C1_Open
  8854 ;; This function uses a non-reentrant model
  8855 ;;
  8856                           
  8857                           
  8858                           ;psect for function _I2C1_MasterOpen
  8859  0E22                     _I2C1_MasterOpen:
  8860  0E22                     l2909:	
  8861                           ;incstack = 0
  8862                           ; Regs used in _I2C1_MasterOpen: [wreg+status,2]
  8863                           
  8864                           
  8865                           ;mcc_generated_files/i2c1_master.c: 546:     if(!SSP1CON1bits.SSPEN)
  8866  0E22  0143               	movlb	3	; select bank3
  8867  0E23  1A90               	btfsc	16,5	;volatile
  8868  0E24  2E26               	goto	u1751
  8869  0E25  2E27               	goto	u1750
  8870  0E26                     u1751:
  8871  0E26  2E2F               	goto	l501
  8872  0E27                     u1750:
  8873  0E27                     l2911:
  8874                           
  8875                           ;mcc_generated_files/i2c1_master.c: 547:     {;mcc_generated_files/i2c1_master.c: 548:  
      +                                 SSP1STAT = 0x80;
  8876  0E27  3080               	movlw	128
  8877  0E28  008F               	movwf	15	;volatile
  8878                           
  8879                           ;mcc_generated_files/i2c1_master.c: 549:         SSP1CON1 = 0x08;
  8880  0E29  3008               	movlw	8
  8881  0E2A  0090               	movwf	16	;volatile
  8882  0E2B                     l2913:
  8883                           
  8884                           ;mcc_generated_files/i2c1_master.c: 550:         SSP1CON2 = 0x00;
  8885  0E2B  0191               	clrf	17	;volatile
  8886  0E2C                     l2915:
  8887                           
  8888                           ;mcc_generated_files/i2c1_master.c: 551:         SSP1ADD = 0x09;
  8889  0E2C  3009               	movlw	9
  8890  0E2D  008D               	movwf	13	;volatile
  8891  0E2E                     l2917:
  8892                           
  8893                           ;mcc_generated_files/i2c1_master.c: 552:         SSP1CON1bits.SSPEN = 1;
  8894  0E2E  1690               	bsf	16,5	;volatile
  8895  0E2F                     l501:
  8896  0E2F  0008               	return
  8897  0E30                     __end_of_I2C1_MasterOpen:
  8898                           
  8899                           	psect	text38
  8900  0DC1                     __ptext38:	
  8901 ;; *************** function _I2C1_MasterEnableIrq *****************
  8902 ;; Defined at:
  8903 ;;		line 627 in file "mcc_generated_files/i2c1_master.c"
  8904 ;; Parameters:    Size  Location     Type
  8905 ;;		None
  8906 ;; Auto vars:     Size  Location     Type
  8907 ;;		None
  8908 ;; Return value:  Size  Location     Type
  8909 ;;                  1    wreg      void 
  8910 ;; Registers used:
  8911 ;;		None
  8912 ;; Tracked objects:
  8913 ;;		On entry : 0/0
  8914 ;;		On exit  : 0/0
  8915 ;;		Unchanged: 0/0
  8916 ;; Data sizes:     COMMON   BANK0   BANK1   BANK2   BANK3   BANK4   BANK5   BANK6   BANK7   BANK8   BANK9  BANK10  BANK1
      +1  BANK12  BANK13  BANK14  BANK15  BANK16  BANK17  BANK18  BANK19  BANK20  BANK21  BANK22  BANK23  BANK24  BANK25
  8917 ;;      Params:         0       0       0       0       0       0       0       0       0       0       0       0       
      +0       0       0       0       0       0       0       0       0       0       0       0       0       0       0
  8918 ;;      Locals:         0       0       0       0       0       0       0       0       0       0       0       0       
      +0       0       0       0       0       0       0       0       0       0       0       0       0       0       0
  8919 ;;      Temps:          0       0       0       0       0       0       0       0       0       0       0       0       
      +0       0       0       0       0       0       0       0       0       0       0       0       0       0       0
  8920 ;;      Totals:         0       0       0       0       0       0       0       0       0       0       0       0       
      +0       0       0       0       0       0       0       0       0       0       0       0       0       0       0
  8921 ;;Total ram usage:        0 bytes
  8922 ;; Hardware stack levels used:    1
  8923 ;; This function calls:
  8924 ;;		Nothing
  8925 ;; This function is called by:
  8926 ;;		_I2C1_Open
  8927 ;;		_I2C1_SetTimeOut
  8928 ;; This function uses a non-reentrant model
  8929 ;;
  8930                           
  8931                           
  8932                           ;psect for function _I2C1_MasterEnableIrq
  8933  0DC1                     _I2C1_MasterEnableIrq:
  8934  0DC1                     l2921:	
  8935                           ;incstack = 0
  8936                           ; Regs used in _I2C1_MasterEnableIrq: []
  8937                           
  8938                           
  8939                           ;mcc_generated_files/i2c1_master.c: 629:     PIE3bits.SSP1IE = 1;
  8940  0DC1  014E               	movlb	14	; select bank14
  8941  0DC2  1419               	bsf	25,0	;volatile
  8942  0DC3                     l543:
  8943  0DC3  0008               	return
  8944  0DC4                     __end_of_I2C1_MasterEnableIrq:
  8945                           
  8946                           	psect	text39
  8947  0DC4                     __ptext39:	
  8948 ;; *************** function _I2C1_MasterRead *****************
  8949 ;; Defined at:
  8950 ;;		line 247 in file "mcc_generated_files/i2c1_master.c"
  8951 ;; Parameters:    Size  Location     Type
  8952 ;;		None
  8953 ;; Auto vars:     Size  Location     Type
  8954 ;;		None
  8955 ;; Return value:  Size  Location     Type
  8956 ;;                  1    wreg      enum E355
  8957 ;; Registers used:
  8958 ;;		wreg, status,2, status,0, pclath, cstack
  8959 ;; Tracked objects:
  8960 ;;		On entry : 0/0
  8961 ;;		On exit  : 0/0
  8962 ;;		Unchanged: 0/0
  8963 ;; Data sizes:     COMMON   BANK0   BANK1   BANK2   BANK3   BANK4   BANK5   BANK6   BANK7   BANK8   BANK9  BANK10  BANK1
      +1  BANK12  BANK13  BANK14  BANK15  BANK16  BANK17  BANK18  BANK19  BANK20  BANK21  BANK22  BANK23  BANK24  BANK25
  8964 ;;      Params:         0       0       0       0       0       0       0       0       0       0       0       0       
      +0       0       0       0       0       0       0       0       0       0       0       0       0       0       0
  8965 ;;      Locals:         0       0       0       0       0       0       0       0       0       0       0       0       
      +0       0       0       0       0       0       0       0       0       0       0       0       0       0       0
  8966 ;;      Temps:          0       0       0       0       0       0       0       0       0       0       0       0       
      +0       0       0       0       0       0       0       0       0       0       0       0       0       0       0
  8967 ;;      Totals:         0       0       0       0       0       0       0       0       0       0       0       0       
      +0       0       0       0       0       0       0       0       0       0       0       0       0       0       0
  8968 ;;Total ram usage:        0 bytes
  8969 ;; Hardware stack levels used:    1
  8970 ;; Hardware stack levels required when called:    2
  8971 ;; This function calls:
  8972 ;;		_I2C1_MasterOperation
  8973 ;; This function is called by:
  8974 ;;		_i2c_readNBytes
  8975 ;;		_I2C1_ReadNBytes
  8976 ;; This function uses a non-reentrant model
  8977 ;;
  8978                           
  8979                           
  8980                           ;psect for function _I2C1_MasterRead
  8981  0DC4                     _I2C1_MasterRead:
  8982  0DC4                     l3139:	
  8983                           ;incstack = 0
  8984                           ; Regs used in _I2C1_MasterRead: [wreg+status,2+status,0+pclath+cstack]
  8985                           
  8986                           
  8987                           ;mcc_generated_files/i2c1_master.c: 249:     return I2C1_MasterOperation(1);;	Return val
      +                          ue of _I2C1_MasterRead is never used
  8988  0DC4  3001               	movlw	1
  8989  0DC5  318E  26DB  318D   	fcall	_I2C1_MasterOperation
  8990  0DC8                     l349:
  8991  0DC8  0008               	return
  8992  0DC9                     __end_of_I2C1_MasterRead:
  8993                           
  8994                           	psect	text40
  8995  0EDB                     __ptext40:	
  8996 ;; *************** function _I2C1_MasterOperation *****************
  8997 ;; Defined at:
  8998 ;;		line 226 in file "mcc_generated_files/i2c1_master.c"
  8999 ;; Parameters:    Size  Location     Type
  9000 ;;  read            1    wreg     _Bool 
  9001 ;; Auto vars:     Size  Location     Type
  9002 ;;  read            1    1[COMMON] _Bool 
  9003 ;;  returnValue     1    2[COMMON] enum E355
  9004 ;; Return value:  Size  Location     Type
  9005 ;;                  1    wreg      enum E355
  9006 ;; Registers used:
  9007 ;;		wreg, status,2, status,0, pclath, cstack
  9008 ;; Tracked objects:
  9009 ;;		On entry : 0/0
  9010 ;;		On exit  : 0/0
  9011 ;;		Unchanged: 0/0
  9012 ;; Data sizes:     COMMON   BANK0   BANK1   BANK2   BANK3   BANK4   BANK5   BANK6   BANK7   BANK8   BANK9  BANK10  BANK1
      +1  BANK12  BANK13  BANK14  BANK15  BANK16  BANK17  BANK18  BANK19  BANK20  BANK21  BANK22  BANK23  BANK24  BANK25
  9013 ;;      Params:         0       0       0       0       0       0       0       0       0       0       0       0       
      +0       0       0       0       0       0       0       0       0       0       0       0       0       0       0
  9014 ;;      Locals:         2       0       0       0       0       0       0       0       0       0       0       0       
      +0       0       0       0       0       0       0       0       0       0       0       0       0       0       0
  9015 ;;      Temps:          1       0       0       0       0       0       0       0       0       0       0       0       
      +0       0       0       0       0       0       0       0       0       0       0       0       0       0       0
  9016 ;;      Totals:         3       0       0       0       0       0       0       0       0       0       0       0       
      +0       0       0       0       0       0       0       0       0       0       0       0       0       0       0
  9017 ;;Total ram usage:        3 bytes
  9018 ;; Hardware stack levels used:    1
  9019 ;; Hardware stack levels required when called:    1
  9020 ;; This function calls:
  9021 ;;		_I2C1_MasterStart
  9022 ;; This function is called by:
  9023 ;;		_I2C1_MasterRead
  9024 ;;		_I2C1_MasterWrite
  9025 ;; This function uses a non-reentrant model
  9026 ;;
  9027                           
  9028                           
  9029                           ;psect for function _I2C1_MasterOperation
  9030  0EDB                     _I2C1_MasterOperation:
  9031                           
  9032                           ;incstack = 0
  9033                           ; Regs used in _I2C1_MasterOperation: [wreg+status,2+status,0+pclath+cstack]
  9034                           ;I2C1_MasterOperation@read stored from wreg
  9035  0EDB  00F1               	movwf	I2C1_MasterOperation@read
  9036  0EDC                     l2927:
  9037                           
  9038                           ;mcc_generated_files/i2c1_master.c: 226: i2c1_error_t I2C1_MasterOperation(_Bool read);m
      +                          cc_generated_files/i2c1_master.c: 227: {;mcc_generated_files/i2c1_master.c: 228:     i2c
      +                          1_error_t returnValue = I2C1_BUSY;
  9039  0EDC  01F2               	clrf	I2C1_MasterOperation@returnValue
  9040  0EDD  0AF2               	incf	I2C1_MasterOperation@returnValue,f
  9041                           
  9042                           ;mcc_generated_files/i2c1_master.c: 229:     if(!I2C1_Status.busy)
  9043  0EDE  0141               	movlb	1	; select bank1
  9044  0EDF  18BC               	btfsc	(_I2C1_Status^(0+128)+28),1
  9045  0EE0  2EE2               	goto	u1761
  9046  0EE1  2EE3               	goto	u1760
  9047  0EE2                     u1761:
  9048  0EE2  2EF4               	goto	l2941
  9049  0EE3                     u1760:
  9050  0EE3                     l2929:
  9051                           
  9052                           ;mcc_generated_files/i2c1_master.c: 230:     {;mcc_generated_files/i2c1_master.c: 231:  
      +                                 I2C1_Status.busy = 1;
  9053  0EE3  14BC               	bsf	(_I2C1_Status^(0+128)+28),1
  9054  0EE4                     l2931:
  9055                           
  9056                           ;mcc_generated_files/i2c1_master.c: 232:         returnValue = I2C1_NOERR;
  9057  0EE4  01F2               	clrf	I2C1_MasterOperation@returnValue
  9058  0EE5                     l2933:
  9059                           
  9060                           ;mcc_generated_files/i2c1_master.c: 234:         if(read)
  9061  0EE5  0871               	movf	I2C1_MasterOperation@read,w
  9062  0EE6  1903               	btfsc	3,2
  9063  0EE7  2EE9               	goto	u1771
  9064  0EE8  2EEA               	goto	u1770
  9065  0EE9                     u1771:
  9066  0EE9  2EED               	goto	l2937
  9067  0EEA                     u1770:
  9068  0EEA                     l2935:
  9069                           
  9070                           ;mcc_generated_files/i2c1_master.c: 235:         {;mcc_generated_files/i2c1_master.c: 23
      +                          6:             I2C1_Status.state = I2C1_SEND_ADR_READ;
  9071  0EEA  01BA               	clrf	(_I2C1_Status^(0+128)+26)
  9072  0EEB  0ABA               	incf	(_I2C1_Status^(0+128)+26),f
  9073                           
  9074                           ;mcc_generated_files/i2c1_master.c: 237:         }
  9075  0EEC  2EF1               	goto	l2939
  9076  0EED                     l2937:
  9077                           
  9078                           ;mcc_generated_files/i2c1_master.c: 239:         {;mcc_generated_files/i2c1_master.c: 24
      +                          0:             I2C1_Status.state = I2C1_SEND_ADR_WRITE;
  9079  0EED  3002               	movlw	2
  9080  0EEE  00F0               	movwf	??_I2C1_MasterOperation
  9081  0EEF  0870               	movf	??_I2C1_MasterOperation,w
  9082  0EF0  00BA               	movwf	(_I2C1_Status^(0+128)+26)
  9083  0EF1                     l2939:
  9084                           
  9085                           ;mcc_generated_files/i2c1_master.c: 242:         I2C1_MasterStart();
  9086  0EF1  318D  25BE  318E   	fcall	_I2C1_MasterStart
  9087  0EF4                     l2941:
  9088                           
  9089                           ;mcc_generated_files/i2c1_master.c: 244:     return returnValue;
  9090  0EF4  0872               	movf	I2C1_MasterOperation@returnValue,w
  9091  0EF5                     l346:
  9092  0EF5  0008               	return
  9093  0EF6                     __end_of_I2C1_MasterOperation:
  9094                           
  9095                           	psect	text41
  9096  0DBE                     __ptext41:	
  9097 ;; *************** function _I2C1_MasterStart *****************
  9098 ;; Defined at:
  9099 ;;		line 589 in file "mcc_generated_files/i2c1_master.c"
  9100 ;; Parameters:    Size  Location     Type
  9101 ;;		None
  9102 ;; Auto vars:     Size  Location     Type
  9103 ;;		None
  9104 ;; Return value:  Size  Location     Type
  9105 ;;                  1    wreg      void 
  9106 ;; Registers used:
  9107 ;;		None
  9108 ;; Tracked objects:
  9109 ;;		On entry : 0/0
  9110 ;;		On exit  : 0/0
  9111 ;;		Unchanged: 0/0
  9112 ;; Data sizes:     COMMON   BANK0   BANK1   BANK2   BANK3   BANK4   BANK5   BANK6   BANK7   BANK8   BANK9  BANK10  BANK1
      +1  BANK12  BANK13  BANK14  BANK15  BANK16  BANK17  BANK18  BANK19  BANK20  BANK21  BANK22  BANK23  BANK24  BANK25
  9113 ;;      Params:         0       0       0       0       0       0       0       0       0       0       0       0       
      +0       0       0       0       0       0       0       0       0       0       0       0       0       0       0
  9114 ;;      Locals:         0       0       0       0       0       0       0       0       0       0       0       0       
      +0       0       0       0       0       0       0       0       0       0       0       0       0       0       0
  9115 ;;      Temps:          0       0       0       0       0       0       0       0       0       0       0       0       
      +0       0       0       0       0       0       0       0       0       0       0       0       0       0       0
  9116 ;;      Totals:         0       0       0       0       0       0       0       0       0       0       0       0       
      +0       0       0       0       0       0       0       0       0       0       0       0       0       0       0
  9117 ;;Total ram usage:        0 bytes
  9118 ;; Hardware stack levels used:    1
  9119 ;; This function calls:
  9120 ;;		Nothing
  9121 ;; This function is called by:
  9122 ;;		_I2C1_MasterOperation
  9123 ;; This function uses a non-reentrant model
  9124 ;;
  9125                           
  9126                           
  9127                           ;psect for function _I2C1_MasterStart
  9128  0DBE                     _I2C1_MasterStart:
  9129  0DBE                     l2793:	
  9130                           ;incstack = 0
  9131                           ; Regs used in _I2C1_MasterStart: []
  9132                           
  9133                           
  9134                           ;mcc_generated_files/i2c1_master.c: 591:     SSP1CON2bits.SEN = 1;
  9135  0DBE  0143               	movlb	3	; select bank3
  9136  0DBF  1411               	bsf	17,0	;volatile
  9137  0DC0                     l522:
  9138  0DC0  0008               	return
  9139  0DC1                     __end_of_I2C1_MasterStart:
  9140                           
  9141                           	psect	text42
  9142  0EF6                     __ptext42:	
  9143 ;; *************** function _I2C1_Close *****************
  9144 ;; Defined at:
  9145 ;;		line 211 in file "mcc_generated_files/i2c1_master.c"
  9146 ;; Parameters:    Size  Location     Type
  9147 ;;		None
  9148 ;; Auto vars:     Size  Location     Type
  9149 ;;  returnValue     1    1[COMMON] enum E355
  9150 ;; Return value:  Size  Location     Type
  9151 ;;                  1    wreg      enum E355
  9152 ;; Registers used:
  9153 ;;		wreg, status,2, status,0, pclath, cstack
  9154 ;; Tracked objects:
  9155 ;;		On entry : 0/0
  9156 ;;		On exit  : 0/0
  9157 ;;		Unchanged: 0/0
  9158 ;; Data sizes:     COMMON   BANK0   BANK1   BANK2   BANK3   BANK4   BANK5   BANK6   BANK7   BANK8   BANK9  BANK10  BANK1
      +1  BANK12  BANK13  BANK14  BANK15  BANK16  BANK17  BANK18  BANK19  BANK20  BANK21  BANK22  BANK23  BANK24  BANK25
  9159 ;;      Params:         0       0       0       0       0       0       0       0       0       0       0       0       
      +0       0       0       0       0       0       0       0       0       0       0       0       0       0       0
  9160 ;;      Locals:         1       0       0       0       0       0       0       0       0       0       0       0       
      +0       0       0       0       0       0       0       0       0       0       0       0       0       0       0
  9161 ;;      Temps:          1       0       0       0       0       0       0       0       0       0       0       0       
      +0       0       0       0       0       0       0       0       0       0       0       0       0       0       0
  9162 ;;      Totals:         2       0       0       0       0       0       0       0       0       0       0       0       
      +0       0       0       0       0       0       0       0       0       0       0       0       0       0       0
  9163 ;;Total ram usage:        2 bytes
  9164 ;; Hardware stack levels used:    1
  9165 ;; Hardware stack levels required when called:    1
  9166 ;; This function calls:
  9167 ;;		_I2C1_MasterClearIrq
  9168 ;;		_I2C1_MasterClose
  9169 ;;		_I2C1_MasterDisableIrq
  9170 ;; This function is called by:
  9171 ;;		_i2c_writeNBytes
  9172 ;;		_i2c_readNBytes
  9173 ;;		_i2c_write1ByteRegister
  9174 ;;		_i2c_read1ByteRegister
  9175 ;;		_i2c_read2ByteRegister
  9176 ;;		_i2c_write2ByteRegister
  9177 ;;		_i2c_readDataBlock
  9178 ;;		_I2C1_Read1ByteRegister
  9179 ;;		_I2C1_Read2ByteRegister
  9180 ;;		_I2C1_Write1ByteRegister
  9181 ;;		_I2C1_Write2ByteRegister
  9182 ;;		_I2C1_WriteNBytes
  9183 ;;		_I2C1_ReadNBytes
  9184 ;;		_I2C1_ReadDataBlock
  9185 ;; This function uses a non-reentrant model
  9186 ;;
  9187                           
  9188                           
  9189                           ;psect for function _I2C1_Close
  9190  0EF6                     _I2C1_Close:
  9191  0EF6                     l3121:	
  9192                           ;incstack = 0
  9193                           ; Regs used in _I2C1_Close: [wreg+status,2+status,0+pclath+cstack]
  9194                           
  9195                           
  9196                           ;mcc_generated_files/i2c1_master.c: 213:     i2c1_error_t returnValue = I2C1_BUSY;
  9197  0EF6  01F1               	clrf	I2C1_Close@returnValue
  9198  0EF7  0AF1               	incf	I2C1_Close@returnValue,f
  9199                           
  9200                           ;mcc_generated_files/i2c1_master.c: 214:     if(!I2C1_Status.busy)
  9201  0EF8  0141               	movlb	1	; select bank1
  9202  0EF9  18BC               	btfsc	(_I2C1_Status^(0+128)+28),1
  9203  0EFA  2EFC               	goto	u2141
  9204  0EFB  2EFD               	goto	u2140
  9205  0EFC                     u2141:
  9206  0EFC  2F10               	goto	l3135
  9207  0EFD                     u2140:
  9208  0EFD                     l3123:
  9209                           
  9210                           ;mcc_generated_files/i2c1_master.c: 215:     {;mcc_generated_files/i2c1_master.c: 216:  
      +                                 I2C1_Status.inUse = 0;
  9211  0EFD  113C               	bcf	(_I2C1_Status^(0+128)+28),2
  9212  0EFE                     l3125:
  9213                           
  9214                           ;mcc_generated_files/i2c1_master.c: 217:         I2C1_Status.address = 0xff;
  9215  0EFE  30FF               	movlw	255
  9216  0EFF  00F0               	movwf	??_I2C1_Close
  9217  0F00  0870               	movf	??_I2C1_Close,w
  9218  0F01  00B6               	movwf	(_I2C1_Status^(0+128)+22)
  9219  0F02                     l3127:
  9220                           
  9221                           ;mcc_generated_files/i2c1_master.c: 218:         I2C1_MasterClearIrq();
  9222  0F02  318D  25B5  318E   	fcall	_I2C1_MasterClearIrq
  9223  0F05                     l3129:
  9224                           
  9225                           ;mcc_generated_files/i2c1_master.c: 219:         I2C1_MasterDisableIrq();
  9226  0F05  318D  25BB  318E   	fcall	_I2C1_MasterDisableIrq
  9227  0F08                     l3131:
  9228                           
  9229                           ;mcc_generated_files/i2c1_master.c: 220:         I2C1_MasterClose();
  9230  0F08  318D  25B8  318E   	fcall	_I2C1_MasterClose
  9231  0F0B                     l3133:
  9232                           
  9233                           ;mcc_generated_files/i2c1_master.c: 221:         returnValue = I2C1_Status.error;
  9234  0F0B  0141               	movlb	1	; select bank1
  9235  0F0C  083B               	movf	(_I2C1_Status^(0+128)+27),w
  9236  0F0D  00F0               	movwf	??_I2C1_Close
  9237  0F0E  0870               	movf	??_I2C1_Close,w
  9238  0F0F  00F1               	movwf	I2C1_Close@returnValue
  9239  0F10                     l3135:
  9240                           
  9241                           ;mcc_generated_files/i2c1_master.c: 223:     return returnValue;
  9242  0F10  0871               	movf	I2C1_Close@returnValue,w
  9243  0F11                     l340:
  9244  0F11  0008               	return
  9245  0F12                     __end_of_I2C1_Close:
  9246                           
  9247                           	psect	text43
  9248  0DBB                     __ptext43:	
  9249 ;; *************** function _I2C1_MasterDisableIrq *****************
  9250 ;; Defined at:
  9251 ;;		line 637 in file "mcc_generated_files/i2c1_master.c"
  9252 ;; Parameters:    Size  Location     Type
  9253 ;;		None
  9254 ;; Auto vars:     Size  Location     Type
  9255 ;;		None
  9256 ;; Return value:  Size  Location     Type
  9257 ;;                  1    wreg      void 
  9258 ;; Registers used:
  9259 ;;		None
  9260 ;; Tracked objects:
  9261 ;;		On entry : 0/0
  9262 ;;		On exit  : 0/0
  9263 ;;		Unchanged: 0/0
  9264 ;; Data sizes:     COMMON   BANK0   BANK1   BANK2   BANK3   BANK4   BANK5   BANK6   BANK7   BANK8   BANK9  BANK10  BANK1
      +1  BANK12  BANK13  BANK14  BANK15  BANK16  BANK17  BANK18  BANK19  BANK20  BANK21  BANK22  BANK23  BANK24  BANK25
  9265 ;;      Params:         0       0       0       0       0       0       0       0       0       0       0       0       
      +0       0       0       0       0       0       0       0       0       0       0       0       0       0       0
  9266 ;;      Locals:         0       0       0       0       0       0       0       0       0       0       0       0       
      +0       0       0       0       0       0       0       0       0       0       0       0       0       0       0
  9267 ;;      Temps:          0       0       0       0       0       0       0       0       0       0       0       0       
      +0       0       0       0       0       0       0       0       0       0       0       0       0       0       0
  9268 ;;      Totals:         0       0       0       0       0       0       0       0       0       0       0       0       
      +0       0       0       0       0       0       0       0       0       0       0       0       0       0       0
  9269 ;;Total ram usage:        0 bytes
  9270 ;; Hardware stack levels used:    1
  9271 ;; This function calls:
  9272 ;;		Nothing
  9273 ;; This function is called by:
  9274 ;;		_I2C1_Close
  9275 ;;		_I2C1_SetTimeOut
  9276 ;; This function uses a non-reentrant model
  9277 ;;
  9278                           
  9279                           
  9280                           ;psect for function _I2C1_MasterDisableIrq
  9281  0DBB                     _I2C1_MasterDisableIrq:
  9282  0DBB                     l2923:	
  9283                           ;incstack = 0
  9284                           ; Regs used in _I2C1_MasterDisableIrq: []
  9285                           
  9286                           
  9287                           ;mcc_generated_files/i2c1_master.c: 639:     PIE3bits.SSP1IE = 0;
  9288  0DBB  014E               	movlb	14	; select bank14
  9289  0DBC  1019               	bcf	25,0	;volatile
  9290  0DBD                     l549:
  9291  0DBD  0008               	return
  9292  0DBE                     __end_of_I2C1_MasterDisableIrq:
  9293                           
  9294                           	psect	text44
  9295  0DB8                     __ptext44:	
  9296 ;; *************** function _I2C1_MasterClose *****************
  9297 ;; Defined at:
  9298 ;;		line 558 in file "mcc_generated_files/i2c1_master.c"
  9299 ;; Parameters:    Size  Location     Type
  9300 ;;		None
  9301 ;; Auto vars:     Size  Location     Type
  9302 ;;		None
  9303 ;; Return value:  Size  Location     Type
  9304 ;;                  1    wreg      void 
  9305 ;; Registers used:
  9306 ;;		None
  9307 ;; Tracked objects:
  9308 ;;		On entry : 0/0
  9309 ;;		On exit  : 0/0
  9310 ;;		Unchanged: 0/0
  9311 ;; Data sizes:     COMMON   BANK0   BANK1   BANK2   BANK3   BANK4   BANK5   BANK6   BANK7   BANK8   BANK9  BANK10  BANK1
      +1  BANK12  BANK13  BANK14  BANK15  BANK16  BANK17  BANK18  BANK19  BANK20  BANK21  BANK22  BANK23  BANK24  BANK25
  9312 ;;      Params:         0       0       0       0       0       0       0       0       0       0       0       0       
      +0       0       0       0       0       0       0       0       0       0       0       0       0       0       0
  9313 ;;      Locals:         0       0       0       0       0       0       0       0       0       0       0       0       
      +0       0       0       0       0       0       0       0       0       0       0       0       0       0       0
  9314 ;;      Temps:          0       0       0       0       0       0       0       0       0       0       0       0       
      +0       0       0       0       0       0       0       0       0       0       0       0       0       0       0
  9315 ;;      Totals:         0       0       0       0       0       0       0       0       0       0       0       0       
      +0       0       0       0       0       0       0       0       0       0       0       0       0       0       0
  9316 ;;Total ram usage:        0 bytes
  9317 ;; Hardware stack levels used:    1
  9318 ;; This function calls:
  9319 ;;		Nothing
  9320 ;; This function is called by:
  9321 ;;		_I2C1_Close
  9322 ;; This function uses a non-reentrant model
  9323 ;;
  9324                           
  9325                           
  9326                           ;psect for function _I2C1_MasterClose
  9327  0DB8                     _I2C1_MasterClose:
  9328  0DB8                     l2925:	
  9329                           ;incstack = 0
  9330                           ; Regs used in _I2C1_MasterClose: []
  9331                           
  9332                           
  9333                           ;mcc_generated_files/i2c1_master.c: 561:     SSP1CON1bits.SSPEN = 0;
  9334  0DB8  0143               	movlb	3	; select bank3
  9335  0DB9  1290               	bcf	16,5	;volatile
  9336  0DBA                     l504:
  9337  0DBA  0008               	return
  9338  0DBB                     __end_of_I2C1_MasterClose:
  9339                           
  9340                           	psect	text45
  9341  0DB5                     __ptext45:	
  9342 ;; *************** function _I2C1_MasterClearIrq *****************
  9343 ;; Defined at:
  9344 ;;		line 642 in file "mcc_generated_files/i2c1_master.c"
  9345 ;; Parameters:    Size  Location     Type
  9346 ;;		None
  9347 ;; Auto vars:     Size  Location     Type
  9348 ;;		None
  9349 ;; Return value:  Size  Location     Type
  9350 ;;                  1    wreg      void 
  9351 ;; Registers used:
  9352 ;;		None
  9353 ;; Tracked objects:
  9354 ;;		On entry : 0/0
  9355 ;;		On exit  : 0/0
  9356 ;;		Unchanged: 0/0
  9357 ;; Data sizes:     COMMON   BANK0   BANK1   BANK2   BANK3   BANK4   BANK5   BANK6   BANK7   BANK8   BANK9  BANK10  BANK1
      +1  BANK12  BANK13  BANK14  BANK15  BANK16  BANK17  BANK18  BANK19  BANK20  BANK21  BANK22  BANK23  BANK24  BANK25
  9358 ;;      Params:         0       0       0       0       0       0       0       0       0       0       0       0       
      +0       0       0       0       0       0       0       0       0       0       0       0       0       0       0
  9359 ;;      Locals:         0       0       0       0       0       0       0       0       0       0       0       0       
      +0       0       0       0       0       0       0       0       0       0       0       0       0       0       0
  9360 ;;      Temps:          0       0       0       0       0       0       0       0       0       0       0       0       
      +0       0       0       0       0       0       0       0       0       0       0       0       0       0       0
  9361 ;;      Totals:         0       0       0       0       0       0       0       0       0       0       0       0       
      +0       0       0       0       0       0       0       0       0       0       0       0       0       0       0
  9362 ;;Total ram usage:        0 bytes
  9363 ;; Hardware stack levels used:    1
  9364 ;; This function calls:
  9365 ;;		Nothing
  9366 ;; This function is called by:
  9367 ;;		_I2C1_Open
  9368 ;;		_I2C1_Close
  9369 ;;		_I2C1_MasterFsm
  9370 ;; This function uses a non-reentrant model
  9371 ;;
  9372                           
  9373                           
  9374                           ;psect for function _I2C1_MasterClearIrq
  9375  0DB5                     _I2C1_MasterClearIrq:
  9376  0DB5                     l2907:	
  9377                           ;incstack = 0
  9378                           ; Regs used in _I2C1_MasterClearIrq: []
  9379                           
  9380                           
  9381                           ;mcc_generated_files/i2c1_master.c: 644:     PIR3bits.SSP1IF = 0;
  9382  0DB5  014E               	movlb	14	; select bank14
  9383  0DB6  100F               	bcf	15,0	;volatile
  9384  0DB7                     l552:
  9385  0DB7  0008               	return
  9386  0DB8                     __end_of_I2C1_MasterClearIrq:
  9387  007E                     btemp	set	126	;btemp
  9388  007E                     wtemp0	set	126
  9389                           
  9390                           	psect	config
  9391                           
  9392                           ;Config register CONFIG1 @ 0x8007
  9393                           ;	External Oscillator mode selection bits
  9394                           ;	FEXTOSC = OFF, Oscillator not enabled
  9395                           ;	Power-up default value for COSC bits
  9396                           ;	RSTOSC = HFINT1, HFINTOSC (1MHz)
  9397                           ;	Clock Out Enable bit
  9398                           ;	CLKOUTEN = OFF, CLKOUT function is disabled; i/o or oscillator function on OSC2
  9399                           ;	Clock Switch Enable bit
  9400                           ;	CSWEN = ON, Writing to NOSC and NDIV is allowed
  9401                           ;	Fail-Safe Clock Monitor Enable bit
  9402                           ;	FCMEN = ON, FSCM timer enabled
  9403  8007                     	org	32775
  9404  8007  3FEC               	dw	16364
  9405                           
  9406                           ;Config register CONFIG2 @ 0x8008
  9407                           ;	Master Clear Enable bit
  9408                           ;	MCLRE = ON, MCLR pin is Master Clear function
  9409                           ;	Power-up Timer Enable bit
  9410                           ;	PWRTE = OFF, PWRT disabled
  9411                           ;	Low-Power BOR enable bit
  9412                           ;	LPBOREN = OFF, ULPBOR disabled
  9413                           ;	Brown-out reset enable bits
  9414                           ;	BOREN = ON, Brown-out Reset Enabled, SBOREN bit is ignored
  9415                           ;	Brown-out Reset Voltage Selection
  9416                           ;	BORV = LO, Brown-out Reset Voltage (VBOR) set to 1.9V on LF, and 2.45V on F Devices
  9417                           ;	Zero-cross detect disable
  9418                           ;	ZCD = OFF, Zero-cross detect circuit is disabled at POR.
  9419                           ;	Peripheral Pin Select one-way control
  9420                           ;	PPS1WAY = ON, The PPSLOCK bit can be cleared and set only once in software
  9421                           ;	Stack Overflow/Underflow Reset Enable bit
  9422                           ;	STVREN = ON, Stack Overflow or Underflow will cause a reset
  9423  8008                     	org	32776
  9424  8008  3FFF               	dw	16383
  9425                           
  9426                           ;Config register CONFIG3 @ 0x8009
  9427                           ;	WDT Period Select bits
  9428                           ;	WDTCPS = WDTCPS_31, Divider ratio 1:65536; software control of WDTPS
  9429                           ;	WDT operating mode
  9430                           ;	WDTE = OFF, WDT Disabled, SWDTEN is ignored
  9431                           ;	WDT Window Select bits
  9432                           ;	WDTCWS = WDTCWS_7, window always open (100%); software control; keyed access not requi
      +                          red
  9433                           ;	WDT input clock selector
  9434                           ;	WDTCCS = SC, Software Control
  9435  8009                     	org	32777
  9436  8009  3F9F               	dw	16287
  9437                           
  9438                           ;Config register CONFIG4 @ 0x800A
  9439                           ;	Boot Block Size Selection bits
  9440                           ;	BBSIZE = BB512, 512 words boot block size
  9441                           ;	Boot Block Enable bit
  9442                           ;	BBEN = OFF, Boot Block disabled
  9443                           ;	SAF Enable bit
  9444                           ;	SAFEN = OFF, SAF disabled
  9445                           ;	Application Block Write Protection bit
  9446                           ;	WRTAPP = OFF, Application Block not write protected
  9447                           ;	Boot Block Write Protection bit
  9448                           ;	WRTB = OFF, Boot Block not write protected
  9449                           ;	Configuration Register Write Protection bit
  9450                           ;	WRTC = OFF, Configuration Register not write protected
  9451                           ;	Storage Area Flash Write Protection bit
  9452                           ;	WRTSAF = OFF, SAF not write protected
  9453                           ;	Low Voltage Programming Enable bit
  9454                           ;	LVP = OFF, High Voltage on MCLR/Vpp must be used for programming
  9455  800A                     	org	32778
  9456  800A  1FFF               	dw	8191
  9457                           
  9458                           ;Config register CONFIG5 @ 0x800B
  9459                           ;	UserNVM Program memory code protection bit
  9460                           ;	CP = OFF, UserNVM code protection disabled
  9461  800B                     	org	32779
  9462  800B  3FFF               	dw	16383

Data Sizes:
    Strings     174
    Constant    32
    Data        22
    BSS         77
    Persistent  38
    Stack       0

Auto Spaces:
    Space          Size  Autos    Used
    COMMON           14     14      14
    BANK0            80     80      80
    BANK1            80     20      76
    BANK2            80      0      49
    BANK3            80      0       0
    BANK4            80      0       0
    BANK5            80      0       0
    BANK6            80      0       0
    BANK7            80      0       0
    BANK8            80      0       0
    BANK9            80      0       0
    BANK10           80      0       0
    BANK11           80      0       0
    BANK12           80      0       0
    BANK13           80      0       0
    BANK14           80      0       0
    BANK15           80      0       0
    BANK16           80      0       0
    BANK17           80      0       0
    BANK18           80      0       0
    BANK19           80      0       0
    BANK20           80      0       0
    BANK21           80      0       0
    BANK22           80      0       0
    BANK23           80      0       0
    BANK24           80      0       0
    BANK25           32      0       0

Pointer List with Targets:

    i2c_write1ByteRegister@data.data	PTR unsigned char  size(1) Largest target is 0

    i2c_read1ByteRegister@d2.data	PTR unsigned char  size(1) Largest target is 0

    i2c_read2ByteRegister@result.data	PTR unsigned char  size(1) Largest target is 0

    i2c_write2ByteRegister@data.data	PTR unsigned char  size(1) Largest target is 0

    I2C1_Read1ByteRegister@returnValue.data	PTR unsigned char  size(1) Largest target is 0

    I2C1_Read2ByteRegister@returnValue.data	PTR unsigned char  size(1) Largest target is 0

    I2C1_Write1ByteRegister@data.data	PTR unsigned char  size(1) Largest target is 0

    I2C1_Write2ByteRegister@data.data	PTR unsigned char  size(1) Largest target is 0

    I2C1_DO_TX$2091$0	PTR void  size(1) Largest target is 4
		 -> I2C1_ReadDataBlock@bufferBlock(COMMON[3]), I2C1_Write2ByteRegister@data(COMMON[2]), I2C1_Write1ByteRegister@data(COMMON[1]), I2C1_Read2ByteRegister@returnValue(COMMON[2]), 
		 -> I2C1_Read1ByteRegister@returnValue(COMMON[1]), i2c_readDataBlock@d(COMMON[3]), i2c_write2ByteRegister@data(COMMON[2]), i2c_read2ByteRegister@result(COMMON[2]), 
		 -> i2c_read1ByteRegister@d2(COMMON[1]), i2c_write1ByteRegister@data(COMMON[1]), NULL(NULL[0]), 

    cb$0	PTR void  size(1) Largest target is 4
		 -> I2C1_ReadDataBlock@bufferBlock(COMMON[3]), I2C1_Write2ByteRegister@data(COMMON[2]), I2C1_Write1ByteRegister@data(COMMON[1]), I2C1_Read2ByteRegister@returnValue(COMMON[2]), 
		 -> I2C1_Read1ByteRegister@returnValue(COMMON[1]), i2c_readDataBlock@d(COMMON[3]), i2c_write2ByteRegister@data(COMMON[2]), i2c_read2ByteRegister@result(COMMON[2]), 
		 -> i2c_read1ByteRegister@d2(COMMON[1]), i2c_write1ByteRegister@data(COMMON[1]), NULL(NULL[0]), 

    Absolute function$0	PTR void  size(1) Largest target is 4
		 -> I2C1_ReadDataBlock@bufferBlock(COMMON[3]), I2C1_Write2ByteRegister@data(COMMON[2]), I2C1_Write1ByteRegister@data(COMMON[1]), I2C1_Read2ByteRegister@returnValue(COMMON[2]), 
		 -> I2C1_Read1ByteRegister@returnValue(COMMON[1]), i2c_readDataBlock@d(COMMON[3]), i2c_write2ByteRegister@data(COMMON[2]), i2c_read2ByteRegister@result(COMMON[2]), 
		 -> i2c_read1ByteRegister@d2(COMMON[1]), i2c_write1ByteRegister@data(COMMON[1]), NULL(NULL[0]), 

    cb$0	PTR void  size(1) Largest target is 4
		 -> I2C1_ReadDataBlock@bufferBlock(COMMON[3]), I2C1_Write2ByteRegister@data(COMMON[2]), I2C1_Write1ByteRegister@data(COMMON[1]), I2C1_Read2ByteRegister@returnValue(COMMON[2]), 
		 -> I2C1_Read1ByteRegister@returnValue(COMMON[1]), i2c_readDataBlock@d(COMMON[3]), i2c_write2ByteRegister@data(COMMON[2]), i2c_read2ByteRegister@result(COMMON[2]), 
		 -> i2c_read1ByteRegister@d2(COMMON[1]), i2c_write1ByteRegister@data(COMMON[1]), NULL(NULL[0]), 

    fputc@f	PTR struct _IO_FILE size(1) Largest target is 0
		 -> NULL(NULL[0]), 

    S360$0$0	PTR void  size(1) Largest target is 4
		 -> I2C1_ReadDataBlock@bufferBlock(COMMON[3]), I2C1_Write2ByteRegister@data(COMMON[2]), I2C1_Write1ByteRegister@data(COMMON[1]), I2C1_Read2ByteRegister@returnValue(COMMON[2]), 
		 -> I2C1_Read1ByteRegister@returnValue(COMMON[1]), i2c_readDataBlock@d(COMMON[3]), i2c_write2ByteRegister@data(COMMON[2]), i2c_read2ByteRegister@result(COMMON[2]), 
		 -> i2c_read1ByteRegister@d2(COMMON[1]), i2c_write1ByteRegister@data(COMMON[1]), NULL(NULL[0]), 

    strlen@s	PTR const unsigned char  size(1) Largest target is 32
		 -> dbuf(BANK2[32]), 

    strlen@a	PTR const unsigned char  size(1) Largest target is 32
		 -> dbuf(BANK2[32]), 

    fputs@s	PTR const unsigned char  size(1) Largest target is 32
		 -> dbuf(BANK2[32]), 

    fputs@fp	PTR struct _IO_FILE size(1) Largest target is 0
		 -> NULL(NULL[0]), 

    vfprintf@ap	PTR PTR void  size(1) Largest target is 1
		 -> printf@ap(BANK1[1]), 

    vfprintf@fp	PTR struct _IO_FILE size(1) Largest target is 0
		 -> NULL(NULL[0]), 

    vfprintf@fmt	PTR const unsigned char  size(2) Largest target is 50
		 -> STR_10(CODE[7]), STR_9(CODE[50]), STR_8(CODE[3]), STR_7(CODE[7]), 
		 -> STR_6(CODE[23]), STR_5(CODE[3]), STR_4(CODE[7]), STR_3(CODE[34]), 
		 -> STR_2(CODE[26]), STR_1(CODE[27]), 

    vfprintf@cfmt	PTR unsigned char  size(2) Largest target is 50
		 -> STR_10(CODE[7]), STR_9(CODE[50]), STR_8(CODE[3]), STR_7(CODE[7]), 
		 -> STR_6(CODE[23]), STR_5(CODE[3]), STR_4(CODE[7]), STR_3(CODE[34]), 
		 -> STR_2(CODE[26]), STR_1(CODE[27]), 

    vfpfcnvrt@fp	PTR struct _IO_FILE size(1) Largest target is 0
		 -> NULL(NULL[0]), 

    vfpfcnvrt@ap	PTR PTR void  size(1) Largest target is 1
		 -> printf@ap(BANK1[1]), 

    vfpfcnvrt@fmt	PTR PTR unsigned char  size(1) Largest target is 2
		 -> vfprintf@cfmt(BANK0[2]), 

    xtoa@fp	PTR struct _IO_FILE size(1) Largest target is 0
		 -> NULL(NULL[0]), 

    dtoa@fp	PTR struct _IO_FILE size(1) Largest target is 0
		 -> NULL(NULL[0]), 

    pad@fp	PTR struct _IO_FILE size(1) Largest target is 0
		 -> NULL(NULL[0]), 

    pad@buf	PTR unsigned char  size(1) Largest target is 32
		 -> dbuf(BANK2[32]), 

    printf@fmt	PTR const unsigned char  size(2) Largest target is 50
		 -> STR_10(CODE[7]), STR_9(CODE[50]), STR_8(CODE[3]), STR_7(CODE[7]), 
		 -> STR_6(CODE[23]), STR_5(CODE[3]), STR_4(CODE[7]), STR_3(CODE[34]), 
		 -> STR_2(CODE[26]), STR_1(CODE[27]), 

    printf@ap	PTR void [1] size(1) Largest target is 2
		 -> ?_printf(BANK1[2]), 

    EUSART1_SetErrorHandler@interruptHandler	PTR FTN()void  size(2) Largest target is 1
		 -> EUSART1_DefaultErrorHandler(), 

    EUSART1_ErrorHandler	PTR FTN()void  size(2) Largest target is 1
		 -> EUSART1_DefaultErrorHandler(), Absolute function(), 

    EUSART1_SetOverrunErrorHandler@interruptHandler	PTR FTN()void  size(2) Largest target is 1
		 -> EUSART1_DefaultOverrunErrorHandler(), 

    EUSART1_OverrunErrorHandler	PTR FTN()void  size(2) Largest target is 1
		 -> EUSART1_DefaultOverrunErrorHandler(), Absolute function(), 

    EUSART1_SetFramingErrorHandler@interruptHandler	PTR FTN()void  size(2) Largest target is 1
		 -> EUSART1_DefaultFramingErrorHandler(), 

    EUSART1_FramingErrorHandler	PTR FTN()void  size(2) Largest target is 1
		 -> EUSART1_DefaultFramingErrorHandler(), Absolute function(), 

    I2C1_SetCallback@ptr	PTR void  size(1) Largest target is 4
		 -> I2C1_ReadDataBlock@bufferBlock(COMMON[3]), I2C1_Write2ByteRegister@data(COMMON[2]), I2C1_Write1ByteRegister@data(COMMON[1]), I2C1_Read2ByteRegister@returnValue(COMMON[2]), 
		 -> I2C1_Read1ByteRegister@returnValue(COMMON[1]), i2c_readDataBlock@d(COMMON[3]), i2c_write2ByteRegister@data(COMMON[2]), i2c_read2ByteRegister@result(COMMON[2]), 
		 -> i2c_read1ByteRegister@d2(COMMON[1]), i2c_write1ByteRegister@data(COMMON[1]), NULL(NULL[0]), 

    I2C1_SetCallback@cb	PTR FTN(PTR void ,)enum E360 size(2) Largest target is 1
		 -> Absolute function(), rdBlkRegCompleteHandler@i2c1_master_example$F180(), wr2RegCompleteHandler@i2c1_master_example$F169(), wr1RegCompleteHandler@i2c1_master_example$F163(), 
		 -> rd2RegCompleteHandler@i2c1_master_example$F157(), rd1RegCompleteHandler@i2c1_master_example$F146(), rdBlkRegCompleteHandler(), wr2RegCompleteHandler(), 
		 -> rd2RegCompleteHandler(), rd1RegCompleteHandler(), wr1RegCompleteHandler(), 

    I2C1_SetInterruptHandler@InterruptHandler	PTR FTN()void  size(2) Largest target is 1
		 -> I2C1_MasterIsr(), 

    MSSP1_InterruptHandler	PTR FTN()void  size(2) Largest target is 1
		 -> I2C1_MasterIsr(), Absolute function(), 

    I2C1_SetAddressNackCallback@ptr	PTR void  size(1) Largest target is 0
		 -> NULL(NULL[0]), 

    I2C1_SetAddressNackCallback@cb	PTR FTN(PTR void ,)enum E360 size(2) Largest target is 1
		 -> Absolute function(), 

    I2C1_SetBuffer@buffer	PTR void  size(1) Largest target is 17
		 -> EE_Read@frame(BANK0[3]), EE_Write@frame(BANK0[3]), I2CSIMPLE_example@receiveData(BANK0[15]), I2CSIMPLE_example@sendData(BANK0[17]), 
		 -> I2C1_ReadDataBlock@reg(COMMON[1]), I2C1_ReadDataBlock@bufferBlock(COMMON[3]), I2C1_Write2ByteRegister@reg(COMMON[1]), I2C1_Write2ByteRegister@data(COMMON[2]), 
		 -> I2C1_Write1ByteRegister@reg(COMMON[1]), I2C1_Write1ByteRegister@data(COMMON[1]), I2C1_Read2ByteRegister@reg(COMMON[1]), I2C1_Read2ByteRegister@returnValue(COMMON[2]), 
		 -> I2C1_Read1ByteRegister@reg(COMMON[1]), I2C1_Read1ByteRegister@returnValue(COMMON[1]), i2c_readDataBlock@reg(COMMON[1]), i2c_readDataBlock@d(COMMON[3]), 
		 -> i2c_write2ByteRegister@reg(COMMON[1]), i2c_write2ByteRegister@data(COMMON[2]), i2c_read2ByteRegister@reg(COMMON[1]), i2c_read2ByteRegister@result(COMMON[2]), 
		 -> i2c_read1ByteRegister@reg(COMMON[1]), i2c_read1ByteRegister@d2(COMMON[1]), i2c_write1ByteRegister@reg(COMMON[1]), i2c_write1ByteRegister@data(COMMON[1]), 
		 -> NULL(NULL[0]), 

    S360$data_ptr	PTR unsigned char  size(1) Largest target is 17
		 -> EE_Read@frame(BANK0[3]), EE_Write@frame(BANK0[3]), I2CSIMPLE_example@receiveData(BANK0[15]), I2CSIMPLE_example@sendData(BANK0[17]), 
		 -> I2C1_ReadDataBlock@reg(COMMON[1]), I2C1_ReadDataBlock@bufferBlock(COMMON[3]), I2C1_Write2ByteRegister@reg(COMMON[1]), I2C1_Write2ByteRegister@data(COMMON[2]), 
		 -> I2C1_Write1ByteRegister@reg(COMMON[1]), I2C1_Write1ByteRegister@data(COMMON[1]), I2C1_Read2ByteRegister@reg(COMMON[1]), I2C1_Read2ByteRegister@returnValue(COMMON[2]), 
		 -> I2C1_Read1ByteRegister@reg(COMMON[1]), I2C1_Read1ByteRegister@returnValue(COMMON[1]), i2c_readDataBlock@reg(COMMON[1]), i2c_readDataBlock@d(COMMON[3]), 
		 -> i2c_write2ByteRegister@reg(COMMON[1]), i2c_write2ByteRegister@data(COMMON[2]), i2c_read2ByteRegister@reg(COMMON[1]), i2c_read2ByteRegister@result(COMMON[2]), 
		 -> i2c_read1ByteRegister@reg(COMMON[1]), i2c_read1ByteRegister@d2(COMMON[1]), i2c_write1ByteRegister@reg(COMMON[1]), i2c_write1ByteRegister@data(COMMON[1]), 
		 -> NULL(NULL[0]), 

    I2C1_Status.data_ptr	PTR unsigned char  size(1) Largest target is 17
		 -> EE_Read@frame(BANK0[3]), EE_Write@frame(BANK0[3]), I2CSIMPLE_example@receiveData(BANK0[15]), I2CSIMPLE_example@sendData(BANK0[17]), 
		 -> I2C1_ReadDataBlock@reg(COMMON[1]), I2C1_ReadDataBlock@bufferBlock(COMMON[3]), I2C1_Write2ByteRegister@reg(COMMON[1]), I2C1_Write2ByteRegister@data(COMMON[2]), 
		 -> I2C1_Write1ByteRegister@reg(COMMON[1]), I2C1_Write1ByteRegister@data(COMMON[1]), I2C1_Read2ByteRegister@reg(COMMON[1]), I2C1_Read2ByteRegister@returnValue(COMMON[2]), 
		 -> I2C1_Read1ByteRegister@reg(COMMON[1]), I2C1_Read1ByteRegister@returnValue(COMMON[1]), i2c_readDataBlock@reg(COMMON[1]), i2c_readDataBlock@d(COMMON[3]), 
		 -> i2c_write2ByteRegister@reg(COMMON[1]), i2c_write2ByteRegister@data(COMMON[2]), i2c_read2ByteRegister@reg(COMMON[1]), i2c_read2ByteRegister@result(COMMON[2]), 
		 -> i2c_read1ByteRegister@reg(COMMON[1]), i2c_read1ByteRegister@d2(COMMON[1]), i2c_write1ByteRegister@reg(COMMON[1]), i2c_write1ByteRegister@data(COMMON[1]), 
		 -> NULL(NULL[0]), 

    S360$callbackPayload	PTR void [6] size(1) Largest target is 4
		 -> I2C1_ReadDataBlock@bufferBlock(COMMON[3]), I2C1_Write2ByteRegister@data(COMMON[2]), I2C1_Write1ByteRegister@data(COMMON[1]), I2C1_Read2ByteRegister@returnValue(COMMON[2]), 
		 -> I2C1_Read1ByteRegister@returnValue(COMMON[1]), i2c_readDataBlock@d(COMMON[3]), i2c_write2ByteRegister@data(COMMON[2]), i2c_read2ByteRegister@result(COMMON[2]), 
		 -> i2c_read1ByteRegister@d2(COMMON[1]), i2c_write1ByteRegister@data(COMMON[1]), NULL(NULL[0]), 

    I2C1_Status.callbackPayload	PTR void [6] size(1) Largest target is 4
		 -> I2C1_ReadDataBlock@bufferBlock(COMMON[3]), I2C1_Write2ByteRegister@data(COMMON[2]), I2C1_Write1ByteRegister@data(COMMON[1]), I2C1_Read2ByteRegister@returnValue(COMMON[2]), 
		 -> I2C1_Read1ByteRegister@returnValue(COMMON[1]), i2c_readDataBlock@d(COMMON[3]), i2c_write2ByteRegister@data(COMMON[2]), i2c_read2ByteRegister@result(COMMON[2]), 
		 -> i2c_read1ByteRegister@d2(COMMON[1]), i2c_write1ByteRegister@data(COMMON[1]), NULL(NULL[0]), 

    S360$callbackTable	PTR FTN(PTR void ,)enum E360[6] size(2) Largest target is 1
		 -> I2C1_CallbackReturnReset(), I2C1_CallbackReturnStop(), Absolute function(), rdBlkRegCompleteHandler@i2c1_master_example$F180(), 
		 -> wr2RegCompleteHandler@i2c1_master_example$F169(), wr1RegCompleteHandler@i2c1_master_example$F163(), rd2RegCompleteHandler@i2c1_master_example$F157(), rd1RegCompleteHandler@i2c1_master_example$F146(), 
		 -> rdBlkRegCompleteHandler(), wr2RegCompleteHandler(), rd2RegCompleteHandler(), rd1RegCompleteHandler(), 
		 -> wr1RegCompleteHandler(), 

    I2C1_Status.callbackTable	PTR FTN(PTR void ,)enum E360[6] size(2) Largest target is 1
		 -> I2C1_CallbackReturnReset(), I2C1_CallbackReturnStop(), Absolute function(), rdBlkRegCompleteHandler@i2c1_master_example$F180(), 
		 -> wr2RegCompleteHandler@i2c1_master_example$F169(), wr1RegCompleteHandler@i2c1_master_example$F163(), rd2RegCompleteHandler@i2c1_master_example$F157(), rd1RegCompleteHandler@i2c1_master_example$F146(), 
		 -> rdBlkRegCompleteHandler(), wr2RegCompleteHandler(), rd2RegCompleteHandler(), rd1RegCompleteHandler(), 
		 -> wr1RegCompleteHandler(), 

    i2c1_fsmStateTable	const PTR FTN()enum E8125[16] size(2) Largest target is 1
		 -> I2C1_DO_ADDRESS_NACK(), I2C1_DO_RESET(), I2C1_DO_RX_NACK_RESTART(), I2C1_DO_RX_NACK_STOP(), 
		 -> I2C1_DO_RX_ACK(), I2C1_DO_SEND_STOP(), I2C1_DO_SEND_RESTART(), I2C1_DO_SEND_RESTART_WRITE(), 
		 -> I2C1_DO_SEND_RESTART_READ(), I2C1_DO_TX_EMPTY(), I2C1_DO_RCEN(), I2C1_DO_RX(), 
		 -> I2C1_DO_TX(), I2C1_DO_SEND_ADR_WRITE(), I2C1_DO_SEND_ADR_READ(), I2C1_DO_IDLE(), 

    rdBlkRegCompleteHandler@i2c1_master_example$F180@ptr.data	PTR unsigned char  size(1) Largest target is 0

    bufferBlock.data	PTR unsigned char  size(1) Largest target is 0

    i2c_readNBytes@data	PTR void  size(1) Largest target is 15
		 -> EE_Read@frame(BANK0[3]), I2CSIMPLE_example@receiveData(BANK0[15]), 

    d.data	PTR unsigned char  size(1) Largest target is 0

    S75$data	PTR unsigned char  size(1) Largest target is 0

    rdBlkRegCompleteHandler@p.data	PTR unsigned char  size(1) Largest target is 0

    i2c_writeNBytes@data	PTR void  size(1) Largest target is 17
		 -> EE_Read@frame(BANK0[3]), EE_Write@frame(BANK0[3]), I2CSIMPLE_example@sendData(BANK0[17]), 


Critical Paths under _main in COMMON

    _main->_EE_Read
    _main->_EE_Write
    _xtoa->_toupper
    _toupper->_islower
    _dtoa->_pad
    _pad->_fputs
    _fputs->_fputc
    _fputc->_EUSART1_Write
    _abs->___aomod
    _EUSART1_Initialize->_EUSART1_SetErrorHandler
    _EUSART1_Initialize->_EUSART1_SetFramingErrorHandler
    _EUSART1_Initialize->_EUSART1_SetOverrunErrorHandler
    _EE_Write->_i2c_writeNBytes
    _EE_Read->_i2c_writeNBytes
    _i2c_writeNBytes->_I2C1_SetAddressNackCallback
    _I2C1_SetAddressNackCallback->_I2C1_SetCallback
    _I2C1_MasterWrite->_I2C1_MasterOperation
    _i2c_readNBytes->_I2C1_Open
    _I2C1_Open->_I2C1_SetInterruptHandler
    _I2C1_MasterRead->_I2C1_MasterOperation

Critical Paths under _main in BANK0

    _main->_printf
    _printf->_vfprintf
    _vfprintf->_vfpfcnvrt
    _vfpfcnvrt->_dtoa
    _vfpfcnvrt->_xtoa
    _xtoa->_pad
    _dtoa->___aodiv
    _dtoa->___aomod
    _abs->___aomod

Critical Paths under _main in BANK1

    _main->_printf

Critical Paths under _main in BANK2

    None.

Critical Paths under _main in BANK3

    None.

Critical Paths under _main in BANK4

    None.

Critical Paths under _main in BANK5

    None.

Critical Paths under _main in BANK6

    None.

Critical Paths under _main in BANK7

    None.

Critical Paths under _main in BANK8

    None.

Critical Paths under _main in BANK9

    None.

Critical Paths under _main in BANK10

    None.

Critical Paths under _main in BANK11

    None.

Critical Paths under _main in BANK12

    None.

Critical Paths under _main in BANK13

    None.

Critical Paths under _main in BANK14

    None.

Critical Paths under _main in BANK15

    None.

Critical Paths under _main in BANK16

    None.

Critical Paths under _main in BANK17

    None.

Critical Paths under _main in BANK18

    None.

Critical Paths under _main in BANK19

    None.

Critical Paths under _main in BANK20

    None.

Critical Paths under _main in BANK21

    None.

Critical Paths under _main in BANK22

    None.

Critical Paths under _main in BANK23

    None.

Critical Paths under _main in BANK24

    None.

Critical Paths under _main in BANK25

    None.

Call Graph Tables:

 ---------------------------------------------------------------------------------
 (Depth) Function   	        Calls       Base Space   Used Autos Params    Refs
 ---------------------------------------------------------------------------------
 (0) _main                                                13    13      0   27209
                                              7 BANK1     13    13      0
                            _EE_Read
                           _EE_Write
                  _SYSTEM_Initialize
                             _printf
 ---------------------------------------------------------------------------------
 (1) _printf                                               8     4      4   10477
                                             79 BANK0      1     1      0
                                              0 BANK1      7     3      4
                           _vfprintf
 ---------------------------------------------------------------------------------
 (2) _vfprintf                                             8     5      3    9661
                                             71 BANK0      8     5      3
                          _vfpfcnvrt
 ---------------------------------------------------------------------------------
 (3) _vfpfcnvrt                                           40    38      2    9328
                                             46 BANK0     25    23      2
                               _dtoa
                              _fputc
                               _xtoa
 ---------------------------------------------------------------------------------
 (4) _xtoa                                                38    29      9    3932
                                              8 BANK0     38    29      9
                            _isalpha
                            _isupper
                                _pad
                            _toupper
 ---------------------------------------------------------------------------------
 (5) _toupper                                              8     6      2     412
                                              6 COMMON     8     6      2
                            _islower
 ---------------------------------------------------------------------------------
 (6) _islower                                              6     4      2     161
                                              0 COMMON     6     4      2
 ---------------------------------------------------------------------------------
 (5) _isupper                                              6     4      2     161
                                              0 COMMON     6     4      2
 ---------------------------------------------------------------------------------
 (5) _isalpha                                              8     6      2     161
                                              0 COMMON     8     6      2
 ---------------------------------------------------------------------------------
 (4) _dtoa                                                30    22      8    4027
                                             16 BANK0     30    22      8
                            ___aodiv
                            ___aomod
                                _abs
                                _pad
 ---------------------------------------------------------------------------------
 (5) _pad                                                  9     6      3    2404
                                             12 COMMON     1     1      0
                                              0 BANK0      8     5      3
                              _fputc
                              _fputs
                             _strlen
 ---------------------------------------------------------------------------------
 (6) _strlen                                               5     3      2     123
                                              0 COMMON     5     3      2
 ---------------------------------------------------------------------------------
 (6) _fputs                                                8     7      1     973
                                              4 COMMON     8     7      1
                              _fputc
 ---------------------------------------------------------------------------------
 (7) _fputc                                                3     0      3     658
                                              1 COMMON     3     0      3
                      _EUSART1_Write
 ---------------------------------------------------------------------------------
 (8) _EUSART1_Write                                        1     1      0      22
                                              0 COMMON     1     1      0
 ---------------------------------------------------------------------------------
 (5) _abs                                                  4     2      2     142
                                              3 COMMON     4     2      2
                            ___aomod (ARG)
 ---------------------------------------------------------------------------------
 (5) ___aomod                                             19     3     16     448
                                              0 COMMON     3     3      0
                                              0 BANK0     16     0     16
 ---------------------------------------------------------------------------------
 (5) ___aodiv                                             27    11     16     452
                                              0 COMMON    11    11      0
                                              0 BANK0     16     0     16
 ---------------------------------------------------------------------------------
 (1) _SYSTEM_Initialize                                    0     0      0     294
                 _EUSART1_Initialize
                    _I2C1_Initialize
              _OSCILLATOR_Initialize
             _PIN_MANAGER_Initialize
                     _PMD_Initialize
 ---------------------------------------------------------------------------------
 (2) _PMD_Initialize                                       0     0      0       0
 ---------------------------------------------------------------------------------
 (2) _PIN_MANAGER_Initialize                               0     0      0       0
 ---------------------------------------------------------------------------------
 (2) _OSCILLATOR_Initialize                                0     0      0       0
 ---------------------------------------------------------------------------------
 (2) _I2C1_Initialize                                      0     0      0       0
 ---------------------------------------------------------------------------------
 (2) _EUSART1_Initialize                                   0     0      0     294
            _EUSART1_SetErrorHandler
     _EUSART1_SetFramingErrorHandler
     _EUSART1_SetOverrunErrorHandler
 ---------------------------------------------------------------------------------
 (3) _EUSART1_SetOverrunErrorHandler                       2     0      2      98
                                              0 COMMON     2     0      2
 ---------------------------------------------------------------------------------
 (3) _EUSART1_SetFramingErrorHandler                       2     0      2      98
                                              0 COMMON     2     0      2
 ---------------------------------------------------------------------------------
 (3) _EUSART1_SetErrorHandler                              2     0      2      98
                                              0 COMMON     2     0      2
 ---------------------------------------------------------------------------------
 (1) _EE_Write                                             7     4      3    6622
                                             13 COMMON     1     1      0
                                              0 BANK0      6     3      3
                    _i2c_writeNBytes
 ---------------------------------------------------------------------------------
 (1) _EE_Read                                              6     4      2    9790
                                             13 COMMON     1     1      0
                                              0 BANK0      5     3      2
                     _i2c_readNBytes
                    _i2c_writeNBytes
 ---------------------------------------------------------------------------------
 (2) _i2c_writeNBytes                                      4     1      3    6330
                                              9 COMMON     4     1      3
                         _I2C1_Close
                   _I2C1_MasterWrite
                          _I2C1_Open
        _I2C1_SetAddressNackCallback
                     _I2C1_SetBuffer
 ---------------------------------------------------------------------------------
 (3) _I2C1_SetAddressNackCallback                          4     1      3    2782
                                              5 COMMON     4     1      3
                   _I2C1_SetCallback
 ---------------------------------------------------------------------------------
 (4) _I2C1_SetCallback                                     5     2      3     914
                                              0 COMMON     5     2      3
 ---------------------------------------------------------------------------------
 (3) _I2C1_MasterWrite                                     0     0      0      46
               _I2C1_MasterOperation
 ---------------------------------------------------------------------------------
 (2) _i2c_readNBytes                                       4     1      3    3244
                                              5 COMMON     4     1      3
                         _I2C1_Close
                    _I2C1_MasterRead
                          _I2C1_Open
                     _I2C1_SetBuffer
 ---------------------------------------------------------------------------------
 (3) _I2C1_SetBuffer                                       4     2      2    2660
                                              0 COMMON     4     2      2
 ---------------------------------------------------------------------------------
 (3) _I2C1_Open                                            3     3      0     144
                                              2 COMMON     3     3      0
                _I2C1_MasterClearIrq
               _I2C1_MasterEnableIrq
                    _I2C1_MasterOpen
           _I2C1_SetInterruptHandler
 ---------------------------------------------------------------------------------
 (4) _I2C1_SetInterruptHandler                             2     0      2      98
                                              0 COMMON     2     0      2
 ---------------------------------------------------------------------------------
 (4) _I2C1_MasterOpen                                      0     0      0       0
 ---------------------------------------------------------------------------------
 (4) _I2C1_MasterEnableIrq                                 0     0      0       0
 ---------------------------------------------------------------------------------
 (3) _I2C1_MasterRead                                      0     0      0      46
               _I2C1_MasterOperation
 ---------------------------------------------------------------------------------
 (4) _I2C1_MasterOperation                                 3     3      0      46
                                              0 COMMON     3     3      0
                   _I2C1_MasterStart
 ---------------------------------------------------------------------------------
 (5) _I2C1_MasterStart                                     0     0      0       0
 ---------------------------------------------------------------------------------
 (3) _I2C1_Close                                           2     2      0      24
                                              0 COMMON     2     2      0
                _I2C1_MasterClearIrq
                   _I2C1_MasterClose
              _I2C1_MasterDisableIrq
 ---------------------------------------------------------------------------------
 (4) _I2C1_MasterDisableIrq                                0     0      0       0
 ---------------------------------------------------------------------------------
 (4) _I2C1_MasterClose                                     0     0      0       0
 ---------------------------------------------------------------------------------
 (4) _I2C1_MasterClearIrq                                  0     0      0       0
 ---------------------------------------------------------------------------------
 Estimated maximum stack depth 8
 ---------------------------------------------------------------------------------

 Call Graph Graphs:

 _main (ROOT)
   _EE_Read
     _i2c_readNBytes
       _I2C1_Close
         _I2C1_MasterClearIrq
         _I2C1_MasterClose
         _I2C1_MasterDisableIrq
       _I2C1_MasterRead
         _I2C1_MasterOperation
           _I2C1_MasterStart
       _I2C1_Open
         _I2C1_MasterClearIrq
         _I2C1_MasterEnableIrq
         _I2C1_MasterOpen
         _I2C1_SetInterruptHandler
       _I2C1_SetBuffer
     _i2c_writeNBytes
       _I2C1_Close
         _I2C1_MasterClearIrq
         _I2C1_MasterClose
         _I2C1_MasterDisableIrq
       _I2C1_MasterWrite
         _I2C1_MasterOperation
           _I2C1_MasterStart
       _I2C1_Open
         _I2C1_MasterClearIrq
         _I2C1_MasterEnableIrq
         _I2C1_MasterOpen
         _I2C1_SetInterruptHandler
       _I2C1_SetAddressNackCallback
         _I2C1_SetCallback
       _I2C1_SetBuffer
   _EE_Write
     _i2c_writeNBytes
       _I2C1_Close
         _I2C1_MasterClearIrq
         _I2C1_MasterClose
         _I2C1_MasterDisableIrq
       _I2C1_MasterWrite
         _I2C1_MasterOperation
           _I2C1_MasterStart
       _I2C1_Open
         _I2C1_MasterClearIrq
         _I2C1_MasterEnableIrq
         _I2C1_MasterOpen
         _I2C1_SetInterruptHandler
       _I2C1_SetAddressNackCallback
         _I2C1_SetCallback
       _I2C1_SetBuffer
   _SYSTEM_Initialize
     _EUSART1_Initialize
       _EUSART1_SetErrorHandler
       _EUSART1_SetFramingErrorHandler
       _EUSART1_SetOverrunErrorHandler
     _I2C1_Initialize
     _OSCILLATOR_Initialize
     _PIN_MANAGER_Initialize
     _PMD_Initialize
   _printf
     _vfprintf
       _vfpfcnvrt
         _dtoa
           ___aodiv
           ___aomod
           _abs
             ___aomod (ARG)
           _pad
             _fputc
               _EUSART1_Write
             _fputs
               _fputc
                 _EUSART1_Write
             _strlen
         _fputc
           _EUSART1_Write
         _xtoa
           _isalpha
           _isupper
           _pad
             _fputc
               _EUSART1_Write
             _fputs
               _fputc
                 _EUSART1_Write
             _strlen
           _toupper
             _islower

 Address spaces:
Name               Size   Autos  Total    Cost      Usage
BIGRAM             7F0      0       0       0        0.0%
NULL                 0      0       0       0        0.0%
CODE                 0      0       0       0        0.0%
BITCOMMON            E      0       0       1        0.0%
BITSFR0              0      0       0       1        0.0%
SFR0                 0      0       0       1        0.0%
COMMON               E      E       E       2      100.0%
BITSFR1              0      0       0       2        0.0%
SFR1                 0      0       0       2        0.0%
BITSFR2              0      0       0       3        0.0%
SFR2                 0      0       0       3        0.0%
STACK                0      0       0       3        0.0%
BITBANK0            50      0       0       4        0.0%
BITSFR3              0      0       0       4        0.0%
SFR3                 0      0       0       4        0.0%
BANK0               50     50      50       5      100.0%
BITSFR4              0      0       0       5        0.0%
SFR4                 0      0       0       5        0.0%
BITBANK1            50      0       0       6        0.0%
BITSFR5              0      0       0       6        0.0%
SFR5                 0      0       0       6        0.0%
BANK1               50     14      4C       7       95.0%
BITSFR6              0      0       0       7        0.0%
SFR6                 0      0       0       7        0.0%
BITSFR7              0      0       0       8        0.0%
SFR7                 0      0       0       8        0.0%
ABS                  0      0      DB       8        0.0%
BITBANK2            50      0       0       9        0.0%
BITSFR8              0      0       0       9        0.0%
SFR8                 0      0       0       9        0.0%
BANK2               50      0      31      10       61.3%
BITSFR9              0      0       0      10        0.0%
SFR9                 0      0       0      10        0.0%
BITBANK3            50      0       0      11        0.0%
BITSFR10             0      0       0      11        0.0%
SFR10                0      0       0      11        0.0%
BANK3               50      0       0      12        0.0%
BITSFR11             0      0       0      12        0.0%
SFR11                0      0       0      12        0.0%
BITBANK4            50      0       0      13        0.0%
BITSFR12             0      0       0      13        0.0%
SFR12                0      0       0      13        0.0%
BANK4               50      0       0      14        0.0%
BITSFR13             0      0       0      14        0.0%
SFR13                0      0       0      14        0.0%
BITBANK5            50      0       0      15        0.0%
BITSFR14             0      0       0      15        0.0%
SFR14                0      0       0      15        0.0%
BANK5               50      0       0      16        0.0%
BITSFR15             0      0       0      16        0.0%
SFR15                0      0       0      16        0.0%
BITBANK6            50      0       0      17        0.0%
BITSFR16             0      0       0      17        0.0%
SFR16                0      0       0      17        0.0%
BANK6               50      0       0      18        0.0%
BITSFR17             0      0       0      18        0.0%
SFR17                0      0       0      18        0.0%
BITBANK7            50      0       0      19        0.0%
BITSFR18             0      0       0      19        0.0%
SFR18                0      0       0      19        0.0%
BANK7               50      0       0      20        0.0%
BITSFR19             0      0       0      20        0.0%
SFR19                0      0       0      20        0.0%
BITBANK8            50      0       0      21        0.0%
BITSFR20             0      0       0      21        0.0%
SFR20                0      0       0      21        0.0%
BANK8               50      0       0      22        0.0%
BITSFR21             0      0       0      22        0.0%
SFR21                0      0       0      22        0.0%
BITBANK9            50      0       0      23        0.0%
BITSFR22             0      0       0      23        0.0%
SFR22                0      0       0      23        0.0%
BANK9               50      0       0      24        0.0%
BITSFR23             0      0       0      24        0.0%
SFR23                0      0       0      24        0.0%
BITBANK10           50      0       0      25        0.0%
BITSFR24             0      0       0      25        0.0%
SFR24                0      0       0      25        0.0%
BANK10              50      0       0      26        0.0%
BITSFR25             0      0       0      26        0.0%
SFR25                0      0       0      26        0.0%
BITBANK11           50      0       0      27        0.0%
BITSFR26             0      0       0      27        0.0%
SFR26                0      0       0      27        0.0%
BANK11              50      0       0      28        0.0%
BITSFR27             0      0       0      28        0.0%
SFR27                0      0       0      28        0.0%
BITBANK12           50      0       0      29        0.0%
BITSFR28             0      0       0      29        0.0%
SFR28                0      0       0      29        0.0%
BANK12              50      0       0      30        0.0%
BITSFR29             0      0       0      30        0.0%
SFR29                0      0       0      30        0.0%
BITBANK13           50      0       0      31        0.0%
BITSFR30             0      0       0      31        0.0%
SFR30                0      0       0      31        0.0%
BANK13              50      0       0      32        0.0%
BITSFR31             0      0       0      32        0.0%
SFR31                0      0       0      32        0.0%
BITBANK14           50      0       0      33        0.0%
BITSFR32             0      0       0      33        0.0%
SFR32                0      0       0      33        0.0%
BANK14              50      0       0      34        0.0%
BITSFR33             0      0       0      34        0.0%
SFR33                0      0       0      34        0.0%
BITBANK15           50      0       0      35        0.0%
BITSFR34             0      0       0      35        0.0%
SFR34                0      0       0      35        0.0%
BANK15              50      0       0      36        0.0%
BITSFR35             0      0       0      36        0.0%
SFR35                0      0       0      36        0.0%
BITBANK16           50      0       0      37        0.0%
BITSFR36             0      0       0      37        0.0%
SFR36                0      0       0      37        0.0%
BANK16              50      0       0      38        0.0%
BITSFR37             0      0       0      38        0.0%
SFR37                0      0       0      38        0.0%
BITBANK17           50      0       0      39        0.0%
BITSFR38             0      0       0      39        0.0%
SFR38                0      0       0      39        0.0%
BANK17              50      0       0      40        0.0%
BITSFR39             0      0       0      40        0.0%
SFR39                0      0       0      40        0.0%
BITBANK18           50      0       0      41        0.0%
BITSFR40             0      0       0      41        0.0%
SFR40                0      0       0      41        0.0%
BANK18              50      0       0      42        0.0%
BITSFR41             0      0       0      42        0.0%
SFR41                0      0       0      42        0.0%
BITBANK19           50      0       0      43        0.0%
BITSFR42             0      0       0      43        0.0%
SFR42                0      0       0      43        0.0%
BANK19              50      0       0      44        0.0%
BITSFR43             0      0       0      44        0.0%
SFR43                0      0       0      44        0.0%
BITBANK20           50      0       0      45        0.0%
BITSFR44             0      0       0      45        0.0%
SFR44                0      0       0      45        0.0%
BANK20              50      0       0      46        0.0%
BITSFR45             0      0       0      46        0.0%
SFR45                0      0       0      46        0.0%
BITBANK21           50      0       0      47        0.0%
BITSFR46             0      0       0      47        0.0%
SFR46                0      0       0      47        0.0%
BANK21              50      0       0      48        0.0%
BITSFR47             0      0       0      48        0.0%
SFR47                0      0       0      48        0.0%
BITBANK22           50      0       0      49        0.0%
BITSFR48             0      0       0      49        0.0%
SFR48                0      0       0      49        0.0%
BANK22              50      0       0      50        0.0%
BITSFR49             0      0       0      50        0.0%
SFR49                0      0       0      50        0.0%
BITBANK23           50      0       0      51        0.0%
BITSFR50             0      0       0      51        0.0%
SFR50                0      0       0      51        0.0%
BANK23              50      0       0      52        0.0%
BITSFR51             0      0       0      52        0.0%
SFR51                0      0       0      52        0.0%
BITBANK24           50      0       0      53        0.0%
BITSFR52             0      0       0      53        0.0%
SFR52                0      0       0      53        0.0%
BANK24              50      0       0      54        0.0%
BITSFR53             0      0       0      54        0.0%
SFR53                0      0       0      54        0.0%
BITBANK25           20      0       0      55        0.0%
BITSFR54             0      0       0      55        0.0%
SFR54                0      0       0      55        0.0%
BANK25              20      0       0      56        0.0%
BITSFR55             0      0       0      56        0.0%
SFR55                0      0       0      56        0.0%
BITSFR56             0      0       0      57        0.0%
SFR56                0      0       0      57        0.0%
DATA                 0      0      DB      57        0.0%
BITSFR57             0      0       0      58        0.0%
SFR57                0      0       0      58        0.0%
BITSFR58             0      0       0      59        0.0%
SFR58                0      0       0      59        0.0%
BITSFR59             0      0       0      60        0.0%
SFR59                0      0       0      60        0.0%
BITSFR60             0      0       0      61        0.0%
SFR60                0      0       0      61        0.0%
BITSFR61             0      0       0      62        0.0%
SFR61                0      0       0      62        0.0%
BITSFR62             0      0       0      63        0.0%
SFR62                0      0       0      63        0.0%
BITSFR63             0      0       0      64        0.0%
SFR63                0      0       0      64        0.0%


Microchip Technology PIC Macro Assembler V2.31 build 20201012212115 
Symbol Table                                                                                   Tue Aug 10 21:25:27 2021

                                              l37 0FDA                                                l97 0F2F  
                                             l340 0F11                                               l332 0E0D  
                                             l501 0E2F                                               l504 0DBA  
                                             l336 00D2                                               l352 0DCD  
                                             l522 0DC0                                               l346 0EF5  
                                             l349 0DC8                                               l382 0036  
                                             l543 0DC3                                               l359 0E3F  
                                             l552 0DB7                                               l368 0010  
                                             l377 0DDD                                               l820 0F6F  
                                             l549 0DBD                                               l823 0FB5  
                                             l647 0165                                               l832 0115  
                                             l817 0DD2                                               l833 0115  
                                             l738 0F91                                               l762 0E19  
                                             l780 0DEF                                               l692 0E17  
                                             l765 0E21                                               l783 0DE3  
                                             l695 0E03                                               l777 0DE9  
                                             l689 0E4F                             ?_I2C1_MasterOperation 0070  
                                             _abs 0EA7                                               _pad 0166  
                         __size_of_PMD_Initialize 0008                                               wreg 0009  
                            _I2C1_DO_RX_NACK_STOP 0000                              I2C1_SetBuffer@buffer 0073  
                                 __end_of_EE_Read 0FB6                                              l1003 0398  
                                            l1004 03A9                                              l1016 0297  
                                            l1017 02A8                                              ?_abs 0073  
                                            l3001 063D                                              l1402 01A4  
                                            l1403 01B2                                              l3003 0641  
                                            l3011 0665                                              l1404 01BE  
                                            l1412 055D                                              l3101 00BB  
                                            l3005 064A                                              l1413 0575  
                                            l3021 0698                                              l3013 0678  
                                            l1510 0EDA                                              l1430 065D  
                                            l3103 00C0                                              l3111 00D1  
                                            l1407 0537                                              l3031 06D7  
                                            l3023 06AD                                              l3015 067E  
                                            l1504 005D                                              l1416 05E6  
                                            l1408 0540                                              l1520 0FFF  
                                            l3121 0EF6                                              l3105 00C7  
                                            l3041 0712                                              l3025 06B0  
                                            l3017 068E                                              l1433 0669  
                                            l3009 0660                                              l3201 04E3  
                                            l3131 0F08                                              l3123 0EFD  
                                            l3107 00CA                                              l3115 0004  
                                            l3211 0FB7                                              l1515 0FFF  
                                            l3051 0735                                              l3043 0718  
                                            l3035 06EF                                              l3027 06C8  
                                            l3019 0693                                              l1460 07D4  
                                            l3133 0F0B                                              l3125 0EFE  
                                            l3109 00CD                                              l3221 0F13  
                                            l3117 0DC9                                              l3213 0FC0  
                                            l3301 0E16                                              l3061 079C  
                                            l3037 06F5                                              l3045 0724  
                                            l3029 06D0                                              l3053 0766  
                                            l1437 0686                                              l1526 0EA6  
                                            l1366 0E76                                              l3127 0F02  
                                            l3135 0F10                                              l3223 0F13  
                                            l3215 0FC8                                              l3143 0DE4  
                                            l3311 0F88                                              l3303 0F70  
                                            l3231 0E09                                              l3063 07A6  
                                            l3055 0774                                              l3047 072D  
                                            l3151 03BD                                              l3129 0F05  
                                            l3081 0097                                              l3073 0E31  
                                            l3225 0F1C                                              l3217 0FCF  
                                            l3209 0FB7                                              l3145 0DEA  
                                            l3313 0F8F                                              l3305 0F79  
                                            l3233 0E0A                                              l3241 011C  
                                            l1481 0EC0                                              l3065 07AB  
                                            l3057 0781                                              l3049 0731  
                                            l3161 03F1                                              l3153 03C5  
                                            l3321 007C                                              l1458 07A1  
                                            l3139 0DC4                                              l3091 00AB  
                                            l3083 009B                                              l3075 0E36  
                                            l3227 0F27                                              l3219 0FD2  
                                            l3147 0DDE                                              l3307 0F7A  
                                            l3235 0E0C                                              l3251 013C  
                                            l3243 0136                                              l3067 07B4  
                                            l3059 078E                                              l3171 043D  
                                            l1467 04ED                                              l3163 03F9  
                                            l3155 03CA                                              l3323 0086  
                                            l3315 0060                                              l3403 0E61  
                                            l1484 0EC0                                              l3093 00AC  
                                            l3085 009C                                              l3077 0E3E  
                                            l3309 0F81                                              l3229 0E04  
                                            l3261 0144                                              l3253 013D  
                                            l3245 0137                                              l3237 0118  
                                            l3421 0E40                                              l1493 0E8E  
                                            l3069 07C1                                              l3173 044E  
                                            l3165 0412                                              l3157 03CE  
                                            l3149 03AC                                              l1477 008E  
                                            l3317 0064                                              l3405 0E67  
                                            l3095 00B1                                              l3087 009D  
                                            l3079 0090                                              l3431 0F4E  
                                            l3271 014E                                              l3263 0146  
                                            l3255 013E                                              l3247 0138  
                                            l3239 011A                                              l3423 0E43  
                                            l1399 0182                                              l1487 0F4D  
                                            l3175 045D                                              l3183 0495  
                                            l3159 03E0                                              l3319 0068  
                                            l3097 00B5                                              l3089 00A6  
                                            l3441 0F92                                              l3433 0F53  
                                            l3281 0159                                              l3273 0150  
                                            l3265 0148                                              l3257 013F  
                                            l3249 0139                                              l3425 0E46  
                                            l2801 02D5                                              l3185 04A6  
                                            l3193 04BF                                              l3177 0465  
                                            l3169 042C                                              l3099 00BA  
                                            l3443 0F97                                              l3435 0F57  
                                            l3283 015C                                              l3275 0152  
                                            l3267 014A                                              l3259 0142  
                                            l3291 0DFC                                              l3427 0E49  
                                            l2811 0319                                              l2803 02DF  
                                            l3195 04C7                                              l3187 04AE  
                                            l3179 0477                                              l3445 0F9B  
                                            l3437 0F5B                                              l3293 0E0E  
                                            l3285 015E                                              l3277 0154  
                                            l3269 014C                                              l3429 0E4C  
                                            l2821 0334                                              l2813 031C  
                                            l2805 02FE                                              l2901 0FF8  
                                            l3189 04B9                                              l2911 0E27  
                                            l3447 0FA7                                              l3439 0F67  
                                            l3295 0E11                                              l3287 0160  
                                            l3279 0156                                              l2831 037A  
                                            l2823 0356                                              l2815 0324  
                                            l2807 0302                                              l3199 04CA  
                                            l2921 0DC1                                              l2913 0E2B  
                                            l2905 0DD8                                              l3449 0FB3  
                                            l3297 0E12                                              l3289 0163  
                                            l2825 0366                                              l2817 0328  
                                            l2809 030C                                              l2841 01F5  
                                            l2833 01BF                                              l2907 0DB5  
                                            l2923 0DBB                                              l2931 0EE4  
                                            l2915 0E2C                                              l3299 0E15  
                                            l2827 0367                                              l2819 032C  
                                            l2851 0230                                              l2843 0214  
                                            l2835 01C0                                              l2763 0E19  
                                            l2771 0038                                              l2925 0DB8  
                                            l2933 0EE5                                              l2941 0EF4  
                                            l2917 0E2E                                              l2909 0E22  
                                            l2829 0375                                              l2861 0279  
                                            l2853 0234                                              l2845 0221  
                                            l2837 01CA                                              l2765 0E1E  
                                            l2773 003B                                              l2781 0EC7  
                                            ?_pad 0020                                              l2935 0EEA  
                                            l2927 0EDC                                              l2855 0256  
                                            l2847 0224                                              l2839 01EB  
                                            l2767 0DCE                                              l2775 0049  
                                            l2783 0ECB                                              l2871 0180  
                                            l2863 0168                                              l2951 04F0  
                                            l2793 0DBE                                              l2937 0EED  
                                            l2929 0EE3                                              l2945 0012  
                                            l2857 0266                                              l2849 022C  
                                            l2777 004D                                              l2785 0ED4  
                                            l2873 0185                                              l2865 016D  
                                            l2961 054F                                              l2953 0500  
                                            l2939 0EF1                                              l2947 0018  
                                            l2795 02A9                                              l2859 0274  
                                            l2883 0EA7                                              l2779 0EC2  
                                            l2875 0191                                              l2867 0176  
                                            l2971 057A                                              l2963 0555  
                                            l2955 0513                                              l2891 0F30  
                                            l2949 0029                                              l2797 02AA  
                                            l2885 0EB4                                              l2877 0196  
                                            l2869 017B                                              l2981 05B9  
                                            l2973 057D                                              l2965 0565  
                                            l2957 0519                                              l2789 0E8F  
                                            l2799 02B4                                              l2879 01A9  
                                            l2983 05F4                                              l2991 0621  
                                            l2975 0582                                              l2967 056B  
                                            l2959 053C                                              l2887 0E77  
                                            l2895 0FDB                                              l3951 00D6  
                                            l2993 0628                                              l2985 0601  
                                            l2977 05B1                                              l2969 0570  
                                            l3961 0107                                              l3953 00E5  
                                            l2995 062D                                              l2987 060E  
                                            l2979 05B5                                              l2899 0FF2  
                                            l3955 00EF                                              l2997 0632  
                                            l2989 061C                                              l3957 00EF  
                                            l3949 00D3                                              l2999 0638  
                                            l3959 00FC                                              STR_1 1042  
                                            STR_2 105D                                              STR_3 1000  
                                            STR_4 1095                                              STR_6 1077  
                                            STR_9 0800                                              u2000 06E9  
                                            u2010 06F5                                              u2011 06F4  
                                            u2100 07A1                                              u2020 070B  
                                            u2101 07A0                                              u2021 0709  
                                            u2110 07A6                                              u2030 070C  
                                            u2111 07A5                                              u2120 0E36  
                                            u1400 0E9F                                              u2040 0718  
                                            u2200 04A6                                              u2121 0E35  
                                            u1401 0E9D                                              u2041 0717  
                                            u2201 04A5                                              u2130 0097  
                                            u2210 0FC0                                              u1410 0EA0  
                                            u2050 0753                                              u2131 0096  
                                            u2211 0FBF                                              u2140 0EFD  
                                            u2220 0FDA                                              u1500 0375  
                                            u1420 02B4                                              u2060 0774  
                                            u2141 0EFC                                              u2221 0FD9  
                                            u1501 0374                                              u1421 02B3  
                                            u2061 0773                                              _LATA 0018  
                                            u2230 0F1C                                              u1510 037A  
                                            u2070 0781                                              u2150 03BD  
                                            _LATB 0019                                              u2231 0F1B  
                                            u1511 0379                                              u2071 0780  
                                            u2055 074A                                              u2151 03BC  
                                            _LATC 001A                                              u2240 0F2F  
                                            u1440 02DF                                              u1600 0274  
                                            u2080 078E                                              u2160 03E0  
                                            _LATD 001B                                              u2241 0F2E  
                                            u1441 02DE                                              u1601 0273  
                                            u2081 078D                                              u2065 0770  
                                            u2161 03DF                                              _LATE 001C  
                                            u1610 0279                                              u1530 01CA  
                                            u1370 0E1E                                              u2090 079C  
                                            u2170 03F1                                              u2250 0086  
                                            u1611 0278                                              u1531 01C9  
                                            u1371 0E1D                                              u2091 079B  
                                            u2171 03F0                                              u2251 0085  
                                            u1460 0309                                              u1380 005D  
                                            u1700 0F46                                              u2180 043D  
                                            u1381 005C                                              u1701 0F44  
                                            u2085 078A                                              u2181 043C  
                                            u1470 0319                                              u1550 01F5  
                                            u1390 0ED4                                              u1630 016D  
                                            u1710 0F47                                              u2190 044E  
                                            u1471 0318                                              u1551 01F4  
                                            u1391 0ED3                                              u1631 016C  
                                            u2095 0798                                              u2191 044D  
                                            u1480 032C                                              u1640 017B  
                                            u1800 050C                                              u1720 0FEB  
                                            u1481 032B                                              u1641 017A  
                                            u1721 0FE9                                              u1490 0356  
                                            u1570 0221                                              u1650 01A4  
                                            u1810 0519                                              u1730 0FEC  
                                            u1491 0355                                              u1571 0220  
                                            u1651 01A3                                              u1811 0518  
                                            u1580 0234                                              u1660 01A9  
                                            u1900 061C                                              u1740 0FF8  
                                            u1581 0233                                              u1661 01A8  
                                            u1901 061B                                              u1741 0FF7  
                                            u1750 0E27                                              u1590 0256  
                                            u1670 0EB4                                              u1910 0621  
                                            u1830 053C                                              u1751 0E26  
                                            u1495 0352                                              u1591 0255  
                                            u1671 0EB3                                              u1655 01A0  
                                            u1911 0620                                              u1831 053B  
                                            u1760 0EE3                                              u1920 0628  
                                            u1840 054F                                              u1680 0E87  
                                            u1761 0EE2                                              u1921 0627  
                                            u1905 0618                                              u1841 054E  
                                            u1681 0E85                                              u1770 0EEA  
                                            u1930 062D                                              u1850 056B  
                                            u1690 0E88                                              u1771 0EE9  
                                            u1595 0252                                              u1675 0EB0  
                                            u1931 062C                                              u1851 056A  
                                            u1780 0018                                              u1940 0638  
                                            u1860 0570                                              u2660 00E1  
                                            u1781 0017                                              u1941 0637  
                                            u1861 056F                                              u1845 054B  
                                            u1870 05F4                                              u1790 050B  
                                            u1950 0665                                              u2670 00EC  
                                            u1871 05F3                                              u1791 0509  
                                            u1951 0664                                              u1880 0601  
                                            u1960 0678                                              u1881 0600  
                                            u1961 0677                                              u1890 060E  
                                            u1970 0693                                              u1891 060D  
                                            u1875 05F0                                              u1971 0692  
                                            u1980 06C8                                              _PMD0 0796  
                                            u1981 06C7                                              u1965 0674  
                                            _PMD1 0797                                              u1990 06E8  
                                            _PMD2 0798                                              u1895 060A  
                                            u1991 06E6                                              _PMD3 0799  
                                            _PMD4 079A                                              u2777 0F6A  
                                            u1985 06C4                                              _PMD5 079B  
                                            _WPUA 1F39                                              _WPUB 1F44  
                                            _WPUC 1F4F                                              _WPUD 1F5A  
                                            _WPUE 1F65                                     _EUSART1_Write 0E18  
                                            abs@a 0073                                              _dbuf 0120  
                                            _main 00D3                                              _dtoa 04EE  
                                            _prec 00C6                                              _nout 00C2  
                                            pad@i 0023                                              pad@p 0021  
                                            fsr0h 0005                                              fsr1h 0007  
                                            indf0 0000                                              fsr0l 0004  
                                            indf1 0001                                              fsr1l 0006  
                                            pad@w 0025                                              btemp 007E  
                                            _xtoa 065E                          __size_of_i2c_writeNBytes 0025  
                                            start 0002                                  ??_I2C1_SetBuffer 0072  
                                     EE_Read@addr 0020                                             ??_abs 0075  
                                           ??_pad 007C                    __size_of_OSCILLATOR_Initialize 000A  
                   __end_of_OSCILLATOR_Initialize 0E18                                  __end_of_EE_Write 0F70  
                                 __end_of___aodiv 03AA                                 __end_of_I2C1_Open 00D3  
                                           ?_main 0070                                             ?_dtoa 0030  
                                 __end_of___aomod 02A9                                    _i2c_readNBytes 0F12  
                                           STR_10 108E                                             ?_xtoa 0028  
                      __end_of_i2c1_fsmStateTable 1042                                             _OSCEN 0891  
                                    vfpfcnvrt@fmt 004E                                      vfpfcnvrt@llu 005D  
                          ??_I2C1_MasterEnableIrq 0070                                             _TRISA 0012  
                                           _TRISB 0013                                             _TRISC 0014  
                                           _TRISD 0015                                             _TRISE 0016  
                               ??_I2C1_MasterRead 0073                                 ??_I2C1_MasterOpen 0070  
                               ??_I2C1_Initialize 0070                                             _flags 00C8  
                                           _fputc 0DCE                                   __end_of_isalpha 0F4E  
                                           _fputs 0037                                             pad@fp 0027  
                                           _width 00C4                                             main@a 00E0  
                                           dtoa@d 0030                                             dtoa@i 004C  
                                           dtoa@n 0044                                             dtoa@p 003D  
                                           dtoa@s 0042                                             dtoa@w 0040  
                                 __end_of_islower 0EA7                                    ?_EUSART1_Write 0070  
                                 __end_of_isupper 0E8F                                             status 0003  
                                           wtemp0 007E                                             xtoa@c 004C  
                                           xtoa@d 0028                                             xtoa@i 004A  
                                           xtoa@n 0042                                             xtoa@p 003D  
                                           xtoa@w 0040                                             xtoa@x 0030  
                                 __end_of_toupper 1000                _EUSART1_DefaultFramingErrorHandler 0000  
                                    ??_I2C1_Close 0070                                      _toupper$1816 007C  
                                 __initialization 07D5                        __end_of_EUSART1_Initialize 0F92  
                                    EE_Read@frame 0022                                      __end_of_main 0118  
                                    __end_of_dtoa 065E                                      __end_of_xtoa 07D5  
                          __end_of_i2c_readNBytes 0F30                            ??_I2C1_MasterOperation 0070  
                                          ??_main 00D4                                            ??_dtoa 0038  
                                          ??_xtoa 0031                                         ??_EE_Read 007D  
                              __end_of_I2C1_Close 0F12                                            ?_fputc 0071  
                                          ?_fputs 0074                                            _ANSELA 1F38  
                                          _ANSELB 1F43                                            _ANSELC 1F4E  
                                          _ANSELD 1F59                                            _ANSELE 1F64  
                                          _RC1REG 0119                                            _RC1STA 011D  
                                          _RC2PPS 1F22                                            _RC3PPS 1F23  
                                          _RC4PPS 1F24                                            _ODCONA 1F3A  
                                          _ODCONB 1F45                                            _ODCONC 1F50  
                                          _ODCOND 1F5B                                            _ODCONE 1F66  
            __size_of_I2C1_SetAddressNackCallback 000D                                            _INLVLA 1F3C  
                                          _INLVLB 1F47                                            _INLVLC 1F52  
                                          _INLVLD 1F5D                                            _INLVLE 1F68  
                                          _OSCFRQ 0893                                            u143lld 02D3  
                                          u152lld 0398                                            u145lld 02FE  
                                          u162lld 0297                                            u154lld 01E9  
                                          u156lld 0214                                            u182lld 0537  
                                          _TX1REG 011A                                            _TX1STA 011E  
                               ?_I2C1_MasterClose 0070                           ??_I2C1_MasterDisableIrq 0070  
                               ?_I2C1_MasterStart 0070                                 ?_I2C1_MasterWrite 0070  
                              ??_I2C1_MasterClose 0070                                  _I2C1_DO_TX_EMPTY 0000  
                              ??_I2C1_MasterStart 0070                                ??_I2C1_MasterWrite 0073  
                                    vfprintf@cfmt 006D                                         ??___aodiv 0070  
                                       ??___aomod 0070                                 ??_i2c_writeNBytes 007C  
                        ?_EUSART1_SetErrorHandler 0070                      __size_of_I2C1_MasterClearIrq 0003  
                                 ?_i2c_readNBytes 0075                                            _printf 0E61  
                                          pad@buf 0020                  ??_EUSART1_SetOverrunErrorHandler 0072  
                 ?_EUSART1_SetOverrunErrorHandler 0070                                            dtoa@fp 003F  
                                          _strlen 0EC1                                 ?_I2C1_SetCallback 0070  
                __end_of_I2C1_SetInterruptHandler 0DDE                             _I2C1_DO_SEND_ADR_READ 0000  
                                          fputc@f 0073                                    _PMD_Initialize 0DFC  
                                          fputs@c 0078                                            fputs@i 0079  
                                          fputs@s 007B                                         ??_isalpha 0072  
                              ??_I2C1_SetCallback 0073                                         ??_islower 0072  
                                       ??_isupper 0072                                  __end_of_vfprintf 008F  
                                 ??_EUSART1_Write 0070          I2C1_SetInterruptHandler@InterruptHandler 0070  
                                          xtoa@fp 003F                                         ??_toupper 0078  
                         _I2C1_DO_RX_NACK_RESTART 0000                                 _SYSTEM_Initialize 0E40  
                         __end_of__initialization 07FD                   I2C1_MasterOperation@returnValue 0072  
                              ?_SYSTEM_Initialize 0070                                         ?_EE_Write 0020  
                         _rdBlkRegCompleteHandler 0000                                    __pcstackCOMMON 0070  
                                    __pidataBANK1 0DD3                                      __pidataBANK2 0E50  
                             ??_SYSTEM_Initialize 0072                                      EE_Write@addr 0020  
                                    EE_Write@data 0022                                     __end_of_fputc 0DD3  
                                   __end_of_fputs 005E                            __end_of_PMD_Initialize 0E04  
                                         ??_fputc 0074                         __end_of_SYSTEM_Initialize 0E50  
                                         ??_fputs 0075                                        __pbssBANK1 00A0  
                                      __pbssBANK2 0120                              I2C1_Open@returnValue 0074  
                                      ??_EE_Write 007D                             _rd1RegCompleteHandler 0000  
                               _I2C1_DO_SEND_STOP 0000                             _wr1RegCompleteHandler 0000  
                 __end_of_EUSART1_SetErrorHandler 0DE4                                        __pmaintext 00D3  
                           i2c_readNBytes@address 0078                                   _I2C1_MasterRead 0DC4  
                                 _I2C1_MasterOpen 0E22                                   _I2C1_Initialize 0E04  
                                         ?_printf 00CD                                   ?_PMD_Initialize 0070  
                                         ?_strlen 0070            __end_of_EUSART1_SetFramingErrorHandler 0DEA  
         __size_of_EUSART1_SetFramingErrorHandler 0006                    _EUSART1_SetFramingErrorHandler 0DE4  
                                         _EE_Read 0F92                                           _SP1BRGH 011C  
                                         _SP1BRGL 011B                                           _OSCCON1 088D  
                                         _OSCCON3 088F                                         _I2C1_Open 008F  
                              __size_of_vfpfcnvrt 0144                                           _OSCSTAT 0890  
                                         _OSCTUNE 0892                                           _SSP1ADD 018D  
                                         _SLRCONA 1F3B                                           _SLRCONB 1F46  
                                         _SLRCONC 1F51                                           _SLRCOND 1F5C  
                                         _SLRCONE 1F67                                           _SSP1BUF 018C  
                        _I2C1_SetInterruptHandler 0DD8                                _i2c1_fsmStateTable 1022  
  _rd1RegCompleteHandler@i2c1_master_example$F146 0000    _wr1RegCompleteHandler@i2c1_master_example$F163 0000  
_rdBlkRegCompleteHandler@i2c1_master_example$F180 0000    _rd2RegCompleteHandler@i2c1_master_example$F157 0000  
  _wr2RegCompleteHandler@i2c1_master_example$F169 0000                                I2C1_SetCallback@cb 0070  
                                         ___aodiv 02A9                                           ___aomod 01BF  
                                       ?_vfprintf 0067                            i2c_writeNBytes@address 007C  
                              i2c_readNBytes@data 0075                                           __ptext1 0E61  
                                         __ptext2 005E                                           __ptext3 03AA  
                                         __ptext4 065E                                           __ptext5 0FDB  
                                         __ptext6 0E8F                                           __ptext7 0E77  
                                         __ptext8 0F30                                           __ptext9 04EE  
                                 __size_of_printf 0016                      ?_I2C1_SetAddressNackCallback 0075  
                                 __size_of_strlen 001A                             _OSCILLATOR_Initialize 0E0E  
                                    __size_of_abs 001A                                      __size_of_pad 0059  
                                         _isalpha 0F30                                _EUSART1_Initialize 0F70  
                                         _islower 0E8F                          ??_PIN_MANAGER_Initialize 0070  
                                      ?_I2C1_Open 0070                                           _isupper 0E77  
                   __size_of_I2C1_MasterEnableIrq 0003                        __size_of_SYSTEM_Initialize 0010  
                                         clrloop0 0DF1                                           _toupper 0FDB  
                            end_of_initialization 07FD                               _I2C1_MasterClearIrq 0DB5  
                             ?_EUSART1_Initialize 0070                                           fputc@ch 0071  
                                         init_ram 0DF6                       _EUSART1_OverrunErrorHandler 00E3  
                                         fputs@fp 0074                                           initloop 0DF7  
                                 _i2c_writeNBytes 0FB6                            _I2C1_DO_SEND_ADR_WRITE 0000  
                         __end_of_I2C1_MasterRead 0DC9                           __end_of_I2C1_MasterOpen 0E30  
                         __end_of_I2C1_Initialize 0E0E                    __size_of_I2C1_MasterDisableIrq 0003  
                   __end_of_I2C1_MasterDisableIrq 0DBE                                  ??_i2c_readNBytes 0078  
                                     _I2C1_Status 00A0                                 __end_of_vfpfcnvrt 04EE  
             __end_of_I2C1_SetAddressNackCallback 0011                       _I2C1_SetAddressNackCallback 0004  
                                      ??_vfprintf 006A                              ?_I2C1_MasterClearIrq 0070  
                            ??_EUSART1_Initialize 0072                        _I2C1_DO_SEND_RESTART_WRITE 0000  
                                         strlen@a 0073                                           strlen@s 0074  
                       __size_of_I2C1_MasterClose 0003                           __size_of_I2C1_SetBuffer 0010  
                       __size_of_I2C1_MasterStart 0003                         __size_of_I2C1_MasterWrite 0005  
                   __size_of_I2C1_MasterOperation 001B                     ??_I2C1_SetAddressNackCallback 0078  
                          I2CSIMPLE_example@F8205 0140                  __size_of_EUSART1_SetErrorHandler 0006  
                             EUSART1_Write@txData 0070                         __size_of_I2C1_SetCallback 0026  
                               __size_of_EE_Write 0022                             ??_I2C1_MasterClearIrq 0070  
                                     vfpfcnvrt@ap 004F                                       vfpfcnvrt@fp 0066  
                                     vfpfcnvrt@ll 0055                                    _I2C1_DO_RX_ACK 0000  
                          ?_OSCILLATOR_Initialize 0070                                     EE_Write@frame 0023  
                                  __end_of_printf 0E77                                    __end_of_strlen 0EDB  
                             start_initialization 07D5                                       ??_I2C1_Open 0072  
                 __size_of_PIN_MANAGER_Initialize 004E                                       __end_of_abs 0EC1  
                                     __end_of_pad 01BF                           __end_of_i2c_writeNBytes 0FDB  
                           __end_of_EUSART1_Write 0E22                          I2C1_SetBuffer@bufferSize 0070  
                                ?_I2C1_MasterRead 0070                                  ?_I2C1_MasterOpen 0070  
                                ?_I2C1_Initialize 0070                                       vfprintf@fmt 0067  
                                ??_PMD_Initialize 0070                                       __pdataBANK1 00E7  
                                     __pdataBANK2 0140                        ??_I2C1_SetInterruptHandler 0072  
                                        ??_printf 006F                                          ??_strlen 0072  
                                I2C1_Open@address 0073                                          ?_EE_Read 0020  
                            _I2C1_DO_SEND_RESTART 0000                                         ___latbits 0003  
                                   __pcstackBANK0 0020                                     __pcstackBANK1 00CD  
                                ___aodiv@dividend 0028                  ??_EUSART1_SetFramingErrorHandler 0072  
                 ?_EUSART1_SetFramingErrorHandler 0070                     I2C1_SetAddressNackCallback@cb 0075  
                                       __pnvBANK1 00E1                             _rd2RegCompleteHandler 0000  
                          _PIN_MANAGER_Initialize 0118                             _wr2RegCompleteHandler 0000  
                                       _dtoa$1738 003B                            _MSSP1_InterruptHandler 00CA  
                                  _I2C1_MasterIsr 0000                                          ?___aodiv 0020  
                                        ?___aomod 0020                                  ___aodiv@quotient 0073  
                                _I2C1_MasterClose 0DB8                                    _I2C1_SetBuffer 0E30  
                                _I2C1_MasterStart 0DBE                                 __size_of_vfprintf 0031  
                                _I2C1_MasterWrite 0DC9                                          _BAUD1CON 011F  
              _EUSART1_DefaultOverrunErrorHandler 0000                                          ?_isalpha 0070  
                            _EUSART1_ErrorHandler 00E1                                          ?_islower 0070  
                                        ?_isupper 0070                           _EUSART1_SetErrorHandler 0DDE  
                                ?_i2c_writeNBytes 0079                                    __size_of_fputc 0005  
                                  __size_of_fputs 0027                                          ?_toupper 0076  
                               i2c_readNBytes@len 0076                                  _I2C1_SetCallback 0011  
         EUSART1_SetErrorHandler@interruptHandler 0070                                        _I2C1_DO_RX 0000  
                                      _I2C1_DO_TX 0000                                          _EE_Write 0F4E  
                                       clear_ram0 0DF0                                          _PIE3bits 0719  
                                      _I2C1_Close 0EF6                      __end_of_I2C1_MasterEnableIrq 0DC4  
                                        _PIR3bits 070F                                          _RX1DTPPS 1ECB  
                       _I2C1_DO_SEND_RESTART_READ 0000                                         main@F8214 00E7  
                                       main@F8216 00BD                                          _SSP1CON1 0190  
                                        _SSP1CON2 0191                            __end_of_I2C1_SetBuffer 0E40  
                                        _SSP1STAT 018F                                         _vfpfcnvrt 03AA  
                                       _xtoa$1750 003B                                         _xtoa$1749 0039  
                                       main@value 00DB                                  __size_of_EE_Read 0024  
                                   _I2C1_DO_RESET 0000                                        vfpfcnvrt@c 0065  
                           I2C1_Close@returnValue 0071                               I2C1_SetCallback@idx 0074  
                             I2C1_SetCallback@ptr 0072                      __end_of_I2C1_MasterOperation 0EF6  
                                      vfprintf@ap 0069                                        vfprintf@fp 006C  
                             i2c_writeNBytes@data 0079                             _I2C1_MasterDisableIrq 0DBB  
                         ??_OSCILLATOR_Initialize 0070                                   ?_I2C1_SetBuffer 0070  
                                __size_of___aodiv 0101                                  __size_of___aomod 00EA  
                     __size_of_EUSART1_Initialize 0022                                        ?_vfpfcnvrt 004E  
                                 ___aodiv@divisor 0020                                   ___aodiv@counter 0071  
                       ??_EUSART1_SetErrorHandler 0072                       _EUSART1_DefaultErrorHandler 0000  
                                __size_of_isalpha 001E                                  __size_of_islower 0018  
                                        __ptext10 0166                                          __ptext11 0EC1  
                                        __ptext20 0118                                          __ptext12 0037  
                                        __ptext21 0E0E                                          __ptext13 0DCE  
                                        __ptext30 0004                                          __ptext22 0E04  
                                        __ptext14 0E18                                          __ptext31 0011  
                                        __ptext23 0F70                                          __ptext15 0EA7  
                                        __ptext40 0EDB                                          __ptext32 0DC9  
                                        __ptext24 0DEA                                          __ptext16 01BF  
                                        __ptext41 0DBE                                          __ptext33 0F12  
                                        __ptext25 0DE4                                          __ptext17 02A9  
                                        __ptext42 0EF6                                          __ptext34 0E30  
                                        __ptext26 0DDE                                          __ptext18 0E40  
                                        __ptext43 0DBB                                          __ptext35 008F  
                                        __ptext27 0F4E                                          __ptext19 0DFC  
                                        __ptext44 0DB8                                          __ptext36 0DD8  
                                        __ptext28 0F92                                          __ptext45 0DB5  
                                        __ptext37 0E22                                          __ptext29 0FB6  
                                        __ptext38 0DC1                                          __ptext39 0DC4  
                                __size_of_isupper 0018                                      _SSP1CON1bits 0190  
                                    _SSP1CON2bits 0191                                  __size_of_toupper 0025  
                        _I2C1_CallbackReturnReset 0000                                     __size_of_main 0045  
                                   __size_of_dtoa 0170                                     __size_of_xtoa 0177  
                     __end_of_I2C1_MasterClearIrq 0DB8                                       ?_I2C1_Close 0070  
                                      _RC1STAbits 011D    EUSART1_SetOverrunErrorHandler@interruptHandler 0070  
                        I2C1_MasterOperation@read 0071                                          _vfprintf 005E  
                                        main@data 00D6                                         printf@fmt 00CD  
                                    _SSP1STATbits 018F                       _EUSART1_FramingErrorHandler 00E5  
                                    _I2C1_DO_IDLE 0000                                      _I2C1_DO_RCEN 0000  
                                ___aomod@dividend 0028                           __size_of_i2c_readNBytes 001E  
                  I2C1_SetAddressNackCallback@ptr 0077                              _I2C1_MasterEnableIrq 0DC1  
                              i2c_writeNBytes@len 007A                                          isalpha@c 0070  
                        __end_of_I2C1_MasterClose 0DBB                                          islower@c 0070  
                         ?_PIN_MANAGER_Initialize 0070                          __end_of_I2C1_MasterStart 0DC1  
                        __end_of_I2C1_MasterWrite 0DCE            __end_of_EUSART1_SetOverrunErrorHandler 0DF0  
         __size_of_EUSART1_SetOverrunErrorHandler 0006                    _EUSART1_SetOverrunErrorHandler 0DEA  
                                        isupper@c 0070                           _I2C1_CallbackReturnStop 0000  
                            _I2C1_DO_ADDRESS_NACK 0000                            ?_I2C1_MasterDisableIrq 0070  
                                        printf@ap 00D3    EUSART1_SetFramingErrorHandler@interruptHandler 0070  
                                 ___aomod@divisor 0020                                       ??_vfpfcnvrt 0050  
                        __size_of_I2C1_MasterRead 0005                                   ___aomod@counter 0071  
                        __size_of_I2C1_MasterOpen 000E                          __size_of_I2C1_Initialize 000A  
                          __size_of_EUSART1_Write 000A                                _eusart1RxLastError 00CC  
                                   __pstringtext1 1022                                     __pstringtext2 0800  
                                   __pstringtext3 1000                                     __pstringtext4 1042  
                                   __pstringtext5 105D                                     __pstringtext6 1077  
                                   __pstringtext7 108E                                     __pstringtext8 1095  
                                   __pstringtext9 0000                          __end_of_I2C1_SetCallback 0037  
                                      _SSP1DATPPS 1EC6                                        _SSP1CLKPPS 1EC5  
                            _I2C1_MasterOperation 0EDB                                          toupper@c 0076  
                           ?_I2C1_MasterEnableIrq 0070                               __size_of_I2C1_Close 001C  
                                      _TX1STAbits 011E                                      ___aodiv@sign 0072  
                  __end_of_PIN_MANAGER_Initialize 0166                 __size_of_I2C1_SetInterruptHandler 0006  
                       ?_I2C1_SetInterruptHandler 0070                                __size_of_I2C1_Open 0044  
                                    ___aomod@sign 0072  
