

Microchip MPLAB XC8 Assembler V2.31 build 20201012212115 
                                                                                               Sat Aug 21 11:06:48 2021

Microchip MPLAB XC8 C Compiler v2.31 (Free license) build 20201012212115 Og1 
     1                           	processor	16LF15376
     2                           	pagewidth 120
     3                           	opt	flic
     4                           	psect	stringtext1,global,class=STRCODE,delta=2,noexec
     5                           	psect	nvBANK1,global,class=BANK1,space=1,delta=1,noexec
     6                           	psect	stringtext2,global,class=STRCODE,delta=2,noexec
     7                           	psect	stringtext3,global,class=STRCODE,delta=2,noexec
     8                           	psect	stringtext4,global,class=STRCODE,delta=2,noexec
     9                           	psect	cinit,global,class=CODE,merge=1,delta=2
    10                           	psect	bssBANK1,global,class=BANK1,space=1,delta=1,noexec
    11                           	psect	clrtext,global,class=CODE,delta=2
    12                           	psect	cstackBANK1,global,class=BANK1,space=1,delta=1,noexec
    13                           	psect	cstackCOMMON,global,class=COMMON,space=1,delta=1,noexec
    14                           	psect	cstackBANK0,global,class=BANK0,space=1,delta=1,noexec
    15                           	psect	maintext,global,class=CODE,merge=1,split=1,delta=2
    16                           	psect	text1,local,class=CODE,merge=1,delta=2
    17                           	psect	text2,local,class=CODE,merge=1,delta=2
    18                           	psect	text3,local,class=CODE,merge=1,delta=2
    19                           	psect	text4,local,class=CODE,merge=1,delta=2
    20                           	psect	text5,local,class=CODE,merge=1,delta=2
    21                           	psect	text6,local,class=CODE,merge=1,delta=2
    22                           	psect	text7,local,class=CODE,merge=1,delta=2
    23                           	psect	text8,local,class=CODE,merge=1,delta=2
    24                           	psect	text9,local,class=CODE,merge=1,delta=2
    25                           	psect	text10,local,class=CODE,merge=1,delta=2
    26                           	psect	text11,local,class=CODE,merge=1,delta=2,group=3
    27                           	psect	text12,local,class=CODE,merge=1,delta=2,group=1
    28                           	psect	text13,local,class=CODE,merge=1,delta=2,group=1
    29                           	psect	text14,local,class=CODE,merge=1,delta=2,group=1
    30                           	psect	text15,local,class=CODE,merge=1,delta=2,group=1
    31                           	psect	text16,local,class=CODE,merge=1,delta=2,group=3
    32                           	psect	text17,local,class=CODE,merge=1,delta=2,group=3
    33                           	psect	text18,local,class=CODE,merge=1,delta=2,group=3
    34                           	psect	text19,local,class=CODE,merge=1,delta=2
    35                           	psect	text20,local,class=CODE,merge=1,delta=2
    36                           	psect	text21,local,class=CODE,merge=1,delta=2,group=3
    37                           	psect	text22,local,class=CODE,merge=1,delta=2,group=2
    38                           	psect	text23,local,class=CODE,merge=1,delta=2,group=2
    39                           	psect	text24,local,class=CODE,merge=1,delta=2
    40                           	psect	text25,local,class=CODE,merge=1,delta=2
    41                           	psect	text26,local,class=CODE,merge=1,delta=2
    42                           	psect	config,global,abs,ovrld,class=CONFIG,space=4,delta=2,noexec
    43                           	dabs	1,0x7E,2
    44  0000                     
    45                           ; Version 2.30
    46                           ; Generated 15/09/2020 GMT
    47                           ; 
    48                           ; Copyright © 2020, Microchip Technology Inc. and its subsidiaries ("Microchip")
    49                           ; All rights reserved.
    50                           ; 
    51                           ; This software is developed by Microchip Technology Inc. and its subsidiaries ("Microch
      +                          ip").
    52                           ; 
    53                           ; Redistribution and use in source and binary forms, with or without modification, are
    54                           ; permitted provided that the following conditions are met:
    55                           ; 
    56                           ;     1. Redistributions of source code must retain the above copyright notice, this lis
      +                          t of
    57                           ;        conditions and the following disclaimer.
    58                           ; 
    59                           ;     2. Redistributions in binary form must reproduce the above copyright notice, this 
      +                          list
    60                           ;        of conditions and the following disclaimer in the documentation and/or other
    61                           ;        materials provided with the distribution. Publication is not required when
    62                           ;        this file is used in an embedded application.
    63                           ; 
    64                           ;     3. Microchip's name may not be used to endorse or promote products derived from th
      +                          is
    65                           ;        software without specific prior written permission.
    66                           ; 
    67                           ; THIS SOFTWARE IS PROVIDED BY MICROCHIP "AS IS" AND ANY EXPRESS OR IMPLIED WARRANTIES,
    68                           ; INCLUDING, BUT NOT LIMITED TO, THE IMPLIED WARRANTIES OF MERCHANTABILITY AND FITNESS F
      +                          OR
    69                           ; PURPOSE ARE DISCLAIMED.  IN NO EVENT SHALL MICROCHIP BE LIABLE FOR ANY DIRECT, INDIREC
      +                          T,
    70                           ; INCIDENTAL, SPECIAL, EXEMPLARY, OR CONSEQUENTIAL DAMAGES (INCLUDING BUT NOT LIMITED TO
    71                           ; PROCUREMENT OF SUBSTITUTE GOODS OR SERVICES; LOSS OF USE, DATA OR PROFITS; OR BUSINESS
    72                           ; INTERRUPTION) HOWSOEVER CAUSED AND ON ANY THEORY OF LIABILITY, WHETHER IN CONTRACT, ST
      +                          RICT
    73                           ; LIABILITY, OR TORT (INCLUDING NEGLIGENCE OR OTHERWISE) ARISING IN ANY WAY OUT OF THE U
      +                          SE OF
    74                           ; THIS SOFTWARE, EVEN IF ADVISED OF THE POSSIBILITY OF SUCH DAMAGE.
    75                           ; 
    76                           ; 
    77                           ; Code-generator required, PIC16LF15376 Definitions
    78                           ; 
    79                           ; SFR Addresses
    80  0000                     	;# 
    81  0001                     	;# 
    82  0002                     	;# 
    83  0003                     	;# 
    84  0004                     	;# 
    85  0005                     	;# 
    86  0006                     	;# 
    87  0007                     	;# 
    88  0008                     	;# 
    89  0009                     	;# 
    90  000A                     	;# 
    91  000B                     	;# 
    92  000C                     	;# 
    93  000D                     	;# 
    94  000E                     	;# 
    95  000F                     	;# 
    96  0010                     	;# 
    97  0012                     	;# 
    98  0013                     	;# 
    99  0014                     	;# 
   100  0015                     	;# 
   101  0016                     	;# 
   102  0018                     	;# 
   103  0019                     	;# 
   104  001A                     	;# 
   105  001B                     	;# 
   106  001C                     	;# 
   107  009B                     	;# 
   108  009B                     	;# 
   109  009C                     	;# 
   110  009D                     	;# 
   111  009E                     	;# 
   112  009F                     	;# 
   113  0119                     	;# 
   114  0119                     	;# 
   115  0119                     	;# 
   116  011A                     	;# 
   117  011A                     	;# 
   118  011A                     	;# 
   119  011B                     	;# 
   120  011B                     	;# 
   121  011B                     	;# 
   122  011B                     	;# 
   123  011B                     	;# 
   124  011C                     	;# 
   125  011C                     	;# 
   126  011C                     	;# 
   127  011D                     	;# 
   128  011D                     	;# 
   129  011D                     	;# 
   130  011E                     	;# 
   131  011E                     	;# 
   132  011E                     	;# 
   133  011F                     	;# 
   134  011F                     	;# 
   135  011F                     	;# 
   136  011F                     	;# 
   137  011F                     	;# 
   138  018C                     	;# 
   139  018D                     	;# 
   140  018E                     	;# 
   141  018F                     	;# 
   142  0190                     	;# 
   143  0191                     	;# 
   144  0192                     	;# 
   145  0196                     	;# 
   146  0197                     	;# 
   147  0198                     	;# 
   148  0199                     	;# 
   149  019A                     	;# 
   150  019B                     	;# 
   151  019C                     	;# 
   152  020C                     	;# 
   153  020C                     	;# 
   154  020D                     	;# 
   155  020E                     	;# 
   156  020F                     	;# 
   157  020F                     	;# 
   158  0210                     	;# 
   159  0210                     	;# 
   160  0211                     	;# 
   161  0211                     	;# 
   162  028C                     	;# 
   163  028C                     	;# 
   164  028D                     	;# 
   165  028D                     	;# 
   166  028E                     	;# 
   167  028F                     	;# 
   168  0290                     	;# 
   169  0291                     	;# 
   170  030C                     	;# 
   171  030C                     	;# 
   172  030D                     	;# 
   173  030E                     	;# 
   174  030F                     	;# 
   175  0310                     	;# 
   176  0310                     	;# 
   177  0311                     	;# 
   178  0312                     	;# 
   179  0313                     	;# 
   180  0314                     	;# 
   181  0314                     	;# 
   182  0315                     	;# 
   183  0316                     	;# 
   184  0318                     	;# 
   185  0318                     	;# 
   186  0319                     	;# 
   187  031A                     	;# 
   188  031C                     	;# 
   189  031C                     	;# 
   190  031D                     	;# 
   191  031E                     	;# 
   192  038C                     	;# 
   193  038C                     	;# 
   194  038D                     	;# 
   195  038E                     	;# 
   196  058C                     	;# 
   197  058C                     	;# 
   198  058D                     	;# 
   199  058E                     	;# 
   200  058F                     	;# 
   201  058F                     	;# 
   202  0590                     	;# 
   203  0591                     	;# 
   204  0592                     	;# 
   205  0593                     	;# 
   206  059C                     	;# 
   207  059C                     	;# 
   208  059D                     	;# 
   209  059D                     	;# 
   210  059E                     	;# 
   211  059F                     	;# 
   212  060C                     	;# 
   213  060D                     	;# 
   214  060E                     	;# 
   215  060F                     	;# 
   216  0610                     	;# 
   217  0611                     	;# 
   218  0612                     	;# 
   219  0613                     	;# 
   220  0614                     	;# 
   221  070C                     	;# 
   222  070D                     	;# 
   223  070E                     	;# 
   224  070F                     	;# 
   225  0710                     	;# 
   226  0711                     	;# 
   227  0712                     	;# 
   228  0713                     	;# 
   229  0716                     	;# 
   230  0717                     	;# 
   231  0718                     	;# 
   232  0719                     	;# 
   233  071A                     	;# 
   234  071B                     	;# 
   235  071C                     	;# 
   236  071D                     	;# 
   237  0796                     	;# 
   238  0797                     	;# 
   239  0798                     	;# 
   240  0799                     	;# 
   241  079A                     	;# 
   242  079B                     	;# 
   243  080C                     	;# 
   244  080D                     	;# 
   245  080E                     	;# 
   246  080F                     	;# 
   247  0810                     	;# 
   248  0811                     	;# 
   249  0813                     	;# 
   250  0814                     	;# 
   251  081A                     	;# 
   252  081A                     	;# 
   253  081B                     	;# 
   254  081C                     	;# 
   255  081C                     	;# 
   256  081D                     	;# 
   257  081E                     	;# 
   258  081F                     	;# 
   259  088C                     	;# 
   260  088D                     	;# 
   261  088E                     	;# 
   262  088F                     	;# 
   263  0890                     	;# 
   264  0891                     	;# 
   265  0892                     	;# 
   266  0893                     	;# 
   267  0895                     	;# 
   268  0896                     	;# 
   269  090C                     	;# 
   270  090E                     	;# 
   271  090F                     	;# 
   272  091F                     	;# 
   273  098F                     	;# 
   274  098F                     	;# 
   275  0990                     	;# 
   276  0991                     	;# 
   277  0992                     	;# 
   278  0993                     	;# 
   279  0994                     	;# 
   280  0995                     	;# 
   281  0996                     	;# 
   282  0997                     	;# 
   283  0A19                     	;# 
   284  0A19                     	;# 
   285  0A1A                     	;# 
   286  0A1A                     	;# 
   287  0A1B                     	;# 
   288  0A1B                     	;# 
   289  0A1B                     	;# 
   290  0A1C                     	;# 
   291  0A1C                     	;# 
   292  0A1D                     	;# 
   293  0A1D                     	;# 
   294  0A1E                     	;# 
   295  0A1E                     	;# 
   296  0A1F                     	;# 
   297  0A1F                     	;# 
   298  0A1F                     	;# 
   299  1E0F                     	;# 
   300  1E10                     	;# 
   301  1E11                     	;# 
   302  1E12                     	;# 
   303  1E13                     	;# 
   304  1E14                     	;# 
   305  1E15                     	;# 
   306  1E16                     	;# 
   307  1E17                     	;# 
   308  1E18                     	;# 
   309  1E19                     	;# 
   310  1E1A                     	;# 
   311  1E1B                     	;# 
   312  1E1C                     	;# 
   313  1E1D                     	;# 
   314  1E1E                     	;# 
   315  1E1F                     	;# 
   316  1E20                     	;# 
   317  1E21                     	;# 
   318  1E22                     	;# 
   319  1E23                     	;# 
   320  1E24                     	;# 
   321  1E25                     	;# 
   322  1E26                     	;# 
   323  1E27                     	;# 
   324  1E28                     	;# 
   325  1E29                     	;# 
   326  1E2A                     	;# 
   327  1E2B                     	;# 
   328  1E2C                     	;# 
   329  1E2D                     	;# 
   330  1E2E                     	;# 
   331  1E2F                     	;# 
   332  1E30                     	;# 
   333  1E31                     	;# 
   334  1E32                     	;# 
   335  1E33                     	;# 
   336  1E34                     	;# 
   337  1E35                     	;# 
   338  1E36                     	;# 
   339  1E37                     	;# 
   340  1E8F                     	;# 
   341  1E90                     	;# 
   342  1E91                     	;# 
   343  1E92                     	;# 
   344  1E93                     	;# 
   345  1E9C                     	;# 
   346  1EA1                     	;# 
   347  1EA2                     	;# 
   348  1EB1                     	;# 
   349  1EBB                     	;# 
   350  1EBC                     	;# 
   351  1EBD                     	;# 
   352  1EBE                     	;# 
   353  1EC3                     	;# 
   354  1EC5                     	;# 
   355  1EC6                     	;# 
   356  1EC7                     	;# 
   357  1EC8                     	;# 
   358  1EC9                     	;# 
   359  1ECA                     	;# 
   360  1ECB                     	;# 
   361  1ECC                     	;# 
   362  1ECD                     	;# 
   363  1ECE                     	;# 
   364  1F10                     	;# 
   365  1F11                     	;# 
   366  1F12                     	;# 
   367  1F13                     	;# 
   368  1F14                     	;# 
   369  1F15                     	;# 
   370  1F16                     	;# 
   371  1F17                     	;# 
   372  1F18                     	;# 
   373  1F19                     	;# 
   374  1F1A                     	;# 
   375  1F1B                     	;# 
   376  1F1C                     	;# 
   377  1F1D                     	;# 
   378  1F1E                     	;# 
   379  1F1F                     	;# 
   380  1F20                     	;# 
   381  1F21                     	;# 
   382  1F22                     	;# 
   383  1F23                     	;# 
   384  1F24                     	;# 
   385  1F25                     	;# 
   386  1F26                     	;# 
   387  1F27                     	;# 
   388  1F28                     	;# 
   389  1F29                     	;# 
   390  1F2A                     	;# 
   391  1F2B                     	;# 
   392  1F2C                     	;# 
   393  1F2D                     	;# 
   394  1F2E                     	;# 
   395  1F2F                     	;# 
   396  1F30                     	;# 
   397  1F31                     	;# 
   398  1F32                     	;# 
   399  1F38                     	;# 
   400  1F39                     	;# 
   401  1F3A                     	;# 
   402  1F3B                     	;# 
   403  1F3C                     	;# 
   404  1F3D                     	;# 
   405  1F3E                     	;# 
   406  1F3F                     	;# 
   407  1F43                     	;# 
   408  1F44                     	;# 
   409  1F45                     	;# 
   410  1F46                     	;# 
   411  1F47                     	;# 
   412  1F48                     	;# 
   413  1F49                     	;# 
   414  1F4A                     	;# 
   415  1F4E                     	;# 
   416  1F4F                     	;# 
   417  1F50                     	;# 
   418  1F51                     	;# 
   419  1F52                     	;# 
   420  1F53                     	;# 
   421  1F54                     	;# 
   422  1F55                     	;# 
   423  1F59                     	;# 
   424  1F5A                     	;# 
   425  1F5B                     	;# 
   426  1F5C                     	;# 
   427  1F5D                     	;# 
   428  1F64                     	;# 
   429  1F65                     	;# 
   430  1F66                     	;# 
   431  1F67                     	;# 
   432  1F68                     	;# 
   433  1F69                     	;# 
   434  1F6A                     	;# 
   435  1F6B                     	;# 
   436  1FE4                     	;# 
   437  1FE5                     	;# 
   438  1FE6                     	;# 
   439  1FE7                     	;# 
   440  1FE8                     	;# 
   441  1FE8                     	;# 
   442  1FE9                     	;# 
   443  1FEA                     	;# 
   444  1FEB                     	;# 
   445  1FED                     	;# 
   446  1FEE                     	;# 
   447  1FEF                     	;# 
   448  0000                     	;# 
   449  0001                     	;# 
   450  0002                     	;# 
   451  0003                     	;# 
   452  0004                     	;# 
   453  0005                     	;# 
   454  0006                     	;# 
   455  0007                     	;# 
   456  0008                     	;# 
   457  0009                     	;# 
   458  000A                     	;# 
   459  000B                     	;# 
   460  000C                     	;# 
   461  000D                     	;# 
   462  000E                     	;# 
   463  000F                     	;# 
   464  0010                     	;# 
   465  0012                     	;# 
   466  0013                     	;# 
   467  0014                     	;# 
   468  0015                     	;# 
   469  0016                     	;# 
   470  0018                     	;# 
   471  0019                     	;# 
   472  001A                     	;# 
   473  001B                     	;# 
   474  001C                     	;# 
   475  009B                     	;# 
   476  009B                     	;# 
   477  009C                     	;# 
   478  009D                     	;# 
   479  009E                     	;# 
   480  009F                     	;# 
   481  0119                     	;# 
   482  0119                     	;# 
   483  0119                     	;# 
   484  011A                     	;# 
   485  011A                     	;# 
   486  011A                     	;# 
   487  011B                     	;# 
   488  011B                     	;# 
   489  011B                     	;# 
   490  011B                     	;# 
   491  011B                     	;# 
   492  011C                     	;# 
   493  011C                     	;# 
   494  011C                     	;# 
   495  011D                     	;# 
   496  011D                     	;# 
   497  011D                     	;# 
   498  011E                     	;# 
   499  011E                     	;# 
   500  011E                     	;# 
   501  011F                     	;# 
   502  011F                     	;# 
   503  011F                     	;# 
   504  011F                     	;# 
   505  011F                     	;# 
   506  018C                     	;# 
   507  018D                     	;# 
   508  018E                     	;# 
   509  018F                     	;# 
   510  0190                     	;# 
   511  0191                     	;# 
   512  0192                     	;# 
   513  0196                     	;# 
   514  0197                     	;# 
   515  0198                     	;# 
   516  0199                     	;# 
   517  019A                     	;# 
   518  019B                     	;# 
   519  019C                     	;# 
   520  020C                     	;# 
   521  020C                     	;# 
   522  020D                     	;# 
   523  020E                     	;# 
   524  020F                     	;# 
   525  020F                     	;# 
   526  0210                     	;# 
   527  0210                     	;# 
   528  0211                     	;# 
   529  0211                     	;# 
   530  028C                     	;# 
   531  028C                     	;# 
   532  028D                     	;# 
   533  028D                     	;# 
   534  028E                     	;# 
   535  028F                     	;# 
   536  0290                     	;# 
   537  0291                     	;# 
   538  030C                     	;# 
   539  030C                     	;# 
   540  030D                     	;# 
   541  030E                     	;# 
   542  030F                     	;# 
   543  0310                     	;# 
   544  0310                     	;# 
   545  0311                     	;# 
   546  0312                     	;# 
   547  0313                     	;# 
   548  0314                     	;# 
   549  0314                     	;# 
   550  0315                     	;# 
   551  0316                     	;# 
   552  0318                     	;# 
   553  0318                     	;# 
   554  0319                     	;# 
   555  031A                     	;# 
   556  031C                     	;# 
   557  031C                     	;# 
   558  031D                     	;# 
   559  031E                     	;# 
   560  038C                     	;# 
   561  038C                     	;# 
   562  038D                     	;# 
   563  038E                     	;# 
   564  058C                     	;# 
   565  058C                     	;# 
   566  058D                     	;# 
   567  058E                     	;# 
   568  058F                     	;# 
   569  058F                     	;# 
   570  0590                     	;# 
   571  0591                     	;# 
   572  0592                     	;# 
   573  0593                     	;# 
   574  059C                     	;# 
   575  059C                     	;# 
   576  059D                     	;# 
   577  059D                     	;# 
   578  059E                     	;# 
   579  059F                     	;# 
   580  060C                     	;# 
   581  060D                     	;# 
   582  060E                     	;# 
   583  060F                     	;# 
   584  0610                     	;# 
   585  0611                     	;# 
   586  0612                     	;# 
   587  0613                     	;# 
   588  0614                     	;# 
   589  070C                     	;# 
   590  070D                     	;# 
   591  070E                     	;# 
   592  070F                     	;# 
   593  0710                     	;# 
   594  0711                     	;# 
   595  0712                     	;# 
   596  0713                     	;# 
   597  0716                     	;# 
   598  0717                     	;# 
   599  0718                     	;# 
   600  0719                     	;# 
   601  071A                     	;# 
   602  071B                     	;# 
   603  071C                     	;# 
   604  071D                     	;# 
   605  0796                     	;# 
   606  0797                     	;# 
   607  0798                     	;# 
   608  0799                     	;# 
   609  079A                     	;# 
   610  079B                     	;# 
   611  080C                     	;# 
   612  080D                     	;# 
   613  080E                     	;# 
   614  080F                     	;# 
   615  0810                     	;# 
   616  0811                     	;# 
   617  0813                     	;# 
   618  0814                     	;# 
   619  081A                     	;# 
   620  081A                     	;# 
   621  081B                     	;# 
   622  081C                     	;# 
   623  081C                     	;# 
   624  081D                     	;# 
   625  081E                     	;# 
   626  081F                     	;# 
   627  088C                     	;# 
   628  088D                     	;# 
   629  088E                     	;# 
   630  088F                     	;# 
   631  0890                     	;# 
   632  0891                     	;# 
   633  0892                     	;# 
   634  0893                     	;# 
   635  0895                     	;# 
   636  0896                     	;# 
   637  090C                     	;# 
   638  090E                     	;# 
   639  090F                     	;# 
   640  091F                     	;# 
   641  098F                     	;# 
   642  098F                     	;# 
   643  0990                     	;# 
   644  0991                     	;# 
   645  0992                     	;# 
   646  0993                     	;# 
   647  0994                     	;# 
   648  0995                     	;# 
   649  0996                     	;# 
   650  0997                     	;# 
   651  0A19                     	;# 
   652  0A19                     	;# 
   653  0A1A                     	;# 
   654  0A1A                     	;# 
   655  0A1B                     	;# 
   656  0A1B                     	;# 
   657  0A1B                     	;# 
   658  0A1C                     	;# 
   659  0A1C                     	;# 
   660  0A1D                     	;# 
   661  0A1D                     	;# 
   662  0A1E                     	;# 
   663  0A1E                     	;# 
   664  0A1F                     	;# 
   665  0A1F                     	;# 
   666  0A1F                     	;# 
   667  1E0F                     	;# 
   668  1E10                     	;# 
   669  1E11                     	;# 
   670  1E12                     	;# 
   671  1E13                     	;# 
   672  1E14                     	;# 
   673  1E15                     	;# 
   674  1E16                     	;# 
   675  1E17                     	;# 
   676  1E18                     	;# 
   677  1E19                     	;# 
   678  1E1A                     	;# 
   679  1E1B                     	;# 
   680  1E1C                     	;# 
   681  1E1D                     	;# 
   682  1E1E                     	;# 
   683  1E1F                     	;# 
   684  1E20                     	;# 
   685  1E21                     	;# 
   686  1E22                     	;# 
   687  1E23                     	;# 
   688  1E24                     	;# 
   689  1E25                     	;# 
   690  1E26                     	;# 
   691  1E27                     	;# 
   692  1E28                     	;# 
   693  1E29                     	;# 
   694  1E2A                     	;# 
   695  1E2B                     	;# 
   696  1E2C                     	;# 
   697  1E2D                     	;# 
   698  1E2E                     	;# 
   699  1E2F                     	;# 
   700  1E30                     	;# 
   701  1E31                     	;# 
   702  1E32                     	;# 
   703  1E33                     	;# 
   704  1E34                     	;# 
   705  1E35                     	;# 
   706  1E36                     	;# 
   707  1E37                     	;# 
   708  1E8F                     	;# 
   709  1E90                     	;# 
   710  1E91                     	;# 
   711  1E92                     	;# 
   712  1E93                     	;# 
   713  1E9C                     	;# 
   714  1EA1                     	;# 
   715  1EA2                     	;# 
   716  1EB1                     	;# 
   717  1EBB                     	;# 
   718  1EBC                     	;# 
   719  1EBD                     	;# 
   720  1EBE                     	;# 
   721  1EC3                     	;# 
   722  1EC5                     	;# 
   723  1EC6                     	;# 
   724  1EC7                     	;# 
   725  1EC8                     	;# 
   726  1EC9                     	;# 
   727  1ECA                     	;# 
   728  1ECB                     	;# 
   729  1ECC                     	;# 
   730  1ECD                     	;# 
   731  1ECE                     	;# 
   732  1F10                     	;# 
   733  1F11                     	;# 
   734  1F12                     	;# 
   735  1F13                     	;# 
   736  1F14                     	;# 
   737  1F15                     	;# 
   738  1F16                     	;# 
   739  1F17                     	;# 
   740  1F18                     	;# 
   741  1F19                     	;# 
   742  1F1A                     	;# 
   743  1F1B                     	;# 
   744  1F1C                     	;# 
   745  1F1D                     	;# 
   746  1F1E                     	;# 
   747  1F1F                     	;# 
   748  1F20                     	;# 
   749  1F21                     	;# 
   750  1F22                     	;# 
   751  1F23                     	;# 
   752  1F24                     	;# 
   753  1F25                     	;# 
   754  1F26                     	;# 
   755  1F27                     	;# 
   756  1F28                     	;# 
   757  1F29                     	;# 
   758  1F2A                     	;# 
   759  1F2B                     	;# 
   760  1F2C                     	;# 
   761  1F2D                     	;# 
   762  1F2E                     	;# 
   763  1F2F                     	;# 
   764  1F30                     	;# 
   765  1F31                     	;# 
   766  1F32                     	;# 
   767  1F38                     	;# 
   768  1F39                     	;# 
   769  1F3A                     	;# 
   770  1F3B                     	;# 
   771  1F3C                     	;# 
   772  1F3D                     	;# 
   773  1F3E                     	;# 
   774  1F3F                     	;# 
   775  1F43                     	;# 
   776  1F44                     	;# 
   777  1F45                     	;# 
   778  1F46                     	;# 
   779  1F47                     	;# 
   780  1F48                     	;# 
   781  1F49                     	;# 
   782  1F4A                     	;# 
   783  1F4E                     	;# 
   784  1F4F                     	;# 
   785  1F50                     	;# 
   786  1F51                     	;# 
   787  1F52                     	;# 
   788  1F53                     	;# 
   789  1F54                     	;# 
   790  1F55                     	;# 
   791  1F59                     	;# 
   792  1F5A                     	;# 
   793  1F5B                     	;# 
   794  1F5C                     	;# 
   795  1F5D                     	;# 
   796  1F64                     	;# 
   797  1F65                     	;# 
   798  1F66                     	;# 
   799  1F67                     	;# 
   800  1F68                     	;# 
   801  1F69                     	;# 
   802  1F6A                     	;# 
   803  1F6B                     	;# 
   804  1FE4                     	;# 
   805  1FE5                     	;# 
   806  1FE6                     	;# 
   807  1FE7                     	;# 
   808  1FE8                     	;# 
   809  1FE8                     	;# 
   810  1FE9                     	;# 
   811  1FEA                     	;# 
   812  1FEB                     	;# 
   813  1FED                     	;# 
   814  1FEE                     	;# 
   815  1FEF                     	;# 
   816  0000                     	;# 
   817  0001                     	;# 
   818  0002                     	;# 
   819  0003                     	;# 
   820  0004                     	;# 
   821  0005                     	;# 
   822  0006                     	;# 
   823  0007                     	;# 
   824  0008                     	;# 
   825  0009                     	;# 
   826  000A                     	;# 
   827  000B                     	;# 
   828  000C                     	;# 
   829  000D                     	;# 
   830  000E                     	;# 
   831  000F                     	;# 
   832  0010                     	;# 
   833  0012                     	;# 
   834  0013                     	;# 
   835  0014                     	;# 
   836  0015                     	;# 
   837  0016                     	;# 
   838  0018                     	;# 
   839  0019                     	;# 
   840  001A                     	;# 
   841  001B                     	;# 
   842  001C                     	;# 
   843  009B                     	;# 
   844  009B                     	;# 
   845  009C                     	;# 
   846  009D                     	;# 
   847  009E                     	;# 
   848  009F                     	;# 
   849  0119                     	;# 
   850  0119                     	;# 
   851  0119                     	;# 
   852  011A                     	;# 
   853  011A                     	;# 
   854  011A                     	;# 
   855  011B                     	;# 
   856  011B                     	;# 
   857  011B                     	;# 
   858  011B                     	;# 
   859  011B                     	;# 
   860  011C                     	;# 
   861  011C                     	;# 
   862  011C                     	;# 
   863  011D                     	;# 
   864  011D                     	;# 
   865  011D                     	;# 
   866  011E                     	;# 
   867  011E                     	;# 
   868  011E                     	;# 
   869  011F                     	;# 
   870  011F                     	;# 
   871  011F                     	;# 
   872  011F                     	;# 
   873  011F                     	;# 
   874  018C                     	;# 
   875  018D                     	;# 
   876  018E                     	;# 
   877  018F                     	;# 
   878  0190                     	;# 
   879  0191                     	;# 
   880  0192                     	;# 
   881  0196                     	;# 
   882  0197                     	;# 
   883  0198                     	;# 
   884  0199                     	;# 
   885  019A                     	;# 
   886  019B                     	;# 
   887  019C                     	;# 
   888  020C                     	;# 
   889  020C                     	;# 
   890  020D                     	;# 
   891  020E                     	;# 
   892  020F                     	;# 
   893  020F                     	;# 
   894  0210                     	;# 
   895  0210                     	;# 
   896  0211                     	;# 
   897  0211                     	;# 
   898  028C                     	;# 
   899  028C                     	;# 
   900  028D                     	;# 
   901  028D                     	;# 
   902  028E                     	;# 
   903  028F                     	;# 
   904  0290                     	;# 
   905  0291                     	;# 
   906  030C                     	;# 
   907  030C                     	;# 
   908  030D                     	;# 
   909  030E                     	;# 
   910  030F                     	;# 
   911  0310                     	;# 
   912  0310                     	;# 
   913  0311                     	;# 
   914  0312                     	;# 
   915  0313                     	;# 
   916  0314                     	;# 
   917  0314                     	;# 
   918  0315                     	;# 
   919  0316                     	;# 
   920  0318                     	;# 
   921  0318                     	;# 
   922  0319                     	;# 
   923  031A                     	;# 
   924  031C                     	;# 
   925  031C                     	;# 
   926  031D                     	;# 
   927  031E                     	;# 
   928  038C                     	;# 
   929  038C                     	;# 
   930  038D                     	;# 
   931  038E                     	;# 
   932  058C                     	;# 
   933  058C                     	;# 
   934  058D                     	;# 
   935  058E                     	;# 
   936  058F                     	;# 
   937  058F                     	;# 
   938  0590                     	;# 
   939  0591                     	;# 
   940  0592                     	;# 
   941  0593                     	;# 
   942  059C                     	;# 
   943  059C                     	;# 
   944  059D                     	;# 
   945  059D                     	;# 
   946  059E                     	;# 
   947  059F                     	;# 
   948  060C                     	;# 
   949  060D                     	;# 
   950  060E                     	;# 
   951  060F                     	;# 
   952  0610                     	;# 
   953  0611                     	;# 
   954  0612                     	;# 
   955  0613                     	;# 
   956  0614                     	;# 
   957  070C                     	;# 
   958  070D                     	;# 
   959  070E                     	;# 
   960  070F                     	;# 
   961  0710                     	;# 
   962  0711                     	;# 
   963  0712                     	;# 
   964  0713                     	;# 
   965  0716                     	;# 
   966  0717                     	;# 
   967  0718                     	;# 
   968  0719                     	;# 
   969  071A                     	;# 
   970  071B                     	;# 
   971  071C                     	;# 
   972  071D                     	;# 
   973  0796                     	;# 
   974  0797                     	;# 
   975  0798                     	;# 
   976  0799                     	;# 
   977  079A                     	;# 
   978  079B                     	;# 
   979  080C                     	;# 
   980  080D                     	;# 
   981  080E                     	;# 
   982  080F                     	;# 
   983  0810                     	;# 
   984  0811                     	;# 
   985  0813                     	;# 
   986  0814                     	;# 
   987  081A                     	;# 
   988  081A                     	;# 
   989  081B                     	;# 
   990  081C                     	;# 
   991  081C                     	;# 
   992  081D                     	;# 
   993  081E                     	;# 
   994  081F                     	;# 
   995  088C                     	;# 
   996  088D                     	;# 
   997  088E                     	;# 
   998  088F                     	;# 
   999  0890                     	;# 
  1000  0891                     	;# 
  1001  0892                     	;# 
  1002  0893                     	;# 
  1003  0895                     	;# 
  1004  0896                     	;# 
  1005  090C                     	;# 
  1006  090E                     	;# 
  1007  090F                     	;# 
  1008  091F                     	;# 
  1009  098F                     	;# 
  1010  098F                     	;# 
  1011  0990                     	;# 
  1012  0991                     	;# 
  1013  0992                     	;# 
  1014  0993                     	;# 
  1015  0994                     	;# 
  1016  0995                     	;# 
  1017  0996                     	;# 
  1018  0997                     	;# 
  1019  0A19                     	;# 
  1020  0A19                     	;# 
  1021  0A1A                     	;# 
  1022  0A1A                     	;# 
  1023  0A1B                     	;# 
  1024  0A1B                     	;# 
  1025  0A1B                     	;# 
  1026  0A1C                     	;# 
  1027  0A1C                     	;# 
  1028  0A1D                     	;# 
  1029  0A1D                     	;# 
  1030  0A1E                     	;# 
  1031  0A1E                     	;# 
  1032  0A1F                     	;# 
  1033  0A1F                     	;# 
  1034  0A1F                     	;# 
  1035  1E0F                     	;# 
  1036  1E10                     	;# 
  1037  1E11                     	;# 
  1038  1E12                     	;# 
  1039  1E13                     	;# 
  1040  1E14                     	;# 
  1041  1E15                     	;# 
  1042  1E16                     	;# 
  1043  1E17                     	;# 
  1044  1E18                     	;# 
  1045  1E19                     	;# 
  1046  1E1A                     	;# 
  1047  1E1B                     	;# 
  1048  1E1C                     	;# 
  1049  1E1D                     	;# 
  1050  1E1E                     	;# 
  1051  1E1F                     	;# 
  1052  1E20                     	;# 
  1053  1E21                     	;# 
  1054  1E22                     	;# 
  1055  1E23                     	;# 
  1056  1E24                     	;# 
  1057  1E25                     	;# 
  1058  1E26                     	;# 
  1059  1E27                     	;# 
  1060  1E28                     	;# 
  1061  1E29                     	;# 
  1062  1E2A                     	;# 
  1063  1E2B                     	;# 
  1064  1E2C                     	;# 
  1065  1E2D                     	;# 
  1066  1E2E                     	;# 
  1067  1E2F                     	;# 
  1068  1E30                     	;# 
  1069  1E31                     	;# 
  1070  1E32                     	;# 
  1071  1E33                     	;# 
  1072  1E34                     	;# 
  1073  1E35                     	;# 
  1074  1E36                     	;# 
  1075  1E37                     	;# 
  1076  1E8F                     	;# 
  1077  1E90                     	;# 
  1078  1E91                     	;# 
  1079  1E92                     	;# 
  1080  1E93                     	;# 
  1081  1E9C                     	;# 
  1082  1EA1                     	;# 
  1083  1EA2                     	;# 
  1084  1EB1                     	;# 
  1085  1EBB                     	;# 
  1086  1EBC                     	;# 
  1087  1EBD                     	;# 
  1088  1EBE                     	;# 
  1089  1EC3                     	;# 
  1090  1EC5                     	;# 
  1091  1EC6                     	;# 
  1092  1EC7                     	;# 
  1093  1EC8                     	;# 
  1094  1EC9                     	;# 
  1095  1ECA                     	;# 
  1096  1ECB                     	;# 
  1097  1ECC                     	;# 
  1098  1ECD                     	;# 
  1099  1ECE                     	;# 
  1100  1F10                     	;# 
  1101  1F11                     	;# 
  1102  1F12                     	;# 
  1103  1F13                     	;# 
  1104  1F14                     	;# 
  1105  1F15                     	;# 
  1106  1F16                     	;# 
  1107  1F17                     	;# 
  1108  1F18                     	;# 
  1109  1F19                     	;# 
  1110  1F1A                     	;# 
  1111  1F1B                     	;# 
  1112  1F1C                     	;# 
  1113  1F1D                     	;# 
  1114  1F1E                     	;# 
  1115  1F1F                     	;# 
  1116  1F20                     	;# 
  1117  1F21                     	;# 
  1118  1F22                     	;# 
  1119  1F23                     	;# 
  1120  1F24                     	;# 
  1121  1F25                     	;# 
  1122  1F26                     	;# 
  1123  1F27                     	;# 
  1124  1F28                     	;# 
  1125  1F29                     	;# 
  1126  1F2A                     	;# 
  1127  1F2B                     	;# 
  1128  1F2C                     	;# 
  1129  1F2D                     	;# 
  1130  1F2E                     	;# 
  1131  1F2F                     	;# 
  1132  1F30                     	;# 
  1133  1F31                     	;# 
  1134  1F32                     	;# 
  1135  1F38                     	;# 
  1136  1F39                     	;# 
  1137  1F3A                     	;# 
  1138  1F3B                     	;# 
  1139  1F3C                     	;# 
  1140  1F3D                     	;# 
  1141  1F3E                     	;# 
  1142  1F3F                     	;# 
  1143  1F43                     	;# 
  1144  1F44                     	;# 
  1145  1F45                     	;# 
  1146  1F46                     	;# 
  1147  1F47                     	;# 
  1148  1F48                     	;# 
  1149  1F49                     	;# 
  1150  1F4A                     	;# 
  1151  1F4E                     	;# 
  1152  1F4F                     	;# 
  1153  1F50                     	;# 
  1154  1F51                     	;# 
  1155  1F52                     	;# 
  1156  1F53                     	;# 
  1157  1F54                     	;# 
  1158  1F55                     	;# 
  1159  1F59                     	;# 
  1160  1F5A                     	;# 
  1161  1F5B                     	;# 
  1162  1F5C                     	;# 
  1163  1F5D                     	;# 
  1164  1F64                     	;# 
  1165  1F65                     	;# 
  1166  1F66                     	;# 
  1167  1F67                     	;# 
  1168  1F68                     	;# 
  1169  1F69                     	;# 
  1170  1F6A                     	;# 
  1171  1F6B                     	;# 
  1172  1FE4                     	;# 
  1173  1FE5                     	;# 
  1174  1FE6                     	;# 
  1175  1FE7                     	;# 
  1176  1FE8                     	;# 
  1177  1FE8                     	;# 
  1178  1FE9                     	;# 
  1179  1FEA                     	;# 
  1180  1FEB                     	;# 
  1181  1FED                     	;# 
  1182  1FEE                     	;# 
  1183  1FEF                     	;# 
  1184  0000                     	;# 
  1185  0001                     	;# 
  1186  0002                     	;# 
  1187  0003                     	;# 
  1188  0004                     	;# 
  1189  0005                     	;# 
  1190  0006                     	;# 
  1191  0007                     	;# 
  1192  0008                     	;# 
  1193  0009                     	;# 
  1194  000A                     	;# 
  1195  000B                     	;# 
  1196  000C                     	;# 
  1197  000D                     	;# 
  1198  000E                     	;# 
  1199  000F                     	;# 
  1200  0010                     	;# 
  1201  0012                     	;# 
  1202  0013                     	;# 
  1203  0014                     	;# 
  1204  0015                     	;# 
  1205  0016                     	;# 
  1206  0018                     	;# 
  1207  0019                     	;# 
  1208  001A                     	;# 
  1209  001B                     	;# 
  1210  001C                     	;# 
  1211  009B                     	;# 
  1212  009B                     	;# 
  1213  009C                     	;# 
  1214  009D                     	;# 
  1215  009E                     	;# 
  1216  009F                     	;# 
  1217  0119                     	;# 
  1218  0119                     	;# 
  1219  0119                     	;# 
  1220  011A                     	;# 
  1221  011A                     	;# 
  1222  011A                     	;# 
  1223  011B                     	;# 
  1224  011B                     	;# 
  1225  011B                     	;# 
  1226  011B                     	;# 
  1227  011B                     	;# 
  1228  011C                     	;# 
  1229  011C                     	;# 
  1230  011C                     	;# 
  1231  011D                     	;# 
  1232  011D                     	;# 
  1233  011D                     	;# 
  1234  011E                     	;# 
  1235  011E                     	;# 
  1236  011E                     	;# 
  1237  011F                     	;# 
  1238  011F                     	;# 
  1239  011F                     	;# 
  1240  011F                     	;# 
  1241  011F                     	;# 
  1242  018C                     	;# 
  1243  018D                     	;# 
  1244  018E                     	;# 
  1245  018F                     	;# 
  1246  0190                     	;# 
  1247  0191                     	;# 
  1248  0192                     	;# 
  1249  0196                     	;# 
  1250  0197                     	;# 
  1251  0198                     	;# 
  1252  0199                     	;# 
  1253  019A                     	;# 
  1254  019B                     	;# 
  1255  019C                     	;# 
  1256  020C                     	;# 
  1257  020C                     	;# 
  1258  020D                     	;# 
  1259  020E                     	;# 
  1260  020F                     	;# 
  1261  020F                     	;# 
  1262  0210                     	;# 
  1263  0210                     	;# 
  1264  0211                     	;# 
  1265  0211                     	;# 
  1266  028C                     	;# 
  1267  028C                     	;# 
  1268  028D                     	;# 
  1269  028D                     	;# 
  1270  028E                     	;# 
  1271  028F                     	;# 
  1272  0290                     	;# 
  1273  0291                     	;# 
  1274  030C                     	;# 
  1275  030C                     	;# 
  1276  030D                     	;# 
  1277  030E                     	;# 
  1278  030F                     	;# 
  1279  0310                     	;# 
  1280  0310                     	;# 
  1281  0311                     	;# 
  1282  0312                     	;# 
  1283  0313                     	;# 
  1284  0314                     	;# 
  1285  0314                     	;# 
  1286  0315                     	;# 
  1287  0316                     	;# 
  1288  0318                     	;# 
  1289  0318                     	;# 
  1290  0319                     	;# 
  1291  031A                     	;# 
  1292  031C                     	;# 
  1293  031C                     	;# 
  1294  031D                     	;# 
  1295  031E                     	;# 
  1296  038C                     	;# 
  1297  038C                     	;# 
  1298  038D                     	;# 
  1299  038E                     	;# 
  1300  058C                     	;# 
  1301  058C                     	;# 
  1302  058D                     	;# 
  1303  058E                     	;# 
  1304  058F                     	;# 
  1305  058F                     	;# 
  1306  0590                     	;# 
  1307  0591                     	;# 
  1308  0592                     	;# 
  1309  0593                     	;# 
  1310  059C                     	;# 
  1311  059C                     	;# 
  1312  059D                     	;# 
  1313  059D                     	;# 
  1314  059E                     	;# 
  1315  059F                     	;# 
  1316  060C                     	;# 
  1317  060D                     	;# 
  1318  060E                     	;# 
  1319  060F                     	;# 
  1320  0610                     	;# 
  1321  0611                     	;# 
  1322  0612                     	;# 
  1323  0613                     	;# 
  1324  0614                     	;# 
  1325  070C                     	;# 
  1326  070D                     	;# 
  1327  070E                     	;# 
  1328  070F                     	;# 
  1329  0710                     	;# 
  1330  0711                     	;# 
  1331  0712                     	;# 
  1332  0713                     	;# 
  1333  0716                     	;# 
  1334  0717                     	;# 
  1335  0718                     	;# 
  1336  0719                     	;# 
  1337  071A                     	;# 
  1338  071B                     	;# 
  1339  071C                     	;# 
  1340  071D                     	;# 
  1341  0796                     	;# 
  1342  0797                     	;# 
  1343  0798                     	;# 
  1344  0799                     	;# 
  1345  079A                     	;# 
  1346  079B                     	;# 
  1347  080C                     	;# 
  1348  080D                     	;# 
  1349  080E                     	;# 
  1350  080F                     	;# 
  1351  0810                     	;# 
  1352  0811                     	;# 
  1353  0813                     	;# 
  1354  0814                     	;# 
  1355  081A                     	;# 
  1356  081A                     	;# 
  1357  081B                     	;# 
  1358  081C                     	;# 
  1359  081C                     	;# 
  1360  081D                     	;# 
  1361  081E                     	;# 
  1362  081F                     	;# 
  1363  088C                     	;# 
  1364  088D                     	;# 
  1365  088E                     	;# 
  1366  088F                     	;# 
  1367  0890                     	;# 
  1368  0891                     	;# 
  1369  0892                     	;# 
  1370  0893                     	;# 
  1371  0895                     	;# 
  1372  0896                     	;# 
  1373  090C                     	;# 
  1374  090E                     	;# 
  1375  090F                     	;# 
  1376  091F                     	;# 
  1377  098F                     	;# 
  1378  098F                     	;# 
  1379  0990                     	;# 
  1380  0991                     	;# 
  1381  0992                     	;# 
  1382  0993                     	;# 
  1383  0994                     	;# 
  1384  0995                     	;# 
  1385  0996                     	;# 
  1386  0997                     	;# 
  1387  0A19                     	;# 
  1388  0A19                     	;# 
  1389  0A1A                     	;# 
  1390  0A1A                     	;# 
  1391  0A1B                     	;# 
  1392  0A1B                     	;# 
  1393  0A1B                     	;# 
  1394  0A1C                     	;# 
  1395  0A1C                     	;# 
  1396  0A1D                     	;# 
  1397  0A1D                     	;# 
  1398  0A1E                     	;# 
  1399  0A1E                     	;# 
  1400  0A1F                     	;# 
  1401  0A1F                     	;# 
  1402  0A1F                     	;# 
  1403  1E0F                     	;# 
  1404  1E10                     	;# 
  1405  1E11                     	;# 
  1406  1E12                     	;# 
  1407  1E13                     	;# 
  1408  1E14                     	;# 
  1409  1E15                     	;# 
  1410  1E16                     	;# 
  1411  1E17                     	;# 
  1412  1E18                     	;# 
  1413  1E19                     	;# 
  1414  1E1A                     	;# 
  1415  1E1B                     	;# 
  1416  1E1C                     	;# 
  1417  1E1D                     	;# 
  1418  1E1E                     	;# 
  1419  1E1F                     	;# 
  1420  1E20                     	;# 
  1421  1E21                     	;# 
  1422  1E22                     	;# 
  1423  1E23                     	;# 
  1424  1E24                     	;# 
  1425  1E25                     	;# 
  1426  1E26                     	;# 
  1427  1E27                     	;# 
  1428  1E28                     	;# 
  1429  1E29                     	;# 
  1430  1E2A                     	;# 
  1431  1E2B                     	;# 
  1432  1E2C                     	;# 
  1433  1E2D                     	;# 
  1434  1E2E                     	;# 
  1435  1E2F                     	;# 
  1436  1E30                     	;# 
  1437  1E31                     	;# 
  1438  1E32                     	;# 
  1439  1E33                     	;# 
  1440  1E34                     	;# 
  1441  1E35                     	;# 
  1442  1E36                     	;# 
  1443  1E37                     	;# 
  1444  1E8F                     	;# 
  1445  1E90                     	;# 
  1446  1E91                     	;# 
  1447  1E92                     	;# 
  1448  1E93                     	;# 
  1449  1E9C                     	;# 
  1450  1EA1                     	;# 
  1451  1EA2                     	;# 
  1452  1EB1                     	;# 
  1453  1EBB                     	;# 
  1454  1EBC                     	;# 
  1455  1EBD                     	;# 
  1456  1EBE                     	;# 
  1457  1EC3                     	;# 
  1458  1EC5                     	;# 
  1459  1EC6                     	;# 
  1460  1EC7                     	;# 
  1461  1EC8                     	;# 
  1462  1EC9                     	;# 
  1463  1ECA                     	;# 
  1464  1ECB                     	;# 
  1465  1ECC                     	;# 
  1466  1ECD                     	;# 
  1467  1ECE                     	;# 
  1468  1F10                     	;# 
  1469  1F11                     	;# 
  1470  1F12                     	;# 
  1471  1F13                     	;# 
  1472  1F14                     	;# 
  1473  1F15                     	;# 
  1474  1F16                     	;# 
  1475  1F17                     	;# 
  1476  1F18                     	;# 
  1477  1F19                     	;# 
  1478  1F1A                     	;# 
  1479  1F1B                     	;# 
  1480  1F1C                     	;# 
  1481  1F1D                     	;# 
  1482  1F1E                     	;# 
  1483  1F1F                     	;# 
  1484  1F20                     	;# 
  1485  1F21                     	;# 
  1486  1F22                     	;# 
  1487  1F23                     	;# 
  1488  1F24                     	;# 
  1489  1F25                     	;# 
  1490  1F26                     	;# 
  1491  1F27                     	;# 
  1492  1F28                     	;# 
  1493  1F29                     	;# 
  1494  1F2A                     	;# 
  1495  1F2B                     	;# 
  1496  1F2C                     	;# 
  1497  1F2D                     	;# 
  1498  1F2E                     	;# 
  1499  1F2F                     	;# 
  1500  1F30                     	;# 
  1501  1F31                     	;# 
  1502  1F32                     	;# 
  1503  1F38                     	;# 
  1504  1F39                     	;# 
  1505  1F3A                     	;# 
  1506  1F3B                     	;# 
  1507  1F3C                     	;# 
  1508  1F3D                     	;# 
  1509  1F3E                     	;# 
  1510  1F3F                     	;# 
  1511  1F43                     	;# 
  1512  1F44                     	;# 
  1513  1F45                     	;# 
  1514  1F46                     	;# 
  1515  1F47                     	;# 
  1516  1F48                     	;# 
  1517  1F49                     	;# 
  1518  1F4A                     	;# 
  1519  1F4E                     	;# 
  1520  1F4F                     	;# 
  1521  1F50                     	;# 
  1522  1F51                     	;# 
  1523  1F52                     	;# 
  1524  1F53                     	;# 
  1525  1F54                     	;# 
  1526  1F55                     	;# 
  1527  1F59                     	;# 
  1528  1F5A                     	;# 
  1529  1F5B                     	;# 
  1530  1F5C                     	;# 
  1531  1F5D                     	;# 
  1532  1F64                     	;# 
  1533  1F65                     	;# 
  1534  1F66                     	;# 
  1535  1F67                     	;# 
  1536  1F68                     	;# 
  1537  1F69                     	;# 
  1538  1F6A                     	;# 
  1539  1F6B                     	;# 
  1540  1FE4                     	;# 
  1541  1FE5                     	;# 
  1542  1FE6                     	;# 
  1543  1FE7                     	;# 
  1544  1FE8                     	;# 
  1545  1FE8                     	;# 
  1546  1FE9                     	;# 
  1547  1FEA                     	;# 
  1548  1FEB                     	;# 
  1549  1FED                     	;# 
  1550  1FEE                     	;# 
  1551  1FEF                     	;# 
  1552  0000                     	;# 
  1553  0001                     	;# 
  1554  0002                     	;# 
  1555  0003                     	;# 
  1556  0004                     	;# 
  1557  0005                     	;# 
  1558  0006                     	;# 
  1559  0007                     	;# 
  1560  0008                     	;# 
  1561  0009                     	;# 
  1562  000A                     	;# 
  1563  000B                     	;# 
  1564  000C                     	;# 
  1565  000D                     	;# 
  1566  000E                     	;# 
  1567  000F                     	;# 
  1568  0010                     	;# 
  1569  0012                     	;# 
  1570  0013                     	;# 
  1571  0014                     	;# 
  1572  0015                     	;# 
  1573  0016                     	;# 
  1574  0018                     	;# 
  1575  0019                     	;# 
  1576  001A                     	;# 
  1577  001B                     	;# 
  1578  001C                     	;# 
  1579  009B                     	;# 
  1580  009B                     	;# 
  1581  009C                     	;# 
  1582  009D                     	;# 
  1583  009E                     	;# 
  1584  009F                     	;# 
  1585  0119                     	;# 
  1586  0119                     	;# 
  1587  0119                     	;# 
  1588  011A                     	;# 
  1589  011A                     	;# 
  1590  011A                     	;# 
  1591  011B                     	;# 
  1592  011B                     	;# 
  1593  011B                     	;# 
  1594  011B                     	;# 
  1595  011B                     	;# 
  1596  011C                     	;# 
  1597  011C                     	;# 
  1598  011C                     	;# 
  1599  011D                     	;# 
  1600  011D                     	;# 
  1601  011D                     	;# 
  1602  011E                     	;# 
  1603  011E                     	;# 
  1604  011E                     	;# 
  1605  011F                     	;# 
  1606  011F                     	;# 
  1607  011F                     	;# 
  1608  011F                     	;# 
  1609  011F                     	;# 
  1610  018C                     	;# 
  1611  018D                     	;# 
  1612  018E                     	;# 
  1613  018F                     	;# 
  1614  0190                     	;# 
  1615  0191                     	;# 
  1616  0192                     	;# 
  1617  0196                     	;# 
  1618  0197                     	;# 
  1619  0198                     	;# 
  1620  0199                     	;# 
  1621  019A                     	;# 
  1622  019B                     	;# 
  1623  019C                     	;# 
  1624  020C                     	;# 
  1625  020C                     	;# 
  1626  020D                     	;# 
  1627  020E                     	;# 
  1628  020F                     	;# 
  1629  020F                     	;# 
  1630  0210                     	;# 
  1631  0210                     	;# 
  1632  0211                     	;# 
  1633  0211                     	;# 
  1634  028C                     	;# 
  1635  028C                     	;# 
  1636  028D                     	;# 
  1637  028D                     	;# 
  1638  028E                     	;# 
  1639  028F                     	;# 
  1640  0290                     	;# 
  1641  0291                     	;# 
  1642  030C                     	;# 
  1643  030C                     	;# 
  1644  030D                     	;# 
  1645  030E                     	;# 
  1646  030F                     	;# 
  1647  0310                     	;# 
  1648  0310                     	;# 
  1649  0311                     	;# 
  1650  0312                     	;# 
  1651  0313                     	;# 
  1652  0314                     	;# 
  1653  0314                     	;# 
  1654  0315                     	;# 
  1655  0316                     	;# 
  1656  0318                     	;# 
  1657  0318                     	;# 
  1658  0319                     	;# 
  1659  031A                     	;# 
  1660  031C                     	;# 
  1661  031C                     	;# 
  1662  031D                     	;# 
  1663  031E                     	;# 
  1664  038C                     	;# 
  1665  038C                     	;# 
  1666  038D                     	;# 
  1667  038E                     	;# 
  1668  058C                     	;# 
  1669  058C                     	;# 
  1670  058D                     	;# 
  1671  058E                     	;# 
  1672  058F                     	;# 
  1673  058F                     	;# 
  1674  0590                     	;# 
  1675  0591                     	;# 
  1676  0592                     	;# 
  1677  0593                     	;# 
  1678  059C                     	;# 
  1679  059C                     	;# 
  1680  059D                     	;# 
  1681  059D                     	;# 
  1682  059E                     	;# 
  1683  059F                     	;# 
  1684  060C                     	;# 
  1685  060D                     	;# 
  1686  060E                     	;# 
  1687  060F                     	;# 
  1688  0610                     	;# 
  1689  0611                     	;# 
  1690  0612                     	;# 
  1691  0613                     	;# 
  1692  0614                     	;# 
  1693  070C                     	;# 
  1694  070D                     	;# 
  1695  070E                     	;# 
  1696  070F                     	;# 
  1697  0710                     	;# 
  1698  0711                     	;# 
  1699  0712                     	;# 
  1700  0713                     	;# 
  1701  0716                     	;# 
  1702  0717                     	;# 
  1703  0718                     	;# 
  1704  0719                     	;# 
  1705  071A                     	;# 
  1706  071B                     	;# 
  1707  071C                     	;# 
  1708  071D                     	;# 
  1709  0796                     	;# 
  1710  0797                     	;# 
  1711  0798                     	;# 
  1712  0799                     	;# 
  1713  079A                     	;# 
  1714  079B                     	;# 
  1715  080C                     	;# 
  1716  080D                     	;# 
  1717  080E                     	;# 
  1718  080F                     	;# 
  1719  0810                     	;# 
  1720  0811                     	;# 
  1721  0813                     	;# 
  1722  0814                     	;# 
  1723  081A                     	;# 
  1724  081A                     	;# 
  1725  081B                     	;# 
  1726  081C                     	;# 
  1727  081C                     	;# 
  1728  081D                     	;# 
  1729  081E                     	;# 
  1730  081F                     	;# 
  1731  088C                     	;# 
  1732  088D                     	;# 
  1733  088E                     	;# 
  1734  088F                     	;# 
  1735  0890                     	;# 
  1736  0891                     	;# 
  1737  0892                     	;# 
  1738  0893                     	;# 
  1739  0895                     	;# 
  1740  0896                     	;# 
  1741  090C                     	;# 
  1742  090E                     	;# 
  1743  090F                     	;# 
  1744  091F                     	;# 
  1745  098F                     	;# 
  1746  098F                     	;# 
  1747  0990                     	;# 
  1748  0991                     	;# 
  1749  0992                     	;# 
  1750  0993                     	;# 
  1751  0994                     	;# 
  1752  0995                     	;# 
  1753  0996                     	;# 
  1754  0997                     	;# 
  1755  0A19                     	;# 
  1756  0A19                     	;# 
  1757  0A1A                     	;# 
  1758  0A1A                     	;# 
  1759  0A1B                     	;# 
  1760  0A1B                     	;# 
  1761  0A1B                     	;# 
  1762  0A1C                     	;# 
  1763  0A1C                     	;# 
  1764  0A1D                     	;# 
  1765  0A1D                     	;# 
  1766  0A1E                     	;# 
  1767  0A1E                     	;# 
  1768  0A1F                     	;# 
  1769  0A1F                     	;# 
  1770  0A1F                     	;# 
  1771  1E0F                     	;# 
  1772  1E10                     	;# 
  1773  1E11                     	;# 
  1774  1E12                     	;# 
  1775  1E13                     	;# 
  1776  1E14                     	;# 
  1777  1E15                     	;# 
  1778  1E16                     	;# 
  1779  1E17                     	;# 
  1780  1E18                     	;# 
  1781  1E19                     	;# 
  1782  1E1A                     	;# 
  1783  1E1B                     	;# 
  1784  1E1C                     	;# 
  1785  1E1D                     	;# 
  1786  1E1E                     	;# 
  1787  1E1F                     	;# 
  1788  1E20                     	;# 
  1789  1E21                     	;# 
  1790  1E22                     	;# 
  1791  1E23                     	;# 
  1792  1E24                     	;# 
  1793  1E25                     	;# 
  1794  1E26                     	;# 
  1795  1E27                     	;# 
  1796  1E28                     	;# 
  1797  1E29                     	;# 
  1798  1E2A                     	;# 
  1799  1E2B                     	;# 
  1800  1E2C                     	;# 
  1801  1E2D                     	;# 
  1802  1E2E                     	;# 
  1803  1E2F                     	;# 
  1804  1E30                     	;# 
  1805  1E31                     	;# 
  1806  1E32                     	;# 
  1807  1E33                     	;# 
  1808  1E34                     	;# 
  1809  1E35                     	;# 
  1810  1E36                     	;# 
  1811  1E37                     	;# 
  1812  1E8F                     	;# 
  1813  1E90                     	;# 
  1814  1E91                     	;# 
  1815  1E92                     	;# 
  1816  1E93                     	;# 
  1817  1E9C                     	;# 
  1818  1EA1                     	;# 
  1819  1EA2                     	;# 
  1820  1EB1                     	;# 
  1821  1EBB                     	;# 
  1822  1EBC                     	;# 
  1823  1EBD                     	;# 
  1824  1EBE                     	;# 
  1825  1EC3                     	;# 
  1826  1EC5                     	;# 
  1827  1EC6                     	;# 
  1828  1EC7                     	;# 
  1829  1EC8                     	;# 
  1830  1EC9                     	;# 
  1831  1ECA                     	;# 
  1832  1ECB                     	;# 
  1833  1ECC                     	;# 
  1834  1ECD                     	;# 
  1835  1ECE                     	;# 
  1836  1F10                     	;# 
  1837  1F11                     	;# 
  1838  1F12                     	;# 
  1839  1F13                     	;# 
  1840  1F14                     	;# 
  1841  1F15                     	;# 
  1842  1F16                     	;# 
  1843  1F17                     	;# 
  1844  1F18                     	;# 
  1845  1F19                     	;# 
  1846  1F1A                     	;# 
  1847  1F1B                     	;# 
  1848  1F1C                     	;# 
  1849  1F1D                     	;# 
  1850  1F1E                     	;# 
  1851  1F1F                     	;# 
  1852  1F20                     	;# 
  1853  1F21                     	;# 
  1854  1F22                     	;# 
  1855  1F23                     	;# 
  1856  1F24                     	;# 
  1857  1F25                     	;# 
  1858  1F26                     	;# 
  1859  1F27                     	;# 
  1860  1F28                     	;# 
  1861  1F29                     	;# 
  1862  1F2A                     	;# 
  1863  1F2B                     	;# 
  1864  1F2C                     	;# 
  1865  1F2D                     	;# 
  1866  1F2E                     	;# 
  1867  1F2F                     	;# 
  1868  1F30                     	;# 
  1869  1F31                     	;# 
  1870  1F32                     	;# 
  1871  1F38                     	;# 
  1872  1F39                     	;# 
  1873  1F3A                     	;# 
  1874  1F3B                     	;# 
  1875  1F3C                     	;# 
  1876  1F3D                     	;# 
  1877  1F3E                     	;# 
  1878  1F3F                     	;# 
  1879  1F43                     	;# 
  1880  1F44                     	;# 
  1881  1F45                     	;# 
  1882  1F46                     	;# 
  1883  1F47                     	;# 
  1884  1F48                     	;# 
  1885  1F49                     	;# 
  1886  1F4A                     	;# 
  1887  1F4E                     	;# 
  1888  1F4F                     	;# 
  1889  1F50                     	;# 
  1890  1F51                     	;# 
  1891  1F52                     	;# 
  1892  1F53                     	;# 
  1893  1F54                     	;# 
  1894  1F55                     	;# 
  1895  1F59                     	;# 
  1896  1F5A                     	;# 
  1897  1F5B                     	;# 
  1898  1F5C                     	;# 
  1899  1F5D                     	;# 
  1900  1F64                     	;# 
  1901  1F65                     	;# 
  1902  1F66                     	;# 
  1903  1F67                     	;# 
  1904  1F68                     	;# 
  1905  1F69                     	;# 
  1906  1F6A                     	;# 
  1907  1F6B                     	;# 
  1908  1FE4                     	;# 
  1909  1FE5                     	;# 
  1910  1FE6                     	;# 
  1911  1FE7                     	;# 
  1912  1FE8                     	;# 
  1913  1FE8                     	;# 
  1914  1FE9                     	;# 
  1915  1FEA                     	;# 
  1916  1FEB                     	;# 
  1917  1FED                     	;# 
  1918  1FEE                     	;# 
  1919  1FEF                     	;# 
  1920  0000                     	;# 
  1921  0001                     	;# 
  1922  0002                     	;# 
  1923  0003                     	;# 
  1924  0004                     	;# 
  1925  0005                     	;# 
  1926  0006                     	;# 
  1927  0007                     	;# 
  1928  0008                     	;# 
  1929  0009                     	;# 
  1930  000A                     	;# 
  1931  000B                     	;# 
  1932  000C                     	;# 
  1933  000D                     	;# 
  1934  000E                     	;# 
  1935  000F                     	;# 
  1936  0010                     	;# 
  1937  0012                     	;# 
  1938  0013                     	;# 
  1939  0014                     	;# 
  1940  0015                     	;# 
  1941  0016                     	;# 
  1942  0018                     	;# 
  1943  0019                     	;# 
  1944  001A                     	;# 
  1945  001B                     	;# 
  1946  001C                     	;# 
  1947  009B                     	;# 
  1948  009B                     	;# 
  1949  009C                     	;# 
  1950  009D                     	;# 
  1951  009E                     	;# 
  1952  009F                     	;# 
  1953  0119                     	;# 
  1954  0119                     	;# 
  1955  0119                     	;# 
  1956  011A                     	;# 
  1957  011A                     	;# 
  1958  011A                     	;# 
  1959  011B                     	;# 
  1960  011B                     	;# 
  1961  011B                     	;# 
  1962  011B                     	;# 
  1963  011B                     	;# 
  1964  011C                     	;# 
  1965  011C                     	;# 
  1966  011C                     	;# 
  1967  011D                     	;# 
  1968  011D                     	;# 
  1969  011D                     	;# 
  1970  011E                     	;# 
  1971  011E                     	;# 
  1972  011E                     	;# 
  1973  011F                     	;# 
  1974  011F                     	;# 
  1975  011F                     	;# 
  1976  011F                     	;# 
  1977  011F                     	;# 
  1978  018C                     	;# 
  1979  018D                     	;# 
  1980  018E                     	;# 
  1981  018F                     	;# 
  1982  0190                     	;# 
  1983  0191                     	;# 
  1984  0192                     	;# 
  1985  0196                     	;# 
  1986  0197                     	;# 
  1987  0198                     	;# 
  1988  0199                     	;# 
  1989  019A                     	;# 
  1990  019B                     	;# 
  1991  019C                     	;# 
  1992  020C                     	;# 
  1993  020C                     	;# 
  1994  020D                     	;# 
  1995  020E                     	;# 
  1996  020F                     	;# 
  1997  020F                     	;# 
  1998  0210                     	;# 
  1999  0210                     	;# 
  2000  0211                     	;# 
  2001  0211                     	;# 
  2002  028C                     	;# 
  2003  028C                     	;# 
  2004  028D                     	;# 
  2005  028D                     	;# 
  2006  028E                     	;# 
  2007  028F                     	;# 
  2008  0290                     	;# 
  2009  0291                     	;# 
  2010  030C                     	;# 
  2011  030C                     	;# 
  2012  030D                     	;# 
  2013  030E                     	;# 
  2014  030F                     	;# 
  2015  0310                     	;# 
  2016  0310                     	;# 
  2017  0311                     	;# 
  2018  0312                     	;# 
  2019  0313                     	;# 
  2020  0314                     	;# 
  2021  0314                     	;# 
  2022  0315                     	;# 
  2023  0316                     	;# 
  2024  0318                     	;# 
  2025  0318                     	;# 
  2026  0319                     	;# 
  2027  031A                     	;# 
  2028  031C                     	;# 
  2029  031C                     	;# 
  2030  031D                     	;# 
  2031  031E                     	;# 
  2032  038C                     	;# 
  2033  038C                     	;# 
  2034  038D                     	;# 
  2035  038E                     	;# 
  2036  058C                     	;# 
  2037  058C                     	;# 
  2038  058D                     	;# 
  2039  058E                     	;# 
  2040  058F                     	;# 
  2041  058F                     	;# 
  2042  0590                     	;# 
  2043  0591                     	;# 
  2044  0592                     	;# 
  2045  0593                     	;# 
  2046  059C                     	;# 
  2047  059C                     	;# 
  2048  059D                     	;# 
  2049  059D                     	;# 
  2050  059E                     	;# 
  2051  059F                     	;# 
  2052  060C                     	;# 
  2053  060D                     	;# 
  2054  060E                     	;# 
  2055  060F                     	;# 
  2056  0610                     	;# 
  2057  0611                     	;# 
  2058  0612                     	;# 
  2059  0613                     	;# 
  2060  0614                     	;# 
  2061  070C                     	;# 
  2062  070D                     	;# 
  2063  070E                     	;# 
  2064  070F                     	;# 
  2065  0710                     	;# 
  2066  0711                     	;# 
  2067  0712                     	;# 
  2068  0713                     	;# 
  2069  0716                     	;# 
  2070  0717                     	;# 
  2071  0718                     	;# 
  2072  0719                     	;# 
  2073  071A                     	;# 
  2074  071B                     	;# 
  2075  071C                     	;# 
  2076  071D                     	;# 
  2077  0796                     	;# 
  2078  0797                     	;# 
  2079  0798                     	;# 
  2080  0799                     	;# 
  2081  079A                     	;# 
  2082  079B                     	;# 
  2083  080C                     	;# 
  2084  080D                     	;# 
  2085  080E                     	;# 
  2086  080F                     	;# 
  2087  0810                     	;# 
  2088  0811                     	;# 
  2089  0813                     	;# 
  2090  0814                     	;# 
  2091  081A                     	;# 
  2092  081A                     	;# 
  2093  081B                     	;# 
  2094  081C                     	;# 
  2095  081C                     	;# 
  2096  081D                     	;# 
  2097  081E                     	;# 
  2098  081F                     	;# 
  2099  088C                     	;# 
  2100  088D                     	;# 
  2101  088E                     	;# 
  2102  088F                     	;# 
  2103  0890                     	;# 
  2104  0891                     	;# 
  2105  0892                     	;# 
  2106  0893                     	;# 
  2107  0895                     	;# 
  2108  0896                     	;# 
  2109  090C                     	;# 
  2110  090E                     	;# 
  2111  090F                     	;# 
  2112  091F                     	;# 
  2113  098F                     	;# 
  2114  098F                     	;# 
  2115  0990                     	;# 
  2116  0991                     	;# 
  2117  0992                     	;# 
  2118  0993                     	;# 
  2119  0994                     	;# 
  2120  0995                     	;# 
  2121  0996                     	;# 
  2122  0997                     	;# 
  2123  0A19                     	;# 
  2124  0A19                     	;# 
  2125  0A1A                     	;# 
  2126  0A1A                     	;# 
  2127  0A1B                     	;# 
  2128  0A1B                     	;# 
  2129  0A1B                     	;# 
  2130  0A1C                     	;# 
  2131  0A1C                     	;# 
  2132  0A1D                     	;# 
  2133  0A1D                     	;# 
  2134  0A1E                     	;# 
  2135  0A1E                     	;# 
  2136  0A1F                     	;# 
  2137  0A1F                     	;# 
  2138  0A1F                     	;# 
  2139  1E0F                     	;# 
  2140  1E10                     	;# 
  2141  1E11                     	;# 
  2142  1E12                     	;# 
  2143  1E13                     	;# 
  2144  1E14                     	;# 
  2145  1E15                     	;# 
  2146  1E16                     	;# 
  2147  1E17                     	;# 
  2148  1E18                     	;# 
  2149  1E19                     	;# 
  2150  1E1A                     	;# 
  2151  1E1B                     	;# 
  2152  1E1C                     	;# 
  2153  1E1D                     	;# 
  2154  1E1E                     	;# 
  2155  1E1F                     	;# 
  2156  1E20                     	;# 
  2157  1E21                     	;# 
  2158  1E22                     	;# 
  2159  1E23                     	;# 
  2160  1E24                     	;# 
  2161  1E25                     	;# 
  2162  1E26                     	;# 
  2163  1E27                     	;# 
  2164  1E28                     	;# 
  2165  1E29                     	;# 
  2166  1E2A                     	;# 
  2167  1E2B                     	;# 
  2168  1E2C                     	;# 
  2169  1E2D                     	;# 
  2170  1E2E                     	;# 
  2171  1E2F                     	;# 
  2172  1E30                     	;# 
  2173  1E31                     	;# 
  2174  1E32                     	;# 
  2175  1E33                     	;# 
  2176  1E34                     	;# 
  2177  1E35                     	;# 
  2178  1E36                     	;# 
  2179  1E37                     	;# 
  2180  1E8F                     	;# 
  2181  1E90                     	;# 
  2182  1E91                     	;# 
  2183  1E92                     	;# 
  2184  1E93                     	;# 
  2185  1E9C                     	;# 
  2186  1EA1                     	;# 
  2187  1EA2                     	;# 
  2188  1EB1                     	;# 
  2189  1EBB                     	;# 
  2190  1EBC                     	;# 
  2191  1EBD                     	;# 
  2192  1EBE                     	;# 
  2193  1EC3                     	;# 
  2194  1EC5                     	;# 
  2195  1EC6                     	;# 
  2196  1EC7                     	;# 
  2197  1EC8                     	;# 
  2198  1EC9                     	;# 
  2199  1ECA                     	;# 
  2200  1ECB                     	;# 
  2201  1ECC                     	;# 
  2202  1ECD                     	;# 
  2203  1ECE                     	;# 
  2204  1F10                     	;# 
  2205  1F11                     	;# 
  2206  1F12                     	;# 
  2207  1F13                     	;# 
  2208  1F14                     	;# 
  2209  1F15                     	;# 
  2210  1F16                     	;# 
  2211  1F17                     	;# 
  2212  1F18                     	;# 
  2213  1F19                     	;# 
  2214  1F1A                     	;# 
  2215  1F1B                     	;# 
  2216  1F1C                     	;# 
  2217  1F1D                     	;# 
  2218  1F1E                     	;# 
  2219  1F1F                     	;# 
  2220  1F20                     	;# 
  2221  1F21                     	;# 
  2222  1F22                     	;# 
  2223  1F23                     	;# 
  2224  1F24                     	;# 
  2225  1F25                     	;# 
  2226  1F26                     	;# 
  2227  1F27                     	;# 
  2228  1F28                     	;# 
  2229  1F29                     	;# 
  2230  1F2A                     	;# 
  2231  1F2B                     	;# 
  2232  1F2C                     	;# 
  2233  1F2D                     	;# 
  2234  1F2E                     	;# 
  2235  1F2F                     	;# 
  2236  1F30                     	;# 
  2237  1F31                     	;# 
  2238  1F32                     	;# 
  2239  1F38                     	;# 
  2240  1F39                     	;# 
  2241  1F3A                     	;# 
  2242  1F3B                     	;# 
  2243  1F3C                     	;# 
  2244  1F3D                     	;# 
  2245  1F3E                     	;# 
  2246  1F3F                     	;# 
  2247  1F43                     	;# 
  2248  1F44                     	;# 
  2249  1F45                     	;# 
  2250  1F46                     	;# 
  2251  1F47                     	;# 
  2252  1F48                     	;# 
  2253  1F49                     	;# 
  2254  1F4A                     	;# 
  2255  1F4E                     	;# 
  2256  1F4F                     	;# 
  2257  1F50                     	;# 
  2258  1F51                     	;# 
  2259  1F52                     	;# 
  2260  1F53                     	;# 
  2261  1F54                     	;# 
  2262  1F55                     	;# 
  2263  1F59                     	;# 
  2264  1F5A                     	;# 
  2265  1F5B                     	;# 
  2266  1F5C                     	;# 
  2267  1F5D                     	;# 
  2268  1F64                     	;# 
  2269  1F65                     	;# 
  2270  1F66                     	;# 
  2271  1F67                     	;# 
  2272  1F68                     	;# 
  2273  1F69                     	;# 
  2274  1F6A                     	;# 
  2275  1F6B                     	;# 
  2276  1FE4                     	;# 
  2277  1FE5                     	;# 
  2278  1FE6                     	;# 
  2279  1FE7                     	;# 
  2280  1FE8                     	;# 
  2281  1FE8                     	;# 
  2282  1FE9                     	;# 
  2283  1FEA                     	;# 
  2284  1FEB                     	;# 
  2285  1FED                     	;# 
  2286  1FEE                     	;# 
  2287  1FEF                     	;# 
  2288  0000                     	;# 
  2289  0001                     	;# 
  2290  0002                     	;# 
  2291  0003                     	;# 
  2292  0004                     	;# 
  2293  0005                     	;# 
  2294  0006                     	;# 
  2295  0007                     	;# 
  2296  0008                     	;# 
  2297  0009                     	;# 
  2298  000A                     	;# 
  2299  000B                     	;# 
  2300  000C                     	;# 
  2301  000D                     	;# 
  2302  000E                     	;# 
  2303  000F                     	;# 
  2304  0010                     	;# 
  2305  0012                     	;# 
  2306  0013                     	;# 
  2307  0014                     	;# 
  2308  0015                     	;# 
  2309  0016                     	;# 
  2310  0018                     	;# 
  2311  0019                     	;# 
  2312  001A                     	;# 
  2313  001B                     	;# 
  2314  001C                     	;# 
  2315  009B                     	;# 
  2316  009B                     	;# 
  2317  009C                     	;# 
  2318  009D                     	;# 
  2319  009E                     	;# 
  2320  009F                     	;# 
  2321  0119                     	;# 
  2322  0119                     	;# 
  2323  0119                     	;# 
  2324  011A                     	;# 
  2325  011A                     	;# 
  2326  011A                     	;# 
  2327  011B                     	;# 
  2328  011B                     	;# 
  2329  011B                     	;# 
  2330  011B                     	;# 
  2331  011B                     	;# 
  2332  011C                     	;# 
  2333  011C                     	;# 
  2334  011C                     	;# 
  2335  011D                     	;# 
  2336  011D                     	;# 
  2337  011D                     	;# 
  2338  011E                     	;# 
  2339  011E                     	;# 
  2340  011E                     	;# 
  2341  011F                     	;# 
  2342  011F                     	;# 
  2343  011F                     	;# 
  2344  011F                     	;# 
  2345  011F                     	;# 
  2346  018C                     	;# 
  2347  018D                     	;# 
  2348  018E                     	;# 
  2349  018F                     	;# 
  2350  0190                     	;# 
  2351  0191                     	;# 
  2352  0192                     	;# 
  2353  0196                     	;# 
  2354  0197                     	;# 
  2355  0198                     	;# 
  2356  0199                     	;# 
  2357  019A                     	;# 
  2358  019B                     	;# 
  2359  019C                     	;# 
  2360  020C                     	;# 
  2361  020C                     	;# 
  2362  020D                     	;# 
  2363  020E                     	;# 
  2364  020F                     	;# 
  2365  020F                     	;# 
  2366  0210                     	;# 
  2367  0210                     	;# 
  2368  0211                     	;# 
  2369  0211                     	;# 
  2370  028C                     	;# 
  2371  028C                     	;# 
  2372  028D                     	;# 
  2373  028D                     	;# 
  2374  028E                     	;# 
  2375  028F                     	;# 
  2376  0290                     	;# 
  2377  0291                     	;# 
  2378  030C                     	;# 
  2379  030C                     	;# 
  2380  030D                     	;# 
  2381  030E                     	;# 
  2382  030F                     	;# 
  2383  0310                     	;# 
  2384  0310                     	;# 
  2385  0311                     	;# 
  2386  0312                     	;# 
  2387  0313                     	;# 
  2388  0314                     	;# 
  2389  0314                     	;# 
  2390  0315                     	;# 
  2391  0316                     	;# 
  2392  0318                     	;# 
  2393  0318                     	;# 
  2394  0319                     	;# 
  2395  031A                     	;# 
  2396  031C                     	;# 
  2397  031C                     	;# 
  2398  031D                     	;# 
  2399  031E                     	;# 
  2400  038C                     	;# 
  2401  038C                     	;# 
  2402  038D                     	;# 
  2403  038E                     	;# 
  2404  058C                     	;# 
  2405  058C                     	;# 
  2406  058D                     	;# 
  2407  058E                     	;# 
  2408  058F                     	;# 
  2409  058F                     	;# 
  2410  0590                     	;# 
  2411  0591                     	;# 
  2412  0592                     	;# 
  2413  0593                     	;# 
  2414  059C                     	;# 
  2415  059C                     	;# 
  2416  059D                     	;# 
  2417  059D                     	;# 
  2418  059E                     	;# 
  2419  059F                     	;# 
  2420  060C                     	;# 
  2421  060D                     	;# 
  2422  060E                     	;# 
  2423  060F                     	;# 
  2424  0610                     	;# 
  2425  0611                     	;# 
  2426  0612                     	;# 
  2427  0613                     	;# 
  2428  0614                     	;# 
  2429  070C                     	;# 
  2430  070D                     	;# 
  2431  070E                     	;# 
  2432  070F                     	;# 
  2433  0710                     	;# 
  2434  0711                     	;# 
  2435  0712                     	;# 
  2436  0713                     	;# 
  2437  0716                     	;# 
  2438  0717                     	;# 
  2439  0718                     	;# 
  2440  0719                     	;# 
  2441  071A                     	;# 
  2442  071B                     	;# 
  2443  071C                     	;# 
  2444  071D                     	;# 
  2445  0796                     	;# 
  2446  0797                     	;# 
  2447  0798                     	;# 
  2448  0799                     	;# 
  2449  079A                     	;# 
  2450  079B                     	;# 
  2451  080C                     	;# 
  2452  080D                     	;# 
  2453  080E                     	;# 
  2454  080F                     	;# 
  2455  0810                     	;# 
  2456  0811                     	;# 
  2457  0813                     	;# 
  2458  0814                     	;# 
  2459  081A                     	;# 
  2460  081A                     	;# 
  2461  081B                     	;# 
  2462  081C                     	;# 
  2463  081C                     	;# 
  2464  081D                     	;# 
  2465  081E                     	;# 
  2466  081F                     	;# 
  2467  088C                     	;# 
  2468  088D                     	;# 
  2469  088E                     	;# 
  2470  088F                     	;# 
  2471  0890                     	;# 
  2472  0891                     	;# 
  2473  0892                     	;# 
  2474  0893                     	;# 
  2475  0895                     	;# 
  2476  0896                     	;# 
  2477  090C                     	;# 
  2478  090E                     	;# 
  2479  090F                     	;# 
  2480  091F                     	;# 
  2481  098F                     	;# 
  2482  098F                     	;# 
  2483  0990                     	;# 
  2484  0991                     	;# 
  2485  0992                     	;# 
  2486  0993                     	;# 
  2487  0994                     	;# 
  2488  0995                     	;# 
  2489  0996                     	;# 
  2490  0997                     	;# 
  2491  0A19                     	;# 
  2492  0A19                     	;# 
  2493  0A1A                     	;# 
  2494  0A1A                     	;# 
  2495  0A1B                     	;# 
  2496  0A1B                     	;# 
  2497  0A1B                     	;# 
  2498  0A1C                     	;# 
  2499  0A1C                     	;# 
  2500  0A1D                     	;# 
  2501  0A1D                     	;# 
  2502  0A1E                     	;# 
  2503  0A1E                     	;# 
  2504  0A1F                     	;# 
  2505  0A1F                     	;# 
  2506  0A1F                     	;# 
  2507  1E0F                     	;# 
  2508  1E10                     	;# 
  2509  1E11                     	;# 
  2510  1E12                     	;# 
  2511  1E13                     	;# 
  2512  1E14                     	;# 
  2513  1E15                     	;# 
  2514  1E16                     	;# 
  2515  1E17                     	;# 
  2516  1E18                     	;# 
  2517  1E19                     	;# 
  2518  1E1A                     	;# 
  2519  1E1B                     	;# 
  2520  1E1C                     	;# 
  2521  1E1D                     	;# 
  2522  1E1E                     	;# 
  2523  1E1F                     	;# 
  2524  1E20                     	;# 
  2525  1E21                     	;# 
  2526  1E22                     	;# 
  2527  1E23                     	;# 
  2528  1E24                     	;# 
  2529  1E25                     	;# 
  2530  1E26                     	;# 
  2531  1E27                     	;# 
  2532  1E28                     	;# 
  2533  1E29                     	;# 
  2534  1E2A                     	;# 
  2535  1E2B                     	;# 
  2536  1E2C                     	;# 
  2537  1E2D                     	;# 
  2538  1E2E                     	;# 
  2539  1E2F                     	;# 
  2540  1E30                     	;# 
  2541  1E31                     	;# 
  2542  1E32                     	;# 
  2543  1E33                     	;# 
  2544  1E34                     	;# 
  2545  1E35                     	;# 
  2546  1E36                     	;# 
  2547  1E37                     	;# 
  2548  1E8F                     	;# 
  2549  1E90                     	;# 
  2550  1E91                     	;# 
  2551  1E92                     	;# 
  2552  1E93                     	;# 
  2553  1E9C                     	;# 
  2554  1EA1                     	;# 
  2555  1EA2                     	;# 
  2556  1EB1                     	;# 
  2557  1EBB                     	;# 
  2558  1EBC                     	;# 
  2559  1EBD                     	;# 
  2560  1EBE                     	;# 
  2561  1EC3                     	;# 
  2562  1EC5                     	;# 
  2563  1EC6                     	;# 
  2564  1EC7                     	;# 
  2565  1EC8                     	;# 
  2566  1EC9                     	;# 
  2567  1ECA                     	;# 
  2568  1ECB                     	;# 
  2569  1ECC                     	;# 
  2570  1ECD                     	;# 
  2571  1ECE                     	;# 
  2572  1F10                     	;# 
  2573  1F11                     	;# 
  2574  1F12                     	;# 
  2575  1F13                     	;# 
  2576  1F14                     	;# 
  2577  1F15                     	;# 
  2578  1F16                     	;# 
  2579  1F17                     	;# 
  2580  1F18                     	;# 
  2581  1F19                     	;# 
  2582  1F1A                     	;# 
  2583  1F1B                     	;# 
  2584  1F1C                     	;# 
  2585  1F1D                     	;# 
  2586  1F1E                     	;# 
  2587  1F1F                     	;# 
  2588  1F20                     	;# 
  2589  1F21                     	;# 
  2590  1F22                     	;# 
  2591  1F23                     	;# 
  2592  1F24                     	;# 
  2593  1F25                     	;# 
  2594  1F26                     	;# 
  2595  1F27                     	;# 
  2596  1F28                     	;# 
  2597  1F29                     	;# 
  2598  1F2A                     	;# 
  2599  1F2B                     	;# 
  2600  1F2C                     	;# 
  2601  1F2D                     	;# 
  2602  1F2E                     	;# 
  2603  1F2F                     	;# 
  2604  1F30                     	;# 
  2605  1F31                     	;# 
  2606  1F32                     	;# 
  2607  1F38                     	;# 
  2608  1F39                     	;# 
  2609  1F3A                     	;# 
  2610  1F3B                     	;# 
  2611  1F3C                     	;# 
  2612  1F3D                     	;# 
  2613  1F3E                     	;# 
  2614  1F3F                     	;# 
  2615  1F43                     	;# 
  2616  1F44                     	;# 
  2617  1F45                     	;# 
  2618  1F46                     	;# 
  2619  1F47                     	;# 
  2620  1F48                     	;# 
  2621  1F49                     	;# 
  2622  1F4A                     	;# 
  2623  1F4E                     	;# 
  2624  1F4F                     	;# 
  2625  1F50                     	;# 
  2626  1F51                     	;# 
  2627  1F52                     	;# 
  2628  1F53                     	;# 
  2629  1F54                     	;# 
  2630  1F55                     	;# 
  2631  1F59                     	;# 
  2632  1F5A                     	;# 
  2633  1F5B                     	;# 
  2634  1F5C                     	;# 
  2635  1F5D                     	;# 
  2636  1F64                     	;# 
  2637  1F65                     	;# 
  2638  1F66                     	;# 
  2639  1F67                     	;# 
  2640  1F68                     	;# 
  2641  1F69                     	;# 
  2642  1F6A                     	;# 
  2643  1F6B                     	;# 
  2644  1FE4                     	;# 
  2645  1FE5                     	;# 
  2646  1FE6                     	;# 
  2647  1FE7                     	;# 
  2648  1FE8                     	;# 
  2649  1FE8                     	;# 
  2650  1FE9                     	;# 
  2651  1FEA                     	;# 
  2652  1FEB                     	;# 
  2653  1FED                     	;# 
  2654  1FEE                     	;# 
  2655  1FEF                     	;# 
  2656                           
  2657 ;; Function _rd1RegCompleteHandler is unused but had its address taken
  2658  0000                     
  2659 ;; Function _rd2RegCompleteHandler is unused but had its address taken
  2660  0000                     
  2661 ;; Function _wr1RegCompleteHandler is unused but had its address taken
  2662  0000                     
  2663 ;; Function _wr2RegCompleteHandler is unused but had its address taken
  2664  0000                     
  2665 ;; Function _rdBlkRegCompleteHandler is unused but had its address taken
  2666  0000                     
  2667 ;; Function _I2C1_DO_IDLE is unused but had its address taken
  2668  0000                     
  2669 ;; Function _I2C1_DO_SEND_ADR_READ is unused but had its address taken
  2670  0000                     
  2671 ;; Function _I2C1_DO_SEND_ADR_WRITE is unused but had its address taken
  2672  0000                     
  2673 ;; Function _I2C1_DO_TX is unused but had its address taken
  2674  0000                     
  2675 ;; Function _I2C1_DO_RX is unused but had its address taken
  2676  0000                     
  2677 ;; Function _I2C1_DO_RCEN is unused but had its address taken
  2678  0000                     
  2679 ;; Function _I2C1_DO_TX_EMPTY is unused but had its address taken
  2680  0000                     
  2681 ;; Function _I2C1_DO_SEND_RESTART_READ is unused but had its address taken
  2682  0000                     
  2683 ;; Function _I2C1_DO_SEND_RESTART_WRITE is unused but had its address taken
  2684  0000                     
  2685 ;; Function _I2C1_DO_SEND_RESTART is unused but had its address taken
  2686  0000                     
  2687 ;; Function _I2C1_DO_SEND_STOP is unused but had its address taken
  2688  0000                     
  2689 ;; Function _I2C1_DO_RX_ACK is unused but had its address taken
  2690  0000                     
  2691 ;; Function _I2C1_DO_RX_NACK_STOP is unused but had its address taken
  2692  0000                     
  2693 ;; Function _I2C1_DO_RX_NACK_RESTART is unused but had its address taken
  2694  0000                     
  2695 ;; Function _I2C1_DO_RESET is unused but had its address taken
  2696  0000                     
  2697 ;; Function _I2C1_DO_ADDRESS_NACK is unused but had its address taken
  2698  0000                     
  2699 ;; Function _I2C1_CallbackReturnStop is unused but had its address taken
  2700  0000                     
  2701 ;; Function _I2C1_CallbackReturnReset is unused but had its address taken
  2702  0000                     
  2703 ;; Function _EUSART1_DefaultFramingErrorHandler is unused but had its address taken
  2704  0000                     
  2705 ;; Function _EUSART1_DefaultOverrunErrorHandler is unused but had its address taken
  2706  0000                     
  2707 ;; Function _EUSART1_DefaultErrorHandler is unused but had its address taken
  2708  0000                     
  2709                           	psect	stringtext1
  2710  0800                     __pstringtext1:
  2711  0800                     _i2c1_fsmStateTable:
  2712  0800  3400               	retlw	0
  2713  0801  3400               	retlw	0
  2714  0802  3400               	retlw	0
  2715  0803  3400               	retlw	0
  2716  0804  3400               	retlw	0
  2717  0805  3400               	retlw	0
  2718  0806  3400               	retlw	0
  2719  0807  3400               	retlw	0
  2720  0808  3400               	retlw	0
  2721  0809  3400               	retlw	0
  2722  080A  3400               	retlw	0
  2723  080B  3400               	retlw	0
  2724  080C  3400               	retlw	0
  2725  080D  3400               	retlw	0
  2726  080E  3400               	retlw	0
  2727  080F  3400               	retlw	0
  2728  0810  3400               	retlw	0
  2729  0811  3400               	retlw	0
  2730  0812  3400               	retlw	0
  2731  0813  3400               	retlw	0
  2732  0814  3400               	retlw	0
  2733  0815  3400               	retlw	0
  2734  0816  3400               	retlw	0
  2735  0817  3400               	retlw	0
  2736  0818  3400               	retlw	0
  2737  0819  3400               	retlw	0
  2738  081A  3400               	retlw	0
  2739  081B  3400               	retlw	0
  2740  081C  3400               	retlw	0
  2741  081D  3400               	retlw	0
  2742  081E  3400               	retlw	0
  2743  081F  3400               	retlw	0
  2744  0820                     __end_of_i2c1_fsmStateTable:
  2745                           
  2746                           	psect	nvBANK1
  2747  00E6                     __pnvBANK1:
  2748  00E6                     _EUSART1_ErrorHandler:
  2749  00E6                     	ds	2
  2750  00E8                     _EUSART1_OverrunErrorHandler:
  2751  00E8                     	ds	2
  2752  00EA                     _EUSART1_FramingErrorHandler:
  2753  00EA                     	ds	2
  2754  001A                     _LATCbits	set	26
  2755  0015                     _TRISD	set	21
  2756  0014                     _TRISC	set	20
  2757  0013                     _TRISB	set	19
  2758  0012                     _TRISA	set	18
  2759  0016                     _TRISE	set	22
  2760  001A                     _LATC	set	26
  2761  0019                     _LATB	set	25
  2762  0018                     _LATA	set	24
  2763  001B                     _LATD	set	27
  2764  001C                     _LATE	set	28
  2765  011A                     _TX1REG	set	282
  2766  0119                     _RC1REG	set	281
  2767  011D                     _RC1STAbits	set	285
  2768  011E                     _TX1STAbits	set	286
  2769  011C                     _SP1BRGH	set	284
  2770  011B                     _SP1BRGL	set	283
  2771  011E                     _TX1STA	set	286
  2772  011D                     _RC1STA	set	285
  2773  011F                     _BAUD1CON	set	287
  2774  018F                     _SSP1STATbits	set	399
  2775  018D                     _SSP1ADD	set	397
  2776  0191                     _SSP1CON2	set	401
  2777  0190                     _SSP1CON1	set	400
  2778  018F                     _SSP1STAT	set	399
  2779  018C                     _SSP1BUF	set	396
  2780  0191                     _SSP1CON2bits	set	401
  2781  0190                     _SSP1CON1bits	set	400
  2782  0719                     _PIE3bits	set	1817
  2783  070F                     _PIR3bits	set	1807
  2784  079B                     _PMD5	set	1947
  2785  079A                     _PMD4	set	1946
  2786  0799                     _PMD3	set	1945
  2787  0798                     _PMD2	set	1944
  2788  0797                     _PMD1	set	1943
  2789  0796                     _PMD0	set	1942
  2790  0892                     _OSCTUNE	set	2194
  2791  0890                     _OSCSTAT	set	2192
  2792  0893                     _OSCFRQ	set	2195
  2793  0891                     _OSCEN	set	2193
  2794  088F                     _OSCCON3	set	2191
  2795  088D                     _OSCCON1	set	2189
  2796  1ECB                     _RX1DTPPS	set	7883
  2797  1EC6                     _SSP1DATPPS	set	7878
  2798  1EC5                     _SSP1CLKPPS	set	7877
  2799  1F26                     _RC6PPS	set	7974
  2800  1F22                     _RC2PPS	set	7970
  2801  1F24                     _RC4PPS	set	7972
  2802  1F68                     _INLVLE	set	8040
  2803  1F5D                     _INLVLD	set	8029
  2804  1F52                     _INLVLC	set	8018
  2805  1F47                     _INLVLB	set	8007
  2806  1F3C                     _INLVLA	set	7996
  2807  1F67                     _SLRCONE	set	8039
  2808  1F5C                     _SLRCOND	set	8028
  2809  1F51                     _SLRCONC	set	8017
  2810  1F46                     _SLRCONB	set	8006
  2811  1F3B                     _SLRCONA	set	7995
  2812  1F5B                     _ODCOND	set	8027
  2813  1F50                     _ODCONC	set	8016
  2814  1F45                     _ODCONB	set	8005
  2815  1F3A                     _ODCONA	set	7994
  2816  1F66                     _ODCONE	set	8038
  2817  1F4F                     _WPUC	set	8015
  2818  1F39                     _WPUA	set	7993
  2819  1F44                     _WPUB	set	8004
  2820  1F65                     _WPUE	set	8037
  2821  1F5A                     _WPUD	set	8026
  2822  1F38                     _ANSELA	set	7992
  2823  1F64                     _ANSELE	set	8036
  2824  1F43                     _ANSELB	set	8003
  2825  1F4E                     _ANSELC	set	8014
  2826  1F59                     _ANSELD	set	8025
  2827                           
  2828                           	psect	stringtext2
  2829  0820                     __pstringtext2:
  2830  0820                     STR_2:
  2831  0820  3444               	retlw	68	;'D'
  2832  0821  3465               	retlw	101	;'e'
  2833  0822  3476               	retlw	118	;'v'
  2834  0823  3469               	retlw	105	;'i'
  2835  0824  3463               	retlw	99	;'c'
  2836  0825  3465               	retlw	101	;'e'
  2837  0826  3420               	retlw	32	;' '
  2838  0827  3441               	retlw	65	;'A'
  2839  0828  3464               	retlw	100	;'d'
  2840  0829  3464               	retlw	100	;'d'
  2841  082A  3472               	retlw	114	;'r'
  2842  082B  3465               	retlw	101	;'e'
  2843  082C  3473               	retlw	115	;'s'
  2844  082D  3473               	retlw	115	;'s'
  2845  082E  3420               	retlw	32	;' '
  2846  082F  346E               	retlw	110	;'n'
  2847  0830  346F               	retlw	111	;'o'
  2848  0831  3474               	retlw	116	;'t'
  2849  0832  3420               	retlw	32	;' '
  2850  0833  3466               	retlw	102	;'f'
  2851  0834  346F               	retlw	111	;'o'
  2852  0835  3475               	retlw	117	;'u'
  2853  0836  346E               	retlw	110	;'n'
  2854  0837  3464               	retlw	100	;'d'
  2855  0838  340A               	retlw	10
  2856  0839  3400               	retlw	0
  2857                           
  2858                           	psect	stringtext3
  2859  083A                     __pstringtext3:
  2860  083A                     STR_1:
  2861  083A  3444               	retlw	68	;'D'
  2862  083B  3465               	retlw	101	;'e'
  2863  083C  3476               	retlw	118	;'v'
  2864  083D  3469               	retlw	105	;'i'
  2865  083E  3463               	retlw	99	;'c'
  2866  083F  3465               	retlw	101	;'e'
  2867  0840  3420               	retlw	32	;' '
  2868  0841  3441               	retlw	65	;'A'
  2869  0842  3464               	retlw	100	;'d'
  2870  0843  3464               	retlw	100	;'d'
  2871  0844  3472               	retlw	114	;'r'
  2872  0845  3465               	retlw	101	;'e'
  2873  0846  3473               	retlw	115	;'s'
  2874  0847  3473               	retlw	115	;'s'
  2875  0848  343A               	retlw	58	;':'
  2876  0849  3420               	retlw	32	;' '
  2877  084A  3425               	retlw	37	;'%'
  2878  084B  3464               	retlw	100	;'d'
  2879  084C  340A               	retlw	10
  2880  084D  3400               	retlw	0
  2881                           
  2882                           	psect	stringtext4
  2883  0000                     __pstringtext4:
  2884                           
  2885                           	psect	cinit
  2886  07F5                     start_initialization:	
  2887                           ; #config settings
  2888                           
  2889  07F5                     __initialization:
  2890                           
  2891                           ; Clear objects allocated to BANK1
  2892  07F5  30A0               	movlw	low __pbssBANK1
  2893  07F6  0084               	movwf	4
  2894  07F7  3000               	movlw	high __pbssBANK1
  2895  07F8  0085               	movwf	5
  2896  07F9  3046               	movlw	70
  2897  07FA  3181  2176  3187   	fcall	clear_ram0
  2898  07FD                     end_of_initialization:	
  2899                           ;End of C runtime variable initialization code
  2900                           
  2901  07FD                     __end_of__initialization:
  2902  07FD  0140               	movlb	0
  2903  07FE  3181  29BF         	ljmp	_main	;jump to C main() function
  2904                           
  2905                           	psect	bssBANK1
  2906  00A0                     __pbssBANK1:
  2907  00A0                     _I2C1_Status:
  2908  00A0                     	ds	29
  2909  00BD                     _nout:
  2910  00BD                     	ds	2
  2911  00BF                     _width:
  2912  00BF                     	ds	2
  2913  00C1                     _prec:
  2914  00C1                     	ds	2
  2915  00C3                     _flags:
  2916  00C3                     	ds	2
  2917  00C5                     _eusart1RxLastError:
  2918  00C5                     	ds	1
  2919  00C6                     _dbuf:
  2920  00C6                     	ds	32
  2921                           
  2922                           	psect	clrtext
  2923  0176                     clear_ram0:	
  2924                           ;	Called with FSR0 containing the base address, and
  2925                           ;	WREG with the size to clear
  2926                           
  2927  0176  0064               	clrwdt	;clear the watchdog before getting into this loop
  2928  0177                     clrloop0:
  2929  0177  0180               	clrf	0	;clear RAM location pointed to by FSR
  2930  0178  3101               	addfsr 0,1
  2931  0179  0B89               	decfsz	9,f	;Have we reached the end of clearing yet?
  2932  017A  2977               	goto	clrloop0	;have we reached the end yet?
  2933  017B  3400               	retlw	0	;all done for this memory range, return
  2934                           
  2935                           	psect	cstackBANK1
  2936  00EC                     __pcstackBANK1:
  2937  00EC                     I2C_Scan@ACK_bit:
  2938                           
  2939                           ; 1 bytes @ 0x0
  2940  00EC                     	ds	1
  2941  00ED                     I2C_Scan@i:
  2942                           
  2943                           ; 1 bytes @ 0x1
  2944  00ED                     	ds	1
  2945                           
  2946                           	psect	cstackCOMMON
  2947  0070                     __pcstackCOMMON:
  2948  0070                     ?_Send_I2C_StartBit:
  2949  0070                     ??_Send_I2C_StartBit:	
  2950                           ; 1 bytes @ 0x0
  2951                           
  2952  0070                     ?_Send_I2C_ControlByte:	
  2953                           ; 1 bytes @ 0x0
  2954                           
  2955  0070                     ?_PMD_Initialize:	
  2956                           ; 1 bytes @ 0x0
  2957                           
  2958  0070                     ??_PMD_Initialize:	
  2959                           ; 1 bytes @ 0x0
  2960                           
  2961  0070                     ?_I2C1_Initialize:	
  2962                           ; 1 bytes @ 0x0
  2963                           
  2964  0070                     ??_I2C1_Initialize:	
  2965                           ; 1 bytes @ 0x0
  2966                           
  2967  0070                     ?_PIN_MANAGER_Initialize:	
  2968                           ; 1 bytes @ 0x0
  2969                           
  2970  0070                     ??_PIN_MANAGER_Initialize:	
  2971                           ; 1 bytes @ 0x0
  2972                           
  2973  0070                     ?_OSCILLATOR_Initialize:	
  2974                           ; 1 bytes @ 0x0
  2975                           
  2976  0070                     ??_OSCILLATOR_Initialize:	
  2977                           ; 1 bytes @ 0x0
  2978                           
  2979  0070                     ?_EUSART1_Initialize:	
  2980                           ; 1 bytes @ 0x0
  2981                           
  2982  0070                     ?_EUSART1_SetFramingErrorHandler:	
  2983                           ; 1 bytes @ 0x0
  2984                           
  2985  0070                     ?_EUSART1_SetOverrunErrorHandler:	
  2986                           ; 1 bytes @ 0x0
  2987                           
  2988  0070                     ?_EUSART1_SetErrorHandler:	
  2989                           ; 1 bytes @ 0x0
  2990                           
  2991  0070                     ?_I2C_Init:	
  2992                           ; 1 bytes @ 0x0
  2993                           
  2994  0070                     ??_I2C_Init:	
  2995                           ; 1 bytes @ 0x0
  2996                           
  2997  0070                     ?_I2C_Scan:	
  2998                           ; 1 bytes @ 0x0
  2999                           
  3000  0070                     ?_SYSTEM_Initialize:	
  3001                           ; 1 bytes @ 0x0
  3002                           
  3003  0070                     ?_EUSART1_Write:	
  3004                           ; 1 bytes @ 0x0
  3005                           
  3006  0070                     ??_EUSART1_Write:	
  3007                           ; 1 bytes @ 0x0
  3008                           
  3009  0070                     ?_putch:	
  3010                           ; 1 bytes @ 0x0
  3011                           
  3012  0070                     ?_main:	
  3013                           ; 1 bytes @ 0x0
  3014                           
  3015  0070                     ??___aodiv:	
  3016                           ; 1 bytes @ 0x0
  3017                           
  3018  0070                     ??___aomod:	
  3019                           ; 1 bytes @ 0x0
  3020                           
  3021  0070                     ?_strlen:	
  3022                           ; 1 bytes @ 0x0
  3023                           
  3024  0070                     Send_I2C_ControlByte@RW_bit:	
  3025                           ; 2 bytes @ 0x0
  3026                           
  3027  0070                     EUSART1_Write@txData:	
  3028                           ; 1 bytes @ 0x0
  3029                           
  3030  0070                     EUSART1_SetFramingErrorHandler@interruptHandler:	
  3031                           ; 1 bytes @ 0x0
  3032                           
  3033  0070                     EUSART1_SetOverrunErrorHandler@interruptHandler:	
  3034                           ; 2 bytes @ 0x0
  3035                           
  3036  0070                     EUSART1_SetErrorHandler@interruptHandler:	
  3037                           ; 2 bytes @ 0x0
  3038                           
  3039                           
  3040                           ; 2 bytes @ 0x0
  3041  0070                     	ds	1
  3042  0071                     ??_Send_I2C_ControlByte:
  3043  0071                     ??_putch:	
  3044                           ; 1 bytes @ 0x1
  3045                           
  3046  0071                     Send_I2C_ControlByte@Dev_Add:	
  3047                           ; 1 bytes @ 0x1
  3048                           
  3049  0071                     putch@txData:	
  3050                           ; 1 bytes @ 0x1
  3051                           
  3052  0071                     ___aodiv@counter:	
  3053                           ; 1 bytes @ 0x1
  3054                           
  3055  0071                     ___aomod@counter:	
  3056                           ; 1 bytes @ 0x1
  3057                           
  3058                           
  3059                           ; 1 bytes @ 0x1
  3060  0071                     	ds	1
  3061  0072                     ??_EUSART1_Initialize:
  3062  0072                     ??_EUSART1_SetFramingErrorHandler:	
  3063                           ; 1 bytes @ 0x2
  3064                           
  3065  0072                     ??_EUSART1_SetOverrunErrorHandler:	
  3066                           ; 1 bytes @ 0x2
  3067                           
  3068  0072                     ??_EUSART1_SetErrorHandler:	
  3069                           ; 1 bytes @ 0x2
  3070                           
  3071  0072                     ??_strlen:	
  3072                           ; 1 bytes @ 0x2
  3073                           
  3074  0072                     ??_SYSTEM_Initialize:	
  3075                           ; 1 bytes @ 0x2
  3076                           
  3077  0072                     ?_fputc:	
  3078                           ; 1 bytes @ 0x2
  3079                           
  3080  0072                     ___aodiv@sign:	
  3081                           ; 2 bytes @ 0x2
  3082                           
  3083  0072                     ___aomod@sign:	
  3084                           ; 1 bytes @ 0x2
  3085                           
  3086  0072                     fputc@c:	
  3087                           ; 1 bytes @ 0x2
  3088                           
  3089                           
  3090                           ; 2 bytes @ 0x2
  3091  0072                     	ds	1
  3092  0073                     ?_abs:
  3093  0073                     strlen@a:	
  3094                           ; 2 bytes @ 0x3
  3095                           
  3096  0073                     abs@a:	
  3097                           ; 1 bytes @ 0x3
  3098                           
  3099  0073                     ___aodiv@quotient:	
  3100                           ; 2 bytes @ 0x3
  3101                           
  3102                           
  3103                           ; 8 bytes @ 0x3
  3104  0073                     	ds	1
  3105  0074                     fputc@fp:
  3106  0074                     strlen@s:	
  3107                           ; 1 bytes @ 0x4
  3108                           
  3109                           
  3110                           ; 1 bytes @ 0x4
  3111  0074                     	ds	1
  3112  0075                     ??_fputc:
  3113  0075                     ??_abs:	
  3114                           ; 1 bytes @ 0x5
  3115                           
  3116                           
  3117                           ; 1 bytes @ 0x5
  3118  0075                     	ds	5
  3119  007A                     ?_fputs:
  3120  007A                     fputs@fp:	
  3121                           ; 2 bytes @ 0xA
  3122                           
  3123                           
  3124                           ; 1 bytes @ 0xA
  3125  007A                     	ds	1
  3126  007B                     ??_fputs:
  3127                           
  3128                           ; 1 bytes @ 0xB
  3129  007B                     	ds	3
  3130  007E                     ??_main:
  3131                           
  3132                           	psect	cstackBANK0
  3133  0020                     __pcstackBANK0:	
  3134                           ; 1 bytes @ 0xE
  3135                           
  3136  0020                     ?___aodiv:
  3137  0020                     ?___aomod:	
  3138                           ; 8 bytes @ 0x0
  3139                           
  3140  0020                     fputs@c:	
  3141                           ; 8 bytes @ 0x0
  3142                           
  3143  0020                     ___aodiv@divisor:	
  3144                           ; 1 bytes @ 0x0
  3145                           
  3146  0020                     ___aomod@divisor:	
  3147                           ; 8 bytes @ 0x0
  3148                           
  3149                           
  3150                           ; 8 bytes @ 0x0
  3151  0020                     	ds	1
  3152  0021                     fputs@i:
  3153                           
  3154                           ; 2 bytes @ 0x1
  3155  0021                     	ds	2
  3156  0023                     fputs@s:
  3157                           
  3158                           ; 1 bytes @ 0x3
  3159  0023                     	ds	1
  3160  0024                     ?_pad:
  3161  0024                     pad@buf:	
  3162                           ; 2 bytes @ 0x4
  3163                           
  3164                           
  3165                           ; 1 bytes @ 0x4
  3166  0024                     	ds	1
  3167  0025                     pad@p:
  3168                           
  3169                           ; 2 bytes @ 0x5
  3170  0025                     	ds	2
  3171  0027                     ??_pad:
  3172                           
  3173                           ; 1 bytes @ 0x7
  3174  0027                     	ds	1
  3175  0028                     pad@i:
  3176  0028                     ___aodiv@dividend:	
  3177                           ; 2 bytes @ 0x8
  3178                           
  3179  0028                     ___aomod@dividend:	
  3180                           ; 8 bytes @ 0x8
  3181                           
  3182                           
  3183                           ; 8 bytes @ 0x8
  3184  0028                     	ds	2
  3185  002A                     pad@w:
  3186                           
  3187                           ; 2 bytes @ 0xA
  3188  002A                     	ds	2
  3189  002C                     pad@fp:
  3190                           
  3191                           ; 1 bytes @ 0xC
  3192  002C                     	ds	4
  3193  0030                     ?_dtoa:
  3194  0030                     dtoa@d:	
  3195                           ; 2 bytes @ 0x10
  3196                           
  3197                           
  3198                           ; 8 bytes @ 0x10
  3199  0030                     	ds	8
  3200  0038                     ??_dtoa:
  3201                           
  3202                           ; 1 bytes @ 0x18
  3203  0038                     	ds	3
  3204  003B                     _dtoa$1797:
  3205                           
  3206                           ; 2 bytes @ 0x1B
  3207  003B                     	ds	2
  3208  003D                     dtoa@p:
  3209                           
  3210                           ; 2 bytes @ 0x1D
  3211  003D                     	ds	2
  3212  003F                     dtoa@fp:
  3213                           
  3214                           ; 1 bytes @ 0x1F
  3215  003F                     	ds	1
  3216  0040                     dtoa@w:
  3217                           
  3218                           ; 2 bytes @ 0x20
  3219  0040                     	ds	2
  3220  0042                     dtoa@s:
  3221                           
  3222                           ; 2 bytes @ 0x22
  3223  0042                     	ds	2
  3224  0044                     dtoa@n:
  3225                           
  3226                           ; 8 bytes @ 0x24
  3227  0044                     	ds	8
  3228  004C                     dtoa@i:
  3229                           
  3230                           ; 2 bytes @ 0x2C
  3231  004C                     	ds	2
  3232  004E                     ?_vfpfcnvrt:
  3233  004E                     vfpfcnvrt@fmt:	
  3234                           ; 2 bytes @ 0x2E
  3235                           
  3236                           
  3237                           ; 1 bytes @ 0x2E
  3238  004E                     	ds	1
  3239  004F                     vfpfcnvrt@ap:
  3240                           
  3241                           ; 1 bytes @ 0x2F
  3242  004F                     	ds	1
  3243  0050                     ??_vfpfcnvrt:
  3244                           
  3245                           ; 1 bytes @ 0x30
  3246  0050                     	ds	5
  3247  0055                     vfpfcnvrt@ll:
  3248                           
  3249                           ; 8 bytes @ 0x35
  3250  0055                     	ds	8
  3251  005D                     vfpfcnvrt@fp:
  3252                           
  3253                           ; 1 bytes @ 0x3D
  3254  005D                     	ds	1
  3255  005E                     ?_vfprintf:
  3256  005E                     vfprintf@fmt:	
  3257                           ; 2 bytes @ 0x3E
  3258                           
  3259                           
  3260                           ; 2 bytes @ 0x3E
  3261  005E                     	ds	2
  3262  0060                     vfprintf@ap:
  3263                           
  3264                           ; 1 bytes @ 0x40
  3265  0060                     	ds	1
  3266  0061                     ??_vfprintf:
  3267                           
  3268                           ; 1 bytes @ 0x41
  3269  0061                     	ds	2
  3270  0063                     vfprintf@fp:
  3271                           
  3272                           ; 1 bytes @ 0x43
  3273  0063                     	ds	1
  3274  0064                     vfprintf@cfmt:
  3275                           
  3276                           ; 2 bytes @ 0x44
  3277  0064                     	ds	2
  3278  0066                     ?_printf:
  3279  0066                     printf@fmt:	
  3280                           ; 2 bytes @ 0x46
  3281                           
  3282                           
  3283                           ; 2 bytes @ 0x46
  3284  0066                     	ds	4
  3285  006A                     ??_printf:
  3286                           
  3287                           ; 1 bytes @ 0x4A
  3288  006A                     	ds	3
  3289  006D                     printf@ap:
  3290                           
  3291                           ; 1 bytes @ 0x4D
  3292  006D                     	ds	1
  3293  006E                     ??_I2C_Scan:
  3294                           
  3295                           ; 1 bytes @ 0x4E
  3296  006E                     	ds	2
  3297                           
  3298                           	psect	maintext
  3299  01BF                     __pmaintext:	
  3300 ;;
  3301 ;;Main: autosize = 0, tempsize = 0, incstack = 0, save=0
  3302 ;;
  3303 ;; *************** function _main *****************
  3304 ;; Defined at:
  3305 ;;		line 110 in file "main.c"
  3306 ;; Parameters:    Size  Location     Type
  3307 ;;		None
  3308 ;; Auto vars:     Size  Location     Type
  3309 ;;  i               1    0        unsigned char 
  3310 ;;  BM1383          1    0        struct .
  3311 ;; Return value:  Size  Location     Type
  3312 ;;                  1    wreg      void 
  3313 ;; Registers used:
  3314 ;;		wreg, fsr0l, fsr0h, fsr1l, fsr1h, status,2, status,0, pclath, cstack
  3315 ;; Tracked objects:
  3316 ;;		On entry : B3F/0
  3317 ;;		On exit  : 0/0
  3318 ;;		Unchanged: 0/0
  3319 ;; Data sizes:     COMMON   BANK0   BANK1   BANK2   BANK3   BANK4   BANK5   BANK6   BANK7   BANK8   BANK9  BANK10  BANK1
      +1  BANK12  BANK13  BANK14  BANK15  BANK16  BANK17  BANK18  BANK19  BANK20  BANK21  BANK22  BANK23  BANK24  BANK25
  3320 ;;      Params:         0       0       0       0       0       0       0       0       0       0       0       0       
      +0       0       0       0       0       0       0       0       0       0       0       0       0       0       0
  3321 ;;      Locals:         0       0       2       0       0       0       0       0       0       0       0       0       
      +0       0       0       0       0       0       0       0       0       0       0       0       0       0       0
  3322 ;;      Temps:          0       0       0       0       0       0       0       0       0       0       0       0       
      +0       0       0       0       0       0       0       0       0       0       0       0       0       0       0
  3323 ;;      Totals:         0       0       2       0       0       0       0       0       0       0       0       0       
      +0       0       0       0       0       0       0       0       0       0       0       0       0       0       0
  3324 ;;Total ram usage:        2 bytes
  3325 ;; Hardware stack levels required when called:   10
  3326 ;; This function calls:
  3327 ;;		_I2C_Init
  3328 ;;		_I2C_Scan
  3329 ;;		_SYSTEM_Initialize
  3330 ;; This function is called by:
  3331 ;;		Startup code after reset
  3332 ;; This function uses a non-reentrant model
  3333 ;;
  3334                           
  3335                           
  3336                           ;psect for function _main
  3337  01BF                     _main:
  3338  01BF                     l3474:	
  3339                           ;incstack = 0
  3340                           ; Regs used in _main: [wreg-fsr1h+status,2+status,0+pclath+cstack]
  3341                           
  3342                           
  3343                           ;main.c: 113:     SYSTEM_Initialize();
  3344  01BF  3181  21CD  3181   	fcall	_SYSTEM_Initialize
  3345  01C2                     l3476:
  3346  01C2                     l3478:
  3347                           
  3348                           ;main.c: 133:     I2C_Init();
  3349  01C2  3181  217C  3181   	fcall	_I2C_Init
  3350  01C5                     l3480:
  3351                           
  3352                           ;main.c: 134:     I2C_Scan();
  3353  01C5  3182  22DC  3181   	fcall	_I2C_Scan
  3354  01C8                     l3482:
  3355  01C8                     l3484:
  3356  01C8  0140               	movlb	0	; select bank0
  3357  01C9  141A               	bsf	26,0	;volatile
  3358  01CA                     l773:	
  3359                           ;main.c: 140:     while (1)
  3360                           
  3361  01CA  29CA               	goto	l773
  3362  01CB  3180  2802         	ljmp	start
  3363  01CD                     __end_of_main:
  3364                           
  3365                           	psect	text1
  3366  01CD                     __ptext1:	
  3367 ;; *************** function _SYSTEM_Initialize *****************
  3368 ;; Defined at:
  3369 ;;		line 50 in file "mcc_generated_files/mcc.c"
  3370 ;; Parameters:    Size  Location     Type
  3371 ;;		None
  3372 ;; Auto vars:     Size  Location     Type
  3373 ;;		None
  3374 ;; Return value:  Size  Location     Type
  3375 ;;                  1    wreg      void 
  3376 ;; Registers used:
  3377 ;;		wreg, status,2, status,0, pclath, cstack
  3378 ;; Tracked objects:
  3379 ;;		On entry : 0/0
  3380 ;;		On exit  : 0/0
  3381 ;;		Unchanged: 0/0
  3382 ;; Data sizes:     COMMON   BANK0   BANK1   BANK2   BANK3   BANK4   BANK5   BANK6   BANK7   BANK8   BANK9  BANK10  BANK1
      +1  BANK12  BANK13  BANK14  BANK15  BANK16  BANK17  BANK18  BANK19  BANK20  BANK21  BANK22  BANK23  BANK24  BANK25
  3383 ;;      Params:         0       0       0       0       0       0       0       0       0       0       0       0       
      +0       0       0       0       0       0       0       0       0       0       0       0       0       0       0
  3384 ;;      Locals:         0       0       0       0       0       0       0       0       0       0       0       0       
      +0       0       0       0       0       0       0       0       0       0       0       0       0       0       0
  3385 ;;      Temps:          0       0       0       0       0       0       0       0       0       0       0       0       
      +0       0       0       0       0       0       0       0       0       0       0       0       0       0       0
  3386 ;;      Totals:         0       0       0       0       0       0       0       0       0       0       0       0       
      +0       0       0       0       0       0       0       0       0       0       0       0       0       0       0
  3387 ;;Total ram usage:        0 bytes
  3388 ;; Hardware stack levels used:    1
  3389 ;; Hardware stack levels required when called:    2
  3390 ;; This function calls:
  3391 ;;		_EUSART1_Initialize
  3392 ;;		_I2C1_Initialize
  3393 ;;		_OSCILLATOR_Initialize
  3394 ;;		_PIN_MANAGER_Initialize
  3395 ;;		_PMD_Initialize
  3396 ;; This function is called by:
  3397 ;;		_main
  3398 ;; This function uses a non-reentrant model
  3399 ;;
  3400                           
  3401                           
  3402                           ;psect for function _SYSTEM_Initialize
  3403  01CD                     _SYSTEM_Initialize:
  3404  01CD                     l2916:	
  3405                           ;incstack = 0
  3406                           ; Regs used in _SYSTEM_Initialize: [wreg+status,2+status,0+pclath+cstack]
  3407                           
  3408                           
  3409                           ;mcc_generated_files/mcc.c: 52:     PMD_Initialize();
  3410  01CD  3181  2183  3181   	fcall	_PMD_Initialize
  3411  01D0                     l2918:
  3412                           
  3413                           ;mcc_generated_files/mcc.c: 53:     I2C1_Initialize();
  3414  01D0  3181  218B  3181   	fcall	_I2C1_Initialize
  3415  01D3                     l2920:
  3416                           
  3417                           ;mcc_generated_files/mcc.c: 54:     PIN_MANAGER_Initialize();
  3418  01D3  3183  231D  3181   	fcall	_PIN_MANAGER_Initialize
  3419  01D6                     l2922:
  3420                           
  3421                           ;mcc_generated_files/mcc.c: 55:     OSCILLATOR_Initialize();
  3422  01D6  3181  21A8  3181   	fcall	_OSCILLATOR_Initialize
  3423  01D9                     l2924:
  3424                           
  3425                           ;mcc_generated_files/mcc.c: 56:     EUSART1_Initialize();
  3426  01D9  3182  2222  3181   	fcall	_EUSART1_Initialize
  3427  01DC                     l235:
  3428  01DC  0008               	return
  3429  01DD                     __end_of_SYSTEM_Initialize:
  3430                           
  3431                           	psect	text2
  3432  0183                     __ptext2:	
  3433 ;; *************** function _PMD_Initialize *****************
  3434 ;; Defined at:
  3435 ;;		line 75 in file "mcc_generated_files/mcc.c"
  3436 ;; Parameters:    Size  Location     Type
  3437 ;;		None
  3438 ;; Auto vars:     Size  Location     Type
  3439 ;;		None
  3440 ;; Return value:  Size  Location     Type
  3441 ;;                  1    wreg      void 
  3442 ;; Registers used:
  3443 ;;		status,2
  3444 ;; Tracked objects:
  3445 ;;		On entry : 0/0
  3446 ;;		On exit  : 0/0
  3447 ;;		Unchanged: 0/0
  3448 ;; Data sizes:     COMMON   BANK0   BANK1   BANK2   BANK3   BANK4   BANK5   BANK6   BANK7   BANK8   BANK9  BANK10  BANK1
      +1  BANK12  BANK13  BANK14  BANK15  BANK16  BANK17  BANK18  BANK19  BANK20  BANK21  BANK22  BANK23  BANK24  BANK25
  3449 ;;      Params:         0       0       0       0       0       0       0       0       0       0       0       0       
      +0       0       0       0       0       0       0       0       0       0       0       0       0       0       0
  3450 ;;      Locals:         0       0       0       0       0       0       0       0       0       0       0       0       
      +0       0       0       0       0       0       0       0       0       0       0       0       0       0       0
  3451 ;;      Temps:          0       0       0       0       0       0       0       0       0       0       0       0       
      +0       0       0       0       0       0       0       0       0       0       0       0       0       0       0
  3452 ;;      Totals:         0       0       0       0       0       0       0       0       0       0       0       0       
      +0       0       0       0       0       0       0       0       0       0       0       0       0       0       0
  3453 ;;Total ram usage:        0 bytes
  3454 ;; Hardware stack levels used:    1
  3455 ;; This function calls:
  3456 ;;		Nothing
  3457 ;; This function is called by:
  3458 ;;		_SYSTEM_Initialize
  3459 ;; This function uses a non-reentrant model
  3460 ;;
  3461                           
  3462                           
  3463                           ;psect for function _PMD_Initialize
  3464  0183                     _PMD_Initialize:
  3465  0183                     l2744:	
  3466                           ;incstack = 0
  3467                           ; Regs used in _PMD_Initialize: [status,2]
  3468                           
  3469                           
  3470                           ;mcc_generated_files/mcc.c: 78:     PMD0 = 0x00;
  3471  0183  014F               	movlb	15	; select bank15
  3472  0184  0196               	clrf	22	;volatile
  3473                           
  3474                           ;mcc_generated_files/mcc.c: 80:     PMD1 = 0x00;
  3475  0185  0197               	clrf	23	;volatile
  3476                           
  3477                           ;mcc_generated_files/mcc.c: 82:     PMD2 = 0x00;
  3478  0186  0198               	clrf	24	;volatile
  3479                           
  3480                           ;mcc_generated_files/mcc.c: 84:     PMD3 = 0x00;
  3481  0187  0199               	clrf	25	;volatile
  3482                           
  3483                           ;mcc_generated_files/mcc.c: 86:     PMD4 = 0x00;
  3484  0188  019A               	clrf	26	;volatile
  3485                           
  3486                           ;mcc_generated_files/mcc.c: 88:     PMD5 = 0x00;
  3487  0189  019B               	clrf	27	;volatile
  3488  018A                     l241:
  3489  018A  0008               	return
  3490  018B                     __end_of_PMD_Initialize:
  3491                           
  3492                           	psect	text3
  3493  031D                     __ptext3:	
  3494 ;; *************** function _PIN_MANAGER_Initialize *****************
  3495 ;; Defined at:
  3496 ;;		line 55 in file "mcc_generated_files/pin_manager.c"
  3497 ;; Parameters:    Size  Location     Type
  3498 ;;		None
  3499 ;; Auto vars:     Size  Location     Type
  3500 ;;		None
  3501 ;; Return value:  Size  Location     Type
  3502 ;;                  1    wreg      void 
  3503 ;; Registers used:
  3504 ;;		wreg, status,2
  3505 ;; Tracked objects:
  3506 ;;		On entry : 0/0
  3507 ;;		On exit  : 0/0
  3508 ;;		Unchanged: 0/0
  3509 ;; Data sizes:     COMMON   BANK0   BANK1   BANK2   BANK3   BANK4   BANK5   BANK6   BANK7   BANK8   BANK9  BANK10  BANK1
      +1  BANK12  BANK13  BANK14  BANK15  BANK16  BANK17  BANK18  BANK19  BANK20  BANK21  BANK22  BANK23  BANK24  BANK25
  3510 ;;      Params:         0       0       0       0       0       0       0       0       0       0       0       0       
      +0       0       0       0       0       0       0       0       0       0       0       0       0       0       0
  3511 ;;      Locals:         0       0       0       0       0       0       0       0       0       0       0       0       
      +0       0       0       0       0       0       0       0       0       0       0       0       0       0       0
  3512 ;;      Temps:          0       0       0       0       0       0       0       0       0       0       0       0       
      +0       0       0       0       0       0       0       0       0       0       0       0       0       0       0
  3513 ;;      Totals:         0       0       0       0       0       0       0       0       0       0       0       0       
      +0       0       0       0       0       0       0       0       0       0       0       0       0       0       0
  3514 ;;Total ram usage:        0 bytes
  3515 ;; Hardware stack levels used:    1
  3516 ;; This function calls:
  3517 ;;		Nothing
  3518 ;; This function is called by:
  3519 ;;		_SYSTEM_Initialize
  3520 ;; This function uses a non-reentrant model
  3521 ;;
  3522                           
  3523                           
  3524                           ;psect for function _PIN_MANAGER_Initialize
  3525  031D                     _PIN_MANAGER_Initialize:
  3526  031D                     l2754:	
  3527                           ;incstack = 0
  3528                           ; Regs used in _PIN_MANAGER_Initialize: [wreg+status,2]
  3529                           
  3530                           
  3531                           ;mcc_generated_files/pin_manager.c: 60:     LATE = 0x00;
  3532  031D  0140               	movlb	0	; select bank0
  3533  031E  019C               	clrf	28	;volatile
  3534                           
  3535                           ;mcc_generated_files/pin_manager.c: 61:     LATD = 0x00;
  3536  031F  019B               	clrf	27	;volatile
  3537                           
  3538                           ;mcc_generated_files/pin_manager.c: 62:     LATA = 0x00;
  3539  0320  0198               	clrf	24	;volatile
  3540                           
  3541                           ;mcc_generated_files/pin_manager.c: 63:     LATB = 0x00;
  3542  0321  0199               	clrf	25	;volatile
  3543                           
  3544                           ;mcc_generated_files/pin_manager.c: 64:     LATC = 0x00;
  3545  0322  019A               	clrf	26	;volatile
  3546  0323                     l2756:
  3547                           
  3548                           ;mcc_generated_files/pin_manager.c: 69:     TRISE = 0x0F;
  3549  0323  300F               	movlw	15
  3550  0324  0096               	movwf	22	;volatile
  3551  0325                     l2758:
  3552                           
  3553                           ;mcc_generated_files/pin_manager.c: 70:     TRISA = 0xFF;
  3554  0325  30FF               	movlw	255
  3555  0326  0092               	movwf	18	;volatile
  3556  0327                     l2760:
  3557                           
  3558                           ;mcc_generated_files/pin_manager.c: 71:     TRISB = 0xFF;
  3559  0327  30FF               	movlw	255
  3560  0328  0093               	movwf	19	;volatile
  3561  0329                     l2762:
  3562                           
  3563                           ;mcc_generated_files/pin_manager.c: 72:     TRISC = 0xFA;
  3564  0329  30FA               	movlw	250
  3565  032A  0094               	movwf	20	;volatile
  3566  032B                     l2764:
  3567                           
  3568                           ;mcc_generated_files/pin_manager.c: 73:     TRISD = 0xFF;
  3569  032B  30FF               	movlw	255
  3570  032C  0095               	movwf	21	;volatile
  3571  032D                     l2766:
  3572                           
  3573                           ;mcc_generated_files/pin_manager.c: 78:     ANSELD = 0xFF;
  3574  032D  30FF               	movlw	255
  3575  032E  017E               	movlb	62	; select bank62
  3576  032F  00D9               	movwf	89	;volatile
  3577  0330                     l2768:
  3578                           
  3579                           ;mcc_generated_files/pin_manager.c: 79:     ANSELC = 0xAD;
  3580  0330  30AD               	movlw	173
  3581  0331  00CE               	movwf	78	;volatile
  3582  0332                     l2770:
  3583                           
  3584                           ;mcc_generated_files/pin_manager.c: 80:     ANSELB = 0xFF;
  3585  0332  30FF               	movlw	255
  3586  0333  00C3               	movwf	67	;volatile
  3587  0334                     l2772:
  3588                           
  3589                           ;mcc_generated_files/pin_manager.c: 81:     ANSELE = 0x07;
  3590  0334  3007               	movlw	7
  3591  0335  00E4               	movwf	100	;volatile
  3592  0336                     l2774:
  3593                           
  3594                           ;mcc_generated_files/pin_manager.c: 82:     ANSELA = 0xFF;
  3595  0336  30FF               	movlw	255
  3596  0337  00B8               	movwf	56	;volatile
  3597                           
  3598                           ;mcc_generated_files/pin_manager.c: 87:     WPUD = 0x00;
  3599  0338  01DA               	clrf	90	;volatile
  3600                           
  3601                           ;mcc_generated_files/pin_manager.c: 88:     WPUE = 0x00;
  3602  0339  01E5               	clrf	101	;volatile
  3603  033A                     l2776:
  3604                           
  3605                           ;mcc_generated_files/pin_manager.c: 89:     WPUB = 0x04;
  3606  033A  3004               	movlw	4
  3607  033B  00C4               	movwf	68	;volatile
  3608  033C                     l2778:
  3609                           
  3610                           ;mcc_generated_files/pin_manager.c: 90:     WPUA = 0x00;
  3611  033C  01B9               	clrf	57	;volatile
  3612                           
  3613                           ;mcc_generated_files/pin_manager.c: 91:     WPUC = 0xD8;
  3614  033D  30D8               	movlw	216
  3615  033E  00CF               	movwf	79	;volatile
  3616  033F                     l2780:
  3617                           
  3618                           ;mcc_generated_files/pin_manager.c: 96:     ODCONE = 0x00;
  3619  033F  01E6               	clrf	102	;volatile
  3620  0340                     l2782:
  3621                           
  3622                           ;mcc_generated_files/pin_manager.c: 97:     ODCONA = 0x00;
  3623  0340  01BA               	clrf	58	;volatile
  3624  0341                     l2784:
  3625                           
  3626                           ;mcc_generated_files/pin_manager.c: 98:     ODCONB = 0x00;
  3627  0341  01C5               	clrf	69	;volatile
  3628  0342                     l2786:
  3629                           
  3630                           ;mcc_generated_files/pin_manager.c: 99:     ODCONC = 0x00;
  3631  0342  01D0               	clrf	80	;volatile
  3632  0343                     l2788:
  3633                           
  3634                           ;mcc_generated_files/pin_manager.c: 100:     ODCOND = 0x00;
  3635  0343  01DB               	clrf	91	;volatile
  3636  0344                     l2790:
  3637                           
  3638                           ;mcc_generated_files/pin_manager.c: 105:     SLRCONA = 0xFF;
  3639  0344  30FF               	movlw	255
  3640  0345  00BB               	movwf	59	;volatile
  3641  0346                     l2792:
  3642                           
  3643                           ;mcc_generated_files/pin_manager.c: 106:     SLRCONB = 0xFF;
  3644  0346  30FF               	movlw	255
  3645  0347  00C6               	movwf	70	;volatile
  3646  0348                     l2794:
  3647                           
  3648                           ;mcc_generated_files/pin_manager.c: 107:     SLRCONC = 0xFF;
  3649  0348  30FF               	movlw	255
  3650  0349  00D1               	movwf	81	;volatile
  3651  034A                     l2796:
  3652                           
  3653                           ;mcc_generated_files/pin_manager.c: 108:     SLRCOND = 0xFF;
  3654  034A  30FF               	movlw	255
  3655  034B  00DC               	movwf	92	;volatile
  3656  034C                     l2798:
  3657                           
  3658                           ;mcc_generated_files/pin_manager.c: 109:     SLRCONE = 0x07;
  3659  034C  3007               	movlw	7
  3660  034D  00E7               	movwf	103	;volatile
  3661  034E                     l2800:
  3662                           
  3663                           ;mcc_generated_files/pin_manager.c: 114:     INLVLA = 0xFF;
  3664  034E  30FF               	movlw	255
  3665  034F  00BC               	movwf	60	;volatile
  3666  0350                     l2802:
  3667                           
  3668                           ;mcc_generated_files/pin_manager.c: 115:     INLVLB = 0xFF;
  3669  0350  30FF               	movlw	255
  3670  0351  00C7               	movwf	71	;volatile
  3671  0352                     l2804:
  3672                           
  3673                           ;mcc_generated_files/pin_manager.c: 116:     INLVLC = 0xFF;
  3674  0352  30FF               	movlw	255
  3675  0353  00D2               	movwf	82	;volatile
  3676  0354                     l2806:
  3677                           
  3678                           ;mcc_generated_files/pin_manager.c: 117:     INLVLD = 0xFF;
  3679  0354  30FF               	movlw	255
  3680  0355  00DD               	movwf	93	;volatile
  3681  0356                     l2808:
  3682                           
  3683                           ;mcc_generated_files/pin_manager.c: 118:     INLVLE = 0x0F;
  3684  0356  300F               	movlw	15
  3685  0357  00E8               	movwf	104	;volatile
  3686  0358                     l2810:
  3687                           
  3688                           ;mcc_generated_files/pin_manager.c: 127:     SSP1CLKPPS = 0x14;
  3689  0358  3014               	movlw	20
  3690  0359  017D               	movlb	61	; select bank61
  3691  035A  00C5               	movwf	69	;volatile
  3692  035B                     l2812:
  3693                           
  3694                           ;mcc_generated_files/pin_manager.c: 128:     RC4PPS = 0x15;
  3695  035B  3015               	movlw	21
  3696  035C  017E               	movlb	62	; select bank62
  3697  035D  00A4               	movwf	36	;volatile
  3698  035E                     l2814:
  3699                           
  3700                           ;mcc_generated_files/pin_manager.c: 129:     RC2PPS = 0x0F;
  3701  035E  300F               	movlw	15
  3702  035F  00A2               	movwf	34	;volatile
  3703  0360                     l2816:
  3704                           
  3705                           ;mcc_generated_files/pin_manager.c: 130:     RC6PPS = 0x16;
  3706  0360  3016               	movlw	22
  3707  0361  00A6               	movwf	38	;volatile
  3708  0362                     l2818:
  3709                           
  3710                           ;mcc_generated_files/pin_manager.c: 131:     SSP1DATPPS = 0x16;
  3711  0362  3016               	movlw	22
  3712  0363  017D               	movlb	61	; select bank61
  3713  0364  00C6               	movwf	70	;volatile
  3714  0365                     l2820:
  3715                           
  3716                           ;mcc_generated_files/pin_manager.c: 132:     RX1DTPPS = 0x11;
  3717  0365  3011               	movlw	17
  3718  0366  00CB               	movwf	75	;volatile
  3719  0367                     l326:
  3720  0367  0008               	return
  3721  0368                     __end_of_PIN_MANAGER_Initialize:
  3722                           
  3723                           	psect	text4
  3724  01A8                     __ptext4:	
  3725 ;; *************** function _OSCILLATOR_Initialize *****************
  3726 ;; Defined at:
  3727 ;;		line 59 in file "mcc_generated_files/mcc.c"
  3728 ;; Parameters:    Size  Location     Type
  3729 ;;		None
  3730 ;; Auto vars:     Size  Location     Type
  3731 ;;		None
  3732 ;; Return value:  Size  Location     Type
  3733 ;;                  1    wreg      void 
  3734 ;; Registers used:
  3735 ;;		wreg, status,2
  3736 ;; Tracked objects:
  3737 ;;		On entry : 0/0
  3738 ;;		On exit  : 0/0
  3739 ;;		Unchanged: 0/0
  3740 ;; Data sizes:     COMMON   BANK0   BANK1   BANK2   BANK3   BANK4   BANK5   BANK6   BANK7   BANK8   BANK9  BANK10  BANK1
      +1  BANK12  BANK13  BANK14  BANK15  BANK16  BANK17  BANK18  BANK19  BANK20  BANK21  BANK22  BANK23  BANK24  BANK25
  3741 ;;      Params:         0       0       0       0       0       0       0       0       0       0       0       0       
      +0       0       0       0       0       0       0       0       0       0       0       0       0       0       0
  3742 ;;      Locals:         0       0       0       0       0       0       0       0       0       0       0       0       
      +0       0       0       0       0       0       0       0       0       0       0       0       0       0       0
  3743 ;;      Temps:          0       0       0       0       0       0       0       0       0       0       0       0       
      +0       0       0       0       0       0       0       0       0       0       0       0       0       0       0
  3744 ;;      Totals:         0       0       0       0       0       0       0       0       0       0       0       0       
      +0       0       0       0       0       0       0       0       0       0       0       0       0       0       0
  3745 ;;Total ram usage:        0 bytes
  3746 ;; Hardware stack levels used:    1
  3747 ;; This function calls:
  3748 ;;		Nothing
  3749 ;; This function is called by:
  3750 ;;		_SYSTEM_Initialize
  3751 ;; This function uses a non-reentrant model
  3752 ;;
  3753                           
  3754                           
  3755                           ;psect for function _OSCILLATOR_Initialize
  3756  01A8                     _OSCILLATOR_Initialize:
  3757  01A8                     l2822:	
  3758                           ;incstack = 0
  3759                           ; Regs used in _OSCILLATOR_Initialize: [wreg+status,2]
  3760                           
  3761                           
  3762                           ;mcc_generated_files/mcc.c: 62:     OSCCON1 = 0x60;
  3763  01A8  3060               	movlw	96
  3764  01A9  0151               	movlb	17	; select bank17
  3765  01AA  008D               	movwf	13	;volatile
  3766  01AB                     l2824:
  3767                           
  3768                           ;mcc_generated_files/mcc.c: 64:     OSCCON3 = 0x00;
  3769  01AB  018F               	clrf	15	;volatile
  3770  01AC                     l2826:
  3771                           
  3772                           ;mcc_generated_files/mcc.c: 66:     OSCEN = 0x00;
  3773  01AC  0191               	clrf	17	;volatile
  3774                           
  3775                           ;mcc_generated_files/mcc.c: 68:     OSCFRQ = 0x02;
  3776  01AD  3002               	movlw	2
  3777  01AE  0093               	movwf	19	;volatile
  3778  01AF                     l2828:
  3779                           
  3780                           ;mcc_generated_files/mcc.c: 70:     OSCSTAT = 0x00;
  3781  01AF  0190               	clrf	16	;volatile
  3782  01B0                     l2830:
  3783                           
  3784                           ;mcc_generated_files/mcc.c: 72:     OSCTUNE = 0x00;
  3785  01B0  0192               	clrf	18	;volatile
  3786  01B1                     l238:
  3787  01B1  0008               	return
  3788  01B2                     __end_of_OSCILLATOR_Initialize:
  3789                           
  3790                           	psect	text5
  3791  018B                     __ptext5:	
  3792 ;; *************** function _I2C1_Initialize *****************
  3793 ;; Defined at:
  3794 ;;		line 167 in file "mcc_generated_files/i2c1_master.c"
  3795 ;; Parameters:    Size  Location     Type
  3796 ;;		None
  3797 ;; Auto vars:     Size  Location     Type
  3798 ;;		None
  3799 ;; Return value:  Size  Location     Type
  3800 ;;                  1    wreg      void 
  3801 ;; Registers used:
  3802 ;;		wreg, status,2
  3803 ;; Tracked objects:
  3804 ;;		On entry : 0/0
  3805 ;;		On exit  : 0/0
  3806 ;;		Unchanged: 0/0
  3807 ;; Data sizes:     COMMON   BANK0   BANK1   BANK2   BANK3   BANK4   BANK5   BANK6   BANK7   BANK8   BANK9  BANK10  BANK1
      +1  BANK12  BANK13  BANK14  BANK15  BANK16  BANK17  BANK18  BANK19  BANK20  BANK21  BANK22  BANK23  BANK24  BANK25
  3808 ;;      Params:         0       0       0       0       0       0       0       0       0       0       0       0       
      +0       0       0       0       0       0       0       0       0       0       0       0       0       0       0
  3809 ;;      Locals:         0       0       0       0       0       0       0       0       0       0       0       0       
      +0       0       0       0       0       0       0       0       0       0       0       0       0       0       0
  3810 ;;      Temps:          0       0       0       0       0       0       0       0       0       0       0       0       
      +0       0       0       0       0       0       0       0       0       0       0       0       0       0       0
  3811 ;;      Totals:         0       0       0       0       0       0       0       0       0       0       0       0       
      +0       0       0       0       0       0       0       0       0       0       0       0       0       0       0
  3812 ;;Total ram usage:        0 bytes
  3813 ;; Hardware stack levels used:    1
  3814 ;; This function calls:
  3815 ;;		Nothing
  3816 ;; This function is called by:
  3817 ;;		_SYSTEM_Initialize
  3818 ;; This function uses a non-reentrant model
  3819 ;;
  3820                           
  3821                           
  3822                           ;psect for function _I2C1_Initialize
  3823  018B                     _I2C1_Initialize:
  3824  018B                     l2746:	
  3825                           ;incstack = 0
  3826                           ; Regs used in _I2C1_Initialize: [wreg+status,2]
  3827                           
  3828                           
  3829                           ;mcc_generated_files/i2c1_master.c: 169:     SSP1STAT = 0x00;
  3830  018B  0143               	movlb	3	; select bank3
  3831  018C  018F               	clrf	15	;volatile
  3832  018D                     l2748:
  3833                           
  3834                           ;mcc_generated_files/i2c1_master.c: 170:     SSP1CON1 = 0x08;
  3835  018D  3008               	movlw	8
  3836  018E  0090               	movwf	16	;volatile
  3837  018F                     l2750:
  3838                           
  3839                           ;mcc_generated_files/i2c1_master.c: 171:     SSP1CON2 = 0x00;
  3840  018F  0191               	clrf	17	;volatile
  3841                           
  3842                           ;mcc_generated_files/i2c1_master.c: 172:     SSP1ADD = 0x09;
  3843  0190  3009               	movlw	9
  3844  0191  008D               	movwf	13	;volatile
  3845  0192                     l2752:
  3846                           
  3847                           ;mcc_generated_files/i2c1_master.c: 173:     SSP1CON1bits.SSPEN = 0;
  3848  0192  1290               	bcf	16,5	;volatile
  3849  0193                     l434:
  3850  0193  0008               	return
  3851  0194                     __end_of_I2C1_Initialize:
  3852                           
  3853                           	psect	text6
  3854  0222                     __ptext6:	
  3855 ;; *************** function _EUSART1_Initialize *****************
  3856 ;; Defined at:
  3857 ;;		line 66 in file "mcc_generated_files/eusart1.c"
  3858 ;; Parameters:    Size  Location     Type
  3859 ;;		None
  3860 ;; Auto vars:     Size  Location     Type
  3861 ;;		None
  3862 ;; Return value:  Size  Location     Type
  3863 ;;                  1    wreg      void 
  3864 ;; Registers used:
  3865 ;;		wreg, status,2, status,0, pclath, cstack
  3866 ;; Tracked objects:
  3867 ;;		On entry : 0/0
  3868 ;;		On exit  : 0/0
  3869 ;;		Unchanged: 0/0
  3870 ;; Data sizes:     COMMON   BANK0   BANK1   BANK2   BANK3   BANK4   BANK5   BANK6   BANK7   BANK8   BANK9  BANK10  BANK1
      +1  BANK12  BANK13  BANK14  BANK15  BANK16  BANK17  BANK18  BANK19  BANK20  BANK21  BANK22  BANK23  BANK24  BANK25
  3871 ;;      Params:         0       0       0       0       0       0       0       0       0       0       0       0       
      +0       0       0       0       0       0       0       0       0       0       0       0       0       0       0
  3872 ;;      Locals:         0       0       0       0       0       0       0       0       0       0       0       0       
      +0       0       0       0       0       0       0       0       0       0       0       0       0       0       0
  3873 ;;      Temps:          0       0       0       0       0       0       0       0       0       0       0       0       
      +0       0       0       0       0       0       0       0       0       0       0       0       0       0       0
  3874 ;;      Totals:         0       0       0       0       0       0       0       0       0       0       0       0       
      +0       0       0       0       0       0       0       0       0       0       0       0       0       0       0
  3875 ;;Total ram usage:        0 bytes
  3876 ;; Hardware stack levels used:    1
  3877 ;; Hardware stack levels required when called:    1
  3878 ;; This function calls:
  3879 ;;		_EUSART1_SetErrorHandler
  3880 ;;		_EUSART1_SetFramingErrorHandler
  3881 ;;		_EUSART1_SetOverrunErrorHandler
  3882 ;; This function is called by:
  3883 ;;		_SYSTEM_Initialize
  3884 ;; This function uses a non-reentrant model
  3885 ;;
  3886                           
  3887                           
  3888                           ;psect for function _EUSART1_Initialize
  3889  0222                     _EUSART1_Initialize:
  3890  0222                     l2832:	
  3891                           ;incstack = 0
  3892                           ; Regs used in _EUSART1_Initialize: [wreg+status,2+status,0+pclath+cstack]
  3893                           
  3894                           
  3895                           ;mcc_generated_files/eusart1.c: 71:     BAUD1CON = 0x08;
  3896  0222  3008               	movlw	8
  3897  0223  0142               	movlb	2	; select bank2
  3898  0224  009F               	movwf	31	;volatile
  3899                           
  3900                           ;mcc_generated_files/eusart1.c: 74:     RC1STA = 0x90;
  3901  0225  3090               	movlw	144
  3902  0226  009D               	movwf	29	;volatile
  3903                           
  3904                           ;mcc_generated_files/eusart1.c: 77:     TX1STA = 0x24;
  3905  0227  3024               	movlw	36
  3906  0228  009E               	movwf	30	;volatile
  3907                           
  3908                           ;mcc_generated_files/eusart1.c: 80:     SP1BRGL = 0x67;
  3909  0229  3067               	movlw	103
  3910  022A  009B               	movwf	27	;volatile
  3911  022B                     l2834:
  3912                           
  3913                           ;mcc_generated_files/eusart1.c: 83:     SP1BRGH = 0x00;
  3914  022B  019C               	clrf	28	;volatile
  3915  022C                     l2836:
  3916                           
  3917                           ;mcc_generated_files/eusart1.c: 86:     EUSART1_SetFramingErrorHandler(EUSART1_DefaultFr
      +                          amingErrorHandler);
  3918  022C  3000               	movlw	0
  3919  022D  00F0               	movwf	EUSART1_SetFramingErrorHandler@interruptHandler
  3920  022E  3000               	movlw	0
  3921  022F  00F1               	movwf	EUSART1_SetFramingErrorHandler@interruptHandler+1
  3922  0230  3181  216A  3182   	fcall	_EUSART1_SetFramingErrorHandler
  3923  0233                     l2838:
  3924                           
  3925                           ;mcc_generated_files/eusart1.c: 87:     EUSART1_SetOverrunErrorHandler(EUSART1_DefaultOv
      +                          errunErrorHandler);
  3926  0233  3000               	movlw	0
  3927  0234  00F0               	movwf	EUSART1_SetOverrunErrorHandler@interruptHandler
  3928  0235  3000               	movlw	0
  3929  0236  00F1               	movwf	EUSART1_SetOverrunErrorHandler@interruptHandler+1
  3930  0237  3181  2170  3182   	fcall	_EUSART1_SetOverrunErrorHandler
  3931  023A                     l2840:
  3932                           
  3933                           ;mcc_generated_files/eusart1.c: 88:     EUSART1_SetErrorHandler(EUSART1_DefaultErrorHand
      +                          ler);
  3934  023A  3000               	movlw	0
  3935  023B  00F0               	movwf	EUSART1_SetErrorHandler@interruptHandler
  3936  023C  3000               	movlw	0
  3937  023D  00F1               	movwf	EUSART1_SetErrorHandler@interruptHandler+1
  3938  023E  3181  2164  3182   	fcall	_EUSART1_SetErrorHandler
  3939  0241                     l2842:
  3940                           
  3941                           ;mcc_generated_files/eusart1.c: 90:     eusart1RxLastError.status = 0;
  3942  0241  0141               	movlb	1	; select bank1
  3943  0242  01C5               	clrf	_eusart1RxLastError^(0+128)	;volatile
  3944  0243                     l707:
  3945  0243  0008               	return
  3946  0244                     __end_of_EUSART1_Initialize:
  3947                           
  3948                           	psect	text7
  3949  0170                     __ptext7:	
  3950 ;; *************** function _EUSART1_SetOverrunErrorHandler *****************
  3951 ;; Defined at:
  3952 ;;		line 170 in file "mcc_generated_files/eusart1.c"
  3953 ;; Parameters:    Size  Location     Type
  3954 ;;  interruptHan    2    0[COMMON] PTR FTN()void 
  3955 ;;		 -> EUSART1_DefaultOverrunErrorHandler(1), 
  3956 ;; Auto vars:     Size  Location     Type
  3957 ;;		None
  3958 ;; Return value:  Size  Location     Type
  3959 ;;                  1    wreg      void 
  3960 ;; Registers used:
  3961 ;;		wreg
  3962 ;; Tracked objects:
  3963 ;;		On entry : 0/0
  3964 ;;		On exit  : 0/0
  3965 ;;		Unchanged: 0/0
  3966 ;; Data sizes:     COMMON   BANK0   BANK1   BANK2   BANK3   BANK4   BANK5   BANK6   BANK7   BANK8   BANK9  BANK10  BANK1
      +1  BANK12  BANK13  BANK14  BANK15  BANK16  BANK17  BANK18  BANK19  BANK20  BANK21  BANK22  BANK23  BANK24  BANK25
  3967 ;;      Params:         2       0       0       0       0       0       0       0       0       0       0       0       
      +0       0       0       0       0       0       0       0       0       0       0       0       0       0       0
  3968 ;;      Locals:         0       0       0       0       0       0       0       0       0       0       0       0       
      +0       0       0       0       0       0       0       0       0       0       0       0       0       0       0
  3969 ;;      Temps:          0       0       0       0       0       0       0       0       0       0       0       0       
      +0       0       0       0       0       0       0       0       0       0       0       0       0       0       0
  3970 ;;      Totals:         2       0       0       0       0       0       0       0       0       0       0       0       
      +0       0       0       0       0       0       0       0       0       0       0       0       0       0       0
  3971 ;;Total ram usage:        2 bytes
  3972 ;; Hardware stack levels used:    1
  3973 ;; This function calls:
  3974 ;;		Nothing
  3975 ;; This function is called by:
  3976 ;;		_EUSART1_Initialize
  3977 ;; This function uses a non-reentrant model
  3978 ;;
  3979                           
  3980                           
  3981                           ;psect for function _EUSART1_SetOverrunErrorHandler
  3982  0170                     _EUSART1_SetOverrunErrorHandler:
  3983  0170                     l2708:	
  3984                           ;incstack = 0
  3985                           ; Regs used in _EUSART1_SetOverrunErrorHandler: [wreg]
  3986                           
  3987                           
  3988                           ;mcc_generated_files/eusart1.c: 171:     EUSART1_OverrunErrorHandler = interruptHandler;
  3989  0170  0871               	movf	EUSART1_SetOverrunErrorHandler@interruptHandler+1,w
  3990  0171  0141               	movlb	1	; select bank1
  3991  0172  00E9               	movwf	(_EUSART1_OverrunErrorHandler+1)^(0+128)
  3992  0173  0870               	movf	EUSART1_SetOverrunErrorHandler@interruptHandler,w
  3993  0174  00E8               	movwf	_EUSART1_OverrunErrorHandler^(0+128)
  3994  0175                     l755:
  3995  0175  0008               	return
  3996  0176                     __end_of_EUSART1_SetOverrunErrorHandler:
  3997                           
  3998                           	psect	text8
  3999  016A                     __ptext8:	
  4000 ;; *************** function _EUSART1_SetFramingErrorHandler *****************
  4001 ;; Defined at:
  4002 ;;		line 166 in file "mcc_generated_files/eusart1.c"
  4003 ;; Parameters:    Size  Location     Type
  4004 ;;  interruptHan    2    0[COMMON] PTR FTN()void 
  4005 ;;		 -> EUSART1_DefaultFramingErrorHandler(1), 
  4006 ;; Auto vars:     Size  Location     Type
  4007 ;;		None
  4008 ;; Return value:  Size  Location     Type
  4009 ;;                  1    wreg      void 
  4010 ;; Registers used:
  4011 ;;		wreg
  4012 ;; Tracked objects:
  4013 ;;		On entry : 0/0
  4014 ;;		On exit  : 0/0
  4015 ;;		Unchanged: 0/0
  4016 ;; Data sizes:     COMMON   BANK0   BANK1   BANK2   BANK3   BANK4   BANK5   BANK6   BANK7   BANK8   BANK9  BANK10  BANK1
      +1  BANK12  BANK13  BANK14  BANK15  BANK16  BANK17  BANK18  BANK19  BANK20  BANK21  BANK22  BANK23  BANK24  BANK25
  4017 ;;      Params:         2       0       0       0       0       0       0       0       0       0       0       0       
      +0       0       0       0       0       0       0       0       0       0       0       0       0       0       0
  4018 ;;      Locals:         0       0       0       0       0       0       0       0       0       0       0       0       
      +0       0       0       0       0       0       0       0       0       0       0       0       0       0       0
  4019 ;;      Temps:          0       0       0       0       0       0       0       0       0       0       0       0       
      +0       0       0       0       0       0       0       0       0       0       0       0       0       0       0
  4020 ;;      Totals:         2       0       0       0       0       0       0       0       0       0       0       0       
      +0       0       0       0       0       0       0       0       0       0       0       0       0       0       0
  4021 ;;Total ram usage:        2 bytes
  4022 ;; Hardware stack levels used:    1
  4023 ;; This function calls:
  4024 ;;		Nothing
  4025 ;; This function is called by:
  4026 ;;		_EUSART1_Initialize
  4027 ;; This function uses a non-reentrant model
  4028 ;;
  4029                           
  4030                           
  4031                           ;psect for function _EUSART1_SetFramingErrorHandler
  4032  016A                     _EUSART1_SetFramingErrorHandler:
  4033  016A                     l2706:	
  4034                           ;incstack = 0
  4035                           ; Regs used in _EUSART1_SetFramingErrorHandler: [wreg]
  4036                           
  4037                           
  4038                           ;mcc_generated_files/eusart1.c: 167:     EUSART1_FramingErrorHandler = interruptHandler;
  4039  016A  0871               	movf	EUSART1_SetFramingErrorHandler@interruptHandler+1,w
  4040  016B  0141               	movlb	1	; select bank1
  4041  016C  00EB               	movwf	(_EUSART1_FramingErrorHandler+1)^(0+128)
  4042  016D  0870               	movf	EUSART1_SetFramingErrorHandler@interruptHandler,w
  4043  016E  00EA               	movwf	_EUSART1_FramingErrorHandler^(0+128)
  4044  016F                     l752:
  4045  016F  0008               	return
  4046  0170                     __end_of_EUSART1_SetFramingErrorHandler:
  4047                           
  4048                           	psect	text9
  4049  0164                     __ptext9:	
  4050 ;; *************** function _EUSART1_SetErrorHandler *****************
  4051 ;; Defined at:
  4052 ;;		line 174 in file "mcc_generated_files/eusart1.c"
  4053 ;; Parameters:    Size  Location     Type
  4054 ;;  interruptHan    2    0[COMMON] PTR FTN()void 
  4055 ;;		 -> EUSART1_DefaultErrorHandler(1), 
  4056 ;; Auto vars:     Size  Location     Type
  4057 ;;		None
  4058 ;; Return value:  Size  Location     Type
  4059 ;;                  1    wreg      void 
  4060 ;; Registers used:
  4061 ;;		wreg
  4062 ;; Tracked objects:
  4063 ;;		On entry : 0/0
  4064 ;;		On exit  : 0/0
  4065 ;;		Unchanged: 0/0
  4066 ;; Data sizes:     COMMON   BANK0   BANK1   BANK2   BANK3   BANK4   BANK5   BANK6   BANK7   BANK8   BANK9  BANK10  BANK1
      +1  BANK12  BANK13  BANK14  BANK15  BANK16  BANK17  BANK18  BANK19  BANK20  BANK21  BANK22  BANK23  BANK24  BANK25
  4067 ;;      Params:         2       0       0       0       0       0       0       0       0       0       0       0       
      +0       0       0       0       0       0       0       0       0       0       0       0       0       0       0
  4068 ;;      Locals:         0       0       0       0       0       0       0       0       0       0       0       0       
      +0       0       0       0       0       0       0       0       0       0       0       0       0       0       0
  4069 ;;      Temps:          0       0       0       0       0       0       0       0       0       0       0       0       
      +0       0       0       0       0       0       0       0       0       0       0       0       0       0       0
  4070 ;;      Totals:         2       0       0       0       0       0       0       0       0       0       0       0       
      +0       0       0       0       0       0       0       0       0       0       0       0       0       0       0
  4071 ;;Total ram usage:        2 bytes
  4072 ;; Hardware stack levels used:    1
  4073 ;; This function calls:
  4074 ;;		Nothing
  4075 ;; This function is called by:
  4076 ;;		_EUSART1_Initialize
  4077 ;; This function uses a non-reentrant model
  4078 ;;
  4079                           
  4080                           
  4081                           ;psect for function _EUSART1_SetErrorHandler
  4082  0164                     _EUSART1_SetErrorHandler:
  4083  0164                     l2710:	
  4084                           ;incstack = 0
  4085                           ; Regs used in _EUSART1_SetErrorHandler: [wreg]
  4086                           
  4087                           
  4088                           ;mcc_generated_files/eusart1.c: 175:     EUSART1_ErrorHandler = interruptHandler;
  4089  0164  0871               	movf	EUSART1_SetErrorHandler@interruptHandler+1,w
  4090  0165  0141               	movlb	1	; select bank1
  4091  0166  00E7               	movwf	(_EUSART1_ErrorHandler+1)^(0+128)
  4092  0167  0870               	movf	EUSART1_SetErrorHandler@interruptHandler,w
  4093  0168  00E6               	movwf	_EUSART1_ErrorHandler^(0+128)
  4094  0169                     l758:
  4095  0169  0008               	return
  4096  016A                     __end_of_EUSART1_SetErrorHandler:
  4097                           
  4098                           	psect	text10
  4099  02DC                     __ptext10:	
  4100 ;; *************** function _I2C_Scan *****************
  4101 ;; Defined at:
  4102 ;;		line 15 in file "../../Lib/I2C/I2C.c"
  4103 ;; Parameters:    Size  Location     Type
  4104 ;;		None
  4105 ;; Auto vars:     Size  Location     Type
  4106 ;;  i               1    1[BANK1 ] unsigned char 
  4107 ;;  ACK_bit         1    0[BANK1 ] _Bool 
  4108 ;; Return value:  Size  Location     Type
  4109 ;;                  1    wreg      unsigned char 
  4110 ;; Registers used:
  4111 ;;		wreg, fsr0l, fsr0h, fsr1l, fsr1h, status,2, status,0, pclath, cstack
  4112 ;; Tracked objects:
  4113 ;;		On entry : 0/0
  4114 ;;		On exit  : 0/0
  4115 ;;		Unchanged: 0/0
  4116 ;; Data sizes:     COMMON   BANK0   BANK1   BANK2   BANK3   BANK4   BANK5   BANK6   BANK7   BANK8   BANK9  BANK10  BANK1
      +1  BANK12  BANK13  BANK14  BANK15  BANK16  BANK17  BANK18  BANK19  BANK20  BANK21  BANK22  BANK23  BANK24  BANK25
  4117 ;;      Params:         0       0       0       0       0       0       0       0       0       0       0       0       
      +0       0       0       0       0       0       0       0       0       0       0       0       0       0       0
  4118 ;;      Locals:         0       0       2       0       0       0       0       0       0       0       0       0       
      +0       0       0       0       0       0       0       0       0       0       0       0       0       0       0
  4119 ;;      Temps:          0       2       0       0       0       0       0       0       0       0       0       0       
      +0       0       0       0       0       0       0       0       0       0       0       0       0       0       0
  4120 ;;      Totals:         0       2       2       0       0       0       0       0       0       0       0       0       
      +0       0       0       0       0       0       0       0       0       0       0       0       0       0       0
  4121 ;;Total ram usage:        4 bytes
  4122 ;; Hardware stack levels used:    1
  4123 ;; Hardware stack levels required when called:    9
  4124 ;; This function calls:
  4125 ;;		_Send_I2C_ControlByte
  4126 ;;		_Send_I2C_StartBit
  4127 ;;		_printf
  4128 ;; This function is called by:
  4129 ;;		_main
  4130 ;; This function uses a non-reentrant model
  4131 ;;
  4132                           
  4133                           
  4134                           ;psect for function _I2C_Scan
  4135  02DC                     _I2C_Scan:
  4136  02DC                     l2848:	
  4137                           ;incstack = 0
  4138                           ; Regs used in _I2C_Scan: [wreg-fsr1h+status,2+status,0+pclath+cstack]
  4139                           
  4140  02DC                     l2850:
  4141                           
  4142                           ;../../Lib/I2C/I2C.c: 19:     for(uint8_t i=0; i<=127; i++){
  4143  02DC  0141               	movlb	1	; select bank1
  4144  02DD  01ED               	clrf	I2C_Scan@i^(0+128)
  4145  02DE                     l2856:
  4146                           
  4147                           ;../../Lib/I2C/I2C.c: 20:         Send_I2C_StartBit();
  4148  02DE  3181  2194  3182   	fcall	_Send_I2C_StartBit
  4149  02E1                     l2858:
  4150                           
  4151                           ;../../Lib/I2C/I2C.c: 21:         Send_I2C_ControlByte(i, 0);
  4152  02E1  01F0               	clrf	Send_I2C_ControlByte@RW_bit
  4153  02E2  0141               	movlb	1	; select bank1
  4154  02E3  086D               	movf	I2C_Scan@i^(0+128),w
  4155  02E4  3181  21B2  3182   	fcall	_Send_I2C_ControlByte
  4156  02E7                     l2860:
  4157                           
  4158                           ;../../Lib/I2C/I2C.c: 22:         ACK_bit = SSP1CON2bits.ACKSTAT;
  4159  02E7  3000               	movlw	0
  4160  02E8  0143               	movlb	3	; select bank3
  4161  02E9  1B11               	btfsc	17,6	;volatile
  4162  02EA  3001               	movlw	1
  4163  02EB  0141               	movlb	1	; select bank1
  4164  02EC  00EC               	movwf	I2C_Scan@ACK_bit^(0+128)
  4165  02ED                     l2862:
  4166                           
  4167                           ;../../Lib/I2C/I2C.c: 24:         if(ACK_bit==0){
  4168  02ED  086C               	movf	I2C_Scan@ACK_bit^(0+128),w
  4169  02EE  1D03               	btfss	3,2
  4170  02EF  2AF1               	goto	u1581
  4171  02F0  2AF2               	goto	u1580
  4172  02F1                     u1581:
  4173  02F1  2B04               	goto	l2868
  4174  02F2                     u1580:
  4175  02F2                     l2864:
  4176                           
  4177                           ;../../Lib/I2C/I2C.c: 26:                 printf("Device Address: %d\n", i);
  4178  02F2  303A               	movlw	low (STR_1| (0+32768))
  4179  02F3  0140               	movlb	0	; select bank0
  4180  02F4  00E6               	movwf	printf@fmt
  4181  02F5  3088               	movlw	high (STR_1| (0+32768))
  4182  02F6  00E7               	movwf	printf@fmt+1
  4183  02F7  0141               	movlb	1	; select bank1
  4184  02F8  086D               	movf	I2C_Scan@i^(0+128),w
  4185  02F9  0140               	movlb	0	; select bank0
  4186  02FA  00EE               	movwf	??_I2C_Scan
  4187  02FB  01EF               	clrf	??_I2C_Scan+1
  4188  02FC  086E               	movf	??_I2C_Scan,w
  4189  02FD  00E8               	movwf	?_printf+2
  4190  02FE  086F               	movf	??_I2C_Scan+1,w
  4191  02FF  00E9               	movwf	?_printf+3
  4192  0300  3181  21DD  3182   	fcall	_printf
  4193  0303  2B1C               	goto	l25
  4194  0304                     l2868:
  4195                           
  4196                           ;../../Lib/I2C/I2C.c: 30:         _delay((unsigned long)((1)*(4000000/4000.0)));
  4197  0304  30C8               	movlw	200
  4198  0305                     u1927:
  4199  0305  3200               	nop2
  4200  0306  0B89               	decfsz	9,f
  4201  0307  2B05               	goto	u1927
  4202  0308                     l2870:
  4203                           
  4204                           ;../../Lib/I2C/I2C.c: 31:     }
  4205  0308  3001               	movlw	1
  4206  0309  0140               	movlb	0	; select bank0
  4207  030A  00EE               	movwf	??_I2C_Scan
  4208  030B  086E               	movf	??_I2C_Scan,w
  4209  030C  0141               	movlb	1	; select bank1
  4210  030D  07ED               	addwf	I2C_Scan@i^(0+128),f
  4211  030E                     l2872:
  4212  030E  3080               	movlw	128
  4213  030F  026D               	subwf	I2C_Scan@i^(0+128),w
  4214  0310  1C03               	skipc
  4215  0311  2B13               	goto	u1591
  4216  0312  2B14               	goto	u1590
  4217  0313                     u1591:
  4218  0313  2ADE               	goto	l2856
  4219  0314                     u1590:
  4220  0314                     l2874:
  4221                           
  4222                           ;../../Lib/I2C/I2C.c: 33:         printf("Device Address not found\n");
  4223  0314  3020               	movlw	low (STR_2| (0+32768))
  4224  0315  0140               	movlb	0	; select bank0
  4225  0316  00E6               	movwf	printf@fmt
  4226  0317  3088               	movlw	high (STR_2| (0+32768))
  4227  0318  00E7               	movwf	printf@fmt+1
  4228  0319  3181  21DD  3182   	fcall	_printf
  4229  031C                     l25:
  4230  031C  0008               	return
  4231  031D                     __end_of_I2C_Scan:
  4232                           
  4233                           	psect	text11
  4234  01DD                     __ptext11:	
  4235 ;; *************** function _printf *****************
  4236 ;; Defined at:
  4237 ;;		line 5 in file "D:\program files\Microchip\xc8\v2.31\pic\sources\c99\common\printf.c"
  4238 ;; Parameters:    Size  Location     Type
  4239 ;;  fmt             2   70[BANK0 ] PTR const unsigned char 
  4240 ;;		 -> STR_2(26), STR_1(20), 
  4241 ;; Auto vars:     Size  Location     Type
  4242 ;;  ret             2    0        int 
  4243 ;;  ap              1   77[BANK0 ] PTR void [1]
  4244 ;;		 -> ?_printf(2), 
  4245 ;; Return value:  Size  Location     Type
  4246 ;;                  2   70[BANK0 ] int 
  4247 ;; Registers used:
  4248 ;;		wreg, fsr0l, fsr0h, fsr1l, fsr1h, status,2, status,0, pclath, cstack
  4249 ;; Tracked objects:
  4250 ;;		On entry : 0/0
  4251 ;;		On exit  : 0/0
  4252 ;;		Unchanged: 0/0
  4253 ;; Data sizes:     COMMON   BANK0   BANK1   BANK2   BANK3   BANK4   BANK5   BANK6   BANK7   BANK8   BANK9  BANK10  BANK1
      +1  BANK12  BANK13  BANK14  BANK15  BANK16  BANK17  BANK18  BANK19  BANK20  BANK21  BANK22  BANK23  BANK24  BANK25
  4254 ;;      Params:         0       4       0       0       0       0       0       0       0       0       0       0       
      +0       0       0       0       0       0       0       0       0       0       0       0       0       0       0
  4255 ;;      Locals:         0       3       0       0       0       0       0       0       0       0       0       0       
      +0       0       0       0       0       0       0       0       0       0       0       0       0       0       0
  4256 ;;      Temps:          0       1       0       0       0       0       0       0       0       0       0       0       
      +0       0       0       0       0       0       0       0       0       0       0       0       0       0       0
  4257 ;;      Totals:         0       8       0       0       0       0       0       0       0       0       0       0       
      +0       0       0       0       0       0       0       0       0       0       0       0       0       0       0
  4258 ;;Total ram usage:        8 bytes
  4259 ;; Hardware stack levels used:    1
  4260 ;; Hardware stack levels required when called:    8
  4261 ;; This function calls:
  4262 ;;		_vfprintf
  4263 ;; This function is called by:
  4264 ;;		_I2C_Scan
  4265 ;; This function uses a non-reentrant model
  4266 ;;
  4267                           
  4268                           
  4269                           ;psect for function _printf
  4270  01DD                     _printf:
  4271  01DD                     l2730:	
  4272                           ;incstack = 0
  4273                           ; Regs used in _printf: [wreg-fsr1h+status,2+status,0+pclath+cstack]
  4274                           
  4275  01DD  3068               	movlw	(low ((?_printf| 0+2)))& (0+255)
  4276  01DE  0140               	movlb	0	; select bank0
  4277  01DF  00EA               	movwf	??_printf
  4278  01E0  086A               	movf	??_printf,w
  4279  01E1  00ED               	movwf	printf@ap
  4280  01E2                     l2732:
  4281  01E2  0867               	movf	printf@fmt+1,w
  4282  01E3  00DF               	movwf	vfprintf@fmt+1
  4283  01E4  0866               	movf	printf@fmt,w
  4284  01E5  00DE               	movwf	vfprintf@fmt
  4285  01E6  306D               	movlw	(low (printf@ap| 0))& (0+255)
  4286  01E7  00EA               	movwf	??_printf
  4287  01E8  086A               	movf	??_printf,w
  4288  01E9  00E0               	movwf	vfprintf@ap
  4289  01EA  3000               	movlw	0
  4290  01EB  3182  226C  3181   	fcall	_vfprintf
  4291  01EE                     l1307:
  4292  01EE  0008               	return
  4293  01EF                     __end_of_printf:
  4294                           
  4295                           	psect	text12
  4296  026C                     __ptext12:	
  4297 ;; *************** function _vfprintf *****************
  4298 ;; Defined at:
  4299 ;;		line 1390 in file "D:\program files\Microchip\xc8\v2.31\pic\sources\c99\common\doprnt.c"
  4300 ;; Parameters:    Size  Location     Type
  4301 ;;  fp              1    wreg     PTR struct _IO_FILE
  4302 ;;		 -> NULL(0), 
  4303 ;;  fmt             2   62[BANK0 ] PTR const unsigned char 
  4304 ;;		 -> STR_2(26), STR_1(20), 
  4305 ;;  ap              1   64[BANK0 ] PTR PTR void 
  4306 ;;		 -> printf@ap(1), 
  4307 ;; Auto vars:     Size  Location     Type
  4308 ;;  fp              1   67[BANK0 ] PTR struct _IO_FILE
  4309 ;;		 -> NULL(0), 
  4310 ;;  cfmt            2   68[BANK0 ] PTR unsigned char 
  4311 ;;		 -> STR_2(26), STR_1(20), 
  4312 ;; Return value:  Size  Location     Type
  4313 ;;                  2   62[BANK0 ] int 
  4314 ;; Registers used:
  4315 ;;		wreg, fsr0l, fsr0h, fsr1l, fsr1h, status,2, status,0, pclath, cstack
  4316 ;; Tracked objects:
  4317 ;;		On entry : 0/0
  4318 ;;		On exit  : 0/0
  4319 ;;		Unchanged: 0/0
  4320 ;; Data sizes:     COMMON   BANK0   BANK1   BANK2   BANK3   BANK4   BANK5   BANK6   BANK7   BANK8   BANK9  BANK10  BANK1
      +1  BANK12  BANK13  BANK14  BANK15  BANK16  BANK17  BANK18  BANK19  BANK20  BANK21  BANK22  BANK23  BANK24  BANK25
  4321 ;;      Params:         0       3       0       0       0       0       0       0       0       0       0       0       
      +0       0       0       0       0       0       0       0       0       0       0       0       0       0       0
  4322 ;;      Locals:         0       3       0       0       0       0       0       0       0       0       0       0       
      +0       0       0       0       0       0       0       0       0       0       0       0       0       0       0
  4323 ;;      Temps:          0       2       0       0       0       0       0       0       0       0       0       0       
      +0       0       0       0       0       0       0       0       0       0       0       0       0       0       0
  4324 ;;      Totals:         0       8       0       0       0       0       0       0       0       0       0       0       
      +0       0       0       0       0       0       0       0       0       0       0       0       0       0       0
  4325 ;;Total ram usage:        8 bytes
  4326 ;; Hardware stack levels used:    1
  4327 ;; Hardware stack levels required when called:    7
  4328 ;; This function calls:
  4329 ;;		_vfpfcnvrt
  4330 ;; This function is called by:
  4331 ;;		_printf
  4332 ;; This function uses a non-reentrant model
  4333 ;;
  4334                           
  4335                           
  4336                           ;psect for function _vfprintf
  4337  026C                     _vfprintf:
  4338                           
  4339                           ;incstack = 0
  4340                           ; Regs used in _vfprintf: [wreg-fsr1h+status,2+status,0+pclath+cstack]
  4341                           ;vfprintf@fp stored from wreg
  4342  026C  0140               	movlb	0	; select bank0
  4343  026D  00E3               	movwf	vfprintf@fp
  4344  026E                     l2712:
  4345                           
  4346                           ;D:\program files\Microchip\xc8\v2.31\pic\sources\c99\common\doprnt.c: 1390: int vfprint
      +                          f(FILE *fp, const char *fmt, va_list ap);D:\program files\Microchip\xc8\v2.31\pic\source
      +                          s\c99\common\doprnt.c: 1391: {;D:\program files\Microchip\xc8\v2.31\pic\sources\c99\comm
      +                          on\doprnt.c: 1393:     char *cfmt;;D:\program files\Microchip\xc8\v2.31\pic\sources\c99\
      +                          common\doprnt.c: 1395:     cfmt = (char *)fmt;
  4347  026E  085F               	movf	vfprintf@fmt+1,w
  4348  026F  00E5               	movwf	vfprintf@cfmt+1
  4349  0270  085E               	movf	vfprintf@fmt,w
  4350  0271  00E4               	movwf	vfprintf@cfmt
  4351  0272                     l2714:
  4352                           
  4353                           ;D:\program files\Microchip\xc8\v2.31\pic\sources\c99\common\doprnt.c: 1396:     nout = 
      +                          0;
  4354  0272  0141               	movlb	1	; select bank1
  4355  0273  01BD               	clrf	_nout^(0+128)
  4356  0274  01BE               	clrf	(_nout+1)^(0+128)
  4357                           
  4358                           ;D:\program files\Microchip\xc8\v2.31\pic\sources\c99\common\doprnt.c: 1397:     while (
      +                          *cfmt) {
  4359  0275  2A8A               	goto	l2718
  4360  0276                     l2716:
  4361                           
  4362                           ;D:\program files\Microchip\xc8\v2.31\pic\sources\c99\common\doprnt.c: 1398:         nou
      +                          t += vfpfcnvrt(fp, &cfmt, ap);
  4363  0276  3064               	movlw	(low (vfprintf@cfmt| 0))& (0+255)
  4364  0277  00E1               	movwf	??_vfprintf
  4365  0278  0861               	movf	??_vfprintf,w
  4366  0279  00CE               	movwf	vfpfcnvrt@fmt
  4367  027A  0860               	movf	vfprintf@ap,w
  4368  027B  00E2               	movwf	??_vfprintf+1
  4369  027C  0862               	movf	??_vfprintf+1,w
  4370  027D  00CF               	movwf	vfpfcnvrt@ap
  4371  027E  0863               	movf	vfprintf@fp,w
  4372  027F  3183  23C1  3182   	fcall	_vfpfcnvrt
  4373  0282  0140               	movlb	0	; select bank0
  4374  0283  084E               	movf	?_vfpfcnvrt,w
  4375  0284  0141               	movlb	1	; select bank1
  4376  0285  07BD               	addwf	_nout^(0+128),f
  4377  0286  0140               	movlb	0	; select bank0
  4378  0287  084F               	movf	?_vfpfcnvrt+1,w
  4379  0288  0141               	movlb	1	; select bank1
  4380  0289  3DBE               	addwfc	(_nout+1)^(0+128),f
  4381  028A                     l2718:
  4382                           
  4383                           ;D:\program files\Microchip\xc8\v2.31\pic\sources\c99\common\doprnt.c: 1397:     while (
      +                          *cfmt) {
  4384  028A  0140               	movlb	0	; select bank0
  4385  028B  0864               	movf	vfprintf@cfmt,w
  4386  028C  0084               	movwf	4
  4387  028D  0865               	movf	vfprintf@cfmt+1,w
  4388  028E  0085               	movwf	5
  4389  028F  0012               	moviw fsr0++
  4390  0290  1D03               	btfss	3,2
  4391  0291  2A93               	goto	u1541
  4392  0292  2A94               	goto	u1540
  4393  0293                     u1541:
  4394  0293  2A76               	goto	l2716
  4395  0294                     u1540:
  4396  0294                     l2720:
  4397                           
  4398                           ;D:\program files\Microchip\xc8\v2.31\pic\sources\c99\common\doprnt.c: 1400:     return 
      +                          nout;
  4399  0294  0141               	movlb	1	; select bank1
  4400  0295  083E               	movf	(_nout+1)^(0+128),w
  4401  0296  0140               	movlb	0	; select bank0
  4402  0297  00DF               	movwf	?_vfprintf+1
  4403  0298  0141               	movlb	1	; select bank1
  4404  0299  083D               	movf	_nout^(0+128),w
  4405  029A  0140               	movlb	0	; select bank0
  4406  029B  00DE               	movwf	?_vfprintf
  4407  029C                     l1379:
  4408  029C  0008               	return
  4409  029D                     __end_of_vfprintf:
  4410                           
  4411                           	psect	text13
  4412  03C1                     __ptext13:	
  4413 ;; *************** function _vfpfcnvrt *****************
  4414 ;; Defined at:
  4415 ;;		line 692 in file "D:\program files\Microchip\xc8\v2.31\pic\sources\c99\common\doprnt.c"
  4416 ;; Parameters:    Size  Location     Type
  4417 ;;  fp              1    wreg     PTR struct _IO_FILE
  4418 ;;		 -> NULL(0), 
  4419 ;;  fmt             1   46[BANK0 ] PTR PTR unsigned char 
  4420 ;;		 -> vfprintf@cfmt(2), 
  4421 ;;  ap              1   47[BANK0 ] PTR PTR void 
  4422 ;;		 -> printf@ap(1), 
  4423 ;; Auto vars:     Size  Location     Type
  4424 ;;  fp              1   61[BANK0 ] PTR struct _IO_FILE
  4425 ;;		 -> NULL(0), 
  4426 ;;  ll              8   53[BANK0 ] long long 
  4427 ;;  llu             8    0        unsigned long long 
  4428 ;;  f               4    0        unsigned long long 
  4429 ;;  ct              3    0        unsigned char [3]
  4430 ;;  vp              2    0        PTR void 
  4431 ;;  i               2    0        int 
  4432 ;;  done            2    0        int 
  4433 ;;  cp              2    0        PTR unsigned char 
  4434 ;;  c               1    0        unsigned char 
  4435 ;; Return value:  Size  Location     Type
  4436 ;;                  2   46[BANK0 ] int 
  4437 ;; Registers used:
  4438 ;;		wreg, fsr0l, fsr0h, fsr1l, fsr1h, status,2, status,0, pclath, cstack
  4439 ;; Tracked objects:
  4440 ;;		On entry : 0/0
  4441 ;;		On exit  : 0/0
  4442 ;;		Unchanged: 0/0
  4443 ;; Data sizes:     COMMON   BANK0   BANK1   BANK2   BANK3   BANK4   BANK5   BANK6   BANK7   BANK8   BANK9  BANK10  BANK1
      +1  BANK12  BANK13  BANK14  BANK15  BANK16  BANK17  BANK18  BANK19  BANK20  BANK21  BANK22  BANK23  BANK24  BANK25
  4444 ;;      Params:         0       2       0       0       0       0       0       0       0       0       0       0       
      +0       0       0       0       0       0       0       0       0       0       0       0       0       0       0
  4445 ;;      Locals:         0       9       0       0       0       0       0       0       0       0       0       0       
      +0       0       0       0       0       0       0       0       0       0       0       0       0       0       0
  4446 ;;      Temps:          0       5       0       0       0       0       0       0       0       0       0       0       
      +0       0       0       0       0       0       0       0       0       0       0       0       0       0       0
  4447 ;;      Totals:         0      16       0       0       0       0       0       0       0       0       0       0       
      +0       0       0       0       0       0       0       0       0       0       0       0       0       0       0
  4448 ;;Total ram usage:       16 bytes
  4449 ;; Hardware stack levels used:    1
  4450 ;; Hardware stack levels required when called:    6
  4451 ;; This function calls:
  4452 ;;		_dtoa
  4453 ;;		_fputc
  4454 ;; This function is called by:
  4455 ;;		_vfprintf
  4456 ;; This function uses a non-reentrant model
  4457 ;;
  4458                           
  4459                           
  4460                           ;psect for function _vfpfcnvrt
  4461  03C1                     _vfpfcnvrt:
  4462                           
  4463                           ;incstack = 0
  4464                           ; Regs used in _vfpfcnvrt: [wreg-fsr1h+status,2+status,0+pclath+cstack]
  4465                           ;vfpfcnvrt@fp stored from wreg
  4466  03C1  0140               	movlb	0	; select bank0
  4467  03C2  00DD               	movwf	vfpfcnvrt@fp
  4468  03C3                     l2656:
  4469                           
  4470                           ;D:\program files\Microchip\xc8\v2.31\pic\sources\c99\common\doprnt.c: 692: static int v
      +                          fpfcnvrt(FILE *fp, char *fmt[], va_list ap);D:\program files\Microchip\xc8\v2.31\pic\sou
      +                          rces\c99\common\doprnt.c: 693: {;D:\program files\Microchip\xc8\v2.31\pic\sources\c99\co
      +                          mmon\doprnt.c: 694:     char c, *cp, ct[3];;D:\program files\Microchip\xc8\v2.31\pic\sou
      +                          rces\c99\common\doprnt.c: 695:     int done, i;;D:\program files\Microchip\xc8\v2.31\pic
      +                          \sources\c99\common\doprnt.c: 696:     long long ll;;D:\program files\Microchip\xc8\v2.3
      +                          1\pic\sources\c99\common\doprnt.c: 697:     unsigned long long llu;
  4471  03C3  084E               	movf	vfpfcnvrt@fmt,w
  4472  03C4  0086               	movwf	6
  4473  03C5  0187               	clrf	7
  4474  03C6  3F40               	moviw [0]fsr1
  4475  03C7  00D0               	movwf	??_vfpfcnvrt
  4476  03C8  3F41               	moviw [1]fsr1
  4477  03C9  00D1               	movwf	??_vfpfcnvrt+1
  4478  03CA  0850               	movf	??_vfpfcnvrt,w
  4479  03CB  0084               	movwf	4
  4480  03CC  0851               	movf	??_vfpfcnvrt+1,w
  4481  03CD  0085               	movwf	5
  4482  03CE  0012               	moviw fsr0++
  4483  03CF  3A25               	xorlw	37
  4484  03D0  1D03               	btfss	3,2
  4485  03D1  2BD3               	goto	u1491
  4486  03D2  2BD4               	goto	u1490
  4487  03D3                     u1491:
  4488  03D3  2C78               	goto	l2692
  4489  03D4                     u1490:
  4490  03D4                     l2658:
  4491                           
  4492                           ;D:\program files\Microchip\xc8\v2.31\pic\sources\c99\common\doprnt.c: 703:         ++*f
      +                          mt;
  4493  03D4  084E               	movf	vfpfcnvrt@fmt,w
  4494  03D5  0086               	movwf	6
  4495  03D6  0187               	clrf	7
  4496  03D7  3001               	movlw	1
  4497  03D8  0781               	addwf	1,f
  4498  03D9  3141               	addfsr 1,1
  4499  03DA  1803               	skipnc
  4500  03DB  0A81               	incf	1,f
  4501  03DC                     l2660:
  4502                           
  4503                           ;D:\program files\Microchip\xc8\v2.31\pic\sources\c99\common\doprnt.c: 705:         flag
      +                          s = width = 0;
  4504  03DC  0141               	movlb	1	; select bank1
  4505  03DD  01BF               	clrf	_width^(0+128)
  4506  03DE  01C0               	clrf	(_width+1)^(0+128)
  4507  03DF  01C3               	clrf	_flags^(0+128)
  4508  03E0  01C4               	clrf	(_flags+1)^(0+128)
  4509  03E1                     l2662:
  4510                           
  4511                           ;D:\program files\Microchip\xc8\v2.31\pic\sources\c99\common\doprnt.c: 706:         prec
      +                           = -1;
  4512  03E1  30FF               	movlw	255
  4513  03E2  00C1               	movwf	_prec^(0+128)
  4514  03E3  30FF               	movlw	255
  4515  03E4  00C2               	movwf	(_prec^(0+128)+1)
  4516  03E5                     l2664:
  4517                           
  4518                           ;D:\program files\Microchip\xc8\v2.31\pic\sources\c99\common\doprnt.c: 847:         if (
      +                          (*fmt[0] == 'd') || (*fmt[0] == 'i')) {
  4519  03E5  0140               	movlb	0	; select bank0
  4520  03E6  084E               	movf	vfpfcnvrt@fmt,w
  4521  03E7  0086               	movwf	6
  4522  03E8  0187               	clrf	7
  4523  03E9  3F40               	moviw [0]fsr1
  4524  03EA  00D0               	movwf	??_vfpfcnvrt
  4525  03EB  3F41               	moviw [1]fsr1
  4526  03EC  00D1               	movwf	??_vfpfcnvrt+1
  4527  03ED  0850               	movf	??_vfpfcnvrt,w
  4528  03EE  0084               	movwf	4
  4529  03EF  0851               	movf	??_vfpfcnvrt+1,w
  4530  03F0  0085               	movwf	5
  4531  03F1  0012               	moviw fsr0++
  4532  03F2  3A64               	xorlw	100
  4533  03F3  1903               	btfsc	3,2
  4534  03F4  2BF6               	goto	u1501
  4535  03F5  2BF7               	goto	u1500
  4536  03F6                     u1501:
  4537  03F6  2C08               	goto	l2668
  4538  03F7                     u1500:
  4539  03F7                     l2666:
  4540  03F7  084E               	movf	vfpfcnvrt@fmt,w
  4541  03F8  0086               	movwf	6
  4542  03F9  0187               	clrf	7
  4543  03FA  3F40               	moviw [0]fsr1
  4544  03FB  00D0               	movwf	??_vfpfcnvrt
  4545  03FC  3F41               	moviw [1]fsr1
  4546  03FD  00D1               	movwf	??_vfpfcnvrt+1
  4547  03FE  0850               	movf	??_vfpfcnvrt,w
  4548  03FF  0084               	movwf	4
  4549  0400  0851               	movf	??_vfpfcnvrt+1,w
  4550  0401  0085               	movwf	5
  4551  0402  0012               	moviw fsr0++
  4552  0403  3A69               	xorlw	105
  4553  0404  1D03               	btfss	3,2
  4554  0405  2C07               	goto	u1511
  4555  0406  2C08               	goto	u1510
  4556  0407                     u1511:
  4557  0407  2C43               	goto	l2676
  4558  0408                     u1510:
  4559  0408                     l2668:
  4560                           
  4561                           ;D:\program files\Microchip\xc8\v2.31\pic\sources\c99\common\doprnt.c: 849:             
      +                          ++*fmt;
  4562  0408  084E               	movf	vfpfcnvrt@fmt,w
  4563  0409  0086               	movwf	6
  4564  040A  0187               	clrf	7
  4565  040B  3001               	movlw	1
  4566  040C  0781               	addwf	1,f
  4567  040D  3141               	addfsr 1,1
  4568  040E  1803               	skipnc
  4569  040F  0A81               	incf	1,f
  4570  0410                     l2670:
  4571                           
  4572                           ;D:\program files\Microchip\xc8\v2.31\pic\sources\c99\common\doprnt.c: 850:             
      +                          ll = (long long)(*(int *)__va_arg(*(int **)ap, (int)0));
  4573  0410  084F               	movf	vfpfcnvrt@ap,w
  4574  0411  0086               	movwf	6
  4575  0412  0187               	clrf	7
  4576  0413  0801               	movf	1,w
  4577  0414  0084               	movwf	4
  4578  0415  0185               	clrf	5
  4579  0416  3002               	movlw	2
  4580  0417  0781               	addwf	1,f
  4581  0418  3F00               	moviw [0]fsr0
  4582  0419  00D0               	movwf	??_vfpfcnvrt
  4583  041A  3F01               	moviw [1]fsr0
  4584  041B  00D1               	movwf	??_vfpfcnvrt+1
  4585  041C  0850               	movf	??_vfpfcnvrt,w
  4586  041D  00D5               	movwf	vfpfcnvrt@ll
  4587  041E  0851               	movf	??_vfpfcnvrt+1,w
  4588  041F  00D6               	movwf	vfpfcnvrt@ll+1
  4589  0420  0D89               	rlf	9,f
  4590  0421  3B89               	subwfb	9,f
  4591  0422  0989               	comf	9,f
  4592  0423  00D7               	movwf	vfpfcnvrt@ll+2
  4593  0424  00D8               	movwf	vfpfcnvrt@ll+3
  4594  0425  00D9               	movwf	vfpfcnvrt@ll+4
  4595  0426  00DA               	movwf	vfpfcnvrt@ll+5
  4596  0427  00DB               	movwf	vfpfcnvrt@ll+6
  4597  0428  00DC               	movwf	vfpfcnvrt@ll+7
  4598  0429                     l2672:
  4599                           
  4600                           ;D:\program files\Microchip\xc8\v2.31\pic\sources\c99\common\doprnt.c: 852:             
      +                          return dtoa(fp, ll);
  4601  0429  0855               	movf	vfpfcnvrt@ll,w
  4602  042A  00B0               	movwf	dtoa@d
  4603  042B  0856               	movf	vfpfcnvrt@ll+1,w
  4604  042C  00B1               	movwf	dtoa@d+1
  4605  042D  0857               	movf	vfpfcnvrt@ll+2,w
  4606  042E  00B2               	movwf	dtoa@d+2
  4607  042F  0858               	movf	vfpfcnvrt@ll+3,w
  4608  0430  00B3               	movwf	dtoa@d+3
  4609  0431  0859               	movf	vfpfcnvrt@ll+4,w
  4610  0432  00B4               	movwf	dtoa@d+4
  4611  0433  085A               	movf	vfpfcnvrt@ll+5,w
  4612  0434  00B5               	movwf	dtoa@d+5
  4613  0435  085B               	movf	vfpfcnvrt@ll+6,w
  4614  0436  00B6               	movwf	dtoa@d+6
  4615  0437  085C               	movf	vfpfcnvrt@ll+7,w
  4616  0438  00B7               	movwf	dtoa@d+7
  4617  0439  085D               	movf	vfpfcnvrt@fp,w
  4618  043A  3186  2687  3183   	fcall	_dtoa
  4619  043D  0140               	movlb	0	; select bank0
  4620  043E  0831               	movf	?_dtoa+1,w
  4621  043F  00CF               	movwf	?_vfpfcnvrt+1
  4622  0440  0830               	movf	?_dtoa,w
  4623  0441  00CE               	movwf	?_vfpfcnvrt
  4624  0442  2C9B               	goto	l1372
  4625  0443                     l2676:
  4626                           
  4627                           ;D:\program files\Microchip\xc8\v2.31\pic\sources\c99\common\doprnt.c: 1372:         if 
      +                          ((*fmt)[0] == '%') {
  4628  0443  084E               	movf	vfpfcnvrt@fmt,w
  4629  0444  0086               	movwf	6
  4630  0445  0187               	clrf	7
  4631  0446  3F40               	moviw [0]fsr1
  4632  0447  00D0               	movwf	??_vfpfcnvrt
  4633  0448  3F41               	moviw [1]fsr1
  4634  0449  00D1               	movwf	??_vfpfcnvrt+1
  4635  044A  0850               	movf	??_vfpfcnvrt,w
  4636  044B  0084               	movwf	4
  4637  044C  0851               	movf	??_vfpfcnvrt+1,w
  4638  044D  0085               	movwf	5
  4639  044E  0012               	moviw fsr0++
  4640  044F  3A25               	xorlw	37
  4641  0450  1D03               	btfss	3,2
  4642  0451  2C53               	goto	u1521
  4643  0452  2C54               	goto	u1520
  4644  0453                     u1521:
  4645  0453  2C6D               	goto	l2686
  4646  0454                     u1520:
  4647  0454                     l2678:
  4648                           
  4649                           ;D:\program files\Microchip\xc8\v2.31\pic\sources\c99\common\doprnt.c: 1373:            
      +                           ++*fmt;
  4650  0454  084E               	movf	vfpfcnvrt@fmt,w
  4651  0455  0086               	movwf	6
  4652  0456  0187               	clrf	7
  4653  0457  3001               	movlw	1
  4654  0458  0781               	addwf	1,f
  4655  0459  3141               	addfsr 1,1
  4656  045A  1803               	skipnc
  4657  045B  0A81               	incf	1,f
  4658  045C                     l2680:
  4659                           
  4660                           ;D:\program files\Microchip\xc8\v2.31\pic\sources\c99\common\doprnt.c: 1374:            
      +                           fputc((int)'%', fp);
  4661  045C  3025               	movlw	37
  4662  045D  00F2               	movwf	fputc@c
  4663  045E  3000               	movlw	0
  4664  045F  00F3               	movwf	fputc@c+1
  4665  0460  085D               	movf	vfpfcnvrt@fp,w
  4666  0461  00D0               	movwf	??_vfpfcnvrt
  4667  0462  0850               	movf	??_vfpfcnvrt,w
  4668  0463  00F4               	movwf	fputc@fp
  4669  0464  3182  229D  3183   	fcall	_fputc
  4670  0467                     l2682:
  4671                           
  4672                           ;D:\program files\Microchip\xc8\v2.31\pic\sources\c99\common\doprnt.c: 1375:            
      +                           return 1;
  4673  0467  3001               	movlw	1
  4674  0468  0140               	movlb	0	; select bank0
  4675  0469  00CE               	movwf	?_vfpfcnvrt
  4676  046A  3000               	movlw	0
  4677  046B  00CF               	movwf	?_vfpfcnvrt+1
  4678  046C  2C9B               	goto	l1372
  4679  046D                     l2686:
  4680                           
  4681                           ;D:\program files\Microchip\xc8\v2.31\pic\sources\c99\common\doprnt.c: 1379:         ++*
      +                          fmt;
  4682  046D  084E               	movf	vfpfcnvrt@fmt,w
  4683  046E  0086               	movwf	6
  4684  046F  0187               	clrf	7
  4685  0470  3001               	movlw	1
  4686  0471  0781               	addwf	1,f
  4687  0472  3141               	addfsr 1,1
  4688  0473  1803               	skipnc
  4689  0474  0A81               	incf	1,f
  4690  0475                     l2688:
  4691                           
  4692                           ;D:\program files\Microchip\xc8\v2.31\pic\sources\c99\common\doprnt.c: 1380:         ret
      +                          urn 0;
  4693  0475  01CE               	clrf	?_vfpfcnvrt
  4694  0476  01CF               	clrf	?_vfpfcnvrt+1
  4695  0477  2C9B               	goto	l1372
  4696  0478                     l2692:
  4697                           
  4698                           ;D:\program files\Microchip\xc8\v2.31\pic\sources\c99\common\doprnt.c: 1384:     fputc((
      +                          int)(*fmt)[0], fp);
  4699  0478  084E               	movf	vfpfcnvrt@fmt,w
  4700  0479  0086               	movwf	6
  4701  047A  0187               	clrf	7
  4702  047B  3F40               	moviw [0]fsr1
  4703  047C  00D0               	movwf	??_vfpfcnvrt
  4704  047D  3F41               	moviw [1]fsr1
  4705  047E  00D1               	movwf	??_vfpfcnvrt+1
  4706  047F  0850               	movf	??_vfpfcnvrt,w
  4707  0480  0084               	movwf	4
  4708  0481  0851               	movf	??_vfpfcnvrt+1,w
  4709  0482  0085               	movwf	5
  4710  0483  0800               	movf	0,w	;code access
  4711  0484  00D2               	movwf	??_vfpfcnvrt+2
  4712  0485  01D3               	clrf	??_vfpfcnvrt+3
  4713  0486  0852               	movf	??_vfpfcnvrt+2,w
  4714  0487  00F2               	movwf	fputc@c
  4715  0488  0853               	movf	??_vfpfcnvrt+3,w
  4716  0489  00F3               	movwf	fputc@c+1
  4717  048A  085D               	movf	vfpfcnvrt@fp,w
  4718  048B  00D4               	movwf	??_vfpfcnvrt+4
  4719  048C  0854               	movf	??_vfpfcnvrt+4,w
  4720  048D  00F4               	movwf	fputc@fp
  4721  048E  3182  229D  3183   	fcall	_fputc
  4722  0491                     l2694:
  4723                           
  4724                           ;D:\program files\Microchip\xc8\v2.31\pic\sources\c99\common\doprnt.c: 1385:     ++*fmt;
  4725  0491  0140               	movlb	0	; select bank0
  4726  0492  084E               	movf	vfpfcnvrt@fmt,w
  4727  0493  0086               	movwf	6
  4728  0494  0187               	clrf	7
  4729  0495  3001               	movlw	1
  4730  0496  0781               	addwf	1,f
  4731  0497  3141               	addfsr 1,1
  4732  0498  1803               	skipnc
  4733  0499  0A81               	incf	1,f
  4734  049A  2C67               	goto	l2682
  4735  049B                     l1372:
  4736  049B  0008               	return
  4737  049C                     __end_of_vfpfcnvrt:
  4738                           
  4739                           	psect	text14
  4740  0687                     __ptext14:	
  4741 ;; *************** function _dtoa *****************
  4742 ;; Defined at:
  4743 ;;		line 287 in file "D:\program files\Microchip\xc8\v2.31\pic\sources\c99\common\doprnt.c"
  4744 ;; Parameters:    Size  Location     Type
  4745 ;;  fp              1    wreg     PTR struct _IO_FILE
  4746 ;;		 -> NULL(0), 
  4747 ;;  d               8   16[BANK0 ] long long 
  4748 ;; Auto vars:     Size  Location     Type
  4749 ;;  fp              1   31[BANK0 ] PTR struct _IO_FILE
  4750 ;;		 -> NULL(0), 
  4751 ;;  n               8   36[BANK0 ] long long 
  4752 ;;  i               2   44[BANK0 ] int 
  4753 ;;  s               2   34[BANK0 ] int 
  4754 ;;  w               2   32[BANK0 ] int 
  4755 ;;  p               2   29[BANK0 ] int 
  4756 ;; Return value:  Size  Location     Type
  4757 ;;                  2   16[BANK0 ] int 
  4758 ;; Registers used:
  4759 ;;		wreg, fsr1l, fsr1h, status,2, status,0, pclath, cstack
  4760 ;; Tracked objects:
  4761 ;;		On entry : 0/0
  4762 ;;		On exit  : 0/0
  4763 ;;		Unchanged: 0/0
  4764 ;; Data sizes:     COMMON   BANK0   BANK1   BANK2   BANK3   BANK4   BANK5   BANK6   BANK7   BANK8   BANK9  BANK10  BANK1
      +1  BANK12  BANK13  BANK14  BANK15  BANK16  BANK17  BANK18  BANK19  BANK20  BANK21  BANK22  BANK23  BANK24  BANK25
  4765 ;;      Params:         0       8       0       0       0       0       0       0       0       0       0       0       
      +0       0       0       0       0       0       0       0       0       0       0       0       0       0       0
  4766 ;;      Locals:         0      19       0       0       0       0       0       0       0       0       0       0       
      +0       0       0       0       0       0       0       0       0       0       0       0       0       0       0
  4767 ;;      Temps:          0       3       0       0       0       0       0       0       0       0       0       0       
      +0       0       0       0       0       0       0       0       0       0       0       0       0       0       0
  4768 ;;      Totals:         0      30       0       0       0       0       0       0       0       0       0       0       
      +0       0       0       0       0       0       0       0       0       0       0       0       0       0       0
  4769 ;;Total ram usage:       30 bytes
  4770 ;; Hardware stack levels used:    1
  4771 ;; Hardware stack levels required when called:    5
  4772 ;; This function calls:
  4773 ;;		___aodiv
  4774 ;;		___aomod
  4775 ;;		_abs
  4776 ;;		_pad
  4777 ;; This function is called by:
  4778 ;;		_vfpfcnvrt
  4779 ;; This function uses a non-reentrant model
  4780 ;;
  4781                           
  4782                           
  4783                           ;psect for function _dtoa
  4784  0687                     _dtoa:
  4785                           
  4786                           ;incstack = 0
  4787                           ; Regs used in _dtoa: [wreg+fsr1l+fsr1h+status,2+status,0+pclath+cstack]
  4788                           ;dtoa@fp stored from wreg
  4789  0687  0140               	movlb	0	; select bank0
  4790  0688  00BF               	movwf	dtoa@fp
  4791  0689                     l2598:
  4792                           
  4793                           ;D:\program files\Microchip\xc8\v2.31\pic\sources\c99\common\doprnt.c: 287: static int d
      +                          toa(FILE *fp, long long d);D:\program files\Microchip\xc8\v2.31\pic\sources\c99\common\d
      +                          oprnt.c: 288: {;D:\program files\Microchip\xc8\v2.31\pic\sources\c99\common\doprnt.c: 28
      +                          9:     int i, p, s, w;;D:\program files\Microchip\xc8\v2.31\pic\sources\c99\common\doprn
      +                          t.c: 290:     long long n;;D:\program files\Microchip\xc8\v2.31\pic\sources\c99\common\d
      +                          oprnt.c: 293:     n = d;
  4794  0689  0830               	movf	dtoa@d,w
  4795  068A  00C4               	movwf	dtoa@n
  4796  068B  0831               	movf	dtoa@d+1,w
  4797  068C  00C5               	movwf	dtoa@n+1
  4798  068D  0832               	movf	dtoa@d+2,w
  4799  068E  00C6               	movwf	dtoa@n+2
  4800  068F  0833               	movf	dtoa@d+3,w
  4801  0690  00C7               	movwf	dtoa@n+3
  4802  0691  0834               	movf	dtoa@d+4,w
  4803  0692  00C8               	movwf	dtoa@n+4
  4804  0693  0835               	movf	dtoa@d+5,w
  4805  0694  00C9               	movwf	dtoa@n+5
  4806  0695  0836               	movf	dtoa@d+6,w
  4807  0696  00CA               	movwf	dtoa@n+6
  4808  0697  0837               	movf	dtoa@d+7,w
  4809  0698  00CB               	movwf	dtoa@n+7
  4810  0699                     l2600:
  4811                           
  4812                           ;D:\program files\Microchip\xc8\v2.31\pic\sources\c99\common\doprnt.c: 294:     s = n < 
      +                          0 ? 1 : 0;
  4813  0699  3044               	movlw	low dtoa@n
  4814  069A  0086               	movwf	6
  4815  069B  3000               	movlw	high dtoa@n
  4816  069C  0087               	movwf	7
  4817  069D  3F47               	moviw [7]fsr1
  4818  069E  00B8               	movwf	??_dtoa
  4819  069F  1BB8               	btfsc	??_dtoa,7
  4820  06A0  2EA2               	goto	u1331
  4821  06A1  2EA4               	goto	u1330
  4822  06A2                     u1331:
  4823  06A2  3001               	movlw	1
  4824  06A3  2EA5               	goto	u1340
  4825  06A4                     u1330:
  4826  06A4  3000               	movlw	0
  4827  06A5                     u1340:
  4828  06A5  0140               	movlb	0	; select bank0
  4829  06A6  00B9               	movwf	??_dtoa+1
  4830  06A7  01BA               	clrf	??_dtoa+2
  4831  06A8  0839               	movf	??_dtoa+1,w
  4832  06A9  00C2               	movwf	dtoa@s
  4833  06AA  083A               	movf	??_dtoa+2,w
  4834  06AB  00C3               	movwf	dtoa@s+1
  4835  06AC                     l2602:
  4836                           
  4837                           ;D:\program files\Microchip\xc8\v2.31\pic\sources\c99\common\doprnt.c: 295:     if (s) {
  4838  06AC  0842               	movf	dtoa@s,w
  4839  06AD  0443               	iorwf	dtoa@s+1,w
  4840  06AE  1903               	btfsc	3,2
  4841  06AF  2EB1               	goto	u1351
  4842  06B0  2EB2               	goto	u1350
  4843  06B1                     u1351:
  4844  06B1  2ED0               	goto	l1342
  4845  06B2                     u1350:
  4846  06B2                     l2604:
  4847                           
  4848                           ;D:\program files\Microchip\xc8\v2.31\pic\sources\c99\common\doprnt.c: 296:         n = 
      +                          -n;
  4849  06B2  09C4               	comf	dtoa@n,f
  4850  06B3  09C5               	comf	dtoa@n+1,f
  4851  06B4  09C6               	comf	dtoa@n+2,f
  4852  06B5  09C7               	comf	dtoa@n+3,f
  4853  06B6  09C8               	comf	dtoa@n+4,f
  4854  06B7  09C9               	comf	dtoa@n+5,f
  4855  06B8  09CA               	comf	dtoa@n+6,f
  4856  06B9  09CB               	comf	dtoa@n+7,f
  4857  06BA  0AC4               	incf	dtoa@n,f
  4858  06BB  1D03               	skipz
  4859  06BC  2ED0               	goto	u136lld
  4860  06BD  0AC5               	incf	dtoa@n+1,f
  4861  06BE  1D03               	skipz
  4862  06BF  2ED0               	goto	u136lld
  4863  06C0  0AC6               	incf	dtoa@n+2,f
  4864  06C1  1D03               	skipz
  4865  06C2  2ED0               	goto	u136lld
  4866  06C3  0AC7               	incf	dtoa@n+3,f
  4867  06C4  1D03               	skipz
  4868  06C5  2ED0               	goto	u136lld
  4869  06C6  0AC8               	incf	dtoa@n+4,f
  4870  06C7  1D03               	skipz
  4871  06C8  2ED0               	goto	u136lld
  4872  06C9  0AC9               	incf	dtoa@n+5,f
  4873  06CA  1D03               	skipz
  4874  06CB  2ED0               	goto	u136lld
  4875  06CC  0ACA               	incf	dtoa@n+6,f
  4876  06CD  1D03               	skipz
  4877  06CE  2ED0               	goto	u136lld
  4878  06CF  0ACB               	incf	dtoa@n+7,f
  4879  06D0                     u136lld:
  4880  06D0                     l1342:	
  4881                           ;D:\program files\Microchip\xc8\v2.31\pic\sources\c99\common\doprnt.c: 297:     }
  4882                           
  4883                           
  4884                           ;D:\program files\Microchip\xc8\v2.31\pic\sources\c99\common\doprnt.c: 300:     if (!(pr
      +                          ec < 0)) {
  4885  06D0  0141               	movlb	1	; select bank1
  4886  06D1  1BC2               	btfsc	(_prec+1)^(0+128),7
  4887  06D2  2ED4               	goto	u1371
  4888  06D3  2ED5               	goto	u1370
  4889  06D4                     u1371:
  4890  06D4  2ED9               	goto	l1343
  4891  06D5                     u1370:
  4892  06D5                     l2606:
  4893                           
  4894                           ;D:\program files\Microchip\xc8\v2.31\pic\sources\c99\common\doprnt.c: 301:         flag
      +                          s &= ~(1 << 1);
  4895  06D5  30FD               	movlw	253
  4896  06D6  05C3               	andwf	_flags^(0+128),f
  4897  06D7  30FF               	movlw	255
  4898  06D8  05C4               	andwf	(_flags+1)^(0+128),f
  4899  06D9                     l1343:	
  4900                           ;D:\program files\Microchip\xc8\v2.31\pic\sources\c99\common\doprnt.c: 302:     }
  4901                           
  4902                           
  4903                           ;D:\program files\Microchip\xc8\v2.31\pic\sources\c99\common\doprnt.c: 303:     p = (0 <
      +                           prec) ? prec : 1;
  4904  06D9  0842               	movf	(_prec+1)^(0+128),w
  4905  06DA  3A80               	xorlw	128
  4906  06DB  0140               	movlb	0	; select bank0
  4907  06DC  00B8               	movwf	??_dtoa
  4908  06DD  3080               	movlw	128
  4909  06DE  0238               	subwf	??_dtoa,w
  4910  06DF  1D03               	skipz
  4911  06E0  2EE4               	goto	u1385
  4912  06E1  3001               	movlw	1
  4913  06E2  0141               	movlb	1	; select bank1
  4914  06E3  0241               	subwf	_prec^(0+128),w
  4915  06E4                     u1385:
  4916  06E4  1803               	skipnc
  4917  06E5  2EE7               	goto	u1381
  4918  06E6  2EE8               	goto	u1380
  4919  06E7                     u1381:
  4920  06E7  2EEE               	goto	l2610
  4921  06E8                     u1380:
  4922  06E8                     l2608:
  4923  06E8  3001               	movlw	1
  4924  06E9  0140               	movlb	0	; select bank0
  4925  06EA  00BD               	movwf	dtoa@p
  4926  06EB  3000               	movlw	0
  4927  06EC  00BE               	movwf	dtoa@p+1
  4928  06ED  2EF6               	goto	l1347
  4929  06EE                     l2610:
  4930  06EE  0141               	movlb	1	; select bank1
  4931  06EF  0842               	movf	(_prec+1)^(0+128),w
  4932  06F0  0140               	movlb	0	; select bank0
  4933  06F1  00BE               	movwf	dtoa@p+1
  4934  06F2  0141               	movlb	1	; select bank1
  4935  06F3  0841               	movf	_prec^(0+128),w
  4936  06F4  0140               	movlb	0	; select bank0
  4937  06F5  00BD               	movwf	dtoa@p
  4938  06F6                     l1347:
  4939                           
  4940                           ;D:\program files\Microchip\xc8\v2.31\pic\sources\c99\common\doprnt.c: 304:     w = widt
      +                          h;
  4941  06F6  0141               	movlb	1	; select bank1
  4942  06F7  0840               	movf	(_width+1)^(0+128),w
  4943  06F8  0140               	movlb	0	; select bank0
  4944  06F9  00C1               	movwf	dtoa@w+1
  4945  06FA  0141               	movlb	1	; select bank1
  4946  06FB  083F               	movf	_width^(0+128),w
  4947  06FC  0140               	movlb	0	; select bank0
  4948  06FD  00C0               	movwf	dtoa@w
  4949  06FE                     l2612:
  4950                           
  4951                           ;D:\program files\Microchip\xc8\v2.31\pic\sources\c99\common\doprnt.c: 305:     if (s ||
      +                           (flags & (1 << 2))) {
  4952  06FE  0842               	movf	dtoa@s,w
  4953  06FF  0443               	iorwf	dtoa@s+1,w
  4954  0700  1D03               	btfss	3,2
  4955  0701  2F03               	goto	u1391
  4956  0702  2F04               	goto	u1390
  4957  0703                     u1391:
  4958  0703  2F09               	goto	l2616
  4959  0704                     u1390:
  4960  0704                     l2614:
  4961  0704  0141               	movlb	1	; select bank1
  4962  0705  1D43               	btfss	_flags^(0+128),2
  4963  0706  2F08               	goto	u1401
  4964  0707  2F09               	goto	u1400
  4965  0708                     u1401:
  4966  0708  2F0E               	goto	l1348
  4967  0709                     u1400:
  4968  0709                     l2616:
  4969                           
  4970                           ;D:\program files\Microchip\xc8\v2.31\pic\sources\c99\common\doprnt.c: 306:         --w;
  4971  0709  30FF               	movlw	255
  4972  070A  0140               	movlb	0	; select bank0
  4973  070B  07C0               	addwf	dtoa@w,f
  4974  070C  30FF               	movlw	255
  4975  070D  3DC1               	addwfc	dtoa@w+1,f
  4976  070E                     l1348:	
  4977                           ;D:\program files\Microchip\xc8\v2.31\pic\sources\c99\common\doprnt.c: 307:     }
  4978                           
  4979                           
  4980                           ;D:\program files\Microchip\xc8\v2.31\pic\sources\c99\common\doprnt.c: 310:     i = size
      +                          of(dbuf) - 1;
  4981  070E  301F               	movlw	31
  4982  070F  0140               	movlb	0	; select bank0
  4983  0710  00CC               	movwf	dtoa@i
  4984  0711  3000               	movlw	0
  4985  0712  00CD               	movwf	dtoa@i+1
  4986  0713                     l2618:
  4987                           
  4988                           ;D:\program files\Microchip\xc8\v2.31\pic\sources\c99\common\doprnt.c: 311:     dbuf[i] 
      +                          = '\0';
  4989  0713  0141               	movlb	1	; select bank1
  4990  0714  01E5               	clrf	(_dbuf^(0+128)+31)
  4991                           
  4992                           ;D:\program files\Microchip\xc8\v2.31\pic\sources\c99\common\doprnt.c: 312:     while (!
      +                          (i < 1) && (n || (0 < p) || ((0 < w) && (flags & (1 << 1))))) {
  4993  0715  2F7E               	goto	l1351
  4994  0716                     l2620:
  4995                           
  4996                           ;D:\program files\Microchip\xc8\v2.31\pic\sources\c99\common\doprnt.c: 313:         --i;
  4997  0716  30FF               	movlw	255
  4998  0717  0140               	movlb	0	; select bank0
  4999  0718  07CC               	addwf	dtoa@i,f
  5000  0719  30FF               	movlw	255
  5001  071A  3DCD               	addwfc	dtoa@i+1,f
  5002  071B                     l2622:
  5003                           
  5004                           ;D:\program files\Microchip\xc8\v2.31\pic\sources\c99\common\doprnt.c: 314:         dbuf
      +                          [i] = (char)((int)'0' + abs(n % 10));
  5005  071B  300A               	movlw	10
  5006  071C  00A0               	movwf	___aomod@divisor
  5007  071D  01A1               	clrf	___aomod@divisor+1
  5008  071E  01A2               	clrf	___aomod@divisor+2
  5009  071F  01A3               	clrf	___aomod@divisor+3
  5010  0720  01A4               	clrf	___aomod@divisor+4
  5011  0721  01A5               	clrf	___aomod@divisor+5
  5012  0722  01A6               	clrf	___aomod@divisor+6
  5013  0723  01A7               	clrf	___aomod@divisor+7
  5014  0724  0844               	movf	dtoa@n,w
  5015  0725  00A8               	movwf	___aomod@dividend
  5016  0726  0845               	movf	dtoa@n+1,w
  5017  0727  00A9               	movwf	___aomod@dividend+1
  5018  0728  0846               	movf	dtoa@n+2,w
  5019  0729  00AA               	movwf	___aomod@dividend+2
  5020  072A  0847               	movf	dtoa@n+3,w
  5021  072B  00AB               	movwf	___aomod@dividend+3
  5022  072C  0848               	movf	dtoa@n+4,w
  5023  072D  00AC               	movwf	___aomod@dividend+4
  5024  072E  0849               	movf	dtoa@n+5,w
  5025  072F  00AD               	movwf	___aomod@dividend+5
  5026  0730  084A               	movf	dtoa@n+6,w
  5027  0731  00AE               	movwf	___aomod@dividend+6
  5028  0732  084B               	movf	dtoa@n+7,w
  5029  0733  00AF               	movwf	___aomod@dividend+7
  5030  0734  3184  249C  3186   	fcall	___aomod
  5031  0737  0140               	movlb	0	; select bank0
  5032  0738  0821               	movf	?___aomod+1,w
  5033  0739  00F4               	movwf	abs@a+1
  5034  073A  0820               	movf	?___aomod,w
  5035  073B  00F3               	movwf	abs@a
  5036  073C  3182  2208  3186   	fcall	_abs
  5037  073F  0873               	movf	?_abs,w
  5038  0740  3E30               	addlw	48
  5039  0741  0140               	movlb	0	; select bank0
  5040  0742  00B8               	movwf	??_dtoa
  5041  0743  084C               	movf	dtoa@i,w
  5042  0744  3EC6               	addlw	(low (_dbuf| 0))& (0+255)
  5043  0745  0086               	movwf	6
  5044  0746  0187               	clrf	7
  5045  0747  0838               	movf	??_dtoa,w
  5046  0748  0081               	movwf	1
  5047  0749                     l2624:
  5048                           
  5049                           ;D:\program files\Microchip\xc8\v2.31\pic\sources\c99\common\doprnt.c: 315:         --p;
  5050  0749  30FF               	movlw	255
  5051  074A  07BD               	addwf	dtoa@p,f
  5052  074B  30FF               	movlw	255
  5053  074C  3DBE               	addwfc	dtoa@p+1,f
  5054  074D                     l2626:
  5055                           
  5056                           ;D:\program files\Microchip\xc8\v2.31\pic\sources\c99\common\doprnt.c: 316:         --w;
  5057  074D  30FF               	movlw	255
  5058  074E  07C0               	addwf	dtoa@w,f
  5059  074F  30FF               	movlw	255
  5060  0750  3DC1               	addwfc	dtoa@w+1,f
  5061  0751                     l2628:
  5062                           
  5063                           ;D:\program files\Microchip\xc8\v2.31\pic\sources\c99\common\doprnt.c: 317:         n = 
      +                          n / 10;
  5064  0751  300A               	movlw	10
  5065  0752  00A0               	movwf	___aodiv@divisor
  5066  0753  01A1               	clrf	___aodiv@divisor+1
  5067  0754  01A2               	clrf	___aodiv@divisor+2
  5068  0755  01A3               	clrf	___aodiv@divisor+3
  5069  0756  01A4               	clrf	___aodiv@divisor+4
  5070  0757  01A5               	clrf	___aodiv@divisor+5
  5071  0758  01A6               	clrf	___aodiv@divisor+6
  5072  0759  01A7               	clrf	___aodiv@divisor+7
  5073  075A  0844               	movf	dtoa@n,w
  5074  075B  00A8               	movwf	___aodiv@dividend
  5075  075C  0845               	movf	dtoa@n+1,w
  5076  075D  00A9               	movwf	___aodiv@dividend+1
  5077  075E  0846               	movf	dtoa@n+2,w
  5078  075F  00AA               	movwf	___aodiv@dividend+2
  5079  0760  0847               	movf	dtoa@n+3,w
  5080  0761  00AB               	movwf	___aodiv@dividend+3
  5081  0762  0848               	movf	dtoa@n+4,w
  5082  0763  00AC               	movwf	___aodiv@dividend+4
  5083  0764  0849               	movf	dtoa@n+5,w
  5084  0765  00AD               	movwf	___aodiv@dividend+5
  5085  0766  084A               	movf	dtoa@n+6,w
  5086  0767  00AE               	movwf	___aodiv@dividend+6
  5087  0768  084B               	movf	dtoa@n+7,w
  5088  0769  00AF               	movwf	___aodiv@dividend+7
  5089  076A  3185  2586  3186   	fcall	___aodiv
  5090  076D  0140               	movlb	0	; select bank0
  5091  076E  0820               	movf	?___aodiv,w
  5092  076F  00C4               	movwf	dtoa@n
  5093  0770  0821               	movf	?___aodiv+1,w
  5094  0771  00C5               	movwf	dtoa@n+1
  5095  0772  0822               	movf	?___aodiv+2,w
  5096  0773  00C6               	movwf	dtoa@n+2
  5097  0774  0823               	movf	?___aodiv+3,w
  5098  0775  00C7               	movwf	dtoa@n+3
  5099  0776  0824               	movf	?___aodiv+4,w
  5100  0777  00C8               	movwf	dtoa@n+4
  5101  0778  0825               	movf	?___aodiv+5,w
  5102  0779  00C9               	movwf	dtoa@n+5
  5103  077A  0826               	movf	?___aodiv+6,w
  5104  077B  00CA               	movwf	dtoa@n+6
  5105  077C  0827               	movf	?___aodiv+7,w
  5106  077D  00CB               	movwf	dtoa@n+7
  5107  077E                     l1351:	
  5108                           ;D:\program files\Microchip\xc8\v2.31\pic\sources\c99\common\doprnt.c: 318:     }
  5109                           
  5110                           
  5111                           ;D:\program files\Microchip\xc8\v2.31\pic\sources\c99\common\doprnt.c: 312:     while (!
      +                          (i < 1) && (n || (0 < p) || ((0 < w) && (flags & (1 << 1))))) {
  5112  077E  0140               	movlb	0	; select bank0
  5113  077F  084D               	movf	dtoa@i+1,w
  5114  0780  3A80               	xorlw	128
  5115  0781  00B8               	movwf	??_dtoa
  5116  0782  3080               	movlw	128
  5117  0783  0238               	subwf	??_dtoa,w
  5118  0784  1D03               	skipz
  5119  0785  2F88               	goto	u1415
  5120  0786  3001               	movlw	1
  5121  0787  024C               	subwf	dtoa@i,w
  5122  0788                     u1415:
  5123  0788  1C03               	skipc
  5124  0789  2F8B               	goto	u1411
  5125  078A  2F8C               	goto	u1410
  5126  078B                     u1411:
  5127  078B  2FB9               	goto	l2638
  5128  078C                     u1410:
  5129  078C                     l2630:
  5130  078C  0140               	movlb	0	; select bank0
  5131  078D  0844               	movf	dtoa@n,w
  5132  078E  0445               	iorwf	dtoa@n+1,w
  5133  078F  0446               	iorwf	dtoa@n+2,w
  5134  0790  0447               	iorwf	dtoa@n+3,w
  5135  0791  0448               	iorwf	dtoa@n+4,w
  5136  0792  0449               	iorwf	dtoa@n+5,w
  5137  0793  044A               	iorwf	dtoa@n+6,w
  5138  0794  044B               	iorwf	dtoa@n+7,w
  5139  0795  1D03               	skipz
  5140  0796  2F98               	goto	u1421
  5141  0797  2F99               	goto	u1420
  5142  0798                     u1421:
  5143  0798  2F16               	goto	l2620
  5144  0799                     u1420:
  5145  0799                     l2632:
  5146  0799  083E               	movf	dtoa@p+1,w
  5147  079A  3A80               	xorlw	128
  5148  079B  00B8               	movwf	??_dtoa
  5149  079C  3080               	movlw	128
  5150  079D  0238               	subwf	??_dtoa,w
  5151  079E  1D03               	skipz
  5152  079F  2FA2               	goto	u1435
  5153  07A0  3001               	movlw	1
  5154  07A1  023D               	subwf	dtoa@p,w
  5155  07A2                     u1435:
  5156  07A2  1803               	skipnc
  5157  07A3  2FA5               	goto	u1431
  5158  07A4  2FA6               	goto	u1430
  5159  07A5                     u1431:
  5160  07A5  2F16               	goto	l2620
  5161  07A6                     u1430:
  5162  07A6                     l2634:
  5163  07A6  0140               	movlb	0	; select bank0
  5164  07A7  0841               	movf	dtoa@w+1,w
  5165  07A8  3A80               	xorlw	128
  5166  07A9  00B8               	movwf	??_dtoa
  5167  07AA  3080               	movlw	128
  5168  07AB  0238               	subwf	??_dtoa,w
  5169  07AC  1D03               	skipz
  5170  07AD  2FB0               	goto	u1445
  5171  07AE  3001               	movlw	1
  5172  07AF  0240               	subwf	dtoa@w,w
  5173  07B0                     u1445:
  5174  07B0  1C03               	skipc
  5175  07B1  2FB3               	goto	u1441
  5176  07B2  2FB4               	goto	u1440
  5177  07B3                     u1441:
  5178  07B3  2FB9               	goto	l2638
  5179  07B4                     u1440:
  5180  07B4                     l2636:
  5181  07B4  0141               	movlb	1	; select bank1
  5182  07B5  18C3               	btfsc	_flags^(0+128),1
  5183  07B6  2FB8               	goto	u1451
  5184  07B7  2FB9               	goto	u1450
  5185  07B8                     u1451:
  5186  07B8  2F16               	goto	l2620
  5187  07B9                     u1450:
  5188  07B9                     l2638:
  5189                           
  5190                           ;D:\program files\Microchip\xc8\v2.31\pic\sources\c99\common\doprnt.c: 321:     if (s ||
      +                           (flags & (1 << 2))) {
  5191  07B9  0140               	movlb	0	; select bank0
  5192  07BA  0842               	movf	dtoa@s,w
  5193  07BB  0443               	iorwf	dtoa@s+1,w
  5194  07BC  1D03               	btfss	3,2
  5195  07BD  2FBF               	goto	u1461
  5196  07BE  2FC0               	goto	u1460
  5197  07BF                     u1461:
  5198  07BF  2FC5               	goto	l2642
  5199  07C0                     u1460:
  5200  07C0                     l2640:
  5201  07C0  0141               	movlb	1	; select bank1
  5202  07C1  1D43               	btfss	_flags^(0+128),2
  5203  07C2  2FC4               	goto	u1471
  5204  07C3  2FC5               	goto	u1470
  5205  07C4                     u1471:
  5206  07C4  2FE1               	goto	l2652
  5207  07C5                     u1470:
  5208  07C5                     l2642:
  5209                           
  5210                           ;D:\program files\Microchip\xc8\v2.31\pic\sources\c99\common\doprnt.c: 322:         --i;
  5211  07C5  30FF               	movlw	255
  5212  07C6  0140               	movlb	0	; select bank0
  5213  07C7  07CC               	addwf	dtoa@i,f
  5214  07C8  30FF               	movlw	255
  5215  07C9  3DCD               	addwfc	dtoa@i+1,f
  5216  07CA                     l2644:
  5217                           
  5218                           ;D:\program files\Microchip\xc8\v2.31\pic\sources\c99\common\doprnt.c: 323:         dbuf
      +                          [i] = s ? '-' : '+';
  5219  07CA  0842               	movf	dtoa@s,w
  5220  07CB  0443               	iorwf	dtoa@s+1,w
  5221  07CC  1D03               	btfss	3,2
  5222  07CD  2FCF               	goto	u1481
  5223  07CE  2FD0               	goto	u1480
  5224  07CF                     u1481:
  5225  07CF  2FD5               	goto	l2648
  5226  07D0                     u1480:
  5227  07D0                     l2646:
  5228  07D0  302B               	movlw	43
  5229  07D1  00BB               	movwf	_dtoa$1797
  5230  07D2  3000               	movlw	0
  5231  07D3  00BC               	movwf	_dtoa$1797+1
  5232  07D4  2FD9               	goto	l2650
  5233  07D5                     l2648:
  5234  07D5  302D               	movlw	45
  5235  07D6  00BB               	movwf	_dtoa$1797
  5236  07D7  3000               	movlw	0
  5237  07D8  00BC               	movwf	_dtoa$1797+1
  5238  07D9                     l2650:
  5239  07D9  083B               	movf	_dtoa$1797,w
  5240  07DA  00B8               	movwf	??_dtoa
  5241  07DB  084C               	movf	dtoa@i,w
  5242  07DC  3EC6               	addlw	(low (_dbuf| 0))& (0+255)
  5243  07DD  0086               	movwf	6
  5244  07DE  0187               	clrf	7
  5245  07DF  0838               	movf	??_dtoa,w
  5246  07E0  0081               	movwf	1
  5247  07E1                     l2652:
  5248                           
  5249                           ;D:\program files\Microchip\xc8\v2.31\pic\sources\c99\common\doprnt.c: 327:     return p
      +                          ad(fp, &dbuf[i], w);
  5250  07E1  0140               	movlb	0	; select bank0
  5251  07E2  084C               	movf	dtoa@i,w
  5252  07E3  3EC6               	addlw	(low (_dbuf| 0))& (0+255)
  5253  07E4  00B8               	movwf	??_dtoa
  5254  07E5  0838               	movf	??_dtoa,w
  5255  07E6  00A4               	movwf	pad@buf
  5256  07E7  0841               	movf	dtoa@w+1,w
  5257  07E8  00A6               	movwf	pad@p+1
  5258  07E9  0840               	movf	dtoa@w,w
  5259  07EA  00A5               	movwf	pad@p
  5260  07EB  083F               	movf	dtoa@fp,w
  5261  07EC  3183  2368  3186   	fcall	_pad
  5262  07EF  0140               	movlb	0	; select bank0
  5263  07F0  0825               	movf	?_pad+1,w
  5264  07F1  00B1               	movwf	?_dtoa+1
  5265  07F2  0824               	movf	?_pad,w
  5266  07F3  00B0               	movwf	?_dtoa
  5267  07F4                     l1365:
  5268  07F4  0008               	return
  5269  07F5                     __end_of_dtoa:
  5270                           
  5271                           	psect	text15
  5272  0368                     __ptext15:	
  5273 ;; *************** function _pad *****************
  5274 ;; Defined at:
  5275 ;;		line 72 in file "D:\program files\Microchip\xc8\v2.31\pic\sources\c99\common\doprnt.c"
  5276 ;; Parameters:    Size  Location     Type
  5277 ;;  fp              1    wreg     PTR struct _IO_FILE
  5278 ;;		 -> NULL(0), 
  5279 ;;  buf             1    4[BANK0 ] PTR unsigned char 
  5280 ;;		 -> dbuf(32), 
  5281 ;;  p               2    5[BANK0 ] int 
  5282 ;; Auto vars:     Size  Location     Type
  5283 ;;  fp              1   12[BANK0 ] PTR struct _IO_FILE
  5284 ;;		 -> NULL(0), 
  5285 ;;  w               2   10[BANK0 ] int 
  5286 ;;  i               2    8[BANK0 ] int 
  5287 ;; Return value:  Size  Location     Type
  5288 ;;                  2    4[BANK0 ] int 
  5289 ;; Registers used:
  5290 ;;		wreg, fsr1l, fsr1h, status,2, status,0, pclath, cstack
  5291 ;; Tracked objects:
  5292 ;;		On entry : 0/0
  5293 ;;		On exit  : 0/0
  5294 ;;		Unchanged: 0/0
  5295 ;; Data sizes:     COMMON   BANK0   BANK1   BANK2   BANK3   BANK4   BANK5   BANK6   BANK7   BANK8   BANK9  BANK10  BANK1
      +1  BANK12  BANK13  BANK14  BANK15  BANK16  BANK17  BANK18  BANK19  BANK20  BANK21  BANK22  BANK23  BANK24  BANK25
  5296 ;;      Params:         0       3       0       0       0       0       0       0       0       0       0       0       
      +0       0       0       0       0       0       0       0       0       0       0       0       0       0       0
  5297 ;;      Locals:         0       5       0       0       0       0       0       0       0       0       0       0       
      +0       0       0       0       0       0       0       0       0       0       0       0       0       0       0
  5298 ;;      Temps:          0       1       0       0       0       0       0       0       0       0       0       0       
      +0       0       0       0       0       0       0       0       0       0       0       0       0       0       0
  5299 ;;      Totals:         0       9       0       0       0       0       0       0       0       0       0       0       
      +0       0       0       0       0       0       0       0       0       0       0       0       0       0       0
  5300 ;;Total ram usage:        9 bytes
  5301 ;; Hardware stack levels used:    1
  5302 ;; Hardware stack levels required when called:    4
  5303 ;; This function calls:
  5304 ;;		_fputc
  5305 ;;		_fputs
  5306 ;;		_strlen
  5307 ;; This function is called by:
  5308 ;;		_dtoa
  5309 ;; This function uses a non-reentrant model
  5310 ;;
  5311                           
  5312                           
  5313                           ;psect for function _pad
  5314  0368                     _pad:
  5315                           
  5316                           ;incstack = 0
  5317                           ; Regs used in _pad: [wreg+fsr1l+fsr1h+status,2+status,0+pclath+cstack]
  5318                           ;pad@fp stored from wreg
  5319  0368  0140               	movlb	0	; select bank0
  5320  0369  00AC               	movwf	pad@fp
  5321  036A                     l2574:
  5322                           
  5323                           ;D:\program files\Microchip\xc8\v2.31\pic\sources\c99\common\doprnt.c: 72: static int pa
      +                          d(FILE *fp, char *buf, int p);D:\program files\Microchip\xc8\v2.31\pic\sources\c99\commo
      +                          n\doprnt.c: 73: {;D:\program files\Microchip\xc8\v2.31\pic\sources\c99\common\doprnt.c: 
      +                          74:     int i, w;;D:\program files\Microchip\xc8\v2.31\pic\sources\c99\common\doprnt.c: 
      +                          77:     if (flags & (1 << 0)) {
  5324  036A  0141               	movlb	1	; select bank1
  5325  036B  1C43               	btfss	_flags^(0+128),0
  5326  036C  2B6E               	goto	u1281
  5327  036D  2B6F               	goto	u1280
  5328  036E                     u1281:
  5329  036E  2B78               	goto	l2578
  5330  036F                     u1280:
  5331  036F                     l2576:
  5332                           
  5333                           ;D:\program files\Microchip\xc8\v2.31\pic\sources\c99\common\doprnt.c: 78:         fputs
      +                          ((const char *)buf, fp);
  5334  036F  0140               	movlb	0	; select bank0
  5335  0370  082C               	movf	pad@fp,w
  5336  0371  00A7               	movwf	??_pad
  5337  0372  0827               	movf	??_pad,w
  5338  0373  00FA               	movwf	fputs@fp
  5339  0374  0824               	movf	pad@buf,w
  5340  0375  3182  2244  3183   	fcall	_fputs
  5341  0378                     l2578:
  5342                           
  5343                           ;D:\program files\Microchip\xc8\v2.31\pic\sources\c99\common\doprnt.c: 82:     w = (p < 
      +                          0) ? 0 : p;
  5344  0378  0140               	movlb	0	; select bank0
  5345  0379  1BA6               	btfsc	pad@p+1,7
  5346  037A  2B7C               	goto	u1291
  5347  037B  2B7D               	goto	u1290
  5348  037C                     u1291:
  5349  037C  2B82               	goto	l2582
  5350  037D                     u1290:
  5351  037D                     l2580:
  5352  037D  0826               	movf	pad@p+1,w
  5353  037E  00AB               	movwf	pad@w+1
  5354  037F  0825               	movf	pad@p,w
  5355  0380  00AA               	movwf	pad@w
  5356  0381  2B84               	goto	l1334
  5357  0382                     l2582:
  5358  0382  01AA               	clrf	pad@w
  5359  0383  01AB               	clrf	pad@w+1
  5360  0384                     l1334:
  5361                           
  5362                           ;D:\program files\Microchip\xc8\v2.31\pic\sources\c99\common\doprnt.c: 83:     i = 0;
  5363  0384  01A8               	clrf	pad@i
  5364  0385  01A9               	clrf	pad@i+1
  5365                           
  5366                           ;D:\program files\Microchip\xc8\v2.31\pic\sources\c99\common\doprnt.c: 84:     while (i 
      +                          < w) {
  5367  0386  2B98               	goto	l2588
  5368  0387                     l2584:
  5369                           
  5370                           ;D:\program files\Microchip\xc8\v2.31\pic\sources\c99\common\doprnt.c: 85:         fputc
      +                          (' ', fp);
  5371  0387  3020               	movlw	32
  5372  0388  00F2               	movwf	fputc@c
  5373  0389  3000               	movlw	0
  5374  038A  00F3               	movwf	fputc@c+1
  5375  038B  0140               	movlb	0	; select bank0
  5376  038C  082C               	movf	pad@fp,w
  5377  038D  00A7               	movwf	??_pad
  5378  038E  0827               	movf	??_pad,w
  5379  038F  00F4               	movwf	fputc@fp
  5380  0390  3182  229D  3183   	fcall	_fputc
  5381  0393                     l2586:
  5382                           
  5383                           ;D:\program files\Microchip\xc8\v2.31\pic\sources\c99\common\doprnt.c: 86:         ++i;
  5384  0393  3001               	movlw	1
  5385  0394  0140               	movlb	0	; select bank0
  5386  0395  07A8               	addwf	pad@i,f
  5387  0396  3000               	movlw	0
  5388  0397  3DA9               	addwfc	pad@i+1,f
  5389  0398                     l2588:
  5390                           
  5391                           ;D:\program files\Microchip\xc8\v2.31\pic\sources\c99\common\doprnt.c: 84:     while (i 
      +                          < w) {
  5392  0398  0829               	movf	pad@i+1,w
  5393  0399  3A80               	xorlw	128
  5394  039A  00A7               	movwf	??_pad
  5395  039B  082B               	movf	pad@w+1,w
  5396  039C  3A80               	xorlw	128
  5397  039D  0227               	subwf	??_pad,w
  5398  039E  1D03               	skipz
  5399  039F  2BA2               	goto	u1305
  5400  03A0  082A               	movf	pad@w,w
  5401  03A1  0228               	subwf	pad@i,w
  5402  03A2                     u1305:
  5403  03A2  1C03               	skipc
  5404  03A3  2BA5               	goto	u1301
  5405  03A4  2BA6               	goto	u1300
  5406  03A5                     u1301:
  5407  03A5  2B87               	goto	l2584
  5408  03A6                     u1300:
  5409  03A6                     l1337:
  5410                           
  5411                           ;D:\program files\Microchip\xc8\v2.31\pic\sources\c99\common\doprnt.c: 90:     if (!(fla
      +                          gs & (1 << 0))) {
  5412  03A6  0141               	movlb	1	; select bank1
  5413  03A7  1843               	btfsc	_flags^(0+128),0
  5414  03A8  2BAA               	goto	u1311
  5415  03A9  2BAB               	goto	u1310
  5416  03AA                     u1311:
  5417  03AA  2BB4               	goto	l1338
  5418  03AB                     u1310:
  5419  03AB                     l2590:
  5420                           
  5421                           ;D:\program files\Microchip\xc8\v2.31\pic\sources\c99\common\doprnt.c: 91:         fputs
      +                          ((const char *)buf, fp);
  5422  03AB  0140               	movlb	0	; select bank0
  5423  03AC  082C               	movf	pad@fp,w
  5424  03AD  00A7               	movwf	??_pad
  5425  03AE  0827               	movf	??_pad,w
  5426  03AF  00FA               	movwf	fputs@fp
  5427  03B0  0824               	movf	pad@buf,w
  5428  03B1  3182  2244  3183   	fcall	_fputs
  5429  03B4                     l1338:	
  5430                           ;D:\program files\Microchip\xc8\v2.31\pic\sources\c99\common\doprnt.c: 92:     }
  5431                           
  5432                           
  5433                           ;D:\program files\Microchip\xc8\v2.31\pic\sources\c99\common\doprnt.c: 94:     return (i
      +                          nt)(strlen(buf) + (size_t)w);
  5434  03B4  0140               	movlb	0	; select bank0
  5435  03B5  0824               	movf	pad@buf,w
  5436  03B6  3181  21EF  3183   	fcall	_strlen
  5437  03B9  0140               	movlb	0	; select bank0
  5438  03BA  082A               	movf	pad@w,w
  5439  03BB  0770               	addwf	?_strlen,w
  5440  03BC  00A4               	movwf	?_pad
  5441  03BD  082B               	movf	pad@w+1,w
  5442  03BE  3D71               	addwfc	?_strlen+1,w
  5443  03BF  00A5               	movwf	?_pad+1
  5444  03C0                     l1339:
  5445  03C0  0008               	return
  5446  03C1                     __end_of_pad:
  5447                           
  5448                           	psect	text16
  5449  01EF                     __ptext16:	
  5450 ;; *************** function _strlen *****************
  5451 ;; Defined at:
  5452 ;;		line 5 in file "D:\program files\Microchip\xc8\v2.31\pic\sources\c99\common\strlen.c"
  5453 ;; Parameters:    Size  Location     Type
  5454 ;;  s               1    wreg     PTR const unsigned char 
  5455 ;;		 -> dbuf(32), 
  5456 ;; Auto vars:     Size  Location     Type
  5457 ;;  s               1    4[COMMON] PTR const unsigned char 
  5458 ;;		 -> dbuf(32), 
  5459 ;;  a               1    3[COMMON] PTR const unsigned char 
  5460 ;;		 -> dbuf(32), 
  5461 ;; Return value:  Size  Location     Type
  5462 ;;                  2    0[COMMON] unsigned int 
  5463 ;; Registers used:
  5464 ;;		wreg, fsr1l, fsr1h, status,2, status,0
  5465 ;; Tracked objects:
  5466 ;;		On entry : 0/0
  5467 ;;		On exit  : 0/0
  5468 ;;		Unchanged: 0/0
  5469 ;; Data sizes:     COMMON   BANK0   BANK1   BANK2   BANK3   BANK4   BANK5   BANK6   BANK7   BANK8   BANK9  BANK10  BANK1
      +1  BANK12  BANK13  BANK14  BANK15  BANK16  BANK17  BANK18  BANK19  BANK20  BANK21  BANK22  BANK23  BANK24  BANK25
  5470 ;;      Params:         2       0       0       0       0       0       0       0       0       0       0       0       
      +0       0       0       0       0       0       0       0       0       0       0       0       0       0       0
  5471 ;;      Locals:         2       0       0       0       0       0       0       0       0       0       0       0       
      +0       0       0       0       0       0       0       0       0       0       0       0       0       0       0
  5472 ;;      Temps:          1       0       0       0       0       0       0       0       0       0       0       0       
      +0       0       0       0       0       0       0       0       0       0       0       0       0       0       0
  5473 ;;      Totals:         5       0       0       0       0       0       0       0       0       0       0       0       
      +0       0       0       0       0       0       0       0       0       0       0       0       0       0       0
  5474 ;;Total ram usage:        5 bytes
  5475 ;; Hardware stack levels used:    1
  5476 ;; This function calls:
  5477 ;;		Nothing
  5478 ;; This function is called by:
  5479 ;;		_pad
  5480 ;; This function uses a non-reentrant model
  5481 ;;
  5482                           
  5483                           
  5484                           ;psect for function _strlen
  5485  01EF                     _strlen:
  5486                           
  5487                           ;incstack = 0
  5488                           ; Regs used in _strlen: [wreg+fsr1l+fsr1h+status,2+status,0]
  5489                           ;strlen@s stored from wreg
  5490  01EF  00F4               	movwf	strlen@s
  5491  01F0                     l2496:
  5492  01F0  0874               	movf	strlen@s,w
  5493  01F1  00F2               	movwf	??_strlen
  5494  01F2  0872               	movf	??_strlen,w
  5495  01F3  00F3               	movwf	strlen@a
  5496  01F4  29F9               	goto	l2500
  5497  01F5                     l2498:
  5498  01F5  3001               	movlw	1
  5499  01F6  00F2               	movwf	??_strlen
  5500  01F7  0872               	movf	??_strlen,w
  5501  01F8  07F4               	addwf	strlen@s,f
  5502  01F9                     l2500:
  5503  01F9  0874               	movf	strlen@s,w
  5504  01FA  0086               	movwf	6
  5505  01FB  0187               	clrf	7
  5506  01FC  0801               	movf	1,w
  5507  01FD  1D03               	btfss	3,2
  5508  01FE  2A00               	goto	u1061
  5509  01FF  2A01               	goto	u1060
  5510  0200                     u1061:
  5511  0200  29F5               	goto	l2498
  5512  0201                     u1060:
  5513  0201                     l2502:
  5514  0201  0873               	movf	strlen@a,w
  5515  0202  0274               	subwf	strlen@s,w
  5516  0203  00F0               	movwf	?_strlen
  5517  0204  01F1               	clrf	?_strlen+1
  5518  0205  1BF0               	btfsc	?_strlen,7
  5519  0206  03F1               	decf	?_strlen+1,f
  5520  0207                     l1412:
  5521  0207  0008               	return
  5522  0208                     __end_of_strlen:
  5523                           
  5524                           	psect	text17
  5525  0244                     __ptext17:	
  5526 ;; *************** function _fputs *****************
  5527 ;; Defined at:
  5528 ;;		line 8 in file "D:\program files\Microchip\xc8\v2.31\pic\sources\c99\common\nf_fputs.c"
  5529 ;; Parameters:    Size  Location     Type
  5530 ;;  s               1    wreg     PTR const unsigned char 
  5531 ;;		 -> dbuf(32), 
  5532 ;;  fp              1   10[COMMON] PTR struct _IO_FILE
  5533 ;;		 -> NULL(0), 
  5534 ;; Auto vars:     Size  Location     Type
  5535 ;;  s               1    3[BANK0 ] PTR const unsigned char 
  5536 ;;		 -> dbuf(32), 
  5537 ;;  i               2    1[BANK0 ] int 
  5538 ;;  c               1    0[BANK0 ] unsigned char 
  5539 ;; Return value:  Size  Location     Type
  5540 ;;                  2   10[COMMON] int 
  5541 ;; Registers used:
  5542 ;;		wreg, fsr1l, fsr1h, status,2, status,0, pclath, cstack
  5543 ;; Tracked objects:
  5544 ;;		On entry : 0/0
  5545 ;;		On exit  : 0/0
  5546 ;;		Unchanged: 0/0
  5547 ;; Data sizes:     COMMON   BANK0   BANK1   BANK2   BANK3   BANK4   BANK5   BANK6   BANK7   BANK8   BANK9  BANK10  BANK1
      +1  BANK12  BANK13  BANK14  BANK15  BANK16  BANK17  BANK18  BANK19  BANK20  BANK21  BANK22  BANK23  BANK24  BANK25
  5548 ;;      Params:         1       0       0       0       0       0       0       0       0       0       0       0       
      +0       0       0       0       0       0       0       0       0       0       0       0       0       0       0
  5549 ;;      Locals:         0       4       0       0       0       0       0       0       0       0       0       0       
      +0       0       0       0       0       0       0       0       0       0       0       0       0       0       0
  5550 ;;      Temps:          3       0       0       0       0       0       0       0       0       0       0       0       
      +0       0       0       0       0       0       0       0       0       0       0       0       0       0       0
  5551 ;;      Totals:         4       4       0       0       0       0       0       0       0       0       0       0       
      +0       0       0       0       0       0       0       0       0       0       0       0       0       0       0
  5552 ;;Total ram usage:        8 bytes
  5553 ;; Hardware stack levels used:    1
  5554 ;; Hardware stack levels required when called:    3
  5555 ;; This function calls:
  5556 ;;		_fputc
  5557 ;; This function is called by:
  5558 ;;		_pad
  5559 ;; This function uses a non-reentrant model
  5560 ;;
  5561                           
  5562                           
  5563                           ;psect for function _fputs
  5564  0244                     _fputs:
  5565                           
  5566                           ;incstack = 0
  5567                           ; Regs used in _fputs: [wreg+fsr1l+fsr1h+status,2+status,0+pclath+cstack]
  5568                           ;fputs@s stored from wreg
  5569  0244  0140               	movlb	0	; select bank0
  5570  0245  00A3               	movwf	fputs@s
  5571  0246                     l2488:
  5572  0246  01A1               	clrf	fputs@i
  5573  0247  01A2               	clrf	fputs@i+1
  5574  0248  2A5C               	goto	l2494
  5575  0249                     l2490:
  5576  0249  0820               	movf	fputs@c,w
  5577  024A  00FB               	movwf	??_fputs
  5578  024B  01FC               	clrf	??_fputs+1
  5579  024C  087B               	movf	??_fputs,w
  5580  024D  00F2               	movwf	fputc@c
  5581  024E  087C               	movf	??_fputs+1,w
  5582  024F  00F3               	movwf	fputc@c+1
  5583  0250  087A               	movf	fputs@fp,w
  5584  0251  00FD               	movwf	??_fputs+2
  5585  0252  087D               	movf	??_fputs+2,w
  5586  0253  00F4               	movwf	fputc@fp
  5587  0254  3182  229D  3182   	fcall	_fputc
  5588  0257                     l2492:
  5589  0257  3001               	movlw	1
  5590  0258  0140               	movlb	0	; select bank0
  5591  0259  07A1               	addwf	fputs@i,f
  5592  025A  3000               	movlw	0
  5593  025B  3DA2               	addwfc	fputs@i+1,f
  5594  025C                     l2494:
  5595  025C  0821               	movf	fputs@i,w
  5596  025D  0723               	addwf	fputs@s,w
  5597  025E  00FB               	movwf	??_fputs
  5598  025F  087B               	movf	??_fputs,w
  5599  0260  0086               	movwf	6
  5600  0261  0187               	clrf	7
  5601  0262  0801               	movf	1,w
  5602  0263  00FC               	movwf	??_fputs+1
  5603  0264  087C               	movf	??_fputs+1,w
  5604  0265  00A0               	movwf	fputs@c
  5605  0266  0820               	movf	fputs@c,w
  5606  0267  1D03               	btfss	3,2
  5607  0268  2A6A               	goto	u1051
  5608  0269  2A6B               	goto	u1050
  5609  026A                     u1051:
  5610  026A  2A49               	goto	l2490
  5611  026B                     u1050:
  5612  026B                     l1406:
  5613  026B  0008               	return
  5614  026C                     __end_of_fputs:
  5615                           
  5616                           	psect	text18
  5617  029D                     __ptext18:	
  5618 ;; *************** function _fputc *****************
  5619 ;; Defined at:
  5620 ;;		line 8 in file "D:\program files\Microchip\xc8\v2.31\pic\sources\c99\common\nf_fputc.c"
  5621 ;; Parameters:    Size  Location     Type
  5622 ;;  c               2    2[COMMON] int 
  5623 ;;  fp              1    4[COMMON] PTR struct _IO_FILE
  5624 ;;		 -> NULL(0), 
  5625 ;; Auto vars:     Size  Location     Type
  5626 ;;		None
  5627 ;; Return value:  Size  Location     Type
  5628 ;;                  2    2[COMMON] int 
  5629 ;; Registers used:
  5630 ;;		wreg, fsr1l, fsr1h, status,2, status,0, pclath, cstack
  5631 ;; Tracked objects:
  5632 ;;		On entry : 0/0
  5633 ;;		On exit  : 0/0
  5634 ;;		Unchanged: 0/0
  5635 ;; Data sizes:     COMMON   BANK0   BANK1   BANK2   BANK3   BANK4   BANK5   BANK6   BANK7   BANK8   BANK9  BANK10  BANK1
      +1  BANK12  BANK13  BANK14  BANK15  BANK16  BANK17  BANK18  BANK19  BANK20  BANK21  BANK22  BANK23  BANK24  BANK25
  5636 ;;      Params:         3       0       0       0       0       0       0       0       0       0       0       0       
      +0       0       0       0       0       0       0       0       0       0       0       0       0       0       0
  5637 ;;      Locals:         0       0       0       0       0       0       0       0       0       0       0       0       
      +0       0       0       0       0       0       0       0       0       0       0       0       0       0       0
  5638 ;;      Temps:          5       0       0       0       0       0       0       0       0       0       0       0       
      +0       0       0       0       0       0       0       0       0       0       0       0       0       0       0
  5639 ;;      Totals:         8       0       0       0       0       0       0       0       0       0       0       0       
      +0       0       0       0       0       0       0       0       0       0       0       0       0       0       0
  5640 ;;Total ram usage:        8 bytes
  5641 ;; Hardware stack levels used:    1
  5642 ;; Hardware stack levels required when called:    2
  5643 ;; This function calls:
  5644 ;;		_putch
  5645 ;; This function is called by:
  5646 ;;		_pad
  5647 ;;		_vfpfcnvrt
  5648 ;;		_fputs
  5649 ;; This function uses a non-reentrant model
  5650 ;;
  5651                           
  5652                           
  5653                           ;psect for function _fputc
  5654  029D                     _fputc:
  5655  029D                     l2474:	
  5656                           ;incstack = 0
  5657                           ; Regs used in _fputc: [wreg+fsr1l+fsr1h+status,2+status,0+pclath+cstack]
  5658                           
  5659  029D  0874               	movf	fputc@fp,w
  5660  029E  1903               	btfsc	3,2
  5661  029F  2AA1               	goto	u1011
  5662  02A0  2AA2               	goto	u1010
  5663  02A1                     u1011:
  5664  02A1  2AA7               	goto	l2478
  5665  02A2                     u1010:
  5666  02A2                     l2476:
  5667  02A2  0874               	movf	fputc@fp,w
  5668  02A3  1D03               	btfss	3,2
  5669  02A4  2AA6               	goto	u1021
  5670  02A5  2AA7               	goto	u1020
  5671  02A6                     u1021:
  5672  02A6  2AAC               	goto	l2480
  5673  02A7                     u1020:
  5674  02A7                     l2478:
  5675  02A7  0872               	movf	fputc@c,w
  5676  02A8  3181  215E  3182   	fcall	_putch
  5677  02AB  2ADB               	goto	l1398
  5678  02AC                     l2480:
  5679  02AC  0874               	movf	fputc@fp,w
  5680  02AD  3E03               	addlw	3
  5681  02AE  0086               	movwf	6
  5682  02AF  0187               	clrf	7
  5683  02B0  0016               	moviw fsr1++
  5684  02B1  0401               	iorwf	1,w
  5685  02B2  1903               	btfsc	3,2
  5686  02B3  2AB5               	goto	u1031
  5687  02B4  2AB6               	goto	u1030
  5688  02B5                     u1031:
  5689  02B5  2AD3               	goto	l2484
  5690  02B6                     u1030:
  5691  02B6                     l2482:
  5692  02B6  0874               	movf	fputc@fp,w
  5693  02B7  3E03               	addlw	3
  5694  02B8  0086               	movwf	6
  5695  02B9  0187               	clrf	7
  5696  02BA  3F40               	moviw [0]fsr1
  5697  02BB  00F5               	movwf	??_fputc
  5698  02BC  3F41               	moviw [1]fsr1
  5699  02BD  00F6               	movwf	??_fputc+1
  5700  02BE  0A74               	incf	fputc@fp,w
  5701  02BF  0086               	movwf	6
  5702  02C0  0187               	clrf	7
  5703  02C1  3F40               	moviw [0]fsr1
  5704  02C2  00F7               	movwf	??_fputc+2
  5705  02C3  3F41               	moviw [1]fsr1
  5706  02C4  00F8               	movwf	??_fputc+3
  5707  02C5  0878               	movf	??_fputc+3,w
  5708  02C6  3A80               	xorlw	128
  5709  02C7  00F9               	movwf	??_fputc+4
  5710  02C8  0876               	movf	??_fputc+1,w
  5711  02C9  3A80               	xorlw	128
  5712  02CA  0279               	subwf	??_fputc+4,w
  5713  02CB  1D03               	skipz
  5714  02CC  2ACF               	goto	u1045
  5715  02CD  0875               	movf	??_fputc,w
  5716  02CE  0277               	subwf	??_fputc+2,w
  5717  02CF                     u1045:
  5718  02CF  1803               	skipnc
  5719  02D0  2AD2               	goto	u1041
  5720  02D1  2AD3               	goto	u1040
  5721  02D2                     u1041:
  5722  02D2  2ADB               	goto	l1398
  5723  02D3                     u1040:
  5724  02D3                     l2484:
  5725  02D3  0A74               	incf	fputc@fp,w
  5726  02D4  0086               	movwf	6
  5727  02D5  0187               	clrf	7
  5728  02D6  3001               	movlw	1
  5729  02D7  0781               	addwf	1,f
  5730  02D8  3141               	addfsr 1,1
  5731  02D9  1803               	skipnc
  5732  02DA  0A81               	incf	1,f
  5733  02DB                     l1398:
  5734  02DB  0008               	return
  5735  02DC                     __end_of_fputc:
  5736                           
  5737                           	psect	text19
  5738  015E                     __ptext19:	
  5739 ;; *************** function _putch *****************
  5740 ;; Defined at:
  5741 ;;		line 146 in file "mcc_generated_files/eusart1.c"
  5742 ;; Parameters:    Size  Location     Type
  5743 ;;  txData          1    wreg     unsigned char 
  5744 ;; Auto vars:     Size  Location     Type
  5745 ;;  txData          1    1[COMMON] unsigned char 
  5746 ;; Return value:  Size  Location     Type
  5747 ;;                  1    wreg      void 
  5748 ;; Registers used:
  5749 ;;		wreg, status,2, status,0, pclath, cstack
  5750 ;; Tracked objects:
  5751 ;;		On entry : 0/0
  5752 ;;		On exit  : 0/0
  5753 ;;		Unchanged: 0/0
  5754 ;; Data sizes:     COMMON   BANK0   BANK1   BANK2   BANK3   BANK4   BANK5   BANK6   BANK7   BANK8   BANK9  BANK10  BANK1
      +1  BANK12  BANK13  BANK14  BANK15  BANK16  BANK17  BANK18  BANK19  BANK20  BANK21  BANK22  BANK23  BANK24  BANK25
  5755 ;;      Params:         0       0       0       0       0       0       0       0       0       0       0       0       
      +0       0       0       0       0       0       0       0       0       0       0       0       0       0       0
  5756 ;;      Locals:         1       0       0       0       0       0       0       0       0       0       0       0       
      +0       0       0       0       0       0       0       0       0       0       0       0       0       0       0
  5757 ;;      Temps:          0       0       0       0       0       0       0       0       0       0       0       0       
      +0       0       0       0       0       0       0       0       0       0       0       0       0       0       0
  5758 ;;      Totals:         1       0       0       0       0       0       0       0       0       0       0       0       
      +0       0       0       0       0       0       0       0       0       0       0       0       0       0       0
  5759 ;;Total ram usage:        1 bytes
  5760 ;; Hardware stack levels used:    1
  5761 ;; Hardware stack levels required when called:    1
  5762 ;; This function calls:
  5763 ;;		_EUSART1_Write
  5764 ;; This function is called by:
  5765 ;;		_fputc
  5766 ;; This function uses a non-reentrant model
  5767 ;;
  5768                           
  5769                           
  5770                           ;psect for function _putch
  5771  015E                     _putch:
  5772                           
  5773                           ;incstack = 0
  5774                           ; Regs used in _putch: [wreg+status,2+status,0+pclath+cstack]
  5775                           ;putch@txData stored from wreg
  5776  015E  00F1               	movwf	putch@txData
  5777  015F                     l2472:
  5778                           
  5779                           ;mcc_generated_files/eusart1.c: 146: void putch(char txData);mcc_generated_files/eusart1
      +                          .c: 147: {;mcc_generated_files/eusart1.c: 148:     EUSART1_Write(txData);
  5780  015F  0871               	movf	putch@txData,w
  5781  0160  3181  219E  3181   	fcall	_EUSART1_Write
  5782  0163                     l740:
  5783  0163  0008               	return
  5784  0164                     __end_of_putch:
  5785                           
  5786                           	psect	text20
  5787  019E                     __ptext20:	
  5788 ;; *************** function _EUSART1_Write *****************
  5789 ;; Defined at:
  5790 ;;		line 132 in file "mcc_generated_files/eusart1.c"
  5791 ;; Parameters:    Size  Location     Type
  5792 ;;  txData          1    wreg     unsigned char 
  5793 ;; Auto vars:     Size  Location     Type
  5794 ;;  txData          1    0[COMMON] unsigned char 
  5795 ;; Return value:  Size  Location     Type
  5796 ;;                  1    wreg      void 
  5797 ;; Registers used:
  5798 ;;		wreg
  5799 ;; Tracked objects:
  5800 ;;		On entry : 0/0
  5801 ;;		On exit  : 0/0
  5802 ;;		Unchanged: 0/0
  5803 ;; Data sizes:     COMMON   BANK0   BANK1   BANK2   BANK3   BANK4   BANK5   BANK6   BANK7   BANK8   BANK9  BANK10  BANK1
      +1  BANK12  BANK13  BANK14  BANK15  BANK16  BANK17  BANK18  BANK19  BANK20  BANK21  BANK22  BANK23  BANK24  BANK25
  5804 ;;      Params:         0       0       0       0       0       0       0       0       0       0       0       0       
      +0       0       0       0       0       0       0       0       0       0       0       0       0       0       0
  5805 ;;      Locals:         1       0       0       0       0       0       0       0       0       0       0       0       
      +0       0       0       0       0       0       0       0       0       0       0       0       0       0       0
  5806 ;;      Temps:          0       0       0       0       0       0       0       0       0       0       0       0       
      +0       0       0       0       0       0       0       0       0       0       0       0       0       0       0
  5807 ;;      Totals:         1       0       0       0       0       0       0       0       0       0       0       0       
      +0       0       0       0       0       0       0       0       0       0       0       0       0       0       0
  5808 ;;Total ram usage:        1 bytes
  5809 ;; Hardware stack levels used:    1
  5810 ;; This function calls:
  5811 ;;		Nothing
  5812 ;; This function is called by:
  5813 ;;		_putch
  5814 ;; This function uses a non-reentrant model
  5815 ;;
  5816                           
  5817                           
  5818                           ;psect for function _EUSART1_Write
  5819  019E                     _EUSART1_Write:
  5820                           
  5821                           ;incstack = 0
  5822                           ; Regs used in _EUSART1_Write: [wreg]
  5823                           ;EUSART1_Write@txData stored from wreg
  5824  019E  00F0               	movwf	EUSART1_Write@txData
  5825  019F                     l2468:
  5826  019F                     l731:	
  5827                           ;mcc_generated_files/eusart1.c: 135:     {;mcc_generated_files/eusart1.c: 136:     }
  5828                           
  5829                           
  5830                           ;mcc_generated_files/eusart1.c: 134:     while(0 == PIR3bits.TX1IF)
  5831  019F  014E               	movlb	14	; select bank14
  5832  01A0  1E0F               	btfss	15,4	;volatile
  5833  01A1  29A3               	goto	u1001
  5834  01A2  29A4               	goto	u1000
  5835  01A3                     u1001:
  5836  01A3  299F               	goto	l731
  5837  01A4                     u1000:
  5838  01A4                     l2470:
  5839                           
  5840                           ;mcc_generated_files/eusart1.c: 138:     TX1REG = txData;
  5841  01A4  0870               	movf	EUSART1_Write@txData,w
  5842  01A5  0142               	movlb	2	; select bank2
  5843  01A6  009A               	movwf	26	;volatile
  5844  01A7                     l734:
  5845  01A7  0008               	return
  5846  01A8                     __end_of_EUSART1_Write:
  5847                           
  5848                           	psect	text21
  5849  0208                     __ptext21:	
  5850 ;; *************** function _abs *****************
  5851 ;; Defined at:
  5852 ;;		line 1 in file "D:\program files\Microchip\xc8\v2.31\pic\sources\c99\common\abs.c"
  5853 ;; Parameters:    Size  Location     Type
  5854 ;;  a               2    3[COMMON] int 
  5855 ;; Auto vars:     Size  Location     Type
  5856 ;;		None
  5857 ;; Return value:  Size  Location     Type
  5858 ;;                  2    3[COMMON] int 
  5859 ;; Registers used:
  5860 ;;		wreg, status,2, status,0
  5861 ;; Tracked objects:
  5862 ;;		On entry : 0/0
  5863 ;;		On exit  : 0/0
  5864 ;;		Unchanged: 0/0
  5865 ;; Data sizes:     COMMON   BANK0   BANK1   BANK2   BANK3   BANK4   BANK5   BANK6   BANK7   BANK8   BANK9  BANK10  BANK1
      +1  BANK12  BANK13  BANK14  BANK15  BANK16  BANK17  BANK18  BANK19  BANK20  BANK21  BANK22  BANK23  BANK24  BANK25
  5866 ;;      Params:         2       0       0       0       0       0       0       0       0       0       0       0       
      +0       0       0       0       0       0       0       0       0       0       0       0       0       0       0
  5867 ;;      Locals:         0       0       0       0       0       0       0       0       0       0       0       0       
      +0       0       0       0       0       0       0       0       0       0       0       0       0       0       0
  5868 ;;      Temps:          2       0       0       0       0       0       0       0       0       0       0       0       
      +0       0       0       0       0       0       0       0       0       0       0       0       0       0       0
  5869 ;;      Totals:         4       0       0       0       0       0       0       0       0       0       0       0       
      +0       0       0       0       0       0       0       0       0       0       0       0       0       0       0
  5870 ;;Total ram usage:        4 bytes
  5871 ;; Hardware stack levels used:    1
  5872 ;; This function calls:
  5873 ;;		Nothing
  5874 ;; This function is called by:
  5875 ;;		_dtoa
  5876 ;; This function uses a non-reentrant model
  5877 ;;
  5878                           
  5879                           
  5880                           ;psect for function _abs
  5881  0208                     _abs:
  5882  0208                     l2594:	
  5883                           ;incstack = 0
  5884                           ; Regs used in _abs: [wreg+status,2+status,0]
  5885                           
  5886  0208  0874               	movf	abs@a+1,w
  5887  0209  3A80               	xorlw	128
  5888  020A  00F5               	movwf	??_abs
  5889  020B  3080               	movlw	128
  5890  020C  0275               	subwf	??_abs,w
  5891  020D  1D03               	skipz
  5892  020E  2A11               	goto	u1325
  5893  020F  3001               	movlw	1
  5894  0210  0273               	subwf	abs@a,w
  5895  0211                     u1325:
  5896  0211  1803               	skipnc
  5897  0212  2A14               	goto	u1321
  5898  0213  2A15               	goto	u1320
  5899  0214                     u1321:
  5900  0214  2A21               	goto	l1383
  5901  0215                     u1320:
  5902  0215                     l2596:
  5903  0215  0973               	comf	abs@a,w
  5904  0216  00F5               	movwf	??_abs
  5905  0217  0974               	comf	abs@a+1,w
  5906  0218  00F6               	movwf	??_abs+1
  5907  0219  0AF5               	incf	??_abs,f
  5908  021A  1903               	skipnz
  5909  021B  0AF6               	incf	??_abs+1,f
  5910  021C  0875               	movf	??_abs,w
  5911  021D  00F3               	movwf	?_abs
  5912  021E  0876               	movf	??_abs+1,w
  5913  021F  00F4               	movwf	?_abs+1
  5914  0220  2A21               	goto	l1386
  5915  0221                     l1383:
  5916  0221                     l1386:
  5917  0221  0008               	return
  5918  0222                     __end_of_abs:
  5919                           
  5920                           	psect	text22
  5921  049C                     __ptext22:	
  5922 ;; *************** function ___aomod *****************
  5923 ;; Defined at:
  5924 ;;		line 7 in file "D:\program files\Microchip\xc8\v2.31\pic\sources\c99\common\aomod.c"
  5925 ;; Parameters:    Size  Location     Type
  5926 ;;  divisor         8    0[BANK0 ] long long 
  5927 ;;  dividend        8    8[BANK0 ] long long 
  5928 ;; Auto vars:     Size  Location     Type
  5929 ;;  sign            1    2[COMMON] unsigned char 
  5930 ;;  counter         1    1[COMMON] unsigned char 
  5931 ;; Return value:  Size  Location     Type
  5932 ;;                  8    0[BANK0 ] long long 
  5933 ;; Registers used:
  5934 ;;		wreg, fsr1l, fsr1h, status,2, status,0
  5935 ;; Tracked objects:
  5936 ;;		On entry : 0/0
  5937 ;;		On exit  : 0/0
  5938 ;;		Unchanged: 0/0
  5939 ;; Data sizes:     COMMON   BANK0   BANK1   BANK2   BANK3   BANK4   BANK5   BANK6   BANK7   BANK8   BANK9  BANK10  BANK1
      +1  BANK12  BANK13  BANK14  BANK15  BANK16  BANK17  BANK18  BANK19  BANK20  BANK21  BANK22  BANK23  BANK24  BANK25
  5940 ;;      Params:         0      16       0       0       0       0       0       0       0       0       0       0       
      +0       0       0       0       0       0       0       0       0       0       0       0       0       0       0
  5941 ;;      Locals:         2       0       0       0       0       0       0       0       0       0       0       0       
      +0       0       0       0       0       0       0       0       0       0       0       0       0       0       0
  5942 ;;      Temps:          1       0       0       0       0       0       0       0       0       0       0       0       
      +0       0       0       0       0       0       0       0       0       0       0       0       0       0       0
  5943 ;;      Totals:         3      16       0       0       0       0       0       0       0       0       0       0       
      +0       0       0       0       0       0       0       0       0       0       0       0       0       0       0
  5944 ;;Total ram usage:       19 bytes
  5945 ;; Hardware stack levels used:    1
  5946 ;; This function calls:
  5947 ;;		Nothing
  5948 ;; This function is called by:
  5949 ;;		_dtoa
  5950 ;; This function uses a non-reentrant model
  5951 ;;
  5952                           
  5953                           
  5954                           ;psect for function ___aomod
  5955  049C                     ___aomod:
  5956  049C                     l2544:	
  5957                           ;incstack = 0
  5958                           ; Regs used in ___aomod: [wreg+fsr1l+fsr1h+status,2+status,0]
  5959                           
  5960  049C  01F2               	clrf	___aomod@sign
  5961  049D                     l2546:
  5962  049D  3028               	movlw	low ___aomod@dividend
  5963  049E  0086               	movwf	6
  5964  049F  3000               	movlw	high ___aomod@dividend
  5965  04A0  0087               	movwf	7
  5966  04A1  3F47               	moviw [7]fsr1
  5967  04A2  00F0               	movwf	??___aomod
  5968  04A3  1FF0               	btfss	??___aomod,7
  5969  04A4  2CA6               	goto	u1181
  5970  04A5  2CA7               	goto	u1180
  5971  04A6                     u1181:
  5972  04A6  2CC8               	goto	l2550
  5973  04A7                     u1180:
  5974  04A7                     l2548:
  5975  04A7  0140               	movlb	0	; select bank0
  5976  04A8  09A8               	comf	___aomod@dividend,f
  5977  04A9  09A9               	comf	___aomod@dividend+1,f
  5978  04AA  09AA               	comf	___aomod@dividend+2,f
  5979  04AB  09AB               	comf	___aomod@dividend+3,f
  5980  04AC  09AC               	comf	___aomod@dividend+4,f
  5981  04AD  09AD               	comf	___aomod@dividend+5,f
  5982  04AE  09AE               	comf	___aomod@dividend+6,f
  5983  04AF  09AF               	comf	___aomod@dividend+7,f
  5984  04B0  0AA8               	incf	___aomod@dividend,f
  5985  04B1  1D03               	skipz
  5986  04B2  2CC6               	goto	u119lld
  5987  04B3  0AA9               	incf	___aomod@dividend+1,f
  5988  04B4  1D03               	skipz
  5989  04B5  2CC6               	goto	u119lld
  5990  04B6  0AAA               	incf	___aomod@dividend+2,f
  5991  04B7  1D03               	skipz
  5992  04B8  2CC6               	goto	u119lld
  5993  04B9  0AAB               	incf	___aomod@dividend+3,f
  5994  04BA  1D03               	skipz
  5995  04BB  2CC6               	goto	u119lld
  5996  04BC  0AAC               	incf	___aomod@dividend+4,f
  5997  04BD  1D03               	skipz
  5998  04BE  2CC6               	goto	u119lld
  5999  04BF  0AAD               	incf	___aomod@dividend+5,f
  6000  04C0  1D03               	skipz
  6001  04C1  2CC6               	goto	u119lld
  6002  04C2  0AAE               	incf	___aomod@dividend+6,f
  6003  04C3  1D03               	skipz
  6004  04C4  2CC6               	goto	u119lld
  6005  04C5  0AAF               	incf	___aomod@dividend+7,f
  6006  04C6                     u119lld:
  6007  04C6  01F2               	clrf	___aomod@sign
  6008  04C7  0AF2               	incf	___aomod@sign,f
  6009  04C8                     l2550:
  6010  04C8  3020               	movlw	low ___aomod@divisor
  6011  04C9  0086               	movwf	6
  6012  04CA  3000               	movlw	high ___aomod@divisor
  6013  04CB  0087               	movwf	7
  6014  04CC  3F47               	moviw [7]fsr1
  6015  04CD  00F0               	movwf	??___aomod
  6016  04CE  1FF0               	btfss	??___aomod,7
  6017  04CF  2CD1               	goto	u1201
  6018  04D0  2CD2               	goto	u1200
  6019  04D1                     u1201:
  6020  04D1  2CF1               	goto	l2554
  6021  04D2                     u1200:
  6022  04D2                     l2552:
  6023  04D2  0140               	movlb	0	; select bank0
  6024  04D3  09A0               	comf	___aomod@divisor,f
  6025  04D4  09A1               	comf	___aomod@divisor+1,f
  6026  04D5  09A2               	comf	___aomod@divisor+2,f
  6027  04D6  09A3               	comf	___aomod@divisor+3,f
  6028  04D7  09A4               	comf	___aomod@divisor+4,f
  6029  04D8  09A5               	comf	___aomod@divisor+5,f
  6030  04D9  09A6               	comf	___aomod@divisor+6,f
  6031  04DA  09A7               	comf	___aomod@divisor+7,f
  6032  04DB  0AA0               	incf	___aomod@divisor,f
  6033  04DC  1D03               	skipz
  6034  04DD  2CF1               	goto	u121lld
  6035  04DE  0AA1               	incf	___aomod@divisor+1,f
  6036  04DF  1D03               	skipz
  6037  04E0  2CF1               	goto	u121lld
  6038  04E1  0AA2               	incf	___aomod@divisor+2,f
  6039  04E2  1D03               	skipz
  6040  04E3  2CF1               	goto	u121lld
  6041  04E4  0AA3               	incf	___aomod@divisor+3,f
  6042  04E5  1D03               	skipz
  6043  04E6  2CF1               	goto	u121lld
  6044  04E7  0AA4               	incf	___aomod@divisor+4,f
  6045  04E8  1D03               	skipz
  6046  04E9  2CF1               	goto	u121lld
  6047  04EA  0AA5               	incf	___aomod@divisor+5,f
  6048  04EB  1D03               	skipz
  6049  04EC  2CF1               	goto	u121lld
  6050  04ED  0AA6               	incf	___aomod@divisor+6,f
  6051  04EE  1D03               	skipz
  6052  04EF  2CF1               	goto	u121lld
  6053  04F0  0AA7               	incf	___aomod@divisor+7,f
  6054  04F1                     u121lld:
  6055  04F1                     l2554:
  6056  04F1  0140               	movlb	0	; select bank0
  6057  04F2  0820               	movf	___aomod@divisor,w
  6058  04F3  0421               	iorwf	___aomod@divisor+1,w
  6059  04F4  0422               	iorwf	___aomod@divisor+2,w
  6060  04F5  0423               	iorwf	___aomod@divisor+3,w
  6061  04F6  0424               	iorwf	___aomod@divisor+4,w
  6062  04F7  0425               	iorwf	___aomod@divisor+5,w
  6063  04F8  0426               	iorwf	___aomod@divisor+6,w
  6064  04F9  0427               	iorwf	___aomod@divisor+7,w
  6065  04FA  1903               	skipnz
  6066  04FB  2CFD               	goto	u1221
  6067  04FC  2CFE               	goto	u1220
  6068  04FD                     u1221:
  6069  04FD  2D51               	goto	l2570
  6070  04FE                     u1220:
  6071  04FE                     l2556:
  6072  04FE  01F1               	clrf	___aomod@counter
  6073  04FF  0AF1               	incf	___aomod@counter,f
  6074  0500  2D0D               	goto	l2562
  6075  0501                     l2558:
  6076  0501  35A0               	lslf	___aomod@divisor,f
  6077  0502  0DA1               	rlf	___aomod@divisor+1,f
  6078  0503  0DA2               	rlf	___aomod@divisor+2,f
  6079  0504  0DA3               	rlf	___aomod@divisor+3,f
  6080  0505  0DA4               	rlf	___aomod@divisor+4,f
  6081  0506  0DA5               	rlf	___aomod@divisor+5,f
  6082  0507  0DA6               	rlf	___aomod@divisor+6,f
  6083  0508  0DA7               	rlf	___aomod@divisor+7,f
  6084  0509                     l2560:
  6085  0509  3001               	movlw	1
  6086  050A  00F0               	movwf	??___aomod
  6087  050B  0870               	movf	??___aomod,w
  6088  050C  07F1               	addwf	___aomod@counter,f
  6089  050D                     l2562:
  6090  050D  1FA7               	btfss	___aomod@divisor+7,7
  6091  050E  2D10               	goto	u1231
  6092  050F  2D11               	goto	u1230
  6093  0510                     u1231:
  6094  0510  2D01               	goto	l2558
  6095  0511                     u1230:
  6096  0511                     l2564:
  6097  0511  0827               	movf	___aomod@divisor+7,w
  6098  0512  022F               	subwf	___aomod@dividend+7,w
  6099  0513  1D03               	skipz
  6100  0514  2D2F               	goto	u1245
  6101  0515  0826               	movf	___aomod@divisor+6,w
  6102  0516  022E               	subwf	___aomod@dividend+6,w
  6103  0517  1D03               	skipz
  6104  0518  2D2F               	goto	u1245
  6105  0519  0825               	movf	___aomod@divisor+5,w
  6106  051A  022D               	subwf	___aomod@dividend+5,w
  6107  051B  1D03               	skipz
  6108  051C  2D2F               	goto	u1245
  6109  051D  0824               	movf	___aomod@divisor+4,w
  6110  051E  022C               	subwf	___aomod@dividend+4,w
  6111  051F  1D03               	skipz
  6112  0520  2D2F               	goto	u1245
  6113  0521  0823               	movf	___aomod@divisor+3,w
  6114  0522  022B               	subwf	___aomod@dividend+3,w
  6115  0523  1D03               	skipz
  6116  0524  2D2F               	goto	u1245
  6117  0525  0822               	movf	___aomod@divisor+2,w
  6118  0526  022A               	subwf	___aomod@dividend+2,w
  6119  0527  1D03               	skipz
  6120  0528  2D2F               	goto	u1245
  6121  0529  0821               	movf	___aomod@divisor+1,w
  6122  052A  0229               	subwf	___aomod@dividend+1,w
  6123  052B  1D03               	skipz
  6124  052C  2D2F               	goto	u1245
  6125  052D  0820               	movf	___aomod@divisor,w
  6126  052E  0228               	subwf	___aomod@dividend,w
  6127  052F                     u1245:
  6128  052F  1C03               	skipc
  6129  0530  2D32               	goto	u1241
  6130  0531  2D33               	goto	u1240
  6131  0532                     u1241:
  6132  0532  2D43               	goto	l2568
  6133  0533                     u1240:
  6134  0533                     l2566:
  6135  0533  0820               	movf	___aomod@divisor,w
  6136  0534  02A8               	subwf	___aomod@dividend,f
  6137  0535  0821               	movf	___aomod@divisor+1,w
  6138  0536  3BA9               	subwfb	___aomod@dividend+1,f
  6139  0537  0822               	movf	___aomod@divisor+2,w
  6140  0538  3BAA               	subwfb	___aomod@dividend+2,f
  6141  0539  0823               	movf	___aomod@divisor+3,w
  6142  053A  3BAB               	subwfb	___aomod@dividend+3,f
  6143  053B  0824               	movf	___aomod@divisor+4,w
  6144  053C  3BAC               	subwfb	___aomod@dividend+4,f
  6145  053D  0825               	movf	___aomod@divisor+5,w
  6146  053E  3BAD               	subwfb	___aomod@dividend+5,f
  6147  053F  0826               	movf	___aomod@divisor+6,w
  6148  0540  3BAE               	subwfb	___aomod@dividend+6,f
  6149  0541  0827               	movf	___aomod@divisor+7,w
  6150  0542  3BAF               	subwfb	___aomod@dividend+7,f
  6151  0543                     l2568:
  6152  0543  36A7               	lsrf	___aomod@divisor+7,f
  6153  0544  0CA6               	rrf	___aomod@divisor+6,f
  6154  0545  0CA5               	rrf	___aomod@divisor+5,f
  6155  0546  0CA4               	rrf	___aomod@divisor+4,f
  6156  0547  0CA3               	rrf	___aomod@divisor+3,f
  6157  0548  0CA2               	rrf	___aomod@divisor+2,f
  6158  0549  0CA1               	rrf	___aomod@divisor+1,f
  6159  054A  0CA0               	rrf	___aomod@divisor,f
  6160  054B  3001               	movlw	1
  6161  054C  02F1               	subwf	___aomod@counter,f
  6162  054D  1D03               	btfss	3,2
  6163  054E  2D50               	goto	u1251
  6164  054F  2D51               	goto	u1250
  6165  0550                     u1251:
  6166  0550  2D11               	goto	l2564
  6167  0551                     u1250:
  6168  0551                     l2570:
  6169  0551  0872               	movf	___aomod@sign,w
  6170  0552  1903               	btfsc	3,2
  6171  0553  2D55               	goto	u1261
  6172  0554  2D56               	goto	u1260
  6173  0555                     u1261:
  6174  0555  2D74               	goto	l957
  6175  0556                     u1260:
  6176  0556                     l2572:
  6177  0556  09A8               	comf	___aomod@dividend,f
  6178  0557  09A9               	comf	___aomod@dividend+1,f
  6179  0558  09AA               	comf	___aomod@dividend+2,f
  6180  0559  09AB               	comf	___aomod@dividend+3,f
  6181  055A  09AC               	comf	___aomod@dividend+4,f
  6182  055B  09AD               	comf	___aomod@dividend+5,f
  6183  055C  09AE               	comf	___aomod@dividend+6,f
  6184  055D  09AF               	comf	___aomod@dividend+7,f
  6185  055E  0AA8               	incf	___aomod@dividend,f
  6186  055F  1D03               	skipz
  6187  0560  2D74               	goto	u127lld
  6188  0561  0AA9               	incf	___aomod@dividend+1,f
  6189  0562  1D03               	skipz
  6190  0563  2D74               	goto	u127lld
  6191  0564  0AAA               	incf	___aomod@dividend+2,f
  6192  0565  1D03               	skipz
  6193  0566  2D74               	goto	u127lld
  6194  0567  0AAB               	incf	___aomod@dividend+3,f
  6195  0568  1D03               	skipz
  6196  0569  2D74               	goto	u127lld
  6197  056A  0AAC               	incf	___aomod@dividend+4,f
  6198  056B  1D03               	skipz
  6199  056C  2D74               	goto	u127lld
  6200  056D  0AAD               	incf	___aomod@dividend+5,f
  6201  056E  1D03               	skipz
  6202  056F  2D74               	goto	u127lld
  6203  0570  0AAE               	incf	___aomod@dividend+6,f
  6204  0571  1D03               	skipz
  6205  0572  2D74               	goto	u127lld
  6206  0573  0AAF               	incf	___aomod@dividend+7,f
  6207  0574                     u127lld:
  6208  0574                     l957:
  6209  0574  0140               	movlb	0	; select bank0
  6210  0575  0828               	movf	___aomod@dividend,w
  6211  0576  00A0               	movwf	?___aomod
  6212  0577  0829               	movf	___aomod@dividend+1,w
  6213  0578  00A1               	movwf	?___aomod+1
  6214  0579  082A               	movf	___aomod@dividend+2,w
  6215  057A  00A2               	movwf	?___aomod+2
  6216  057B  082B               	movf	___aomod@dividend+3,w
  6217  057C  00A3               	movwf	?___aomod+3
  6218  057D  082C               	movf	___aomod@dividend+4,w
  6219  057E  00A4               	movwf	?___aomod+4
  6220  057F  082D               	movf	___aomod@dividend+5,w
  6221  0580  00A5               	movwf	?___aomod+5
  6222  0581  082E               	movf	___aomod@dividend+6,w
  6223  0582  00A6               	movwf	?___aomod+6
  6224  0583  082F               	movf	___aomod@dividend+7,w
  6225  0584  00A7               	movwf	?___aomod+7
  6226  0585                     l958:
  6227  0585  0008               	return
  6228  0586                     __end_of___aomod:
  6229                           
  6230                           	psect	text23
  6231  0586                     __ptext23:	
  6232 ;; *************** function ___aodiv *****************
  6233 ;; Defined at:
  6234 ;;		line 7 in file "D:\program files\Microchip\xc8\v2.31\pic\sources\c99\common\aodiv.c"
  6235 ;; Parameters:    Size  Location     Type
  6236 ;;  divisor         8    0[BANK0 ] long long 
  6237 ;;  dividend        8    8[BANK0 ] long long 
  6238 ;; Auto vars:     Size  Location     Type
  6239 ;;  quotient        8    3[COMMON] long long 
  6240 ;;  sign            1    2[COMMON] unsigned char 
  6241 ;;  counter         1    1[COMMON] unsigned char 
  6242 ;; Return value:  Size  Location     Type
  6243 ;;                  8    0[BANK0 ] long long 
  6244 ;; Registers used:
  6245 ;;		wreg, fsr1l, fsr1h, status,2, status,0
  6246 ;; Tracked objects:
  6247 ;;		On entry : 0/0
  6248 ;;		On exit  : 0/0
  6249 ;;		Unchanged: 0/0
  6250 ;; Data sizes:     COMMON   BANK0   BANK1   BANK2   BANK3   BANK4   BANK5   BANK6   BANK7   BANK8   BANK9  BANK10  BANK1
      +1  BANK12  BANK13  BANK14  BANK15  BANK16  BANK17  BANK18  BANK19  BANK20  BANK21  BANK22  BANK23  BANK24  BANK25
  6251 ;;      Params:         0      16       0       0       0       0       0       0       0       0       0       0       
      +0       0       0       0       0       0       0       0       0       0       0       0       0       0       0
  6252 ;;      Locals:        10       0       0       0       0       0       0       0       0       0       0       0       
      +0       0       0       0       0       0       0       0       0       0       0       0       0       0       0
  6253 ;;      Temps:          1       0       0       0       0       0       0       0       0       0       0       0       
      +0       0       0       0       0       0       0       0       0       0       0       0       0       0       0
  6254 ;;      Totals:        11      16       0       0       0       0       0       0       0       0       0       0       
      +0       0       0       0       0       0       0       0       0       0       0       0       0       0       0
  6255 ;;Total ram usage:       27 bytes
  6256 ;; Hardware stack levels used:    1
  6257 ;; This function calls:
  6258 ;;		Nothing
  6259 ;; This function is called by:
  6260 ;;		_dtoa
  6261 ;; This function uses a non-reentrant model
  6262 ;;
  6263                           
  6264                           
  6265                           ;psect for function ___aodiv
  6266  0586                     ___aodiv:
  6267  0586                     l2506:	
  6268                           ;incstack = 0
  6269                           ; Regs used in ___aodiv: [wreg+fsr1l+fsr1h+status,2+status,0]
  6270                           
  6271  0586  01F2               	clrf	___aodiv@sign
  6272  0587                     l2508:
  6273  0587  3020               	movlw	low ___aodiv@divisor
  6274  0588  0086               	movwf	6
  6275  0589  3000               	movlw	high ___aodiv@divisor
  6276  058A  0087               	movwf	7
  6277  058B  3F47               	moviw [7]fsr1
  6278  058C  00F0               	movwf	??___aodiv
  6279  058D  1FF0               	btfss	??___aodiv,7
  6280  058E  2D90               	goto	u1071
  6281  058F  2D91               	goto	u1070
  6282  0590                     u1071:
  6283  0590  2DB2               	goto	l2512
  6284  0591                     u1070:
  6285  0591                     l2510:
  6286  0591  0140               	movlb	0	; select bank0
  6287  0592  09A0               	comf	___aodiv@divisor,f
  6288  0593  09A1               	comf	___aodiv@divisor+1,f
  6289  0594  09A2               	comf	___aodiv@divisor+2,f
  6290  0595  09A3               	comf	___aodiv@divisor+3,f
  6291  0596  09A4               	comf	___aodiv@divisor+4,f
  6292  0597  09A5               	comf	___aodiv@divisor+5,f
  6293  0598  09A6               	comf	___aodiv@divisor+6,f
  6294  0599  09A7               	comf	___aodiv@divisor+7,f
  6295  059A  0AA0               	incf	___aodiv@divisor,f
  6296  059B  1D03               	skipz
  6297  059C  2DB0               	goto	u108lld
  6298  059D  0AA1               	incf	___aodiv@divisor+1,f
  6299  059E  1D03               	skipz
  6300  059F  2DB0               	goto	u108lld
  6301  05A0  0AA2               	incf	___aodiv@divisor+2,f
  6302  05A1  1D03               	skipz
  6303  05A2  2DB0               	goto	u108lld
  6304  05A3  0AA3               	incf	___aodiv@divisor+3,f
  6305  05A4  1D03               	skipz
  6306  05A5  2DB0               	goto	u108lld
  6307  05A6  0AA4               	incf	___aodiv@divisor+4,f
  6308  05A7  1D03               	skipz
  6309  05A8  2DB0               	goto	u108lld
  6310  05A9  0AA5               	incf	___aodiv@divisor+5,f
  6311  05AA  1D03               	skipz
  6312  05AB  2DB0               	goto	u108lld
  6313  05AC  0AA6               	incf	___aodiv@divisor+6,f
  6314  05AD  1D03               	skipz
  6315  05AE  2DB0               	goto	u108lld
  6316  05AF  0AA7               	incf	___aodiv@divisor+7,f
  6317  05B0                     u108lld:
  6318  05B0  01F2               	clrf	___aodiv@sign
  6319  05B1  0AF2               	incf	___aodiv@sign,f
  6320  05B2                     l2512:
  6321  05B2  3028               	movlw	low ___aodiv@dividend
  6322  05B3  0086               	movwf	6
  6323  05B4  3000               	movlw	high ___aodiv@dividend
  6324  05B5  0087               	movwf	7
  6325  05B6  3F47               	moviw [7]fsr1
  6326  05B7  00F0               	movwf	??___aodiv
  6327  05B8  1FF0               	btfss	??___aodiv,7
  6328  05B9  2DBB               	goto	u1091
  6329  05BA  2DBC               	goto	u1090
  6330  05BB                     u1091:
  6331  05BB  2DDF               	goto	l2518
  6332  05BC                     u1090:
  6333  05BC                     l2514:
  6334  05BC  0140               	movlb	0	; select bank0
  6335  05BD  09A8               	comf	___aodiv@dividend,f
  6336  05BE  09A9               	comf	___aodiv@dividend+1,f
  6337  05BF  09AA               	comf	___aodiv@dividend+2,f
  6338  05C0  09AB               	comf	___aodiv@dividend+3,f
  6339  05C1  09AC               	comf	___aodiv@dividend+4,f
  6340  05C2  09AD               	comf	___aodiv@dividend+5,f
  6341  05C3  09AE               	comf	___aodiv@dividend+6,f
  6342  05C4  09AF               	comf	___aodiv@dividend+7,f
  6343  05C5  0AA8               	incf	___aodiv@dividend,f
  6344  05C6  1D03               	skipz
  6345  05C7  2DDB               	goto	u110lld
  6346  05C8  0AA9               	incf	___aodiv@dividend+1,f
  6347  05C9  1D03               	skipz
  6348  05CA  2DDB               	goto	u110lld
  6349  05CB  0AAA               	incf	___aodiv@dividend+2,f
  6350  05CC  1D03               	skipz
  6351  05CD  2DDB               	goto	u110lld
  6352  05CE  0AAB               	incf	___aodiv@dividend+3,f
  6353  05CF  1D03               	skipz
  6354  05D0  2DDB               	goto	u110lld
  6355  05D1  0AAC               	incf	___aodiv@dividend+4,f
  6356  05D2  1D03               	skipz
  6357  05D3  2DDB               	goto	u110lld
  6358  05D4  0AAD               	incf	___aodiv@dividend+5,f
  6359  05D5  1D03               	skipz
  6360  05D6  2DDB               	goto	u110lld
  6361  05D7  0AAE               	incf	___aodiv@dividend+6,f
  6362  05D8  1D03               	skipz
  6363  05D9  2DDB               	goto	u110lld
  6364  05DA  0AAF               	incf	___aodiv@dividend+7,f
  6365  05DB                     u110lld:
  6366  05DB                     l2516:
  6367  05DB  3001               	movlw	1
  6368  05DC  00F0               	movwf	??___aodiv
  6369  05DD  0870               	movf	??___aodiv,w
  6370  05DE  06F2               	xorwf	___aodiv@sign,f
  6371  05DF                     l2518:
  6372  05DF  3073               	movlw	low ___aodiv@quotient
  6373  05E0  0086               	movwf	6
  6374  05E1  3000               	movlw	high ___aodiv@quotient
  6375  05E2  0087               	movwf	7
  6376  05E3  3008               	movlw	8
  6377  05E4  00F0               	movwf	??___aodiv
  6378  05E5  3000               	movlw	0
  6379  05E6                     u1110:
  6380  05E6  001E               	movwi fsr1++
  6381  05E7  0BF0               	decfsz	??___aodiv,f
  6382  05E8  2DE6               	goto	u1110
  6383  05E9                     l2520:
  6384  05E9  0140               	movlb	0	; select bank0
  6385  05EA  0820               	movf	___aodiv@divisor,w
  6386  05EB  0421               	iorwf	___aodiv@divisor+1,w
  6387  05EC  0422               	iorwf	___aodiv@divisor+2,w
  6388  05ED  0423               	iorwf	___aodiv@divisor+3,w
  6389  05EE  0424               	iorwf	___aodiv@divisor+4,w
  6390  05EF  0425               	iorwf	___aodiv@divisor+5,w
  6391  05F0  0426               	iorwf	___aodiv@divisor+6,w
  6392  05F1  0427               	iorwf	___aodiv@divisor+7,w
  6393  05F2  1903               	skipnz
  6394  05F3  2DF5               	goto	u1121
  6395  05F4  2DF6               	goto	u1120
  6396  05F5                     u1121:
  6397  05F5  2E52               	goto	l2540
  6398  05F6                     u1120:
  6399  05F6                     l2522:
  6400  05F6  01F1               	clrf	___aodiv@counter
  6401  05F7  0AF1               	incf	___aodiv@counter,f
  6402  05F8  2E05               	goto	l2528
  6403  05F9                     l2524:
  6404  05F9  35A0               	lslf	___aodiv@divisor,f
  6405  05FA  0DA1               	rlf	___aodiv@divisor+1,f
  6406  05FB  0DA2               	rlf	___aodiv@divisor+2,f
  6407  05FC  0DA3               	rlf	___aodiv@divisor+3,f
  6408  05FD  0DA4               	rlf	___aodiv@divisor+4,f
  6409  05FE  0DA5               	rlf	___aodiv@divisor+5,f
  6410  05FF  0DA6               	rlf	___aodiv@divisor+6,f
  6411  0600  0DA7               	rlf	___aodiv@divisor+7,f
  6412  0601                     l2526:
  6413  0601  3001               	movlw	1
  6414  0602  00F0               	movwf	??___aodiv
  6415  0603  0870               	movf	??___aodiv,w
  6416  0604  07F1               	addwf	___aodiv@counter,f
  6417  0605                     l2528:
  6418  0605  1FA7               	btfss	___aodiv@divisor+7,7
  6419  0606  2E08               	goto	u1131
  6420  0607  2E09               	goto	u1130
  6421  0608                     u1131:
  6422  0608  2DF9               	goto	l2524
  6423  0609                     u1130:
  6424  0609                     l2530:
  6425  0609  35F3               	lslf	___aodiv@quotient,f
  6426  060A  0DF4               	rlf	___aodiv@quotient+1,f
  6427  060B  0DF5               	rlf	___aodiv@quotient+2,f
  6428  060C  0DF6               	rlf	___aodiv@quotient+3,f
  6429  060D  0DF7               	rlf	___aodiv@quotient+4,f
  6430  060E  0DF8               	rlf	___aodiv@quotient+5,f
  6431  060F  0DF9               	rlf	___aodiv@quotient+6,f
  6432  0610  0DFA               	rlf	___aodiv@quotient+7,f
  6433  0611                     l2532:
  6434  0611  0827               	movf	___aodiv@divisor+7,w
  6435  0612  022F               	subwf	___aodiv@dividend+7,w
  6436  0613  1D03               	skipz
  6437  0614  2E2F               	goto	u1145
  6438  0615  0826               	movf	___aodiv@divisor+6,w
  6439  0616  022E               	subwf	___aodiv@dividend+6,w
  6440  0617  1D03               	skipz
  6441  0618  2E2F               	goto	u1145
  6442  0619  0825               	movf	___aodiv@divisor+5,w
  6443  061A  022D               	subwf	___aodiv@dividend+5,w
  6444  061B  1D03               	skipz
  6445  061C  2E2F               	goto	u1145
  6446  061D  0824               	movf	___aodiv@divisor+4,w
  6447  061E  022C               	subwf	___aodiv@dividend+4,w
  6448  061F  1D03               	skipz
  6449  0620  2E2F               	goto	u1145
  6450  0621  0823               	movf	___aodiv@divisor+3,w
  6451  0622  022B               	subwf	___aodiv@dividend+3,w
  6452  0623  1D03               	skipz
  6453  0624  2E2F               	goto	u1145
  6454  0625  0822               	movf	___aodiv@divisor+2,w
  6455  0626  022A               	subwf	___aodiv@dividend+2,w
  6456  0627  1D03               	skipz
  6457  0628  2E2F               	goto	u1145
  6458  0629  0821               	movf	___aodiv@divisor+1,w
  6459  062A  0229               	subwf	___aodiv@dividend+1,w
  6460  062B  1D03               	skipz
  6461  062C  2E2F               	goto	u1145
  6462  062D  0820               	movf	___aodiv@divisor,w
  6463  062E  0228               	subwf	___aodiv@dividend,w
  6464  062F                     u1145:
  6465  062F  1C03               	skipc
  6466  0630  2E32               	goto	u1141
  6467  0631  2E33               	goto	u1140
  6468  0632                     u1141:
  6469  0632  2E44               	goto	l2538
  6470  0633                     u1140:
  6471  0633                     l2534:
  6472  0633  0820               	movf	___aodiv@divisor,w
  6473  0634  02A8               	subwf	___aodiv@dividend,f
  6474  0635  0821               	movf	___aodiv@divisor+1,w
  6475  0636  3BA9               	subwfb	___aodiv@dividend+1,f
  6476  0637  0822               	movf	___aodiv@divisor+2,w
  6477  0638  3BAA               	subwfb	___aodiv@dividend+2,f
  6478  0639  0823               	movf	___aodiv@divisor+3,w
  6479  063A  3BAB               	subwfb	___aodiv@dividend+3,f
  6480  063B  0824               	movf	___aodiv@divisor+4,w
  6481  063C  3BAC               	subwfb	___aodiv@dividend+4,f
  6482  063D  0825               	movf	___aodiv@divisor+5,w
  6483  063E  3BAD               	subwfb	___aodiv@dividend+5,f
  6484  063F  0826               	movf	___aodiv@divisor+6,w
  6485  0640  3BAE               	subwfb	___aodiv@dividend+6,f
  6486  0641  0827               	movf	___aodiv@divisor+7,w
  6487  0642  3BAF               	subwfb	___aodiv@dividend+7,f
  6488  0643                     l2536:
  6489  0643  1473               	bsf	___aodiv@quotient,0
  6490  0644                     l2538:
  6491  0644  36A7               	lsrf	___aodiv@divisor+7,f
  6492  0645  0CA6               	rrf	___aodiv@divisor+6,f
  6493  0646  0CA5               	rrf	___aodiv@divisor+5,f
  6494  0647  0CA4               	rrf	___aodiv@divisor+4,f
  6495  0648  0CA3               	rrf	___aodiv@divisor+3,f
  6496  0649  0CA2               	rrf	___aodiv@divisor+2,f
  6497  064A  0CA1               	rrf	___aodiv@divisor+1,f
  6498  064B  0CA0               	rrf	___aodiv@divisor,f
  6499  064C  3001               	movlw	1
  6500  064D  02F1               	subwf	___aodiv@counter,f
  6501  064E  1D03               	btfss	3,2
  6502  064F  2E51               	goto	u1151
  6503  0650  2E52               	goto	u1150
  6504  0651                     u1151:
  6505  0651  2E09               	goto	l2530
  6506  0652                     u1150:
  6507  0652                     l2540:
  6508  0652  0872               	movf	___aodiv@sign,w
  6509  0653  1903               	btfsc	3,2
  6510  0654  2E56               	goto	u1161
  6511  0655  2E57               	goto	u1160
  6512  0656                     u1161:
  6513  0656  2E75               	goto	l944
  6514  0657                     u1160:
  6515  0657                     l2542:
  6516  0657  09F3               	comf	___aodiv@quotient,f
  6517  0658  09F4               	comf	___aodiv@quotient+1,f
  6518  0659  09F5               	comf	___aodiv@quotient+2,f
  6519  065A  09F6               	comf	___aodiv@quotient+3,f
  6520  065B  09F7               	comf	___aodiv@quotient+4,f
  6521  065C  09F8               	comf	___aodiv@quotient+5,f
  6522  065D  09F9               	comf	___aodiv@quotient+6,f
  6523  065E  09FA               	comf	___aodiv@quotient+7,f
  6524  065F  0AF3               	incf	___aodiv@quotient,f
  6525  0660  1D03               	skipz
  6526  0661  2E75               	goto	u117lld
  6527  0662  0AF4               	incf	___aodiv@quotient+1,f
  6528  0663  1D03               	skipz
  6529  0664  2E75               	goto	u117lld
  6530  0665  0AF5               	incf	___aodiv@quotient+2,f
  6531  0666  1D03               	skipz
  6532  0667  2E75               	goto	u117lld
  6533  0668  0AF6               	incf	___aodiv@quotient+3,f
  6534  0669  1D03               	skipz
  6535  066A  2E75               	goto	u117lld
  6536  066B  0AF7               	incf	___aodiv@quotient+4,f
  6537  066C  1D03               	skipz
  6538  066D  2E75               	goto	u117lld
  6539  066E  0AF8               	incf	___aodiv@quotient+5,f
  6540  066F  1D03               	skipz
  6541  0670  2E75               	goto	u117lld
  6542  0671  0AF9               	incf	___aodiv@quotient+6,f
  6543  0672  1D03               	skipz
  6544  0673  2E75               	goto	u117lld
  6545  0674  0AFA               	incf	___aodiv@quotient+7,f
  6546  0675                     u117lld:
  6547  0675                     l944:
  6548  0675  0873               	movf	___aodiv@quotient,w
  6549  0676  0140               	movlb	0	; select bank0
  6550  0677  00A0               	movwf	?___aodiv
  6551  0678  0874               	movf	___aodiv@quotient+1,w
  6552  0679  00A1               	movwf	?___aodiv+1
  6553  067A  0875               	movf	___aodiv@quotient+2,w
  6554  067B  00A2               	movwf	?___aodiv+2
  6555  067C  0876               	movf	___aodiv@quotient+3,w
  6556  067D  00A3               	movwf	?___aodiv+3
  6557  067E  0877               	movf	___aodiv@quotient+4,w
  6558  067F  00A4               	movwf	?___aodiv+4
  6559  0680  0878               	movf	___aodiv@quotient+5,w
  6560  0681  00A5               	movwf	?___aodiv+5
  6561  0682  0879               	movf	___aodiv@quotient+6,w
  6562  0683  00A6               	movwf	?___aodiv+6
  6563  0684  087A               	movf	___aodiv@quotient+7,w
  6564  0685  00A7               	movwf	?___aodiv+7
  6565  0686                     l945:
  6566  0686  0008               	return
  6567  0687                     __end_of___aodiv:
  6568                           
  6569                           	psect	text24
  6570  0194                     __ptext24:	
  6571 ;; *************** function _Send_I2C_StartBit *****************
  6572 ;; Defined at:
  6573 ;;		line 85 in file "../../Lib/I2C/I2C.c"
  6574 ;; Parameters:    Size  Location     Type
  6575 ;;		None
  6576 ;; Auto vars:     Size  Location     Type
  6577 ;;		None
  6578 ;; Return value:  Size  Location     Type
  6579 ;;                  1    wreg      void 
  6580 ;; Registers used:
  6581 ;;		None
  6582 ;; Tracked objects:
  6583 ;;		On entry : 0/0
  6584 ;;		On exit  : 0/0
  6585 ;;		Unchanged: 0/0
  6586 ;; Data sizes:     COMMON   BANK0   BANK1   BANK2   BANK3   BANK4   BANK5   BANK6   BANK7   BANK8   BANK9  BANK10  BANK1
      +1  BANK12  BANK13  BANK14  BANK15  BANK16  BANK17  BANK18  BANK19  BANK20  BANK21  BANK22  BANK23  BANK24  BANK25
  6587 ;;      Params:         0       0       0       0       0       0       0       0       0       0       0       0       
      +0       0       0       0       0       0       0       0       0       0       0       0       0       0       0
  6588 ;;      Locals:         0       0       0       0       0       0       0       0       0       0       0       0       
      +0       0       0       0       0       0       0       0       0       0       0       0       0       0       0
  6589 ;;      Temps:          0       0       0       0       0       0       0       0       0       0       0       0       
      +0       0       0       0       0       0       0       0       0       0       0       0       0       0       0
  6590 ;;      Totals:         0       0       0       0       0       0       0       0       0       0       0       0       
      +0       0       0       0       0       0       0       0       0       0       0       0       0       0       0
  6591 ;;Total ram usage:        0 bytes
  6592 ;; Hardware stack levels used:    1
  6593 ;; This function calls:
  6594 ;;		Nothing
  6595 ;; This function is called by:
  6596 ;;		_I2C_Scan
  6597 ;;		_WriteByteBM1383
  6598 ;;		_ReadByteBM1383
  6599 ;; This function uses a non-reentrant model
  6600 ;;
  6601                           
  6602                           
  6603                           ;psect for function _Send_I2C_StartBit
  6604  0194                     _Send_I2C_StartBit:
  6605  0194                     l2724:	
  6606                           ;incstack = 0
  6607                           ; Regs used in _Send_I2C_StartBit: []
  6608                           
  6609                           
  6610                           ;../../Lib/I2C/I2C.c: 87:     PIR3bits.SSP1IF=0;
  6611  0194  014E               	movlb	14	; select bank14
  6612  0195  100F               	bcf	15,0	;volatile
  6613                           
  6614                           ;../../Lib/I2C/I2C.c: 88:     SSP1CON2bits.SEN=1;
  6615  0196  0143               	movlb	3	; select bank3
  6616  0197  1411               	bsf	17,0	;volatile
  6617  0198                     l46:	
  6618                           ;../../Lib/I2C/I2C.c: 89:     while(!PIR3bits.SSP1IF);
  6619                           
  6620  0198  014E               	movlb	14	; select bank14
  6621  0199  1C0F               	btfss	15,0	;volatile
  6622  019A  299C               	goto	u1551
  6623  019B  299D               	goto	u1550
  6624  019C                     u1551:
  6625  019C  2998               	goto	l46
  6626  019D                     u1550:
  6627  019D                     l49:
  6628  019D  0008               	return
  6629  019E                     __end_of_Send_I2C_StartBit:
  6630                           
  6631                           	psect	text25
  6632  01B2                     __ptext25:	
  6633 ;; *************** function _Send_I2C_ControlByte *****************
  6634 ;; Defined at:
  6635 ;;		line 68 in file "../../Lib/I2C/I2C.c"
  6636 ;; Parameters:    Size  Location     Type
  6637 ;;  Dev_Add         1    wreg     unsigned char 
  6638 ;;  RW_bit          1    0[COMMON] unsigned char 
  6639 ;; Auto vars:     Size  Location     Type
  6640 ;;  Dev_Add         1    1[COMMON] unsigned char 
  6641 ;; Return value:  Size  Location     Type
  6642 ;;                  1    wreg      void 
  6643 ;; Registers used:
  6644 ;;		wreg, status,2, status,0
  6645 ;; Tracked objects:
  6646 ;;		On entry : 0/0
  6647 ;;		On exit  : 0/0
  6648 ;;		Unchanged: 0/0
  6649 ;; Data sizes:     COMMON   BANK0   BANK1   BANK2   BANK3   BANK4   BANK5   BANK6   BANK7   BANK8   BANK9  BANK10  BANK1
      +1  BANK12  BANK13  BANK14  BANK15  BANK16  BANK17  BANK18  BANK19  BANK20  BANK21  BANK22  BANK23  BANK24  BANK25
  6650 ;;      Params:         1       0       0       0       0       0       0       0       0       0       0       0       
      +0       0       0       0       0       0       0       0       0       0       0       0       0       0       0
  6651 ;;      Locals:         1       0       0       0       0       0       0       0       0       0       0       0       
      +0       0       0       0       0       0       0       0       0       0       0       0       0       0       0
  6652 ;;      Temps:          0       0       0       0       0       0       0       0       0       0       0       0       
      +0       0       0       0       0       0       0       0       0       0       0       0       0       0       0
  6653 ;;      Totals:         2       0       0       0       0       0       0       0       0       0       0       0       
      +0       0       0       0       0       0       0       0       0       0       0       0       0       0       0
  6654 ;;Total ram usage:        2 bytes
  6655 ;; Hardware stack levels used:    1
  6656 ;; This function calls:
  6657 ;;		Nothing
  6658 ;; This function is called by:
  6659 ;;		_I2C_Scan
  6660 ;;		_WriteByteBM1383
  6661 ;;		_ReadByteBM1383
  6662 ;; This function uses a non-reentrant model
  6663 ;;
  6664                           
  6665                           
  6666                           ;psect for function _Send_I2C_ControlByte
  6667  01B2                     _Send_I2C_ControlByte:
  6668                           
  6669                           ;incstack = 0
  6670                           ; Regs used in _Send_I2C_ControlByte: [wreg+status,2+status,0]
  6671                           ;Send_I2C_ControlByte@Dev_Add stored from wreg
  6672  01B2  00F1               	movwf	Send_I2C_ControlByte@Dev_Add
  6673  01B3                     l2726:
  6674                           
  6675                           ;../../Lib/I2C/I2C.c: 68: void Send_I2C_ControlByte(uint8_t Dev_Add, uint8_t RW_bit);../
      +                          ../Lib/I2C/I2C.c: 69: {;../../Lib/I2C/I2C.c: 70:     PIR3bits.SSP1IF=0;
  6676  01B3  014E               	movlb	14	; select bank14
  6677  01B4  100F               	bcf	15,0	;volatile
  6678  01B5                     l2728:
  6679                           
  6680                           ;../../Lib/I2C/I2C.c: 78:     SSP1BUF = (Dev_Add<<1) + RW_bit ;
  6681  01B5  3571               	lslf	Send_I2C_ControlByte@Dev_Add,w
  6682  01B6  0770               	addwf	Send_I2C_ControlByte@RW_bit,w
  6683  01B7  0143               	movlb	3	; select bank3
  6684  01B8  008C               	movwf	12	;volatile
  6685  01B9                     l40:	
  6686                           ;../../Lib/I2C/I2C.c: 79:     while(!PIR3bits.SSP1IF);
  6687                           
  6688  01B9  014E               	movlb	14	; select bank14
  6689  01BA  1C0F               	btfss	15,0	;volatile
  6690  01BB  29BD               	goto	u1561
  6691  01BC  29BE               	goto	u1560
  6692  01BD                     u1561:
  6693  01BD  29B9               	goto	l40
  6694  01BE                     u1560:
  6695  01BE                     l43:
  6696  01BE  0008               	return
  6697  01BF                     __end_of_Send_I2C_ControlByte:
  6698                           
  6699                           	psect	text26
  6700  017C                     __ptext26:	
  6701 ;; *************** function _I2C_Init *****************
  6702 ;; Defined at:
  6703 ;;		line 9 in file "../../Lib/I2C/I2C.c"
  6704 ;; Parameters:    Size  Location     Type
  6705 ;;		None
  6706 ;; Auto vars:     Size  Location     Type
  6707 ;;		None
  6708 ;; Return value:  Size  Location     Type
  6709 ;;                  1    wreg      void 
  6710 ;; Registers used:
  6711 ;;		wreg, status,2, status,0
  6712 ;; Tracked objects:
  6713 ;;		On entry : 0/0
  6714 ;;		On exit  : 0/0
  6715 ;;		Unchanged: 0/0
  6716 ;; Data sizes:     COMMON   BANK0   BANK1   BANK2   BANK3   BANK4   BANK5   BANK6   BANK7   BANK8   BANK9  BANK10  BANK1
      +1  BANK12  BANK13  BANK14  BANK15  BANK16  BANK17  BANK18  BANK19  BANK20  BANK21  BANK22  BANK23  BANK24  BANK25
  6717 ;;      Params:         0       0       0       0       0       0       0       0       0       0       0       0       
      +0       0       0       0       0       0       0       0       0       0       0       0       0       0       0
  6718 ;;      Locals:         0       0       0       0       0       0       0       0       0       0       0       0       
      +0       0       0       0       0       0       0       0       0       0       0       0       0       0       0
  6719 ;;      Temps:          0       0       0       0       0       0       0       0       0       0       0       0       
      +0       0       0       0       0       0       0       0       0       0       0       0       0       0       0
  6720 ;;      Totals:         0       0       0       0       0       0       0       0       0       0       0       0       
      +0       0       0       0       0       0       0       0       0       0       0       0       0       0       0
  6721 ;;Total ram usage:        0 bytes
  6722 ;; Hardware stack levels used:    1
  6723 ;; This function calls:
  6724 ;;		Nothing
  6725 ;; This function is called by:
  6726 ;;		_main
  6727 ;; This function uses a non-reentrant model
  6728 ;;
  6729                           
  6730                           
  6731                           ;psect for function _I2C_Init
  6732  017C                     _I2C_Init:
  6733  017C                     l2844:	
  6734                           ;incstack = 0
  6735                           ; Regs used in _I2C_Init: [wreg+status,2+status,0]
  6736                           
  6737                           
  6738                           ;../../Lib/I2C/I2C.c: 11:     SSP1CON1bits.SSPM=0x08;
  6739  017C  0143               	movlb	3	; select bank3
  6740  017D  0810               	movf	16,w	;volatile
  6741  017E  39F0               	andlw	-16
  6742  017F  3808               	iorlw	8
  6743  0180  0090               	movwf	16	;volatile
  6744  0181                     l2846:
  6745                           
  6746                           ;../../Lib/I2C/I2C.c: 12:     SSP1CON1bits.SSPEN=1;
  6747  0181  1690               	bsf	16,5	;volatile
  6748  0182                     l19:
  6749  0182  0008               	return
  6750  0183                     __end_of_I2C_Init:
  6751  007E                     btemp	set	126	;btemp
  6752  007E                     wtemp0	set	126
  6753                           
  6754                           	psect	config
  6755                           
  6756                           ;Config register CONFIG1 @ 0x8007
  6757                           ;	External Oscillator mode selection bits
  6758                           ;	FEXTOSC = OFF, Oscillator not enabled
  6759                           ;	Power-up default value for COSC bits
  6760                           ;	RSTOSC = HFINT1, HFINTOSC (1MHz)
  6761                           ;	Clock Out Enable bit
  6762                           ;	CLKOUTEN = OFF, CLKOUT function is disabled; i/o or oscillator function on OSC2
  6763                           ;	Clock Switch Enable bit
  6764                           ;	CSWEN = ON, Writing to NOSC and NDIV is allowed
  6765                           ;	Fail-Safe Clock Monitor Enable bit
  6766                           ;	FCMEN = ON, FSCM timer enabled
  6767  8007                     	org	32775
  6768  8007  3FEC               	dw	16364
  6769                           
  6770                           ;Config register CONFIG2 @ 0x8008
  6771                           ;	Master Clear Enable bit
  6772                           ;	MCLRE = ON, MCLR pin is Master Clear function
  6773                           ;	Power-up Timer Enable bit
  6774                           ;	PWRTE = OFF, PWRT disabled
  6775                           ;	Low-Power BOR enable bit
  6776                           ;	LPBOREN = OFF, ULPBOR disabled
  6777                           ;	Brown-out reset enable bits
  6778                           ;	BOREN = ON, Brown-out Reset Enabled, SBOREN bit is ignored
  6779                           ;	Brown-out Reset Voltage Selection
  6780                           ;	BORV = LO, Brown-out Reset Voltage (VBOR) set to 1.9V on LF, and 2.45V on F Devices
  6781                           ;	Zero-cross detect disable
  6782                           ;	ZCD = OFF, Zero-cross detect circuit is disabled at POR.
  6783                           ;	Peripheral Pin Select one-way control
  6784                           ;	PPS1WAY = ON, The PPSLOCK bit can be cleared and set only once in software
  6785                           ;	Stack Overflow/Underflow Reset Enable bit
  6786                           ;	STVREN = ON, Stack Overflow or Underflow will cause a reset
  6787  8008                     	org	32776
  6788  8008  3FFF               	dw	16383
  6789                           
  6790                           ;Config register CONFIG3 @ 0x8009
  6791                           ;	WDT Period Select bits
  6792                           ;	WDTCPS = WDTCPS_31, Divider ratio 1:65536; software control of WDTPS
  6793                           ;	WDT operating mode
  6794                           ;	WDTE = OFF, WDT Disabled, SWDTEN is ignored
  6795                           ;	WDT Window Select bits
  6796                           ;	WDTCWS = WDTCWS_7, window always open (100%); software control; keyed access not requi
      +                          red
  6797                           ;	WDT input clock selector
  6798                           ;	WDTCCS = SC, Software Control
  6799  8009                     	org	32777
  6800  8009  3F9F               	dw	16287
  6801                           
  6802                           ;Config register CONFIG4 @ 0x800A
  6803                           ;	Boot Block Size Selection bits
  6804                           ;	BBSIZE = BB512, 512 words boot block size
  6805                           ;	Boot Block Enable bit
  6806                           ;	BBEN = OFF, Boot Block disabled
  6807                           ;	SAF Enable bit
  6808                           ;	SAFEN = OFF, SAF disabled
  6809                           ;	Application Block Write Protection bit
  6810                           ;	WRTAPP = OFF, Application Block not write protected
  6811                           ;	Boot Block Write Protection bit
  6812                           ;	WRTB = OFF, Boot Block not write protected
  6813                           ;	Configuration Register Write Protection bit
  6814                           ;	WRTC = OFF, Configuration Register not write protected
  6815                           ;	Storage Area Flash Write Protection bit
  6816                           ;	WRTSAF = OFF, SAF not write protected
  6817                           ;	Low Voltage Programming Enable bit
  6818                           ;	LVP = OFF, High Voltage on MCLR/Vpp must be used for programming
  6819  800A                     	org	32778
  6820  800A  1FFF               	dw	8191
  6821                           
  6822                           ;Config register CONFIG5 @ 0x800B
  6823                           ;	UserNVM Program memory code protection bit
  6824                           ;	CP = OFF, UserNVM code protection disabled
  6825  800B                     	org	32779
  6826  800B  3FFF               	dw	16383

Data Sizes:
    Strings     46
    Constant    32
    Data        0
    BSS         70
    Persistent  38
    Stack       0

Auto Spaces:
    Space          Size  Autos    Used
    COMMON           14     14      14
    BANK0            80     80      80
    BANK1            80      4      80
    BANK2            80      0       0
    BANK3            80      0       0
    BANK4            80      0       0
    BANK5            80      0       0
    BANK6            80      0       0
    BANK7            80      0       0
    BANK8            80      0       0
    BANK9            80      0       0
    BANK10           80      0       0
    BANK11           80      0       0
    BANK12           80      0       0
    BANK13           80      0       0
    BANK14           80      0       0
    BANK15           80      0       0
    BANK16           80      0       0
    BANK17           80      0       0
    BANK18           80      0       0
    BANK19           80      0       0
    BANK20           80      0       0
    BANK21           80      0       0
    BANK22           80      0       0
    BANK23           80      0       0
    BANK24           80      0       0
    BANK25           32      0       0

Pointer List with Targets:

    I2C1_Read1ByteRegister@returnValue.data	PTR unsigned char  size(1) Largest target is 0

    I2C1_Read2ByteRegister@returnValue.data	PTR unsigned char  size(1) Largest target is 0

    I2C1_Write1ByteRegister@data.data	PTR unsigned char  size(1) Largest target is 0

    I2C1_Write2ByteRegister@data.data	PTR unsigned char  size(1) Largest target is 0

    I2C1_DO_TX$2066$0	PTR void  size(1) Largest target is 4
		 -> I2C1_ReadDataBlock@bufferBlock(COMMON[3]), I2C1_Write2ByteRegister@data(COMMON[2]), I2C1_Write1ByteRegister@data(COMMON[1]), I2C1_Read2ByteRegister@returnValue(COMMON[2]), 
		 -> NULL(NULL[0]), I2C1_Read1ByteRegister@returnValue(COMMON[1]), 

    cb$0	PTR void  size(1) Largest target is 4
		 -> I2C1_ReadDataBlock@bufferBlock(COMMON[3]), I2C1_Write2ByteRegister@data(COMMON[2]), I2C1_Write1ByteRegister@data(COMMON[1]), I2C1_Read2ByteRegister@returnValue(COMMON[2]), 
		 -> NULL(NULL[0]), I2C1_Read1ByteRegister@returnValue(COMMON[1]), 

    Absolute function$0	PTR void  size(1) Largest target is 4
		 -> I2C1_ReadDataBlock@bufferBlock(COMMON[3]), I2C1_Write2ByteRegister@data(COMMON[2]), I2C1_Write1ByteRegister@data(COMMON[1]), I2C1_Read2ByteRegister@returnValue(COMMON[2]), 
		 -> NULL(NULL[0]), I2C1_Read1ByteRegister@returnValue(COMMON[1]), 

    cb$0	PTR void  size(1) Largest target is 4
		 -> I2C1_ReadDataBlock@bufferBlock(COMMON[3]), I2C1_Write2ByteRegister@data(COMMON[2]), I2C1_Write1ByteRegister@data(COMMON[1]), I2C1_Read2ByteRegister@returnValue(COMMON[2]), 
		 -> NULL(NULL[0]), I2C1_Read1ByteRegister@returnValue(COMMON[1]), 

    S592$0$0	PTR void  size(1) Largest target is 4
		 -> I2C1_ReadDataBlock@bufferBlock(COMMON[3]), I2C1_Write2ByteRegister@data(COMMON[2]), I2C1_Write1ByteRegister@data(COMMON[1]), I2C1_Read2ByteRegister@returnValue(COMMON[2]), 
		 -> NULL(NULL[0]), I2C1_Read1ByteRegister@returnValue(COMMON[1]), 

    strlen@s	PTR const unsigned char  size(1) Largest target is 32
		 -> dbuf(BANK1[32]), 

    strlen@a	PTR const unsigned char  size(1) Largest target is 32
		 -> dbuf(BANK1[32]), 

    fputs@s	PTR const unsigned char  size(1) Largest target is 32
		 -> dbuf(BANK1[32]), 

    fputs@fp	PTR struct _IO_FILE size(1) Largest target is 0
		 -> NULL(NULL[0]), 

    S1734_IO_FILE$buffer	PTR unsigned char  size(1) Largest target is 0

    fputc@fp.buffer	PTR unsigned char  size(1) Largest target is 0

    fputc@fp	PTR struct _IO_FILE size(1) Largest target is 0
		 -> NULL(NULL[0]), 

    vfprintf@ap	PTR PTR void  size(1) Largest target is 1
		 -> printf@ap(BANK0[1]), 

    vfprintf@fp	PTR struct _IO_FILE size(1) Largest target is 0
		 -> NULL(NULL[0]), 

    vfprintf@fmt	PTR const unsigned char  size(2) Largest target is 26
		 -> STR_2(CODE[26]), STR_1(CODE[20]), 

    vfprintf@cfmt	PTR unsigned char  size(2) Largest target is 26
		 -> STR_2(CODE[26]), STR_1(CODE[20]), 

    vfpfcnvrt@fp	PTR struct _IO_FILE size(1) Largest target is 0
		 -> NULL(NULL[0]), 

    vfpfcnvrt@ap	PTR PTR void  size(1) Largest target is 1
		 -> printf@ap(BANK0[1]), 

    vfpfcnvrt@fmt	PTR PTR unsigned char  size(1) Largest target is 2
		 -> vfprintf@cfmt(BANK0[2]), 

    dtoa@fp	PTR struct _IO_FILE size(1) Largest target is 0
		 -> NULL(NULL[0]), 

    pad@fp	PTR struct _IO_FILE size(1) Largest target is 0
		 -> NULL(NULL[0]), 

    pad@buf	PTR unsigned char  size(1) Largest target is 32
		 -> dbuf(BANK1[32]), 

    printf@fmt	PTR const unsigned char  size(2) Largest target is 26
		 -> STR_2(CODE[26]), STR_1(CODE[20]), 

    printf@ap	PTR void [1] size(1) Largest target is 2
		 -> ?_printf(BANK0[2]), 

    EUSART1_SetErrorHandler@interruptHandler	PTR FTN()void  size(2) Largest target is 1
		 -> EUSART1_DefaultErrorHandler(), 

    EUSART1_ErrorHandler	PTR FTN()void  size(2) Largest target is 1
		 -> EUSART1_DefaultErrorHandler(), Absolute function(), 

    EUSART1_SetOverrunErrorHandler@interruptHandler	PTR FTN()void  size(2) Largest target is 1
		 -> EUSART1_DefaultOverrunErrorHandler(), 

    EUSART1_OverrunErrorHandler	PTR FTN()void  size(2) Largest target is 1
		 -> EUSART1_DefaultOverrunErrorHandler(), Absolute function(), 

    EUSART1_SetFramingErrorHandler@interruptHandler	PTR FTN()void  size(2) Largest target is 1
		 -> EUSART1_DefaultFramingErrorHandler(), 

    EUSART1_FramingErrorHandler	PTR FTN()void  size(2) Largest target is 1
		 -> EUSART1_DefaultFramingErrorHandler(), Absolute function(), 

    S592$data_ptr	PTR unsigned char  size(1) Largest target is 4
		 -> I2C1_ReadDataBlock@reg(COMMON[1]), I2C1_ReadDataBlock@bufferBlock(COMMON[3]), I2C1_Write2ByteRegister@reg(COMMON[1]), I2C1_Write2ByteRegister@data(COMMON[2]), 
		 -> I2C1_Write1ByteRegister@reg(COMMON[1]), I2C1_Write1ByteRegister@data(COMMON[1]), I2C1_Read2ByteRegister@reg(COMMON[1]), I2C1_Read2ByteRegister@returnValue(COMMON[2]), 
		 -> NULL(NULL[0]), I2C1_Read1ByteRegister@reg(COMMON[1]), I2C1_Read1ByteRegister@returnValue(COMMON[1]), 

    I2C1_Status.data_ptr	PTR unsigned char  size(1) Largest target is 4
		 -> I2C1_ReadDataBlock@reg(COMMON[1]), I2C1_ReadDataBlock@bufferBlock(COMMON[3]), I2C1_Write2ByteRegister@reg(COMMON[1]), I2C1_Write2ByteRegister@data(COMMON[2]), 
		 -> I2C1_Write1ByteRegister@reg(COMMON[1]), I2C1_Write1ByteRegister@data(COMMON[1]), I2C1_Read2ByteRegister@reg(COMMON[1]), I2C1_Read2ByteRegister@returnValue(COMMON[2]), 
		 -> NULL(NULL[0]), I2C1_Read1ByteRegister@reg(COMMON[1]), I2C1_Read1ByteRegister@returnValue(COMMON[1]), 

    S592$callbackPayload	PTR void [6] size(1) Largest target is 4
		 -> I2C1_ReadDataBlock@bufferBlock(COMMON[3]), I2C1_Write2ByteRegister@data(COMMON[2]), I2C1_Write1ByteRegister@data(COMMON[1]), I2C1_Read2ByteRegister@returnValue(COMMON[2]), 
		 -> NULL(NULL[0]), I2C1_Read1ByteRegister@returnValue(COMMON[1]), 

    I2C1_Status.callbackPayload	PTR void [6] size(1) Largest target is 4
		 -> I2C1_ReadDataBlock@bufferBlock(COMMON[3]), I2C1_Write2ByteRegister@data(COMMON[2]), I2C1_Write1ByteRegister@data(COMMON[1]), I2C1_Read2ByteRegister@returnValue(COMMON[2]), 
		 -> NULL(NULL[0]), I2C1_Read1ByteRegister@returnValue(COMMON[1]), 

    S592$callbackTable	PTR FTN(PTR void ,)enum E360[6] size(2) Largest target is 1
		 -> I2C1_CallbackReturnReset(), I2C1_CallbackReturnStop(), Absolute function(), rdBlkRegCompleteHandler(), 
		 -> wr2RegCompleteHandler(), wr1RegCompleteHandler(), rd2RegCompleteHandler(), rd1RegCompleteHandler(), 

    I2C1_Status.callbackTable	PTR FTN(PTR void ,)enum E360[6] size(2) Largest target is 1
		 -> I2C1_CallbackReturnReset(), I2C1_CallbackReturnStop(), Absolute function(), rdBlkRegCompleteHandler(), 
		 -> wr2RegCompleteHandler(), wr1RegCompleteHandler(), rd2RegCompleteHandler(), rd1RegCompleteHandler(), 

    i2c1_fsmStateTable	const PTR FTN()enum E8119[16] size(2) Largest target is 1
		 -> I2C1_DO_ADDRESS_NACK(), I2C1_DO_RESET(), I2C1_DO_RX_NACK_RESTART(), I2C1_DO_RX_NACK_STOP(), 
		 -> I2C1_DO_RX_ACK(), I2C1_DO_SEND_STOP(), I2C1_DO_SEND_RESTART(), I2C1_DO_SEND_RESTART_WRITE(), 
		 -> I2C1_DO_SEND_RESTART_READ(), I2C1_DO_TX_EMPTY(), I2C1_DO_RCEN(), I2C1_DO_RX(), 
		 -> I2C1_DO_TX(), I2C1_DO_SEND_ADR_WRITE(), I2C1_DO_SEND_ADR_READ(), I2C1_DO_IDLE(), 

    rdBlkRegCompleteHandler@ptr.data	PTR unsigned char  size(1) Largest target is 0

    S362$data	PTR unsigned char  size(1) Largest target is 0

    bufferBlock.data	PTR unsigned char  size(1) Largest target is 0


Critical Paths under _main in COMMON

    _EUSART1_Initialize->_EUSART1_SetErrorHandler
    _EUSART1_Initialize->_EUSART1_SetFramingErrorHandler
    _EUSART1_Initialize->_EUSART1_SetOverrunErrorHandler
    _pad->_fputs
    _fputs->_fputc
    _fputc->_putch
    _putch->_EUSART1_Write
    _abs->___aomod

Critical Paths under _main in BANK0

    _main->_I2C_Scan
    _I2C_Scan->_printf
    _printf->_vfprintf
    _vfprintf->_vfpfcnvrt
    _vfpfcnvrt->_dtoa
    _dtoa->___aodiv
    _dtoa->___aomod
    _pad->_fputs
    _abs->___aomod

Critical Paths under _main in BANK1

    _main->_I2C_Scan

Critical Paths under _main in BANK2

    None.

Critical Paths under _main in BANK3

    None.

Critical Paths under _main in BANK4

    None.

Critical Paths under _main in BANK5

    None.

Critical Paths under _main in BANK6

    None.

Critical Paths under _main in BANK7

    None.

Critical Paths under _main in BANK8

    None.

Critical Paths under _main in BANK9

    None.

Critical Paths under _main in BANK10

    None.

Critical Paths under _main in BANK11

    None.

Critical Paths under _main in BANK12

    None.

Critical Paths under _main in BANK13

    None.

Critical Paths under _main in BANK14

    None.

Critical Paths under _main in BANK15

    None.

Critical Paths under _main in BANK16

    None.

Critical Paths under _main in BANK17

    None.

Critical Paths under _main in BANK18

    None.

Critical Paths under _main in BANK19

    None.

Critical Paths under _main in BANK20

    None.

Critical Paths under _main in BANK21

    None.

Critical Paths under _main in BANK22

    None.

Critical Paths under _main in BANK23

    None.

Critical Paths under _main in BANK24

    None.

Critical Paths under _main in BANK25

    None.

Call Graph Tables:

 ---------------------------------------------------------------------------------
 (Depth) Function   	        Calls       Base Space   Used Autos Params    Refs
 ---------------------------------------------------------------------------------
 (0) _main                                                 2     2      0    6776
                                              2 BANK1      2     2      0
                           _I2C_Init
                           _I2C_Scan
                  _SYSTEM_Initialize
 ---------------------------------------------------------------------------------
 (1) _SYSTEM_Initialize                                    0     0      0     294
                 _EUSART1_Initialize
                    _I2C1_Initialize
              _OSCILLATOR_Initialize
             _PIN_MANAGER_Initialize
                     _PMD_Initialize
 ---------------------------------------------------------------------------------
 (2) _PMD_Initialize                                       0     0      0       0
 ---------------------------------------------------------------------------------
 (2) _PIN_MANAGER_Initialize                               0     0      0       0
 ---------------------------------------------------------------------------------
 (2) _OSCILLATOR_Initialize                                0     0      0       0
 ---------------------------------------------------------------------------------
 (2) _I2C1_Initialize                                      0     0      0       0
 ---------------------------------------------------------------------------------
 (2) _EUSART1_Initialize                                   0     0      0     294
            _EUSART1_SetErrorHandler
     _EUSART1_SetFramingErrorHandler
     _EUSART1_SetOverrunErrorHandler
 ---------------------------------------------------------------------------------
 (3) _EUSART1_SetOverrunErrorHandler                       2     0      2      98
                                              0 COMMON     2     0      2
 ---------------------------------------------------------------------------------
 (3) _EUSART1_SetFramingErrorHandler                       2     0      2      98
                                              0 COMMON     2     0      2
 ---------------------------------------------------------------------------------
 (3) _EUSART1_SetErrorHandler                              2     0      2      98
                                              0 COMMON     2     0      2
 ---------------------------------------------------------------------------------
 (1) _I2C_Scan                                             4     4      0    6480
                                             78 BANK0      2     2      0
                                              0 BANK1      2     2      0
               _Send_I2C_ControlByte
                  _Send_I2C_StartBit
                             _printf
 ---------------------------------------------------------------------------------
 (2) _printf                                               8     4      4    6012
                                             70 BANK0      8     4      4
                           _vfprintf
 ---------------------------------------------------------------------------------
 (3) _vfprintf                                             8     5      3    5806
                                             62 BANK0      8     5      3
                          _vfpfcnvrt
 ---------------------------------------------------------------------------------
 (4) _vfpfcnvrt                                           40    38      2    5478
                                             46 BANK0     16    14      2
                               _dtoa
                              _fputc
 ---------------------------------------------------------------------------------
 (5) _dtoa                                                30    22      8    4133
                                             16 BANK0     30    22      8
                            ___aodiv
                            ___aomod
                                _abs
                                _pad
 ---------------------------------------------------------------------------------
 (6) _pad                                                  9     6      3    2510
                                              4 BANK0      9     6      3
                              _fputc
                              _fputs
                             _strlen
 ---------------------------------------------------------------------------------
 (7) _strlen                                               5     3      2     123
                                              0 COMMON     5     3      2
 ---------------------------------------------------------------------------------
 (7) _fputs                                                8     7      1    1127
                                             10 COMMON     4     3      1
                                              0 BANK0      4     4      0
                              _fputc
 ---------------------------------------------------------------------------------
 (5) _fputc                                                8     5      3     812
                                              2 COMMON     8     5      3
                              _putch
 ---------------------------------------------------------------------------------
 (6) _putch                                                1     1      0      44
                                              1 COMMON     1     1      0
                      _EUSART1_Write
 ---------------------------------------------------------------------------------
 (7) _EUSART1_Write                                        1     1      0      22
                                              0 COMMON     1     1      0
 ---------------------------------------------------------------------------------
 (6) _abs                                                  4     2      2     142
                                              3 COMMON     4     2      2
                            ___aomod (ARG)
 ---------------------------------------------------------------------------------
 (6) ___aomod                                             19     3     16     448
                                              0 COMMON     3     3      0
                                              0 BANK0     16     0     16
 ---------------------------------------------------------------------------------
 (6) ___aodiv                                             27    11     16     452
                                              0 COMMON    11    11      0
                                              0 BANK0     16     0     16
 ---------------------------------------------------------------------------------
 (2) _Send_I2C_StartBit                                    0     0      0       0
 ---------------------------------------------------------------------------------
 (2) _Send_I2C_ControlByte                                 2     1      1     348
                                              0 COMMON     2     1      1
 ---------------------------------------------------------------------------------
 (1) _I2C_Init                                             0     0      0       0
 ---------------------------------------------------------------------------------
 Estimated maximum stack depth 7
 ---------------------------------------------------------------------------------

 Call Graph Graphs:

 _main (ROOT)
   _I2C_Init
   _I2C_Scan
     _Send_I2C_ControlByte
     _Send_I2C_StartBit
     _printf
       _vfprintf
         _vfpfcnvrt
           _dtoa
             ___aodiv
             ___aomod
             _abs
               ___aomod (ARG)
             _pad
               _fputc
                 _putch
                   _EUSART1_Write
               _fputs
                 _fputc
                   _putch
                     _EUSART1_Write
               _strlen
           _fputc
             _putch
               _EUSART1_Write
   _SYSTEM_Initialize
     _EUSART1_Initialize
       _EUSART1_SetErrorHandler
       _EUSART1_SetFramingErrorHandler
       _EUSART1_SetOverrunErrorHandler
     _I2C1_Initialize
     _OSCILLATOR_Initialize
     _PIN_MANAGER_Initialize
     _PMD_Initialize

 Address spaces:
Name               Size   Autos  Total    Cost      Usage
BIGRAM             7F0      0       0       0        0.0%
NULL                 0      0       0       0        0.0%
CODE                 0      0       0       0        0.0%
BITCOMMON            E      0       0       1        0.0%
BITSFR0              0      0       0       1        0.0%
SFR0                 0      0       0       1        0.0%
COMMON               E      E       E       2      100.0%
BITSFR1              0      0       0       2        0.0%
SFR1                 0      0       0       2        0.0%
BITSFR2              0      0       0       3        0.0%
SFR2                 0      0       0       3        0.0%
STACK                0      0       0       3        0.0%
BITBANK0            50      0       0       4        0.0%
BITSFR3              0      0       0       4        0.0%
SFR3                 0      0       0       4        0.0%
BANK0               50     50      50       5      100.0%
BITSFR4              0      0       0       5        0.0%
SFR4                 0      0       0       5        0.0%
BITBANK1            50      0       0       6        0.0%
BITSFR5              0      0       0       6        0.0%
SFR5                 0      0       0       6        0.0%
BANK1               50      4      50       7      100.0%
BITSFR6              0      0       0       7        0.0%
SFR6                 0      0       0       7        0.0%
BITSFR7              0      0       0       8        0.0%
SFR7                 0      0       0       8        0.0%
ABS                  0      0      AE       8        0.0%
BITBANK2            50      0       0       9        0.0%
BITSFR8              0      0       0       9        0.0%
SFR8                 0      0       0       9        0.0%
BANK2               50      0       0      10        0.0%
BITSFR9              0      0       0      10        0.0%
SFR9                 0      0       0      10        0.0%
BITBANK3            50      0       0      11        0.0%
BITSFR10             0      0       0      11        0.0%
SFR10                0      0       0      11        0.0%
BANK3               50      0       0      12        0.0%
BITSFR11             0      0       0      12        0.0%
SFR11                0      0       0      12        0.0%
BITBANK4            50      0       0      13        0.0%
BITSFR12             0      0       0      13        0.0%
SFR12                0      0       0      13        0.0%
BANK4               50      0       0      14        0.0%
BITSFR13             0      0       0      14        0.0%
SFR13                0      0       0      14        0.0%
BITBANK5            50      0       0      15        0.0%
BITSFR14             0      0       0      15        0.0%
SFR14                0      0       0      15        0.0%
BANK5               50      0       0      16        0.0%
BITSFR15             0      0       0      16        0.0%
SFR15                0      0       0      16        0.0%
BITBANK6            50      0       0      17        0.0%
BITSFR16             0      0       0      17        0.0%
SFR16                0      0       0      17        0.0%
BANK6               50      0       0      18        0.0%
BITSFR17             0      0       0      18        0.0%
SFR17                0      0       0      18        0.0%
BITBANK7            50      0       0      19        0.0%
BITSFR18             0      0       0      19        0.0%
SFR18                0      0       0      19        0.0%
BANK7               50      0       0      20        0.0%
BITSFR19             0      0       0      20        0.0%
SFR19                0      0       0      20        0.0%
BITBANK8            50      0       0      21        0.0%
BITSFR20             0      0       0      21        0.0%
SFR20                0      0       0      21        0.0%
BANK8               50      0       0      22        0.0%
BITSFR21             0      0       0      22        0.0%
SFR21                0      0       0      22        0.0%
BITBANK9            50      0       0      23        0.0%
BITSFR22             0      0       0      23        0.0%
SFR22                0      0       0      23        0.0%
BANK9               50      0       0      24        0.0%
BITSFR23             0      0       0      24        0.0%
SFR23                0      0       0      24        0.0%
BITBANK10           50      0       0      25        0.0%
BITSFR24             0      0       0      25        0.0%
SFR24                0      0       0      25        0.0%
BANK10              50      0       0      26        0.0%
BITSFR25             0      0       0      26        0.0%
SFR25                0      0       0      26        0.0%
BITBANK11           50      0       0      27        0.0%
BITSFR26             0      0       0      27        0.0%
SFR26                0      0       0      27        0.0%
BANK11              50      0       0      28        0.0%
BITSFR27             0      0       0      28        0.0%
SFR27                0      0       0      28        0.0%
BITBANK12           50      0       0      29        0.0%
BITSFR28             0      0       0      29        0.0%
SFR28                0      0       0      29        0.0%
BANK12              50      0       0      30        0.0%
BITSFR29             0      0       0      30        0.0%
SFR29                0      0       0      30        0.0%
BITBANK13           50      0       0      31        0.0%
BITSFR30             0      0       0      31        0.0%
SFR30                0      0       0      31        0.0%
BANK13              50      0       0      32        0.0%
BITSFR31             0      0       0      32        0.0%
SFR31                0      0       0      32        0.0%
BITBANK14           50      0       0      33        0.0%
BITSFR32             0      0       0      33        0.0%
SFR32                0      0       0      33        0.0%
BANK14              50      0       0      34        0.0%
BITSFR33             0      0       0      34        0.0%
SFR33                0      0       0      34        0.0%
BITBANK15           50      0       0      35        0.0%
BITSFR34             0      0       0      35        0.0%
SFR34                0      0       0      35        0.0%
BANK15              50      0       0      36        0.0%
BITSFR35             0      0       0      36        0.0%
SFR35                0      0       0      36        0.0%
BITBANK16           50      0       0      37        0.0%
BITSFR36             0      0       0      37        0.0%
SFR36                0      0       0      37        0.0%
BANK16              50      0       0      38        0.0%
BITSFR37             0      0       0      38        0.0%
SFR37                0      0       0      38        0.0%
BITBANK17           50      0       0      39        0.0%
BITSFR38             0      0       0      39        0.0%
SFR38                0      0       0      39        0.0%
BANK17              50      0       0      40        0.0%
BITSFR39             0      0       0      40        0.0%
SFR39                0      0       0      40        0.0%
BITBANK18           50      0       0      41        0.0%
BITSFR40             0      0       0      41        0.0%
SFR40                0      0       0      41        0.0%
BANK18              50      0       0      42        0.0%
BITSFR41             0      0       0      42        0.0%
SFR41                0      0       0      42        0.0%
BITBANK19           50      0       0      43        0.0%
BITSFR42             0      0       0      43        0.0%
SFR42                0      0       0      43        0.0%
BANK19              50      0       0      44        0.0%
BITSFR43             0      0       0      44        0.0%
SFR43                0      0       0      44        0.0%
BITBANK20           50      0       0      45        0.0%
BITSFR44             0      0       0      45        0.0%
SFR44                0      0       0      45        0.0%
BANK20              50      0       0      46        0.0%
BITSFR45             0      0       0      46        0.0%
SFR45                0      0       0      46        0.0%
BITBANK21           50      0       0      47        0.0%
BITSFR46             0      0       0      47        0.0%
SFR46                0      0       0      47        0.0%
BANK21              50      0       0      48        0.0%
BITSFR47             0      0       0      48        0.0%
SFR47                0      0       0      48        0.0%
BITBANK22           50      0       0      49        0.0%
BITSFR48             0      0       0      49        0.0%
SFR48                0      0       0      49        0.0%
BANK22              50      0       0      50        0.0%
BITSFR49             0      0       0      50        0.0%
SFR49                0      0       0      50        0.0%
BITBANK23           50      0       0      51        0.0%
BITSFR50             0      0       0      51        0.0%
SFR50                0      0       0      51        0.0%
BANK23              50      0       0      52        0.0%
BITSFR51             0      0       0      52        0.0%
SFR51                0      0       0      52        0.0%
BITBANK24           50      0       0      53        0.0%
BITSFR52             0      0       0      53        0.0%
SFR52                0      0       0      53        0.0%
BANK24              50      0       0      54        0.0%
BITSFR53             0      0       0      54        0.0%
SFR53                0      0       0      54        0.0%
BITBANK25           20      0       0      55        0.0%
BITSFR54             0      0       0      55        0.0%
SFR54                0      0       0      55        0.0%
BANK25              20      0       0      56        0.0%
BITSFR55             0      0       0      56        0.0%
SFR55                0      0       0      56        0.0%
BITSFR56             0      0       0      57        0.0%
SFR56                0      0       0      57        0.0%
DATA                 0      0      AE      57        0.0%
BITSFR57             0      0       0      58        0.0%
SFR57                0      0       0      58        0.0%
BITSFR58             0      0       0      59        0.0%
SFR58                0      0       0      59        0.0%
BITSFR59             0      0       0      60        0.0%
SFR59                0      0       0      60        0.0%
BITSFR60             0      0       0      61        0.0%
SFR60                0      0       0      61        0.0%
BITSFR61             0      0       0      62        0.0%
SFR61                0      0       0      62        0.0%
BITSFR62             0      0       0      63        0.0%
SFR62                0      0       0      63        0.0%
BITSFR63             0      0       0      64        0.0%
SFR63                0      0       0      64        0.0%


Microchip Technology PIC Macro Assembler V2.31 build 20201012212115 
Symbol Table                                                                                   Sat Aug 21 11:06:48 2021

                                            l40 01B9                                              l25 031C  
                                            l19 0182                                              l43 01BE  
                                            l46 0198                                              l49 019D  
                                           l241 018A                                             l235 01DC  
                                           l238 01B1                                             l326 0367  
                                           l434 0193                                             l731 019F  
                                           l707 0243                                             l740 0163  
                                           l734 01A7                                             l752 016F  
                                           l755 0175                                             l773 01CA  
                                           l758 0169                                             l944 0675  
                                           l945 0686                                             l957 0574  
                                           l958 0585                                             _abs 0208  
                  __end_of_Send_I2C_ControlByte 01BF                                             _pad 0368  
                       __size_of_PMD_Initialize 0008                                             wreg 0009  
                          _I2C1_DO_RX_NACK_STOP 0000                                            ?_abs 0073  
                                          l1307 01EE                                            l1412 0207  
                                          l1406 026B                                            l1334 0384  
                                          l1342 06D0                                            l1351 077E  
                                          l1343 06D9                                            l1337 03A6  
                                          l1338 03B4                                            l1339 03C0  
                                          l1347 06F6                                            l2500 01F9  
                                          l1348 070E                                            l1372 049B  
                                          l1365 07F4                                            l2510 0591  
                                          l2502 0201                                            l1383 0221  
                                          l2520 05E9                                            l2512 05B2  
                                          l2600 0699                                            l2530 0609  
                                          l2522 05F6                                            l2514 05BC  
                                          l2506 0586                                            l1386 0221  
                                          l2610 06EE                                            l2602 06AC  
                                          l1379 029C                                            l2532 0611  
                                          l2524 05F9                                            l2540 0652  
                                          l2516 05DB                                            l2508 0587  
                                          l2620 0716                                            l2612 06FE  
                                          l2604 06B2                                            l2542 0657  
                                          l2534 0633                                            l2526 0601  
                                          l2518 05DF                                            l2550 04C8  
                                          l2470 01A4                                            l1398 02DB  
                                          l2630 078C                                            l2622 071B  
                                          l2614 0704                                            l2606 06D5  
                                          l2710 0164                                            l2536 0643  
                                          l2528 0605                                            l2560 0509  
                                          l2552 04D2                                            l2544 049C  
                                          l2472 015F                                            l2480 02AC  
                                          l2640 07C0                                            l2632 0799  
                                          l2624 0749                                            l2616 0709  
                                          l2608 06E8                                            l2720 0294  
                                          l2712 026E                                            l2800 034E  
                                          l2538 0644                                            l2562 050D  
                                          l2570 0551                                            l2554 04F1  
                                          l2546 049D                                            l2482 02B6  
                                          l2474 029D                                            l2490 0249  
                                          l2650 07D9                                            l2642 07C5  
                                          l2634 07A6                                            l2626 074D  
                                          l2618 0713                                            l2714 0272  
                                          l2730 01DD                                            l2706 016A  
                                          l2810 0358                                            l2802 0350  
                                          l2724 0194                                            l2572 0556  
                                          l2564 0511                                            l2556 04FE  
                                          l2548 04A7                                            l2468 019F  
                                          l2484 02D3                                            l2476 02A2  
                                          l2492 0257                                            l2580 037D  
                                          l2644 07CA                                            l2652 07E1  
                                          l2636 07B4                                            l2628 0751  
                                          l2660 03DC                                            l2716 0276  
                                          l2732 01E2                                            l2708 0170  
                                          l2820 0365                                            l2812 035B  
                                          l2804 0352                                            l2726 01B3  
                                          l2566 0533                                            l2558 0501  
                                          l2478 02A7                                            l2494 025C  
                                          l2590 03AB                                            l2582 0382  
                                          l2574 036A                                            l2646 07D0  
                                          l2638 07B9                                            l2670 0410  
                                          l2662 03E1                                            l2718 028A  
                                          l2750 018F                                            l2830 01B0  
                                          l2822 01A8                                            l2814 035E  
                                          l2806 0354                                            l2728 01B5  
                                          l2568 0543                                            l2488 0246  
                                          l2496 01F0                                            l2584 0387  
                                          l2576 036F                                            l2648 07D5  
                                          l2680 045C                                            l2672 0429  
                                          l2664 03E5                                            l2656 03C3  
                                          l2840 023A                                            l2832 0222  
                                          l2752 0192                                            l2824 01AB  
                                          l2816 0360                                            l2808 0356  
                                          l2760 0327                                            l2744 0183  
                                          l2920 01D3                                            l3480 01C5  
                                          l2594 0208                                            l2498 01F5  
                                          l2586 0393                                            l2578 0378  
                                          l2682 0467                                            l2666 03F7  
                                          l2658 03D4                                            l2850 02DC  
                                          l2842 0241                                            l2834 022B  
                                          l2746 018B                                            l2826 01AC  
                                          l2818 0362                                            l2770 0332  
                                          l2762 0329                                            l2754 031D  
                                          l2922 01D6                                            l3482 01C8  
                                          l3474 01BF                                            l2844 017C  
                                          l2596 0215                                            l2588 0398  
                                          l2676 0443                                            l2668 0408  
                                          l2692 0478                                            l2860 02E7  
                                          l2836 022C                                            l2748 018D  
                                          l2828 01AF                                            l2780 033F  
                                          l2772 0334                                            l2764 032B  
                                          l2756 0323                                            l2924 01D9  
                                          l2916 01CD                                            l3484 01C8  
                                          l3476 01C2                                            l2846 0181  
                                          l2598 0689                                            l2694 0491  
                                          l2678 0454                                            l2686 046D  
                                          l2870 0308                                            l2862 02ED  
                                          l2838 0233                                            l2790 0344  
                                          l2782 0340                                            l2774 0336  
                                          l2766 032D                                            l2758 0325  
                                          l2918 01D0                                            l3478 01C2  
                                          ?_pad 0024                                            l2688 0475  
                                          l2872 030E                                            l2864 02F2  
                                          l2856 02DE                                            l2848 02DC  
                                          l2792 0346                                            l2784 0341  
                                          l2776 033A                                            l2768 0330  
                                          l2874 0314                                            l2858 02E1  
                                          l2794 0348                                            l2786 0342  
                                          l2778 033C                                            l2868 0304  
                                          l2796 034A                                            l2788 0343  
                                          l2798 034C                                            STR_1 083A  
                                          STR_2 0820                                            u1000 01A4  
                                          u1001 01A3                                            u1010 02A2  
                                          u1011 02A1                                            u1020 02A7  
                                          u1021 02A6                                            u1110 05E6  
                                          u1030 02B6                                            u1031 02B5  
                                          u1120 05F6                                            u1200 04D2  
                                          u1040 02D3                                            u1121 05F5  
                                          u1201 04D1                                            u1041 02D2  
                                          u1130 0609                                            u1050 026B  
                                          u1131 0608                                            u1051 026A  
                                          u1140 0633                                            u1220 04FE  
                                          u1060 0201                                            u1300 03A6  
                                          u1141 0632                                            u1221 04FD  
                                          u1045 02CF                                            u1061 0200  
                                          u1301 03A5                                            u1150 0652  
                                          u1070 0591                                            u1230 0511  
                                          u1310 03AB                                            u1151 0651  
                                          u1071 0590                                            u1231 0510  
                                          u1311 03AA                                            u1160 0657  
                                          u1240 0533                                            u1320 0215  
                                          u1400 0709                                            u1161 0656  
                                          u1145 062F                                            u1241 0532  
                                          u1321 0214                                            u1305 03A2  
                                          u1401 0708                                            u1090 05BC  
                                          u1250 0551                                            u1410 078C  
                                          u1330 06A4                                            u1091 05BB  
                                          u1251 0550                                            u1411 078B  
                                          u1331 06A2                                            u1260 0556  
                                          u1180 04A7                                            u1420 0799  
                                          u1340 06A5                                            u1500 03F7  
                                          u1261 0555                                            u1245 052F  
                                          u1181 04A6                                            u1325 0211  
                                          u1421 0798                                            u1501 03F6  
                                          _LATA 0018                                            u1430 07A6  
                                          u1350 06B2                                            u1510 0408  
                                          _LATB 0019                                            u1431 07A5  
                                          u1415 0788                                            u1351 06B1  
                                          u1511 0407                                            _LATC 001A  
                                          u1280 036F                                            u1440 07B4  
                                          u1520 0454                                            _LATD 001B  
                                          u1281 036E                                            u1441 07B3  
                                          u1521 0453                                            _LATE 001C  
                                          u1290 037D                                            u1450 07B9  
                                          u1370 06D5                                            u1291 037C  
                                          u1451 07B8                                            u1435 07A2  
                                          u1371 06D4                                            u1460 07C0  
                                          u1380 06E8                                            u1540 0294  
                                          u1461 07BF                                            u1445 07B0  
                                          u1381 06E7                                            u1541 0293  
                                          u1550 019D                                            u1470 07C5  
                                          u1390 0704                                            u1551 019C  
                                          u1471 07C4                                            u1391 0703  
                                          u1560 01BE                                            u1480 07D0  
                                          u1561 01BD                                            u1481 07CF  
                                          u1385 06E4                                            u1490 03D4  
                                          u1491 03D3                                            u1580 02F2  
                                          u1581 02F1                                            u1590 0314  
                                          u1591 0313                                            u1927 0305  
                                          _PMD0 0796                                            _PMD1 0797  
                                          _PMD2 0798                                            _PMD3 0799  
                                          _PMD4 079A                                            _PMD5 079B  
                                          _WPUA 1F39                                            _WPUB 1F44  
                                          _WPUC 1F4F                                            _WPUD 1F5A  
                                          _WPUE 1F65                                   _EUSART1_Write 019E  
                                          abs@a 0073                                            _dbuf 00C6  
                                          _main 01BF                                            _dtoa 0687  
                                          _prec 00C1                                __end_of_I2C_Init 0183  
                              __end_of_I2C_Scan 031D                                            _nout 00BD  
                                          pad@i 0028                                            pad@p 0025  
                                          fsr0h 0005                                            fsr1h 0007  
                                          indf0 0000                                            fsr0l 0004  
                                          indf1 0001                                            fsr1l 0006  
                                          pad@w 002A                                            btemp 007E  
                                          start 0002                                           ??_abs 0075  
                                         ??_pad 0027                  __size_of_OSCILLATOR_Initialize 000A  
                 __end_of_OSCILLATOR_Initialize 01B2                                 __end_of___aodiv 0687  
                                         ?_main 0070                                           ?_dtoa 0030  
                               __end_of___aomod 0586                      __end_of_i2c1_fsmStateTable 0820  
                                         _OSCEN 0891                                    vfpfcnvrt@fmt 004E  
                                         _TRISA 0012                                           _TRISB 0013  
                                         _TRISC 0014                                           _TRISD 0015  
                                         _TRISE 0016                               ??_I2C1_Initialize 0070  
                                         _flags 00C3                                           _fputc 029D  
                                         _fputs 0244                                           pad@fp 002C  
                                         _width 00BF                                           _putch 015E  
                                         dtoa@d 0030                                           dtoa@i 004C  
                                         dtoa@n 0044                                           dtoa@p 003D  
                                         dtoa@s 0042                                           dtoa@w 0040  
                                ?_EUSART1_Write 0070                                           status 0003  
                                         wtemp0 007E                      __size_of_Send_I2C_StartBit 000A  
            _EUSART1_DefaultFramingErrorHandler 0000                                 __initialization 07F5  
                    __end_of_EUSART1_Initialize 0244                                    __end_of_main 01CD  
                                  __end_of_dtoa 07F5                                          ??_main 007E  
                                        ??_dtoa 0038                                       I2C_Scan@i 00ED  
                                        ?_fputc 0072                                          ?_fputs 007A  
                                        _ANSELA 1F38                                          ?_putch 0070  
                                        _ANSELB 1F43                                          _ANSELC 1F4E  
                                        _ANSELD 1F59                                          _ANSELE 1F64  
                                        _RC1REG 0119                                          _RC1STA 011D  
                                        _RC2PPS 1F22                                          _RC4PPS 1F24  
                                        _ODCONA 1F3A                                          _ODCONB 1F45  
                                        _ODCONC 1F50                                          _RC6PPS 1F26  
                                        _ODCOND 1F5B                                          _ODCONE 1F66  
                                        _INLVLA 1F3C                                          _INLVLB 1F47  
                                        _INLVLC 1F52                                          _INLVLD 1F5D  
                                        _INLVLE 1F68                                          u110lld 05DB  
                                        u121lld 04F1                                          _OSCFRQ 0893  
                                        u108lld 05B0                                          u117lld 0675  
                                        u127lld 0574                                          u119lld 04C6  
                                        u136lld 06D0                                          _TX1REG 011A  
                                        _TX1STA 011E                                _I2C1_DO_TX_EMPTY 0000  
                          _Send_I2C_ControlByte 01B2                                    vfprintf@cfmt 0064  
                                     ??___aodiv 0070                                       ??___aomod 0070  
                      ?_EUSART1_SetErrorHandler 0070                                          _printf 01DD  
                                        pad@buf 0024                ??_EUSART1_SetOverrunErrorHandler 0072  
               ?_EUSART1_SetOverrunErrorHandler 0070                                          dtoa@fp 003F  
                                        _strlen 01EF                           _I2C1_DO_SEND_ADR_READ 0000  
                                        fputc@c 0072                                  _PMD_Initialize 0183  
                                        fputs@c 0020                                          fputs@i 0021  
                                        fputs@s 0023                                       ?_I2C_Init 0070  
                                     ?_I2C_Scan 0070                                __end_of_vfprintf 029D  
                               ??_EUSART1_Write 0070                         _I2C1_DO_RX_NACK_RESTART 0000  
                             _SYSTEM_Initialize 01CD                         __end_of__initialization 07FD  
                            ?_SYSTEM_Initialize 0070                           ?_Send_I2C_ControlByte 0070  
                       _rdBlkRegCompleteHandler 0000                     Send_I2C_ControlByte@Dev_Add 0071  
                                __pcstackCOMMON 0070                             ??_SYSTEM_Initialize 0072  
                                 __end_of_fputc 02DC                                   __end_of_fputs 026C  
                                 __end_of_putch 0164                          __end_of_PMD_Initialize 018B  
                                    ??_I2C_Init 0070                                      ??_I2C_Scan 006E  
                                       ??_fputc 0075                       __end_of_SYSTEM_Initialize 01DD  
                                       ??_fputs 007B                                         ??_putch 0071  
                                    __pbssBANK1 00A0                           _rd1RegCompleteHandler 0000  
                             _I2C1_DO_SEND_STOP 0000                           _wr1RegCompleteHandler 0000  
               __end_of_EUSART1_SetErrorHandler 016A                                      __pmaintext 01BF  
                               _I2C1_Initialize 018B                                         ?_printf 0066  
                               ?_PMD_Initialize 0070                                         ?_strlen 0070  
        __end_of_EUSART1_SetFramingErrorHandler 0170         __size_of_EUSART1_SetFramingErrorHandler 0006  
                _EUSART1_SetFramingErrorHandler 016A                                         _SP1BRGH 011C  
                                       _SP1BRGL 011B                                         _OSCCON1 088D  
                                       _OSCCON3 088F                              __size_of_vfpfcnvrt 00DB  
                                       _OSCSTAT 0890                                         _OSCTUNE 0892  
                                       _SSP1ADD 018D                                         _SLRCONA 1F3B  
                                       _SLRCONB 1F46                                         _SLRCONC 1F51  
                                       _SLRCOND 1F5C                                         _SLRCONE 1F67  
                                       _SSP1BUF 018C                              _i2c1_fsmStateTable 0800  
                        ??_Send_I2C_ControlByte 0071                                         ___aodiv 0586  
                                       ___aomod 049C                                       ?_vfprintf 005E  
                                       __ptext1 01CD                                         __ptext2 0183  
                                       __ptext3 031D                                         __ptext4 01A8  
                                       __ptext5 018B                                         __ptext6 0222  
                                       __ptext7 0170                                         __ptext8 016A  
                                       __ptext9 0164                                 __size_of_printf 0012  
                               __size_of_strlen 0019                           _OSCILLATOR_Initialize 01A8  
                                  __size_of_abs 001A                                    __size_of_pad 0059  
                            _EUSART1_Initialize 0222                        ??_PIN_MANAGER_Initialize 0070  
                    __size_of_SYSTEM_Initialize 0010                                         clrloop0 0177  
                          end_of_initialization 07FD                             ?_EUSART1_Initialize 0070  
                                       fputc@fp 0074                     _EUSART1_OverrunErrorHandler 00E8  
                                       fputs@fp 007A                          _I2C1_DO_SEND_ADR_WRITE 0000  
                       __end_of_I2C1_Initialize 0194                                     _I2C1_Status 00A0  
                             __end_of_vfpfcnvrt 049C                                      ??_vfprintf 0061  
                          ??_EUSART1_Initialize 0072                      _I2C1_DO_SEND_RESTART_WRITE 0000  
                                       strlen@a 0073                                         strlen@s 0074  
                             __size_of_I2C_Init 0007                               __size_of_I2C_Scan 0041  
              __size_of_EUSART1_SetErrorHandler 0006                             EUSART1_Write@txData 0070  
                                   vfpfcnvrt@ap 004F                                     vfpfcnvrt@fp 005D  
                                   vfpfcnvrt@ll 0055                                  _I2C1_DO_RX_ACK 0000  
                        ?_OSCILLATOR_Initialize 0070                                  __end_of_printf 01EF  
                                __end_of_strlen 0208                             start_initialization 07F5  
               __size_of_PIN_MANAGER_Initialize 004B                                     __end_of_abs 0222  
                                   __end_of_pad 03C1                                     putch@txData 0071  
                         __end_of_EUSART1_Write 01A8                                ?_I2C1_Initialize 0070  
                                   vfprintf@fmt 005E                                ??_PMD_Initialize 0070  
                                      ??_printf 006A                                        ??_strlen 0072  
                          _I2C1_DO_SEND_RESTART 0000                                       ___latbits 0003  
                                 __pcstackBANK0 0020                                   __pcstackBANK1 00EC  
                              ___aodiv@dividend 0028                                 I2C_Scan@ACK_bit 00EC  
              ??_EUSART1_SetFramingErrorHandler 0072                 ?_EUSART1_SetFramingErrorHandler 0070  
                                     __pnvBANK1 00E6                           _rd2RegCompleteHandler 0000  
                        _PIN_MANAGER_Initialize 031D                           _wr2RegCompleteHandler 0000  
                                     _dtoa$1797 003B                                        ?___aodiv 0020  
                                      ?___aomod 0020                                ___aodiv@quotient 0073  
                             __size_of_vfprintf 0031                                        _BAUD1CON 011F  
            _EUSART1_DefaultOverrunErrorHandler 0000                                        _I2C_Init 017C  
                                      _I2C_Scan 02DC                            _EUSART1_ErrorHandler 00E6  
                       _EUSART1_SetErrorHandler 0164                                  __size_of_fputc 003F  
                                __size_of_fputs 0028                                  __size_of_putch 0006  
       EUSART1_SetErrorHandler@interruptHandler 0070                                        _LATCbits 001A  
                                    _I2C1_DO_RX 0000                                      _I2C1_DO_TX 0000  
                                     clear_ram0 0176                                        _PIE3bits 0719  
                 __size_of_Send_I2C_ControlByte 000D                                        _PIR3bits 070F  
                                      _RX1DTPPS 1ECB                       _I2C1_DO_SEND_RESTART_READ 0000  
                                      _SSP1CON1 0190                                        _SSP1CON2 0191  
                                      _SSP1STAT 018F                                       _vfpfcnvrt 03C1  
                                 _I2C1_DO_RESET 0000                                      vfprintf@ap 0060  
                                    vfprintf@fp 0063                         ??_OSCILLATOR_Initialize 0070  
                              __size_of___aodiv 0101                                __size_of___aomod 00EA  
                   __size_of_EUSART1_Initialize 0022                                      ?_vfpfcnvrt 004E  
                               ___aodiv@divisor 0020                                 ___aodiv@counter 0071  
                     ??_EUSART1_SetErrorHandler 0072                     _EUSART1_DefaultErrorHandler 0000  
                                      __ptext10 02DC                                        __ptext11 01DD  
                                      __ptext20 019E                                        __ptext12 026C  
                                      __ptext21 0208                                        __ptext13 03C1  
                                      __ptext22 049C                                        __ptext14 0687  
                                      __ptext23 0586                                        __ptext15 0368  
                                      __ptext24 0194                                        __ptext16 01EF  
                                      __ptext25 01B2                                        __ptext17 0244  
                                      __ptext26 017C                                        __ptext18 029D  
                                      __ptext19 015E                                    _SSP1CON1bits 0190  
                                  _SSP1CON2bits 0191                      Send_I2C_ControlByte@RW_bit 0070  
                      _I2C1_CallbackReturnReset 0000                                   __size_of_main 000E  
                                 __size_of_dtoa 016E                                      _RC1STAbits 011D  
EUSART1_SetOverrunErrorHandler@interruptHandler 0070                                        _vfprintf 026C  
                                     printf@fmt 0066                                    _SSP1STATbits 018F  
                   _EUSART1_FramingErrorHandler 00EA                                    _I2C1_DO_IDLE 0000  
                                  _I2C1_DO_RCEN 0000                                ___aomod@dividend 0028  
                       ?_PIN_MANAGER_Initialize 0070          __end_of_EUSART1_SetOverrunErrorHandler 0176  
       __size_of_EUSART1_SetOverrunErrorHandler 0006                  _EUSART1_SetOverrunErrorHandler 0170  
                       _I2C1_CallbackReturnStop 0000                               _Send_I2C_StartBit 0194  
                          _I2C1_DO_ADDRESS_NACK 0000                              ?_Send_I2C_StartBit 0070  
                                      printf@ap 006D  EUSART1_SetFramingErrorHandler@interruptHandler 0070  
                               ___aomod@divisor 0020                                     ??_vfpfcnvrt 0050  
                               ___aomod@counter 0071                        __size_of_I2C1_Initialize 0009  
                        __size_of_EUSART1_Write 000A                              _eusart1RxLastError 00C5  
                                 __pstringtext1 0800                                   __pstringtext2 0820  
                                 __pstringtext3 083A                                   __pstringtext4 0000  
                           ??_Send_I2C_StartBit 0070                                      _SSP1DATPPS 1EC6  
                                    _SSP1CLKPPS 1EC5                                      _TX1STAbits 011E  
                                  ___aodiv@sign 0072                  __end_of_PIN_MANAGER_Initialize 0368  
                     __end_of_Send_I2C_StartBit 019E                                    ___aomod@sign 0072  
