

Microchip MPLAB XC8 Assembler V2.31 build 20201012212115 
                                                                                               Wed Aug 18 01:19:57 2021

Microchip MPLAB XC8 C Compiler v2.31 (Free license) build 20201012212115 Og1 
     1                           	processor	16LF15376
     2                           	pagewidth 120
     3                           	opt	flic
     4                           	psect	stringtext1,global,class=STRCODE,delta=2,noexec
     5                           	psect	nvBANK1,global,class=BANK1,space=1,delta=1,noexec
     6                           	psect	stringtext2,global,class=STRCODE,delta=2,noexec
     7                           	psect	stringtext3,global,class=STRCODE,delta=2,noexec
     8                           	psect	cinit,global,class=CODE,merge=1,delta=2
     9                           	psect	bssBANK1,global,class=BANK1,space=1,delta=1,noexec
    10                           	psect	clrtext,global,class=CODE,delta=2
    11                           	psect	cstackBANK1,global,class=BANK1,space=1,delta=1,noexec
    12                           	psect	cstackCOMMON,global,class=COMMON,space=1,delta=1,noexec
    13                           	psect	cstackBANK0,global,class=BANK0,space=1,delta=1,noexec
    14                           	psect	maintext,global,class=CODE,merge=1,split=1,delta=2
    15                           	psect	text1,local,class=CODE,merge=1,delta=2,group=3
    16                           	psect	text2,local,class=CODE,merge=1,delta=2,group=1
    17                           	psect	text3,local,class=CODE,merge=1,delta=2,group=1
    18                           	psect	text4,local,class=CODE,merge=1,delta=2,group=1
    19                           	psect	text5,local,class=CODE,merge=1,delta=2,group=1
    20                           	psect	text6,local,class=CODE,merge=1,delta=2,group=3
    21                           	psect	text7,local,class=CODE,merge=1,delta=2,group=3
    22                           	psect	text8,local,class=CODE,merge=1,delta=2,group=3
    23                           	psect	text9,local,class=CODE,merge=1,delta=2
    24                           	psect	text10,local,class=CODE,merge=1,delta=2
    25                           	psect	text11,local,class=CODE,merge=1,delta=2,group=3
    26                           	psect	text12,local,class=CODE,merge=1,delta=2,group=2
    27                           	psect	text13,local,class=CODE,merge=1,delta=2,group=2
    28                           	psect	text14,local,class=CODE,merge=1,delta=2
    29                           	psect	text15,local,class=CODE,merge=1,delta=2
    30                           	psect	text16,local,class=CODE,merge=1,delta=2
    31                           	psect	text17,local,class=CODE,merge=1,delta=2
    32                           	psect	text18,local,class=CODE,merge=1,delta=2
    33                           	psect	text19,local,class=CODE,merge=1,delta=2
    34                           	psect	text20,local,class=CODE,merge=1,delta=2
    35                           	psect	text21,local,class=CODE,merge=1,delta=2
    36                           	psect	text22,local,class=CODE,merge=1,delta=2
    37                           	psect	text23,local,class=CODE,merge=1,delta=2
    38                           	psect	text24,local,class=CODE,merge=1,delta=2
    39                           	psect	text25,local,class=CODE,merge=1,delta=2
    40                           	psect	text26,local,class=CODE,merge=1,delta=2
    41                           	psect	text27,local,class=CODE,merge=1,delta=2
    42                           	psect	text28,local,class=CODE,merge=1,delta=2
    43                           	psect	text29,local,class=CODE,merge=1,delta=2
    44                           	psect	text30,local,class=CODE,merge=1,delta=2
    45                           	psect	config,global,abs,ovrld,class=CONFIG,space=4,delta=2,noexec
    46                           	dabs	1,0x7E,2
    47  0000                     
    48                           ; Version 2.30
    49                           ; Generated 15/09/2020 GMT
    50                           ; 
    51                           ; Copyright © 2020, Microchip Technology Inc. and its subsidiaries ("Microchip")
    52                           ; All rights reserved.
    53                           ; 
    54                           ; This software is developed by Microchip Technology Inc. and its subsidiaries ("Microch
      +                          ip").
    55                           ; 
    56                           ; Redistribution and use in source and binary forms, with or without modification, are
    57                           ; permitted provided that the following conditions are met:
    58                           ; 
    59                           ;     1. Redistributions of source code must retain the above copyright notice, this lis
      +                          t of
    60                           ;        conditions and the following disclaimer.
    61                           ; 
    62                           ;     2. Redistributions in binary form must reproduce the above copyright notice, this 
      +                          list
    63                           ;        of conditions and the following disclaimer in the documentation and/or other
    64                           ;        materials provided with the distribution. Publication is not required when
    65                           ;        this file is used in an embedded application.
    66                           ; 
    67                           ;     3. Microchip's name may not be used to endorse or promote products derived from th
      +                          is
    68                           ;        software without specific prior written permission.
    69                           ; 
    70                           ; THIS SOFTWARE IS PROVIDED BY MICROCHIP "AS IS" AND ANY EXPRESS OR IMPLIED WARRANTIES,
    71                           ; INCLUDING, BUT NOT LIMITED TO, THE IMPLIED WARRANTIES OF MERCHANTABILITY AND FITNESS F
      +                          OR
    72                           ; PURPOSE ARE DISCLAIMED.  IN NO EVENT SHALL MICROCHIP BE LIABLE FOR ANY DIRECT, INDIREC
      +                          T,
    73                           ; INCIDENTAL, SPECIAL, EXEMPLARY, OR CONSEQUENTIAL DAMAGES (INCLUDING BUT NOT LIMITED TO
    74                           ; PROCUREMENT OF SUBSTITUTE GOODS OR SERVICES; LOSS OF USE, DATA OR PROFITS; OR BUSINESS
    75                           ; INTERRUPTION) HOWSOEVER CAUSED AND ON ANY THEORY OF LIABILITY, WHETHER IN CONTRACT, ST
      +                          RICT
    76                           ; LIABILITY, OR TORT (INCLUDING NEGLIGENCE OR OTHERWISE) ARISING IN ANY WAY OUT OF THE U
      +                          SE OF
    77                           ; THIS SOFTWARE, EVEN IF ADVISED OF THE POSSIBILITY OF SUCH DAMAGE.
    78                           ; 
    79                           ; 
    80                           ; Code-generator required, PIC16LF15376 Definitions
    81                           ; 
    82                           ; SFR Addresses
    83  0000                     	;# 
    84  0001                     	;# 
    85  0002                     	;# 
    86  0003                     	;# 
    87  0004                     	;# 
    88  0005                     	;# 
    89  0006                     	;# 
    90  0007                     	;# 
    91  0008                     	;# 
    92  0009                     	;# 
    93  000A                     	;# 
    94  000B                     	;# 
    95  000C                     	;# 
    96  000D                     	;# 
    97  000E                     	;# 
    98  000F                     	;# 
    99  0010                     	;# 
   100  0012                     	;# 
   101  0013                     	;# 
   102  0014                     	;# 
   103  0015                     	;# 
   104  0016                     	;# 
   105  0018                     	;# 
   106  0019                     	;# 
   107  001A                     	;# 
   108  001B                     	;# 
   109  001C                     	;# 
   110  009B                     	;# 
   111  009B                     	;# 
   112  009C                     	;# 
   113  009D                     	;# 
   114  009E                     	;# 
   115  009F                     	;# 
   116  0119                     	;# 
   117  0119                     	;# 
   118  0119                     	;# 
   119  011A                     	;# 
   120  011A                     	;# 
   121  011A                     	;# 
   122  011B                     	;# 
   123  011B                     	;# 
   124  011B                     	;# 
   125  011B                     	;# 
   126  011B                     	;# 
   127  011C                     	;# 
   128  011C                     	;# 
   129  011C                     	;# 
   130  011D                     	;# 
   131  011D                     	;# 
   132  011D                     	;# 
   133  011E                     	;# 
   134  011E                     	;# 
   135  011E                     	;# 
   136  011F                     	;# 
   137  011F                     	;# 
   138  011F                     	;# 
   139  011F                     	;# 
   140  011F                     	;# 
   141  018C                     	;# 
   142  018D                     	;# 
   143  018E                     	;# 
   144  018F                     	;# 
   145  0190                     	;# 
   146  0191                     	;# 
   147  0192                     	;# 
   148  0196                     	;# 
   149  0197                     	;# 
   150  0198                     	;# 
   151  0199                     	;# 
   152  019A                     	;# 
   153  019B                     	;# 
   154  019C                     	;# 
   155  020C                     	;# 
   156  020C                     	;# 
   157  020D                     	;# 
   158  020E                     	;# 
   159  020F                     	;# 
   160  020F                     	;# 
   161  0210                     	;# 
   162  0210                     	;# 
   163  0211                     	;# 
   164  0211                     	;# 
   165  028C                     	;# 
   166  028C                     	;# 
   167  028D                     	;# 
   168  028D                     	;# 
   169  028E                     	;# 
   170  028F                     	;# 
   171  0290                     	;# 
   172  0291                     	;# 
   173  030C                     	;# 
   174  030C                     	;# 
   175  030D                     	;# 
   176  030E                     	;# 
   177  030F                     	;# 
   178  0310                     	;# 
   179  0310                     	;# 
   180  0311                     	;# 
   181  0312                     	;# 
   182  0313                     	;# 
   183  0314                     	;# 
   184  0314                     	;# 
   185  0315                     	;# 
   186  0316                     	;# 
   187  0318                     	;# 
   188  0318                     	;# 
   189  0319                     	;# 
   190  031A                     	;# 
   191  031C                     	;# 
   192  031C                     	;# 
   193  031D                     	;# 
   194  031E                     	;# 
   195  038C                     	;# 
   196  038C                     	;# 
   197  038D                     	;# 
   198  038E                     	;# 
   199  058C                     	;# 
   200  058C                     	;# 
   201  058D                     	;# 
   202  058E                     	;# 
   203  058F                     	;# 
   204  058F                     	;# 
   205  0590                     	;# 
   206  0591                     	;# 
   207  0592                     	;# 
   208  0593                     	;# 
   209  059C                     	;# 
   210  059C                     	;# 
   211  059D                     	;# 
   212  059D                     	;# 
   213  059E                     	;# 
   214  059F                     	;# 
   215  060C                     	;# 
   216  060D                     	;# 
   217  060E                     	;# 
   218  060F                     	;# 
   219  0610                     	;# 
   220  0611                     	;# 
   221  0612                     	;# 
   222  0613                     	;# 
   223  0614                     	;# 
   224  070C                     	;# 
   225  070D                     	;# 
   226  070E                     	;# 
   227  070F                     	;# 
   228  0710                     	;# 
   229  0711                     	;# 
   230  0712                     	;# 
   231  0713                     	;# 
   232  0716                     	;# 
   233  0717                     	;# 
   234  0718                     	;# 
   235  0719                     	;# 
   236  071A                     	;# 
   237  071B                     	;# 
   238  071C                     	;# 
   239  071D                     	;# 
   240  0796                     	;# 
   241  0797                     	;# 
   242  0798                     	;# 
   243  0799                     	;# 
   244  079A                     	;# 
   245  079B                     	;# 
   246  080C                     	;# 
   247  080D                     	;# 
   248  080E                     	;# 
   249  080F                     	;# 
   250  0810                     	;# 
   251  0811                     	;# 
   252  0813                     	;# 
   253  0814                     	;# 
   254  081A                     	;# 
   255  081A                     	;# 
   256  081B                     	;# 
   257  081C                     	;# 
   258  081C                     	;# 
   259  081D                     	;# 
   260  081E                     	;# 
   261  081F                     	;# 
   262  088C                     	;# 
   263  088D                     	;# 
   264  088E                     	;# 
   265  088F                     	;# 
   266  0890                     	;# 
   267  0891                     	;# 
   268  0892                     	;# 
   269  0893                     	;# 
   270  0895                     	;# 
   271  0896                     	;# 
   272  090C                     	;# 
   273  090E                     	;# 
   274  090F                     	;# 
   275  091F                     	;# 
   276  098F                     	;# 
   277  098F                     	;# 
   278  0990                     	;# 
   279  0991                     	;# 
   280  0992                     	;# 
   281  0993                     	;# 
   282  0994                     	;# 
   283  0995                     	;# 
   284  0996                     	;# 
   285  0997                     	;# 
   286  0A19                     	;# 
   287  0A19                     	;# 
   288  0A1A                     	;# 
   289  0A1A                     	;# 
   290  0A1B                     	;# 
   291  0A1B                     	;# 
   292  0A1B                     	;# 
   293  0A1C                     	;# 
   294  0A1C                     	;# 
   295  0A1D                     	;# 
   296  0A1D                     	;# 
   297  0A1E                     	;# 
   298  0A1E                     	;# 
   299  0A1F                     	;# 
   300  0A1F                     	;# 
   301  0A1F                     	;# 
   302  1E0F                     	;# 
   303  1E10                     	;# 
   304  1E11                     	;# 
   305  1E12                     	;# 
   306  1E13                     	;# 
   307  1E14                     	;# 
   308  1E15                     	;# 
   309  1E16                     	;# 
   310  1E17                     	;# 
   311  1E18                     	;# 
   312  1E19                     	;# 
   313  1E1A                     	;# 
   314  1E1B                     	;# 
   315  1E1C                     	;# 
   316  1E1D                     	;# 
   317  1E1E                     	;# 
   318  1E1F                     	;# 
   319  1E20                     	;# 
   320  1E21                     	;# 
   321  1E22                     	;# 
   322  1E23                     	;# 
   323  1E24                     	;# 
   324  1E25                     	;# 
   325  1E26                     	;# 
   326  1E27                     	;# 
   327  1E28                     	;# 
   328  1E29                     	;# 
   329  1E2A                     	;# 
   330  1E2B                     	;# 
   331  1E2C                     	;# 
   332  1E2D                     	;# 
   333  1E2E                     	;# 
   334  1E2F                     	;# 
   335  1E30                     	;# 
   336  1E31                     	;# 
   337  1E32                     	;# 
   338  1E33                     	;# 
   339  1E34                     	;# 
   340  1E35                     	;# 
   341  1E36                     	;# 
   342  1E37                     	;# 
   343  1E8F                     	;# 
   344  1E90                     	;# 
   345  1E91                     	;# 
   346  1E92                     	;# 
   347  1E93                     	;# 
   348  1E9C                     	;# 
   349  1EA1                     	;# 
   350  1EA2                     	;# 
   351  1EB1                     	;# 
   352  1EBB                     	;# 
   353  1EBC                     	;# 
   354  1EBD                     	;# 
   355  1EBE                     	;# 
   356  1EC3                     	;# 
   357  1EC5                     	;# 
   358  1EC6                     	;# 
   359  1EC7                     	;# 
   360  1EC8                     	;# 
   361  1EC9                     	;# 
   362  1ECA                     	;# 
   363  1ECB                     	;# 
   364  1ECC                     	;# 
   365  1ECD                     	;# 
   366  1ECE                     	;# 
   367  1F10                     	;# 
   368  1F11                     	;# 
   369  1F12                     	;# 
   370  1F13                     	;# 
   371  1F14                     	;# 
   372  1F15                     	;# 
   373  1F16                     	;# 
   374  1F17                     	;# 
   375  1F18                     	;# 
   376  1F19                     	;# 
   377  1F1A                     	;# 
   378  1F1B                     	;# 
   379  1F1C                     	;# 
   380  1F1D                     	;# 
   381  1F1E                     	;# 
   382  1F1F                     	;# 
   383  1F20                     	;# 
   384  1F21                     	;# 
   385  1F22                     	;# 
   386  1F23                     	;# 
   387  1F24                     	;# 
   388  1F25                     	;# 
   389  1F26                     	;# 
   390  1F27                     	;# 
   391  1F28                     	;# 
   392  1F29                     	;# 
   393  1F2A                     	;# 
   394  1F2B                     	;# 
   395  1F2C                     	;# 
   396  1F2D                     	;# 
   397  1F2E                     	;# 
   398  1F2F                     	;# 
   399  1F30                     	;# 
   400  1F31                     	;# 
   401  1F32                     	;# 
   402  1F38                     	;# 
   403  1F39                     	;# 
   404  1F3A                     	;# 
   405  1F3B                     	;# 
   406  1F3C                     	;# 
   407  1F3D                     	;# 
   408  1F3E                     	;# 
   409  1F3F                     	;# 
   410  1F43                     	;# 
   411  1F44                     	;# 
   412  1F45                     	;# 
   413  1F46                     	;# 
   414  1F47                     	;# 
   415  1F48                     	;# 
   416  1F49                     	;# 
   417  1F4A                     	;# 
   418  1F4E                     	;# 
   419  1F4F                     	;# 
   420  1F50                     	;# 
   421  1F51                     	;# 
   422  1F52                     	;# 
   423  1F53                     	;# 
   424  1F54                     	;# 
   425  1F55                     	;# 
   426  1F59                     	;# 
   427  1F5A                     	;# 
   428  1F5B                     	;# 
   429  1F5C                     	;# 
   430  1F5D                     	;# 
   431  1F64                     	;# 
   432  1F65                     	;# 
   433  1F66                     	;# 
   434  1F67                     	;# 
   435  1F68                     	;# 
   436  1F69                     	;# 
   437  1F6A                     	;# 
   438  1F6B                     	;# 
   439  1FE4                     	;# 
   440  1FE5                     	;# 
   441  1FE6                     	;# 
   442  1FE7                     	;# 
   443  1FE8                     	;# 
   444  1FE8                     	;# 
   445  1FE9                     	;# 
   446  1FEA                     	;# 
   447  1FEB                     	;# 
   448  1FED                     	;# 
   449  1FEE                     	;# 
   450  1FEF                     	;# 
   451  0000                     	;# 
   452  0001                     	;# 
   453  0002                     	;# 
   454  0003                     	;# 
   455  0004                     	;# 
   456  0005                     	;# 
   457  0006                     	;# 
   458  0007                     	;# 
   459  0008                     	;# 
   460  0009                     	;# 
   461  000A                     	;# 
   462  000B                     	;# 
   463  000C                     	;# 
   464  000D                     	;# 
   465  000E                     	;# 
   466  000F                     	;# 
   467  0010                     	;# 
   468  0012                     	;# 
   469  0013                     	;# 
   470  0014                     	;# 
   471  0015                     	;# 
   472  0016                     	;# 
   473  0018                     	;# 
   474  0019                     	;# 
   475  001A                     	;# 
   476  001B                     	;# 
   477  001C                     	;# 
   478  009B                     	;# 
   479  009B                     	;# 
   480  009C                     	;# 
   481  009D                     	;# 
   482  009E                     	;# 
   483  009F                     	;# 
   484  0119                     	;# 
   485  0119                     	;# 
   486  0119                     	;# 
   487  011A                     	;# 
   488  011A                     	;# 
   489  011A                     	;# 
   490  011B                     	;# 
   491  011B                     	;# 
   492  011B                     	;# 
   493  011B                     	;# 
   494  011B                     	;# 
   495  011C                     	;# 
   496  011C                     	;# 
   497  011C                     	;# 
   498  011D                     	;# 
   499  011D                     	;# 
   500  011D                     	;# 
   501  011E                     	;# 
   502  011E                     	;# 
   503  011E                     	;# 
   504  011F                     	;# 
   505  011F                     	;# 
   506  011F                     	;# 
   507  011F                     	;# 
   508  011F                     	;# 
   509  018C                     	;# 
   510  018D                     	;# 
   511  018E                     	;# 
   512  018F                     	;# 
   513  0190                     	;# 
   514  0191                     	;# 
   515  0192                     	;# 
   516  0196                     	;# 
   517  0197                     	;# 
   518  0198                     	;# 
   519  0199                     	;# 
   520  019A                     	;# 
   521  019B                     	;# 
   522  019C                     	;# 
   523  020C                     	;# 
   524  020C                     	;# 
   525  020D                     	;# 
   526  020E                     	;# 
   527  020F                     	;# 
   528  020F                     	;# 
   529  0210                     	;# 
   530  0210                     	;# 
   531  0211                     	;# 
   532  0211                     	;# 
   533  028C                     	;# 
   534  028C                     	;# 
   535  028D                     	;# 
   536  028D                     	;# 
   537  028E                     	;# 
   538  028F                     	;# 
   539  0290                     	;# 
   540  0291                     	;# 
   541  030C                     	;# 
   542  030C                     	;# 
   543  030D                     	;# 
   544  030E                     	;# 
   545  030F                     	;# 
   546  0310                     	;# 
   547  0310                     	;# 
   548  0311                     	;# 
   549  0312                     	;# 
   550  0313                     	;# 
   551  0314                     	;# 
   552  0314                     	;# 
   553  0315                     	;# 
   554  0316                     	;# 
   555  0318                     	;# 
   556  0318                     	;# 
   557  0319                     	;# 
   558  031A                     	;# 
   559  031C                     	;# 
   560  031C                     	;# 
   561  031D                     	;# 
   562  031E                     	;# 
   563  038C                     	;# 
   564  038C                     	;# 
   565  038D                     	;# 
   566  038E                     	;# 
   567  058C                     	;# 
   568  058C                     	;# 
   569  058D                     	;# 
   570  058E                     	;# 
   571  058F                     	;# 
   572  058F                     	;# 
   573  0590                     	;# 
   574  0591                     	;# 
   575  0592                     	;# 
   576  0593                     	;# 
   577  059C                     	;# 
   578  059C                     	;# 
   579  059D                     	;# 
   580  059D                     	;# 
   581  059E                     	;# 
   582  059F                     	;# 
   583  060C                     	;# 
   584  060D                     	;# 
   585  060E                     	;# 
   586  060F                     	;# 
   587  0610                     	;# 
   588  0611                     	;# 
   589  0612                     	;# 
   590  0613                     	;# 
   591  0614                     	;# 
   592  070C                     	;# 
   593  070D                     	;# 
   594  070E                     	;# 
   595  070F                     	;# 
   596  0710                     	;# 
   597  0711                     	;# 
   598  0712                     	;# 
   599  0713                     	;# 
   600  0716                     	;# 
   601  0717                     	;# 
   602  0718                     	;# 
   603  0719                     	;# 
   604  071A                     	;# 
   605  071B                     	;# 
   606  071C                     	;# 
   607  071D                     	;# 
   608  0796                     	;# 
   609  0797                     	;# 
   610  0798                     	;# 
   611  0799                     	;# 
   612  079A                     	;# 
   613  079B                     	;# 
   614  080C                     	;# 
   615  080D                     	;# 
   616  080E                     	;# 
   617  080F                     	;# 
   618  0810                     	;# 
   619  0811                     	;# 
   620  0813                     	;# 
   621  0814                     	;# 
   622  081A                     	;# 
   623  081A                     	;# 
   624  081B                     	;# 
   625  081C                     	;# 
   626  081C                     	;# 
   627  081D                     	;# 
   628  081E                     	;# 
   629  081F                     	;# 
   630  088C                     	;# 
   631  088D                     	;# 
   632  088E                     	;# 
   633  088F                     	;# 
   634  0890                     	;# 
   635  0891                     	;# 
   636  0892                     	;# 
   637  0893                     	;# 
   638  0895                     	;# 
   639  0896                     	;# 
   640  090C                     	;# 
   641  090E                     	;# 
   642  090F                     	;# 
   643  091F                     	;# 
   644  098F                     	;# 
   645  098F                     	;# 
   646  0990                     	;# 
   647  0991                     	;# 
   648  0992                     	;# 
   649  0993                     	;# 
   650  0994                     	;# 
   651  0995                     	;# 
   652  0996                     	;# 
   653  0997                     	;# 
   654  0A19                     	;# 
   655  0A19                     	;# 
   656  0A1A                     	;# 
   657  0A1A                     	;# 
   658  0A1B                     	;# 
   659  0A1B                     	;# 
   660  0A1B                     	;# 
   661  0A1C                     	;# 
   662  0A1C                     	;# 
   663  0A1D                     	;# 
   664  0A1D                     	;# 
   665  0A1E                     	;# 
   666  0A1E                     	;# 
   667  0A1F                     	;# 
   668  0A1F                     	;# 
   669  0A1F                     	;# 
   670  1E0F                     	;# 
   671  1E10                     	;# 
   672  1E11                     	;# 
   673  1E12                     	;# 
   674  1E13                     	;# 
   675  1E14                     	;# 
   676  1E15                     	;# 
   677  1E16                     	;# 
   678  1E17                     	;# 
   679  1E18                     	;# 
   680  1E19                     	;# 
   681  1E1A                     	;# 
   682  1E1B                     	;# 
   683  1E1C                     	;# 
   684  1E1D                     	;# 
   685  1E1E                     	;# 
   686  1E1F                     	;# 
   687  1E20                     	;# 
   688  1E21                     	;# 
   689  1E22                     	;# 
   690  1E23                     	;# 
   691  1E24                     	;# 
   692  1E25                     	;# 
   693  1E26                     	;# 
   694  1E27                     	;# 
   695  1E28                     	;# 
   696  1E29                     	;# 
   697  1E2A                     	;# 
   698  1E2B                     	;# 
   699  1E2C                     	;# 
   700  1E2D                     	;# 
   701  1E2E                     	;# 
   702  1E2F                     	;# 
   703  1E30                     	;# 
   704  1E31                     	;# 
   705  1E32                     	;# 
   706  1E33                     	;# 
   707  1E34                     	;# 
   708  1E35                     	;# 
   709  1E36                     	;# 
   710  1E37                     	;# 
   711  1E8F                     	;# 
   712  1E90                     	;# 
   713  1E91                     	;# 
   714  1E92                     	;# 
   715  1E93                     	;# 
   716  1E9C                     	;# 
   717  1EA1                     	;# 
   718  1EA2                     	;# 
   719  1EB1                     	;# 
   720  1EBB                     	;# 
   721  1EBC                     	;# 
   722  1EBD                     	;# 
   723  1EBE                     	;# 
   724  1EC3                     	;# 
   725  1EC5                     	;# 
   726  1EC6                     	;# 
   727  1EC7                     	;# 
   728  1EC8                     	;# 
   729  1EC9                     	;# 
   730  1ECA                     	;# 
   731  1ECB                     	;# 
   732  1ECC                     	;# 
   733  1ECD                     	;# 
   734  1ECE                     	;# 
   735  1F10                     	;# 
   736  1F11                     	;# 
   737  1F12                     	;# 
   738  1F13                     	;# 
   739  1F14                     	;# 
   740  1F15                     	;# 
   741  1F16                     	;# 
   742  1F17                     	;# 
   743  1F18                     	;# 
   744  1F19                     	;# 
   745  1F1A                     	;# 
   746  1F1B                     	;# 
   747  1F1C                     	;# 
   748  1F1D                     	;# 
   749  1F1E                     	;# 
   750  1F1F                     	;# 
   751  1F20                     	;# 
   752  1F21                     	;# 
   753  1F22                     	;# 
   754  1F23                     	;# 
   755  1F24                     	;# 
   756  1F25                     	;# 
   757  1F26                     	;# 
   758  1F27                     	;# 
   759  1F28                     	;# 
   760  1F29                     	;# 
   761  1F2A                     	;# 
   762  1F2B                     	;# 
   763  1F2C                     	;# 
   764  1F2D                     	;# 
   765  1F2E                     	;# 
   766  1F2F                     	;# 
   767  1F30                     	;# 
   768  1F31                     	;# 
   769  1F32                     	;# 
   770  1F38                     	;# 
   771  1F39                     	;# 
   772  1F3A                     	;# 
   773  1F3B                     	;# 
   774  1F3C                     	;# 
   775  1F3D                     	;# 
   776  1F3E                     	;# 
   777  1F3F                     	;# 
   778  1F43                     	;# 
   779  1F44                     	;# 
   780  1F45                     	;# 
   781  1F46                     	;# 
   782  1F47                     	;# 
   783  1F48                     	;# 
   784  1F49                     	;# 
   785  1F4A                     	;# 
   786  1F4E                     	;# 
   787  1F4F                     	;# 
   788  1F50                     	;# 
   789  1F51                     	;# 
   790  1F52                     	;# 
   791  1F53                     	;# 
   792  1F54                     	;# 
   793  1F55                     	;# 
   794  1F59                     	;# 
   795  1F5A                     	;# 
   796  1F5B                     	;# 
   797  1F5C                     	;# 
   798  1F5D                     	;# 
   799  1F64                     	;# 
   800  1F65                     	;# 
   801  1F66                     	;# 
   802  1F67                     	;# 
   803  1F68                     	;# 
   804  1F69                     	;# 
   805  1F6A                     	;# 
   806  1F6B                     	;# 
   807  1FE4                     	;# 
   808  1FE5                     	;# 
   809  1FE6                     	;# 
   810  1FE7                     	;# 
   811  1FE8                     	;# 
   812  1FE8                     	;# 
   813  1FE9                     	;# 
   814  1FEA                     	;# 
   815  1FEB                     	;# 
   816  1FED                     	;# 
   817  1FEE                     	;# 
   818  1FEF                     	;# 
   819  0000                     	;# 
   820  0001                     	;# 
   821  0002                     	;# 
   822  0003                     	;# 
   823  0004                     	;# 
   824  0005                     	;# 
   825  0006                     	;# 
   826  0007                     	;# 
   827  0008                     	;# 
   828  0009                     	;# 
   829  000A                     	;# 
   830  000B                     	;# 
   831  000C                     	;# 
   832  000D                     	;# 
   833  000E                     	;# 
   834  000F                     	;# 
   835  0010                     	;# 
   836  0012                     	;# 
   837  0013                     	;# 
   838  0014                     	;# 
   839  0015                     	;# 
   840  0016                     	;# 
   841  0018                     	;# 
   842  0019                     	;# 
   843  001A                     	;# 
   844  001B                     	;# 
   845  001C                     	;# 
   846  009B                     	;# 
   847  009B                     	;# 
   848  009C                     	;# 
   849  009D                     	;# 
   850  009E                     	;# 
   851  009F                     	;# 
   852  0119                     	;# 
   853  0119                     	;# 
   854  0119                     	;# 
   855  011A                     	;# 
   856  011A                     	;# 
   857  011A                     	;# 
   858  011B                     	;# 
   859  011B                     	;# 
   860  011B                     	;# 
   861  011B                     	;# 
   862  011B                     	;# 
   863  011C                     	;# 
   864  011C                     	;# 
   865  011C                     	;# 
   866  011D                     	;# 
   867  011D                     	;# 
   868  011D                     	;# 
   869  011E                     	;# 
   870  011E                     	;# 
   871  011E                     	;# 
   872  011F                     	;# 
   873  011F                     	;# 
   874  011F                     	;# 
   875  011F                     	;# 
   876  011F                     	;# 
   877  018C                     	;# 
   878  018D                     	;# 
   879  018E                     	;# 
   880  018F                     	;# 
   881  0190                     	;# 
   882  0191                     	;# 
   883  0192                     	;# 
   884  0196                     	;# 
   885  0197                     	;# 
   886  0198                     	;# 
   887  0199                     	;# 
   888  019A                     	;# 
   889  019B                     	;# 
   890  019C                     	;# 
   891  020C                     	;# 
   892  020C                     	;# 
   893  020D                     	;# 
   894  020E                     	;# 
   895  020F                     	;# 
   896  020F                     	;# 
   897  0210                     	;# 
   898  0210                     	;# 
   899  0211                     	;# 
   900  0211                     	;# 
   901  028C                     	;# 
   902  028C                     	;# 
   903  028D                     	;# 
   904  028D                     	;# 
   905  028E                     	;# 
   906  028F                     	;# 
   907  0290                     	;# 
   908  0291                     	;# 
   909  030C                     	;# 
   910  030C                     	;# 
   911  030D                     	;# 
   912  030E                     	;# 
   913  030F                     	;# 
   914  0310                     	;# 
   915  0310                     	;# 
   916  0311                     	;# 
   917  0312                     	;# 
   918  0313                     	;# 
   919  0314                     	;# 
   920  0314                     	;# 
   921  0315                     	;# 
   922  0316                     	;# 
   923  0318                     	;# 
   924  0318                     	;# 
   925  0319                     	;# 
   926  031A                     	;# 
   927  031C                     	;# 
   928  031C                     	;# 
   929  031D                     	;# 
   930  031E                     	;# 
   931  038C                     	;# 
   932  038C                     	;# 
   933  038D                     	;# 
   934  038E                     	;# 
   935  058C                     	;# 
   936  058C                     	;# 
   937  058D                     	;# 
   938  058E                     	;# 
   939  058F                     	;# 
   940  058F                     	;# 
   941  0590                     	;# 
   942  0591                     	;# 
   943  0592                     	;# 
   944  0593                     	;# 
   945  059C                     	;# 
   946  059C                     	;# 
   947  059D                     	;# 
   948  059D                     	;# 
   949  059E                     	;# 
   950  059F                     	;# 
   951  060C                     	;# 
   952  060D                     	;# 
   953  060E                     	;# 
   954  060F                     	;# 
   955  0610                     	;# 
   956  0611                     	;# 
   957  0612                     	;# 
   958  0613                     	;# 
   959  0614                     	;# 
   960  070C                     	;# 
   961  070D                     	;# 
   962  070E                     	;# 
   963  070F                     	;# 
   964  0710                     	;# 
   965  0711                     	;# 
   966  0712                     	;# 
   967  0713                     	;# 
   968  0716                     	;# 
   969  0717                     	;# 
   970  0718                     	;# 
   971  0719                     	;# 
   972  071A                     	;# 
   973  071B                     	;# 
   974  071C                     	;# 
   975  071D                     	;# 
   976  0796                     	;# 
   977  0797                     	;# 
   978  0798                     	;# 
   979  0799                     	;# 
   980  079A                     	;# 
   981  079B                     	;# 
   982  080C                     	;# 
   983  080D                     	;# 
   984  080E                     	;# 
   985  080F                     	;# 
   986  0810                     	;# 
   987  0811                     	;# 
   988  0813                     	;# 
   989  0814                     	;# 
   990  081A                     	;# 
   991  081A                     	;# 
   992  081B                     	;# 
   993  081C                     	;# 
   994  081C                     	;# 
   995  081D                     	;# 
   996  081E                     	;# 
   997  081F                     	;# 
   998  088C                     	;# 
   999  088D                     	;# 
  1000  088E                     	;# 
  1001  088F                     	;# 
  1002  0890                     	;# 
  1003  0891                     	;# 
  1004  0892                     	;# 
  1005  0893                     	;# 
  1006  0895                     	;# 
  1007  0896                     	;# 
  1008  090C                     	;# 
  1009  090E                     	;# 
  1010  090F                     	;# 
  1011  091F                     	;# 
  1012  098F                     	;# 
  1013  098F                     	;# 
  1014  0990                     	;# 
  1015  0991                     	;# 
  1016  0992                     	;# 
  1017  0993                     	;# 
  1018  0994                     	;# 
  1019  0995                     	;# 
  1020  0996                     	;# 
  1021  0997                     	;# 
  1022  0A19                     	;# 
  1023  0A19                     	;# 
  1024  0A1A                     	;# 
  1025  0A1A                     	;# 
  1026  0A1B                     	;# 
  1027  0A1B                     	;# 
  1028  0A1B                     	;# 
  1029  0A1C                     	;# 
  1030  0A1C                     	;# 
  1031  0A1D                     	;# 
  1032  0A1D                     	;# 
  1033  0A1E                     	;# 
  1034  0A1E                     	;# 
  1035  0A1F                     	;# 
  1036  0A1F                     	;# 
  1037  0A1F                     	;# 
  1038  1E0F                     	;# 
  1039  1E10                     	;# 
  1040  1E11                     	;# 
  1041  1E12                     	;# 
  1042  1E13                     	;# 
  1043  1E14                     	;# 
  1044  1E15                     	;# 
  1045  1E16                     	;# 
  1046  1E17                     	;# 
  1047  1E18                     	;# 
  1048  1E19                     	;# 
  1049  1E1A                     	;# 
  1050  1E1B                     	;# 
  1051  1E1C                     	;# 
  1052  1E1D                     	;# 
  1053  1E1E                     	;# 
  1054  1E1F                     	;# 
  1055  1E20                     	;# 
  1056  1E21                     	;# 
  1057  1E22                     	;# 
  1058  1E23                     	;# 
  1059  1E24                     	;# 
  1060  1E25                     	;# 
  1061  1E26                     	;# 
  1062  1E27                     	;# 
  1063  1E28                     	;# 
  1064  1E29                     	;# 
  1065  1E2A                     	;# 
  1066  1E2B                     	;# 
  1067  1E2C                     	;# 
  1068  1E2D                     	;# 
  1069  1E2E                     	;# 
  1070  1E2F                     	;# 
  1071  1E30                     	;# 
  1072  1E31                     	;# 
  1073  1E32                     	;# 
  1074  1E33                     	;# 
  1075  1E34                     	;# 
  1076  1E35                     	;# 
  1077  1E36                     	;# 
  1078  1E37                     	;# 
  1079  1E8F                     	;# 
  1080  1E90                     	;# 
  1081  1E91                     	;# 
  1082  1E92                     	;# 
  1083  1E93                     	;# 
  1084  1E9C                     	;# 
  1085  1EA1                     	;# 
  1086  1EA2                     	;# 
  1087  1EB1                     	;# 
  1088  1EBB                     	;# 
  1089  1EBC                     	;# 
  1090  1EBD                     	;# 
  1091  1EBE                     	;# 
  1092  1EC3                     	;# 
  1093  1EC5                     	;# 
  1094  1EC6                     	;# 
  1095  1EC7                     	;# 
  1096  1EC8                     	;# 
  1097  1EC9                     	;# 
  1098  1ECA                     	;# 
  1099  1ECB                     	;# 
  1100  1ECC                     	;# 
  1101  1ECD                     	;# 
  1102  1ECE                     	;# 
  1103  1F10                     	;# 
  1104  1F11                     	;# 
  1105  1F12                     	;# 
  1106  1F13                     	;# 
  1107  1F14                     	;# 
  1108  1F15                     	;# 
  1109  1F16                     	;# 
  1110  1F17                     	;# 
  1111  1F18                     	;# 
  1112  1F19                     	;# 
  1113  1F1A                     	;# 
  1114  1F1B                     	;# 
  1115  1F1C                     	;# 
  1116  1F1D                     	;# 
  1117  1F1E                     	;# 
  1118  1F1F                     	;# 
  1119  1F20                     	;# 
  1120  1F21                     	;# 
  1121  1F22                     	;# 
  1122  1F23                     	;# 
  1123  1F24                     	;# 
  1124  1F25                     	;# 
  1125  1F26                     	;# 
  1126  1F27                     	;# 
  1127  1F28                     	;# 
  1128  1F29                     	;# 
  1129  1F2A                     	;# 
  1130  1F2B                     	;# 
  1131  1F2C                     	;# 
  1132  1F2D                     	;# 
  1133  1F2E                     	;# 
  1134  1F2F                     	;# 
  1135  1F30                     	;# 
  1136  1F31                     	;# 
  1137  1F32                     	;# 
  1138  1F38                     	;# 
  1139  1F39                     	;# 
  1140  1F3A                     	;# 
  1141  1F3B                     	;# 
  1142  1F3C                     	;# 
  1143  1F3D                     	;# 
  1144  1F3E                     	;# 
  1145  1F3F                     	;# 
  1146  1F43                     	;# 
  1147  1F44                     	;# 
  1148  1F45                     	;# 
  1149  1F46                     	;# 
  1150  1F47                     	;# 
  1151  1F48                     	;# 
  1152  1F49                     	;# 
  1153  1F4A                     	;# 
  1154  1F4E                     	;# 
  1155  1F4F                     	;# 
  1156  1F50                     	;# 
  1157  1F51                     	;# 
  1158  1F52                     	;# 
  1159  1F53                     	;# 
  1160  1F54                     	;# 
  1161  1F55                     	;# 
  1162  1F59                     	;# 
  1163  1F5A                     	;# 
  1164  1F5B                     	;# 
  1165  1F5C                     	;# 
  1166  1F5D                     	;# 
  1167  1F64                     	;# 
  1168  1F65                     	;# 
  1169  1F66                     	;# 
  1170  1F67                     	;# 
  1171  1F68                     	;# 
  1172  1F69                     	;# 
  1173  1F6A                     	;# 
  1174  1F6B                     	;# 
  1175  1FE4                     	;# 
  1176  1FE5                     	;# 
  1177  1FE6                     	;# 
  1178  1FE7                     	;# 
  1179  1FE8                     	;# 
  1180  1FE8                     	;# 
  1181  1FE9                     	;# 
  1182  1FEA                     	;# 
  1183  1FEB                     	;# 
  1184  1FED                     	;# 
  1185  1FEE                     	;# 
  1186  1FEF                     	;# 
  1187  0000                     	;# 
  1188  0001                     	;# 
  1189  0002                     	;# 
  1190  0003                     	;# 
  1191  0004                     	;# 
  1192  0005                     	;# 
  1193  0006                     	;# 
  1194  0007                     	;# 
  1195  0008                     	;# 
  1196  0009                     	;# 
  1197  000A                     	;# 
  1198  000B                     	;# 
  1199  000C                     	;# 
  1200  000D                     	;# 
  1201  000E                     	;# 
  1202  000F                     	;# 
  1203  0010                     	;# 
  1204  0012                     	;# 
  1205  0013                     	;# 
  1206  0014                     	;# 
  1207  0015                     	;# 
  1208  0016                     	;# 
  1209  0018                     	;# 
  1210  0019                     	;# 
  1211  001A                     	;# 
  1212  001B                     	;# 
  1213  001C                     	;# 
  1214  009B                     	;# 
  1215  009B                     	;# 
  1216  009C                     	;# 
  1217  009D                     	;# 
  1218  009E                     	;# 
  1219  009F                     	;# 
  1220  0119                     	;# 
  1221  0119                     	;# 
  1222  0119                     	;# 
  1223  011A                     	;# 
  1224  011A                     	;# 
  1225  011A                     	;# 
  1226  011B                     	;# 
  1227  011B                     	;# 
  1228  011B                     	;# 
  1229  011B                     	;# 
  1230  011B                     	;# 
  1231  011C                     	;# 
  1232  011C                     	;# 
  1233  011C                     	;# 
  1234  011D                     	;# 
  1235  011D                     	;# 
  1236  011D                     	;# 
  1237  011E                     	;# 
  1238  011E                     	;# 
  1239  011E                     	;# 
  1240  011F                     	;# 
  1241  011F                     	;# 
  1242  011F                     	;# 
  1243  011F                     	;# 
  1244  011F                     	;# 
  1245  018C                     	;# 
  1246  018D                     	;# 
  1247  018E                     	;# 
  1248  018F                     	;# 
  1249  0190                     	;# 
  1250  0191                     	;# 
  1251  0192                     	;# 
  1252  0196                     	;# 
  1253  0197                     	;# 
  1254  0198                     	;# 
  1255  0199                     	;# 
  1256  019A                     	;# 
  1257  019B                     	;# 
  1258  019C                     	;# 
  1259  020C                     	;# 
  1260  020C                     	;# 
  1261  020D                     	;# 
  1262  020E                     	;# 
  1263  020F                     	;# 
  1264  020F                     	;# 
  1265  0210                     	;# 
  1266  0210                     	;# 
  1267  0211                     	;# 
  1268  0211                     	;# 
  1269  028C                     	;# 
  1270  028C                     	;# 
  1271  028D                     	;# 
  1272  028D                     	;# 
  1273  028E                     	;# 
  1274  028F                     	;# 
  1275  0290                     	;# 
  1276  0291                     	;# 
  1277  030C                     	;# 
  1278  030C                     	;# 
  1279  030D                     	;# 
  1280  030E                     	;# 
  1281  030F                     	;# 
  1282  0310                     	;# 
  1283  0310                     	;# 
  1284  0311                     	;# 
  1285  0312                     	;# 
  1286  0313                     	;# 
  1287  0314                     	;# 
  1288  0314                     	;# 
  1289  0315                     	;# 
  1290  0316                     	;# 
  1291  0318                     	;# 
  1292  0318                     	;# 
  1293  0319                     	;# 
  1294  031A                     	;# 
  1295  031C                     	;# 
  1296  031C                     	;# 
  1297  031D                     	;# 
  1298  031E                     	;# 
  1299  038C                     	;# 
  1300  038C                     	;# 
  1301  038D                     	;# 
  1302  038E                     	;# 
  1303  058C                     	;# 
  1304  058C                     	;# 
  1305  058D                     	;# 
  1306  058E                     	;# 
  1307  058F                     	;# 
  1308  058F                     	;# 
  1309  0590                     	;# 
  1310  0591                     	;# 
  1311  0592                     	;# 
  1312  0593                     	;# 
  1313  059C                     	;# 
  1314  059C                     	;# 
  1315  059D                     	;# 
  1316  059D                     	;# 
  1317  059E                     	;# 
  1318  059F                     	;# 
  1319  060C                     	;# 
  1320  060D                     	;# 
  1321  060E                     	;# 
  1322  060F                     	;# 
  1323  0610                     	;# 
  1324  0611                     	;# 
  1325  0612                     	;# 
  1326  0613                     	;# 
  1327  0614                     	;# 
  1328  070C                     	;# 
  1329  070D                     	;# 
  1330  070E                     	;# 
  1331  070F                     	;# 
  1332  0710                     	;# 
  1333  0711                     	;# 
  1334  0712                     	;# 
  1335  0713                     	;# 
  1336  0716                     	;# 
  1337  0717                     	;# 
  1338  0718                     	;# 
  1339  0719                     	;# 
  1340  071A                     	;# 
  1341  071B                     	;# 
  1342  071C                     	;# 
  1343  071D                     	;# 
  1344  0796                     	;# 
  1345  0797                     	;# 
  1346  0798                     	;# 
  1347  0799                     	;# 
  1348  079A                     	;# 
  1349  079B                     	;# 
  1350  080C                     	;# 
  1351  080D                     	;# 
  1352  080E                     	;# 
  1353  080F                     	;# 
  1354  0810                     	;# 
  1355  0811                     	;# 
  1356  0813                     	;# 
  1357  0814                     	;# 
  1358  081A                     	;# 
  1359  081A                     	;# 
  1360  081B                     	;# 
  1361  081C                     	;# 
  1362  081C                     	;# 
  1363  081D                     	;# 
  1364  081E                     	;# 
  1365  081F                     	;# 
  1366  088C                     	;# 
  1367  088D                     	;# 
  1368  088E                     	;# 
  1369  088F                     	;# 
  1370  0890                     	;# 
  1371  0891                     	;# 
  1372  0892                     	;# 
  1373  0893                     	;# 
  1374  0895                     	;# 
  1375  0896                     	;# 
  1376  090C                     	;# 
  1377  090E                     	;# 
  1378  090F                     	;# 
  1379  091F                     	;# 
  1380  098F                     	;# 
  1381  098F                     	;# 
  1382  0990                     	;# 
  1383  0991                     	;# 
  1384  0992                     	;# 
  1385  0993                     	;# 
  1386  0994                     	;# 
  1387  0995                     	;# 
  1388  0996                     	;# 
  1389  0997                     	;# 
  1390  0A19                     	;# 
  1391  0A19                     	;# 
  1392  0A1A                     	;# 
  1393  0A1A                     	;# 
  1394  0A1B                     	;# 
  1395  0A1B                     	;# 
  1396  0A1B                     	;# 
  1397  0A1C                     	;# 
  1398  0A1C                     	;# 
  1399  0A1D                     	;# 
  1400  0A1D                     	;# 
  1401  0A1E                     	;# 
  1402  0A1E                     	;# 
  1403  0A1F                     	;# 
  1404  0A1F                     	;# 
  1405  0A1F                     	;# 
  1406  1E0F                     	;# 
  1407  1E10                     	;# 
  1408  1E11                     	;# 
  1409  1E12                     	;# 
  1410  1E13                     	;# 
  1411  1E14                     	;# 
  1412  1E15                     	;# 
  1413  1E16                     	;# 
  1414  1E17                     	;# 
  1415  1E18                     	;# 
  1416  1E19                     	;# 
  1417  1E1A                     	;# 
  1418  1E1B                     	;# 
  1419  1E1C                     	;# 
  1420  1E1D                     	;# 
  1421  1E1E                     	;# 
  1422  1E1F                     	;# 
  1423  1E20                     	;# 
  1424  1E21                     	;# 
  1425  1E22                     	;# 
  1426  1E23                     	;# 
  1427  1E24                     	;# 
  1428  1E25                     	;# 
  1429  1E26                     	;# 
  1430  1E27                     	;# 
  1431  1E28                     	;# 
  1432  1E29                     	;# 
  1433  1E2A                     	;# 
  1434  1E2B                     	;# 
  1435  1E2C                     	;# 
  1436  1E2D                     	;# 
  1437  1E2E                     	;# 
  1438  1E2F                     	;# 
  1439  1E30                     	;# 
  1440  1E31                     	;# 
  1441  1E32                     	;# 
  1442  1E33                     	;# 
  1443  1E34                     	;# 
  1444  1E35                     	;# 
  1445  1E36                     	;# 
  1446  1E37                     	;# 
  1447  1E8F                     	;# 
  1448  1E90                     	;# 
  1449  1E91                     	;# 
  1450  1E92                     	;# 
  1451  1E93                     	;# 
  1452  1E9C                     	;# 
  1453  1EA1                     	;# 
  1454  1EA2                     	;# 
  1455  1EB1                     	;# 
  1456  1EBB                     	;# 
  1457  1EBC                     	;# 
  1458  1EBD                     	;# 
  1459  1EBE                     	;# 
  1460  1EC3                     	;# 
  1461  1EC5                     	;# 
  1462  1EC6                     	;# 
  1463  1EC7                     	;# 
  1464  1EC8                     	;# 
  1465  1EC9                     	;# 
  1466  1ECA                     	;# 
  1467  1ECB                     	;# 
  1468  1ECC                     	;# 
  1469  1ECD                     	;# 
  1470  1ECE                     	;# 
  1471  1F10                     	;# 
  1472  1F11                     	;# 
  1473  1F12                     	;# 
  1474  1F13                     	;# 
  1475  1F14                     	;# 
  1476  1F15                     	;# 
  1477  1F16                     	;# 
  1478  1F17                     	;# 
  1479  1F18                     	;# 
  1480  1F19                     	;# 
  1481  1F1A                     	;# 
  1482  1F1B                     	;# 
  1483  1F1C                     	;# 
  1484  1F1D                     	;# 
  1485  1F1E                     	;# 
  1486  1F1F                     	;# 
  1487  1F20                     	;# 
  1488  1F21                     	;# 
  1489  1F22                     	;# 
  1490  1F23                     	;# 
  1491  1F24                     	;# 
  1492  1F25                     	;# 
  1493  1F26                     	;# 
  1494  1F27                     	;# 
  1495  1F28                     	;# 
  1496  1F29                     	;# 
  1497  1F2A                     	;# 
  1498  1F2B                     	;# 
  1499  1F2C                     	;# 
  1500  1F2D                     	;# 
  1501  1F2E                     	;# 
  1502  1F2F                     	;# 
  1503  1F30                     	;# 
  1504  1F31                     	;# 
  1505  1F32                     	;# 
  1506  1F38                     	;# 
  1507  1F39                     	;# 
  1508  1F3A                     	;# 
  1509  1F3B                     	;# 
  1510  1F3C                     	;# 
  1511  1F3D                     	;# 
  1512  1F3E                     	;# 
  1513  1F3F                     	;# 
  1514  1F43                     	;# 
  1515  1F44                     	;# 
  1516  1F45                     	;# 
  1517  1F46                     	;# 
  1518  1F47                     	;# 
  1519  1F48                     	;# 
  1520  1F49                     	;# 
  1521  1F4A                     	;# 
  1522  1F4E                     	;# 
  1523  1F4F                     	;# 
  1524  1F50                     	;# 
  1525  1F51                     	;# 
  1526  1F52                     	;# 
  1527  1F53                     	;# 
  1528  1F54                     	;# 
  1529  1F55                     	;# 
  1530  1F59                     	;# 
  1531  1F5A                     	;# 
  1532  1F5B                     	;# 
  1533  1F5C                     	;# 
  1534  1F5D                     	;# 
  1535  1F64                     	;# 
  1536  1F65                     	;# 
  1537  1F66                     	;# 
  1538  1F67                     	;# 
  1539  1F68                     	;# 
  1540  1F69                     	;# 
  1541  1F6A                     	;# 
  1542  1F6B                     	;# 
  1543  1FE4                     	;# 
  1544  1FE5                     	;# 
  1545  1FE6                     	;# 
  1546  1FE7                     	;# 
  1547  1FE8                     	;# 
  1548  1FE8                     	;# 
  1549  1FE9                     	;# 
  1550  1FEA                     	;# 
  1551  1FEB                     	;# 
  1552  1FED                     	;# 
  1553  1FEE                     	;# 
  1554  1FEF                     	;# 
  1555  0000                     	;# 
  1556  0001                     	;# 
  1557  0002                     	;# 
  1558  0003                     	;# 
  1559  0004                     	;# 
  1560  0005                     	;# 
  1561  0006                     	;# 
  1562  0007                     	;# 
  1563  0008                     	;# 
  1564  0009                     	;# 
  1565  000A                     	;# 
  1566  000B                     	;# 
  1567  000C                     	;# 
  1568  000D                     	;# 
  1569  000E                     	;# 
  1570  000F                     	;# 
  1571  0010                     	;# 
  1572  0012                     	;# 
  1573  0013                     	;# 
  1574  0014                     	;# 
  1575  0015                     	;# 
  1576  0016                     	;# 
  1577  0018                     	;# 
  1578  0019                     	;# 
  1579  001A                     	;# 
  1580  001B                     	;# 
  1581  001C                     	;# 
  1582  009B                     	;# 
  1583  009B                     	;# 
  1584  009C                     	;# 
  1585  009D                     	;# 
  1586  009E                     	;# 
  1587  009F                     	;# 
  1588  0119                     	;# 
  1589  0119                     	;# 
  1590  0119                     	;# 
  1591  011A                     	;# 
  1592  011A                     	;# 
  1593  011A                     	;# 
  1594  011B                     	;# 
  1595  011B                     	;# 
  1596  011B                     	;# 
  1597  011B                     	;# 
  1598  011B                     	;# 
  1599  011C                     	;# 
  1600  011C                     	;# 
  1601  011C                     	;# 
  1602  011D                     	;# 
  1603  011D                     	;# 
  1604  011D                     	;# 
  1605  011E                     	;# 
  1606  011E                     	;# 
  1607  011E                     	;# 
  1608  011F                     	;# 
  1609  011F                     	;# 
  1610  011F                     	;# 
  1611  011F                     	;# 
  1612  011F                     	;# 
  1613  018C                     	;# 
  1614  018D                     	;# 
  1615  018E                     	;# 
  1616  018F                     	;# 
  1617  0190                     	;# 
  1618  0191                     	;# 
  1619  0192                     	;# 
  1620  0196                     	;# 
  1621  0197                     	;# 
  1622  0198                     	;# 
  1623  0199                     	;# 
  1624  019A                     	;# 
  1625  019B                     	;# 
  1626  019C                     	;# 
  1627  020C                     	;# 
  1628  020C                     	;# 
  1629  020D                     	;# 
  1630  020E                     	;# 
  1631  020F                     	;# 
  1632  020F                     	;# 
  1633  0210                     	;# 
  1634  0210                     	;# 
  1635  0211                     	;# 
  1636  0211                     	;# 
  1637  028C                     	;# 
  1638  028C                     	;# 
  1639  028D                     	;# 
  1640  028D                     	;# 
  1641  028E                     	;# 
  1642  028F                     	;# 
  1643  0290                     	;# 
  1644  0291                     	;# 
  1645  030C                     	;# 
  1646  030C                     	;# 
  1647  030D                     	;# 
  1648  030E                     	;# 
  1649  030F                     	;# 
  1650  0310                     	;# 
  1651  0310                     	;# 
  1652  0311                     	;# 
  1653  0312                     	;# 
  1654  0313                     	;# 
  1655  0314                     	;# 
  1656  0314                     	;# 
  1657  0315                     	;# 
  1658  0316                     	;# 
  1659  0318                     	;# 
  1660  0318                     	;# 
  1661  0319                     	;# 
  1662  031A                     	;# 
  1663  031C                     	;# 
  1664  031C                     	;# 
  1665  031D                     	;# 
  1666  031E                     	;# 
  1667  038C                     	;# 
  1668  038C                     	;# 
  1669  038D                     	;# 
  1670  038E                     	;# 
  1671  058C                     	;# 
  1672  058C                     	;# 
  1673  058D                     	;# 
  1674  058E                     	;# 
  1675  058F                     	;# 
  1676  058F                     	;# 
  1677  0590                     	;# 
  1678  0591                     	;# 
  1679  0592                     	;# 
  1680  0593                     	;# 
  1681  059C                     	;# 
  1682  059C                     	;# 
  1683  059D                     	;# 
  1684  059D                     	;# 
  1685  059E                     	;# 
  1686  059F                     	;# 
  1687  060C                     	;# 
  1688  060D                     	;# 
  1689  060E                     	;# 
  1690  060F                     	;# 
  1691  0610                     	;# 
  1692  0611                     	;# 
  1693  0612                     	;# 
  1694  0613                     	;# 
  1695  0614                     	;# 
  1696  070C                     	;# 
  1697  070D                     	;# 
  1698  070E                     	;# 
  1699  070F                     	;# 
  1700  0710                     	;# 
  1701  0711                     	;# 
  1702  0712                     	;# 
  1703  0713                     	;# 
  1704  0716                     	;# 
  1705  0717                     	;# 
  1706  0718                     	;# 
  1707  0719                     	;# 
  1708  071A                     	;# 
  1709  071B                     	;# 
  1710  071C                     	;# 
  1711  071D                     	;# 
  1712  0796                     	;# 
  1713  0797                     	;# 
  1714  0798                     	;# 
  1715  0799                     	;# 
  1716  079A                     	;# 
  1717  079B                     	;# 
  1718  080C                     	;# 
  1719  080D                     	;# 
  1720  080E                     	;# 
  1721  080F                     	;# 
  1722  0810                     	;# 
  1723  0811                     	;# 
  1724  0813                     	;# 
  1725  0814                     	;# 
  1726  081A                     	;# 
  1727  081A                     	;# 
  1728  081B                     	;# 
  1729  081C                     	;# 
  1730  081C                     	;# 
  1731  081D                     	;# 
  1732  081E                     	;# 
  1733  081F                     	;# 
  1734  088C                     	;# 
  1735  088D                     	;# 
  1736  088E                     	;# 
  1737  088F                     	;# 
  1738  0890                     	;# 
  1739  0891                     	;# 
  1740  0892                     	;# 
  1741  0893                     	;# 
  1742  0895                     	;# 
  1743  0896                     	;# 
  1744  090C                     	;# 
  1745  090E                     	;# 
  1746  090F                     	;# 
  1747  091F                     	;# 
  1748  098F                     	;# 
  1749  098F                     	;# 
  1750  0990                     	;# 
  1751  0991                     	;# 
  1752  0992                     	;# 
  1753  0993                     	;# 
  1754  0994                     	;# 
  1755  0995                     	;# 
  1756  0996                     	;# 
  1757  0997                     	;# 
  1758  0A19                     	;# 
  1759  0A19                     	;# 
  1760  0A1A                     	;# 
  1761  0A1A                     	;# 
  1762  0A1B                     	;# 
  1763  0A1B                     	;# 
  1764  0A1B                     	;# 
  1765  0A1C                     	;# 
  1766  0A1C                     	;# 
  1767  0A1D                     	;# 
  1768  0A1D                     	;# 
  1769  0A1E                     	;# 
  1770  0A1E                     	;# 
  1771  0A1F                     	;# 
  1772  0A1F                     	;# 
  1773  0A1F                     	;# 
  1774  1E0F                     	;# 
  1775  1E10                     	;# 
  1776  1E11                     	;# 
  1777  1E12                     	;# 
  1778  1E13                     	;# 
  1779  1E14                     	;# 
  1780  1E15                     	;# 
  1781  1E16                     	;# 
  1782  1E17                     	;# 
  1783  1E18                     	;# 
  1784  1E19                     	;# 
  1785  1E1A                     	;# 
  1786  1E1B                     	;# 
  1787  1E1C                     	;# 
  1788  1E1D                     	;# 
  1789  1E1E                     	;# 
  1790  1E1F                     	;# 
  1791  1E20                     	;# 
  1792  1E21                     	;# 
  1793  1E22                     	;# 
  1794  1E23                     	;# 
  1795  1E24                     	;# 
  1796  1E25                     	;# 
  1797  1E26                     	;# 
  1798  1E27                     	;# 
  1799  1E28                     	;# 
  1800  1E29                     	;# 
  1801  1E2A                     	;# 
  1802  1E2B                     	;# 
  1803  1E2C                     	;# 
  1804  1E2D                     	;# 
  1805  1E2E                     	;# 
  1806  1E2F                     	;# 
  1807  1E30                     	;# 
  1808  1E31                     	;# 
  1809  1E32                     	;# 
  1810  1E33                     	;# 
  1811  1E34                     	;# 
  1812  1E35                     	;# 
  1813  1E36                     	;# 
  1814  1E37                     	;# 
  1815  1E8F                     	;# 
  1816  1E90                     	;# 
  1817  1E91                     	;# 
  1818  1E92                     	;# 
  1819  1E93                     	;# 
  1820  1E9C                     	;# 
  1821  1EA1                     	;# 
  1822  1EA2                     	;# 
  1823  1EB1                     	;# 
  1824  1EBB                     	;# 
  1825  1EBC                     	;# 
  1826  1EBD                     	;# 
  1827  1EBE                     	;# 
  1828  1EC3                     	;# 
  1829  1EC5                     	;# 
  1830  1EC6                     	;# 
  1831  1EC7                     	;# 
  1832  1EC8                     	;# 
  1833  1EC9                     	;# 
  1834  1ECA                     	;# 
  1835  1ECB                     	;# 
  1836  1ECC                     	;# 
  1837  1ECD                     	;# 
  1838  1ECE                     	;# 
  1839  1F10                     	;# 
  1840  1F11                     	;# 
  1841  1F12                     	;# 
  1842  1F13                     	;# 
  1843  1F14                     	;# 
  1844  1F15                     	;# 
  1845  1F16                     	;# 
  1846  1F17                     	;# 
  1847  1F18                     	;# 
  1848  1F19                     	;# 
  1849  1F1A                     	;# 
  1850  1F1B                     	;# 
  1851  1F1C                     	;# 
  1852  1F1D                     	;# 
  1853  1F1E                     	;# 
  1854  1F1F                     	;# 
  1855  1F20                     	;# 
  1856  1F21                     	;# 
  1857  1F22                     	;# 
  1858  1F23                     	;# 
  1859  1F24                     	;# 
  1860  1F25                     	;# 
  1861  1F26                     	;# 
  1862  1F27                     	;# 
  1863  1F28                     	;# 
  1864  1F29                     	;# 
  1865  1F2A                     	;# 
  1866  1F2B                     	;# 
  1867  1F2C                     	;# 
  1868  1F2D                     	;# 
  1869  1F2E                     	;# 
  1870  1F2F                     	;# 
  1871  1F30                     	;# 
  1872  1F31                     	;# 
  1873  1F32                     	;# 
  1874  1F38                     	;# 
  1875  1F39                     	;# 
  1876  1F3A                     	;# 
  1877  1F3B                     	;# 
  1878  1F3C                     	;# 
  1879  1F3D                     	;# 
  1880  1F3E                     	;# 
  1881  1F3F                     	;# 
  1882  1F43                     	;# 
  1883  1F44                     	;# 
  1884  1F45                     	;# 
  1885  1F46                     	;# 
  1886  1F47                     	;# 
  1887  1F48                     	;# 
  1888  1F49                     	;# 
  1889  1F4A                     	;# 
  1890  1F4E                     	;# 
  1891  1F4F                     	;# 
  1892  1F50                     	;# 
  1893  1F51                     	;# 
  1894  1F52                     	;# 
  1895  1F53                     	;# 
  1896  1F54                     	;# 
  1897  1F55                     	;# 
  1898  1F59                     	;# 
  1899  1F5A                     	;# 
  1900  1F5B                     	;# 
  1901  1F5C                     	;# 
  1902  1F5D                     	;# 
  1903  1F64                     	;# 
  1904  1F65                     	;# 
  1905  1F66                     	;# 
  1906  1F67                     	;# 
  1907  1F68                     	;# 
  1908  1F69                     	;# 
  1909  1F6A                     	;# 
  1910  1F6B                     	;# 
  1911  1FE4                     	;# 
  1912  1FE5                     	;# 
  1913  1FE6                     	;# 
  1914  1FE7                     	;# 
  1915  1FE8                     	;# 
  1916  1FE8                     	;# 
  1917  1FE9                     	;# 
  1918  1FEA                     	;# 
  1919  1FEB                     	;# 
  1920  1FED                     	;# 
  1921  1FEE                     	;# 
  1922  1FEF                     	;# 
  1923                           
  1924 ;; Function _rd1RegCompleteHandler is unused but had its address taken
  1925  0000                     
  1926 ;; Function _rd2RegCompleteHandler is unused but had its address taken
  1927  0000                     
  1928 ;; Function _wr1RegCompleteHandler is unused but had its address taken
  1929  0000                     
  1930 ;; Function _wr2RegCompleteHandler is unused but had its address taken
  1931  0000                     
  1932 ;; Function _rdBlkRegCompleteHandler is unused but had its address taken
  1933  0000                     
  1934 ;; Function _I2C1_DO_IDLE is unused but had its address taken
  1935  0000                     
  1936 ;; Function _I2C1_DO_SEND_ADR_READ is unused but had its address taken
  1937  0000                     
  1938 ;; Function _I2C1_DO_SEND_ADR_WRITE is unused but had its address taken
  1939  0000                     
  1940 ;; Function _I2C1_DO_TX is unused but had its address taken
  1941  0000                     
  1942 ;; Function _I2C1_DO_RX is unused but had its address taken
  1943  0000                     
  1944 ;; Function _I2C1_DO_RCEN is unused but had its address taken
  1945  0000                     
  1946 ;; Function _I2C1_DO_TX_EMPTY is unused but had its address taken
  1947  0000                     
  1948 ;; Function _I2C1_DO_SEND_RESTART_READ is unused but had its address taken
  1949  0000                     
  1950 ;; Function _I2C1_DO_SEND_RESTART_WRITE is unused but had its address taken
  1951  0000                     
  1952 ;; Function _I2C1_DO_SEND_RESTART is unused but had its address taken
  1953  0000                     
  1954 ;; Function _I2C1_DO_SEND_STOP is unused but had its address taken
  1955  0000                     
  1956 ;; Function _I2C1_DO_RX_ACK is unused but had its address taken
  1957  0000                     
  1958 ;; Function _I2C1_DO_RX_NACK_STOP is unused but had its address taken
  1959  0000                     
  1960 ;; Function _I2C1_DO_RX_NACK_RESTART is unused but had its address taken
  1961  0000                     
  1962 ;; Function _I2C1_DO_RESET is unused but had its address taken
  1963  0000                     
  1964 ;; Function _I2C1_DO_ADDRESS_NACK is unused but had its address taken
  1965  0000                     
  1966 ;; Function _I2C1_CallbackReturnStop is unused but had its address taken
  1967  0000                     
  1968 ;; Function _I2C1_CallbackReturnReset is unused but had its address taken
  1969  0000                     
  1970 ;; Function _EUSART1_DefaultFramingErrorHandler is unused but had its address taken
  1971  0000                     
  1972 ;; Function _EUSART1_DefaultOverrunErrorHandler is unused but had its address taken
  1973  0000                     
  1974 ;; Function _EUSART1_DefaultErrorHandler is unused but had its address taken
  1975  0000                     
  1976                           	psect	stringtext1
  1977  0800                     __pstringtext1:
  1978  0800                     _i2c1_fsmStateTable:
  1979  0800  3400               	retlw	0
  1980  0801  3400               	retlw	0
  1981  0802  3400               	retlw	0
  1982  0803  3400               	retlw	0
  1983  0804  3400               	retlw	0
  1984  0805  3400               	retlw	0
  1985  0806  3400               	retlw	0
  1986  0807  3400               	retlw	0
  1987  0808  3400               	retlw	0
  1988  0809  3400               	retlw	0
  1989  080A  3400               	retlw	0
  1990  080B  3400               	retlw	0
  1991  080C  3400               	retlw	0
  1992  080D  3400               	retlw	0
  1993  080E  3400               	retlw	0
  1994  080F  3400               	retlw	0
  1995  0810  3400               	retlw	0
  1996  0811  3400               	retlw	0
  1997  0812  3400               	retlw	0
  1998  0813  3400               	retlw	0
  1999  0814  3400               	retlw	0
  2000  0815  3400               	retlw	0
  2001  0816  3400               	retlw	0
  2002  0817  3400               	retlw	0
  2003  0818  3400               	retlw	0
  2004  0819  3400               	retlw	0
  2005  081A  3400               	retlw	0
  2006  081B  3400               	retlw	0
  2007  081C  3400               	retlw	0
  2008  081D  3400               	retlw	0
  2009  081E  3400               	retlw	0
  2010  081F  3400               	retlw	0
  2011  0820                     __end_of_i2c1_fsmStateTable:
  2012                           
  2013                           	psect	nvBANK1
  2014  00E6                     __pnvBANK1:
  2015  00E6                     _EUSART1_ErrorHandler:
  2016  00E6                     	ds	2
  2017  00E8                     _EUSART1_OverrunErrorHandler:
  2018  00E8                     	ds	2
  2019  00EA                     _EUSART1_FramingErrorHandler:
  2020  00EA                     	ds	2
  2021  0015                     _TRISD	set	21
  2022  0014                     _TRISC	set	20
  2023  0013                     _TRISB	set	19
  2024  0012                     _TRISA	set	18
  2025  0016                     _TRISE	set	22
  2026  001A                     _LATC	set	26
  2027  0019                     _LATB	set	25
  2028  0018                     _LATA	set	24
  2029  001B                     _LATD	set	27
  2030  001C                     _LATE	set	28
  2031  011A                     _TX1REG	set	282
  2032  0119                     _RC1REG	set	281
  2033  011D                     _RC1STAbits	set	285
  2034  011E                     _TX1STAbits	set	286
  2035  011C                     _SP1BRGH	set	284
  2036  011B                     _SP1BRGL	set	283
  2037  011E                     _TX1STA	set	286
  2038  011D                     _RC1STA	set	285
  2039  011F                     _BAUD1CON	set	287
  2040  018F                     _SSP1STATbits	set	399
  2041  0191                     _SSP1CON2bits	set	401
  2042  018C                     _SSP1BUF	set	396
  2043  0190                     _SSP1CON1bits	set	400
  2044  018D                     _SSP1ADD	set	397
  2045  0191                     _SSP1CON2	set	401
  2046  0190                     _SSP1CON1	set	400
  2047  018F                     _SSP1STAT	set	399
  2048  0719                     _PIE3bits	set	1817
  2049  070F                     _PIR3bits	set	1807
  2050  079B                     _PMD5	set	1947
  2051  079A                     _PMD4	set	1946
  2052  0799                     _PMD3	set	1945
  2053  0798                     _PMD2	set	1944
  2054  0797                     _PMD1	set	1943
  2055  0796                     _PMD0	set	1942
  2056  0892                     _OSCTUNE	set	2194
  2057  0890                     _OSCSTAT	set	2192
  2058  0893                     _OSCFRQ	set	2195
  2059  0891                     _OSCEN	set	2193
  2060  088F                     _OSCCON3	set	2191
  2061  088D                     _OSCCON1	set	2189
  2062  1ECB                     _RX1DTPPS	set	7883
  2063  1EC6                     _SSP1DATPPS	set	7878
  2064  1EC5                     _SSP1CLKPPS	set	7877
  2065  1F26                     _RC6PPS	set	7974
  2066  1F22                     _RC2PPS	set	7970
  2067  1F24                     _RC4PPS	set	7972
  2068  1F68                     _INLVLE	set	8040
  2069  1F5D                     _INLVLD	set	8029
  2070  1F52                     _INLVLC	set	8018
  2071  1F47                     _INLVLB	set	8007
  2072  1F3C                     _INLVLA	set	7996
  2073  1F67                     _SLRCONE	set	8039
  2074  1F5C                     _SLRCOND	set	8028
  2075  1F51                     _SLRCONC	set	8017
  2076  1F46                     _SLRCONB	set	8006
  2077  1F3B                     _SLRCONA	set	7995
  2078  1F5B                     _ODCOND	set	8027
  2079  1F50                     _ODCONC	set	8016
  2080  1F45                     _ODCONB	set	8005
  2081  1F3A                     _ODCONA	set	7994
  2082  1F66                     _ODCONE	set	8038
  2083  1F4F                     _WPUC	set	8015
  2084  1F39                     _WPUA	set	7993
  2085  1F44                     _WPUB	set	8004
  2086  1F65                     _WPUE	set	8037
  2087  1F5A                     _WPUD	set	8026
  2088  1F38                     _ANSELA	set	7992
  2089  1F64                     _ANSELE	set	8036
  2090  1F43                     _ANSELB	set	8003
  2091  1F4E                     _ANSELC	set	8014
  2092  1F59                     _ANSELD	set	8025
  2093                           
  2094                           	psect	stringtext2
  2095  0820                     __pstringtext2:
  2096  0820                     STR_1:
  2097  0820  3476               	retlw	118	;'v'
  2098  0821  3461               	retlw	97	;'a'
  2099  0822  346C               	retlw	108	;'l'
  2100  0823  3475               	retlw	117	;'u'
  2101  0824  3465               	retlw	101	;'e'
  2102  0825  343A               	retlw	58	;':'
  2103  0826  3420               	retlw	32	;' '
  2104  0827  3425               	retlw	37	;'%'
  2105  0828  3464               	retlw	100	;'d'
  2106  0829  340A               	retlw	10
  2107  082A  3400               	retlw	0
  2108                           
  2109                           	psect	stringtext3
  2110  0000                     __pstringtext3:
  2111                           
  2112                           	psect	cinit
  2113  07F5                     start_initialization:	
  2114                           ; #config settings
  2115                           
  2116  07F5                     __initialization:
  2117                           
  2118                           ; Clear objects allocated to BANK1
  2119  07F5  30A0               	movlw	low __pbssBANK1
  2120  07F6  0084               	movwf	4
  2121  07F7  3000               	movlw	high __pbssBANK1
  2122  07F8  0085               	movwf	5
  2123  07F9  3046               	movlw	70
  2124  07FA  3180  20E3  3187   	fcall	clear_ram0
  2125  07FD                     end_of_initialization:	
  2126                           ;End of C runtime variable initialization code
  2127                           
  2128  07FD                     __end_of__initialization:
  2129  07FD  0140               	movlb	0
  2130  07FE  3183  2B1B         	ljmp	_main	;jump to C main() function
  2131                           
  2132                           	psect	bssBANK1
  2133  00A0                     __pbssBANK1:
  2134  00A0                     _I2C1_Status:
  2135  00A0                     	ds	29
  2136  00BD                     _nout:
  2137  00BD                     	ds	2
  2138  00BF                     _width:
  2139  00BF                     	ds	2
  2140  00C1                     _prec:
  2141  00C1                     	ds	2
  2142  00C3                     _flags:
  2143  00C3                     	ds	2
  2144  00C5                     _eusart1RxLastError:
  2145  00C5                     	ds	1
  2146  00C6                     _dbuf:
  2147  00C6                     	ds	32
  2148                           
  2149                           	psect	clrtext
  2150  00E3                     clear_ram0:	
  2151                           ;	Called with FSR0 containing the base address, and
  2152                           ;	WREG with the size to clear
  2153                           
  2154  00E3  0064               	clrwdt	;clear the watchdog before getting into this loop
  2155  00E4                     clrloop0:
  2156  00E4  0180               	clrf	0	;clear RAM location pointed to by FSR
  2157  00E5  3101               	addfsr 0,1
  2158  00E6  0B89               	decfsz	9,f	;Have we reached the end of clearing yet?
  2159  00E7  28E4               	goto	clrloop0	;have we reached the end yet?
  2160  00E8  3400               	retlw	0	;all done for this memory range, return
  2161                           
  2162                           	psect	cstackBANK1
  2163  00EC                     __pcstackBANK1:
  2164  00EC                     main@data:
  2165                           
  2166                           ; 1 bytes @ 0x0
  2167  00EC                     	ds	1
  2168                           
  2169                           	psect	cstackCOMMON
  2170  0070                     __pcstackCOMMON:
  2171  0070                     ?_PMD_Initialize:
  2172  0070                     ??_PMD_Initialize:	
  2173                           ; 1 bytes @ 0x0
  2174                           
  2175  0070                     ?_I2C1_Initialize:	
  2176                           ; 1 bytes @ 0x0
  2177                           
  2178  0070                     ??_I2C1_Initialize:	
  2179                           ; 1 bytes @ 0x0
  2180                           
  2181  0070                     ?_PIN_MANAGER_Initialize:	
  2182                           ; 1 bytes @ 0x0
  2183                           
  2184  0070                     ??_PIN_MANAGER_Initialize:	
  2185                           ; 1 bytes @ 0x0
  2186                           
  2187  0070                     ?_OSCILLATOR_Initialize:	
  2188                           ; 1 bytes @ 0x0
  2189                           
  2190  0070                     ??_OSCILLATOR_Initialize:	
  2191                           ; 1 bytes @ 0x0
  2192                           
  2193  0070                     ?_EUSART1_Initialize:	
  2194                           ; 1 bytes @ 0x0
  2195                           
  2196  0070                     ?_EUSART1_SetFramingErrorHandler:	
  2197                           ; 1 bytes @ 0x0
  2198                           
  2199  0070                     ?_EUSART1_SetOverrunErrorHandler:	
  2200                           ; 1 bytes @ 0x0
  2201                           
  2202  0070                     ?_EUSART1_SetErrorHandler:	
  2203                           ; 1 bytes @ 0x0
  2204                           
  2205  0070                     ?_SYSTEM_Initialize:	
  2206                           ; 1 bytes @ 0x0
  2207                           
  2208  0070                     ?_Send_I2C_Data:	
  2209                           ; 1 bytes @ 0x0
  2210                           
  2211  0070                     ??_Send_I2C_Data:	
  2212                           ; 1 bytes @ 0x0
  2213                           
  2214  0070                     ?_Send_I2C_ControlByte:	
  2215                           ; 1 bytes @ 0x0
  2216                           
  2217  0070                     ?_Send_I2C_StartBit:	
  2218                           ; 1 bytes @ 0x0
  2219                           
  2220  0070                     ??_Send_I2C_StartBit:	
  2221                           ; 1 bytes @ 0x0
  2222                           
  2223  0070                     ?_Send_I2C_StopBit:	
  2224                           ; 1 bytes @ 0x0
  2225                           
  2226  0070                     ??_Send_I2C_StopBit:	
  2227                           ; 1 bytes @ 0x0
  2228                           
  2229  0070                     ?_Send_I2C_NAK:	
  2230                           ; 1 bytes @ 0x0
  2231                           
  2232  0070                     ??_Send_I2C_NAK:	
  2233                           ; 1 bytes @ 0x0
  2234                           
  2235  0070                     ?_main:	
  2236                           ; 1 bytes @ 0x0
  2237                           
  2238  0070                     ?_EUSART1_Write:	
  2239                           ; 1 bytes @ 0x0
  2240                           
  2241  0070                     ??_EUSART1_Write:	
  2242                           ; 1 bytes @ 0x0
  2243                           
  2244  0070                     ?_putch:	
  2245                           ; 1 bytes @ 0x0
  2246                           
  2247  0070                     ??___aodiv:	
  2248                           ; 1 bytes @ 0x0
  2249                           
  2250  0070                     ??___aomod:	
  2251                           ; 1 bytes @ 0x0
  2252                           
  2253  0070                     ?_strlen:	
  2254                           ; 1 bytes @ 0x0
  2255                           
  2256  0070                     ?_Read_I2C_Data:	
  2257                           ; 2 bytes @ 0x0
  2258                           
  2259  0070                     Send_I2C_Data@databyte:	
  2260                           ; 2 bytes @ 0x0
  2261                           
  2262  0070                     Send_I2C_ControlByte@RW_bit:	
  2263                           ; 1 bytes @ 0x0
  2264                           
  2265  0070                     EUSART1_Write@txData:	
  2266                           ; 1 bytes @ 0x0
  2267                           
  2268  0070                     EUSART1_SetFramingErrorHandler@interruptHandler:	
  2269                           ; 1 bytes @ 0x0
  2270                           
  2271  0070                     EUSART1_SetOverrunErrorHandler@interruptHandler:	
  2272                           ; 2 bytes @ 0x0
  2273                           
  2274  0070                     EUSART1_SetErrorHandler@interruptHandler:	
  2275                           ; 2 bytes @ 0x0
  2276                           
  2277                           
  2278                           ; 2 bytes @ 0x0
  2279  0070                     	ds	1
  2280  0071                     ??_Send_I2C_ControlByte:
  2281  0071                     ??_putch:	
  2282                           ; 1 bytes @ 0x1
  2283                           
  2284  0071                     Send_I2C_ControlByte@BlockAddress:	
  2285                           ; 1 bytes @ 0x1
  2286                           
  2287  0071                     putch@txData:	
  2288                           ; 1 bytes @ 0x1
  2289                           
  2290  0071                     ___aodiv@counter:	
  2291                           ; 1 bytes @ 0x1
  2292                           
  2293  0071                     ___aomod@counter:	
  2294                           ; 1 bytes @ 0x1
  2295                           
  2296                           
  2297                           ; 1 bytes @ 0x1
  2298  0071                     	ds	1
  2299  0072                     ??_EUSART1_Initialize:
  2300  0072                     ??_EUSART1_SetFramingErrorHandler:	
  2301                           ; 1 bytes @ 0x2
  2302                           
  2303  0072                     ??_EUSART1_SetOverrunErrorHandler:	
  2304                           ; 1 bytes @ 0x2
  2305                           
  2306  0072                     ??_EUSART1_SetErrorHandler:	
  2307                           ; 1 bytes @ 0x2
  2308                           
  2309  0072                     ??_strlen:	
  2310                           ; 1 bytes @ 0x2
  2311                           
  2312  0072                     ??_SYSTEM_Initialize:	
  2313                           ; 1 bytes @ 0x2
  2314                           
  2315  0072                     ??_Read_I2C_Data:	
  2316                           ; 1 bytes @ 0x2
  2317                           
  2318  0072                     ?_EepWriteByte:	
  2319                           ; 1 bytes @ 0x2
  2320                           
  2321  0072                     ?_fputc:	
  2322                           ; 1 bytes @ 0x2
  2323                           
  2324  0072                     ___aodiv@sign:	
  2325                           ; 2 bytes @ 0x2
  2326                           
  2327  0072                     ___aomod@sign:	
  2328                           ; 1 bytes @ 0x2
  2329                           
  2330  0072                     EepWriteByte@reg_add:	
  2331                           ; 1 bytes @ 0x2
  2332                           
  2333  0072                     fputc@c:	
  2334                           ; 2 bytes @ 0x2
  2335                           
  2336                           
  2337                           ; 2 bytes @ 0x2
  2338  0072                     	ds	1
  2339  0073                     ?_abs:
  2340  0073                     strlen@a:	
  2341                           ; 2 bytes @ 0x3
  2342                           
  2343  0073                     abs@a:	
  2344                           ; 1 bytes @ 0x3
  2345                           
  2346  0073                     ___aodiv@quotient:	
  2347                           ; 2 bytes @ 0x3
  2348                           
  2349                           
  2350                           ; 8 bytes @ 0x3
  2351  0073                     	ds	1
  2352  0074                     ?_EepReadByte:
  2353  0074                     EepWriteByte@byte:	
  2354                           ; 1 bytes @ 0x4
  2355                           
  2356  0074                     fputc@fp:	
  2357                           ; 1 bytes @ 0x4
  2358                           
  2359  0074                     strlen@s:	
  2360                           ; 1 bytes @ 0x4
  2361                           
  2362  0074                     EepReadByte@reg_add:	
  2363                           ; 1 bytes @ 0x4
  2364                           
  2365                           
  2366                           ; 2 bytes @ 0x4
  2367  0074                     	ds	1
  2368  0075                     ??_fputc:
  2369  0075                     ??_abs:	
  2370                           ; 1 bytes @ 0x5
  2371                           
  2372  0075                     ??_EepWriteByte:	
  2373                           ; 1 bytes @ 0x5
  2374                           
  2375  0075                     EepWriteByte@dev_add:	
  2376                           ; 1 bytes @ 0x5
  2377                           
  2378                           
  2379                           ; 1 bytes @ 0x5
  2380  0075                     	ds	1
  2381  0076                     ??_EepReadByte:
  2382  0076                     EepWriteByte@ACK_bit:	
  2383                           ; 1 bytes @ 0x6
  2384                           
  2385                           
  2386                           ; 1 bytes @ 0x6
  2387  0076                     	ds	1
  2388  0077                     EepReadByte@data:
  2389                           
  2390                           ; 1 bytes @ 0x7
  2391  0077                     	ds	1
  2392  0078                     EepReadByte@dev_add:
  2393                           
  2394                           ; 1 bytes @ 0x8
  2395  0078                     	ds	1
  2396  0079                     EepReadByte@ACK_bit:
  2397                           
  2398                           ; 1 bytes @ 0x9
  2399  0079                     	ds	1
  2400  007A                     ?_fputs:
  2401  007A                     fputs@fp:	
  2402                           ; 2 bytes @ 0xA
  2403                           
  2404                           
  2405                           ; 1 bytes @ 0xA
  2406  007A                     	ds	1
  2407  007B                     ??_fputs:
  2408                           
  2409                           ; 1 bytes @ 0xB
  2410  007B                     	ds	3
  2411                           
  2412                           	psect	cstackBANK0
  2413  0020                     __pcstackBANK0:
  2414  0020                     ?___aodiv:
  2415  0020                     ?___aomod:	
  2416                           ; 8 bytes @ 0x0
  2417                           
  2418  0020                     fputs@c:	
  2419                           ; 8 bytes @ 0x0
  2420                           
  2421  0020                     ___aodiv@divisor:	
  2422                           ; 1 bytes @ 0x0
  2423                           
  2424  0020                     ___aomod@divisor:	
  2425                           ; 8 bytes @ 0x0
  2426                           
  2427                           
  2428                           ; 8 bytes @ 0x0
  2429  0020                     	ds	1
  2430  0021                     fputs@i:
  2431                           
  2432                           ; 2 bytes @ 0x1
  2433  0021                     	ds	2
  2434  0023                     fputs@s:
  2435                           
  2436                           ; 1 bytes @ 0x3
  2437  0023                     	ds	1
  2438  0024                     ?_pad:
  2439  0024                     pad@buf:	
  2440                           ; 2 bytes @ 0x4
  2441                           
  2442                           
  2443                           ; 1 bytes @ 0x4
  2444  0024                     	ds	1
  2445  0025                     pad@p:
  2446                           
  2447                           ; 2 bytes @ 0x5
  2448  0025                     	ds	2
  2449  0027                     ??_pad:
  2450                           
  2451                           ; 1 bytes @ 0x7
  2452  0027                     	ds	1
  2453  0028                     pad@i:
  2454  0028                     ___aodiv@dividend:	
  2455                           ; 2 bytes @ 0x8
  2456                           
  2457  0028                     ___aomod@dividend:	
  2458                           ; 8 bytes @ 0x8
  2459                           
  2460                           
  2461                           ; 8 bytes @ 0x8
  2462  0028                     	ds	2
  2463  002A                     pad@w:
  2464                           
  2465                           ; 2 bytes @ 0xA
  2466  002A                     	ds	2
  2467  002C                     pad@fp:
  2468                           
  2469                           ; 1 bytes @ 0xC
  2470  002C                     	ds	4
  2471  0030                     ?_dtoa:
  2472  0030                     dtoa@d:	
  2473                           ; 2 bytes @ 0x10
  2474                           
  2475                           
  2476                           ; 8 bytes @ 0x10
  2477  0030                     	ds	8
  2478  0038                     ??_dtoa:
  2479                           
  2480                           ; 1 bytes @ 0x18
  2481  0038                     	ds	3
  2482  003B                     _dtoa$1704:
  2483                           
  2484                           ; 2 bytes @ 0x1B
  2485  003B                     	ds	2
  2486  003D                     dtoa@p:
  2487                           
  2488                           ; 2 bytes @ 0x1D
  2489  003D                     	ds	2
  2490  003F                     dtoa@fp:
  2491                           
  2492                           ; 1 bytes @ 0x1F
  2493  003F                     	ds	1
  2494  0040                     dtoa@w:
  2495                           
  2496                           ; 2 bytes @ 0x20
  2497  0040                     	ds	2
  2498  0042                     dtoa@s:
  2499                           
  2500                           ; 2 bytes @ 0x22
  2501  0042                     	ds	2
  2502  0044                     dtoa@n:
  2503                           
  2504                           ; 8 bytes @ 0x24
  2505  0044                     	ds	8
  2506  004C                     dtoa@i:
  2507                           
  2508                           ; 2 bytes @ 0x2C
  2509  004C                     	ds	2
  2510  004E                     ?_vfpfcnvrt:
  2511  004E                     vfpfcnvrt@fmt:	
  2512                           ; 2 bytes @ 0x2E
  2513                           
  2514                           
  2515                           ; 1 bytes @ 0x2E
  2516  004E                     	ds	1
  2517  004F                     vfpfcnvrt@ap:
  2518                           
  2519                           ; 1 bytes @ 0x2F
  2520  004F                     	ds	1
  2521  0050                     ??_vfpfcnvrt:
  2522                           
  2523                           ; 1 bytes @ 0x30
  2524  0050                     	ds	5
  2525  0055                     vfpfcnvrt@ll:
  2526                           
  2527                           ; 8 bytes @ 0x35
  2528  0055                     	ds	8
  2529  005D                     vfpfcnvrt@fp:
  2530                           
  2531                           ; 1 bytes @ 0x3D
  2532  005D                     	ds	1
  2533  005E                     ?_vfprintf:
  2534  005E                     vfprintf@fmt:	
  2535                           ; 2 bytes @ 0x3E
  2536                           
  2537                           
  2538                           ; 2 bytes @ 0x3E
  2539  005E                     	ds	2
  2540  0060                     vfprintf@ap:
  2541                           
  2542                           ; 1 bytes @ 0x40
  2543  0060                     	ds	1
  2544  0061                     ??_vfprintf:
  2545                           
  2546                           ; 1 bytes @ 0x41
  2547  0061                     	ds	2
  2548  0063                     vfprintf@fp:
  2549                           
  2550                           ; 1 bytes @ 0x43
  2551  0063                     	ds	1
  2552  0064                     vfprintf@cfmt:
  2553                           
  2554                           ; 2 bytes @ 0x44
  2555  0064                     	ds	2
  2556  0066                     ?_printf:
  2557  0066                     printf@fmt:	
  2558                           ; 2 bytes @ 0x46
  2559                           
  2560                           
  2561                           ; 2 bytes @ 0x46
  2562  0066                     	ds	4
  2563  006A                     ??_printf:
  2564                           
  2565                           ; 1 bytes @ 0x4A
  2566  006A                     	ds	3
  2567  006D                     printf@ap:
  2568                           
  2569                           ; 1 bytes @ 0x4D
  2570  006D                     	ds	1
  2571  006E                     ??_main:
  2572                           
  2573                           ; 1 bytes @ 0x4E
  2574  006E                     	ds	2
  2575                           
  2576                           	psect	maintext
  2577  031B                     __pmaintext:	
  2578 ;;
  2579 ;;Main: autosize = 0, tempsize = 2, incstack = 0, save=0
  2580 ;;
  2581 ;; *************** function _main *****************
  2582 ;; Defined at:
  2583 ;;		line 198 in file "main.c"
  2584 ;; Parameters:    Size  Location     Type
  2585 ;;		None
  2586 ;; Auto vars:     Size  Location     Type
  2587 ;;  eeprom_array   40    0        unsigned int [20]
  2588 ;;  ACK_bit         2    0        unsigned int 
  2589 ;;  word_address    2    0        volatile unsigned int 
  2590 ;;  block_addres    2    0        volatile unsigned int 
  2591 ;;  incoming_dat    2    0        volatile unsigned int 
  2592 ;;  eeprom_data     2    0        volatile unsigned int 
  2593 ;;  i               2    0        unsigned int 
  2594 ;;  data            1    0[BANK1 ] unsigned char 
  2595 ;; Return value:  Size  Location     Type
  2596 ;;                  1    wreg      void 
  2597 ;; Registers used:
  2598 ;;		wreg, fsr0l, fsr0h, fsr1l, fsr1h, status,2, status,0, pclath, cstack
  2599 ;; Tracked objects:
  2600 ;;		On entry : B3F/0
  2601 ;;		On exit  : 0/0
  2602 ;;		Unchanged: 0/0
  2603 ;; Data sizes:     COMMON   BANK0   BANK1   BANK2   BANK3   BANK4   BANK5   BANK6   BANK7   BANK8   BANK9  BANK10  BANK1
      +1  BANK12  BANK13  BANK14  BANK15  BANK16  BANK17  BANK18  BANK19  BANK20  BANK21  BANK22  BANK23  BANK24  BANK25
  2604 ;;      Params:         0       0       0       0       0       0       0       0       0       0       0       0       
      +0       0       0       0       0       0       0       0       0       0       0       0       0       0       0
  2605 ;;      Locals:         0       0       1       0       0       0       0       0       0       0       0       0       
      +0       0       0       0       0       0       0       0       0       0       0       0       0       0       0
  2606 ;;      Temps:          0       2       0       0       0       0       0       0       0       0       0       0       
      +0       0       0       0       0       0       0       0       0       0       0       0       0       0       0
  2607 ;;      Totals:         0       2       1       0       0       0       0       0       0       0       0       0       
      +0       0       0       0       0       0       0       0       0       0       0       0       0       0       0
  2608 ;;Total ram usage:        3 bytes
  2609 ;; Hardware stack levels required when called:    9
  2610 ;; This function calls:
  2611 ;;		_EepReadByte
  2612 ;;		_EepWriteByte
  2613 ;;		_SYSTEM_Initialize
  2614 ;;		_printf
  2615 ;; This function is called by:
  2616 ;;		Startup code after reset
  2617 ;; This function uses a non-reentrant model
  2618 ;;
  2619                           
  2620                           
  2621                           ;psect for function _main
  2622  031B                     _main:
  2623  031B                     l3323:	
  2624                           ;incstack = 0
  2625                           ; Regs used in _main: [wreg-fsr1h+status,2+status,0+pclath+cstack]
  2626                           
  2627                           
  2628                           ;main.c: 201:     SYSTEM_Initialize();
  2629  031B  3181  2147  3183   	fcall	_SYSTEM_Initialize
  2630  031E                     l3325:
  2631                           
  2632                           ;main.c: 218:     unsigned int eeprom_array[20];;main.c: 219:     unsigned int i;;main.c
      +                          : 220:     volatile unsigned int eeprom_data,incoming_data;;main.c: 221:     volatile un
      +                          signed int block_address, word_address;;main.c: 222:     unsigned int ACK_bit;;main.c: 2
      +                          24:     SSP1CON1bits.SSPM=0x08;
  2633  031E  0143               	movlb	3	; select bank3
  2634  031F  0810               	movf	16,w	;volatile
  2635  0320  39F0               	andlw	-16
  2636  0321  3808               	iorlw	8
  2637  0322  0090               	movwf	16	;volatile
  2638  0323                     l3327:
  2639                           
  2640                           ;main.c: 225:     SSP1CON1bits.SSPEN=1;
  2641  0323  1690               	bsf	16,5	;volatile
  2642  0324                     l3329:
  2643                           
  2644                           ;main.c: 226:     _delay((unsigned long)((10)*(4000000/4000.0)));
  2645  0324  300D               	movlw	13
  2646  0325  0140               	movlb	0	; select bank0
  2647  0326  00EE               	movwf	??_main
  2648  0327  30FB               	movlw	251
  2649  0328                     u1927:
  2650  0328  0B89               	decfsz	9,f
  2651  0329  2B28               	goto	u1927
  2652  032A  0BEE               	decfsz	??_main,f
  2653  032B  2B28               	goto	u1927
  2654  032C  3200               	nop2
  2655  032D                     l3331:
  2656                           
  2657                           ;main.c: 250:     EepWriteByte(0x00,1214,12);
  2658  032D  30BE               	movlw	190
  2659  032E  00F2               	movwf	EepWriteByte@reg_add
  2660  032F  3004               	movlw	4
  2661  0330  00F3               	movwf	EepWriteByte@reg_add+1
  2662  0331  300C               	movlw	12
  2663  0332  0140               	movlb	0	; select bank0
  2664  0333  00EE               	movwf	??_main
  2665  0334  086E               	movf	??_main,w
  2666  0335  00F4               	movwf	EepWriteByte@byte
  2667  0336  3000               	movlw	0
  2668  0337  3181  21D0  3183   	fcall	_EepWriteByte
  2669  033A                     l3333:
  2670  033A                     l3335:
  2671                           
  2672                           ;main.c: 254:     {;main.c: 258:         data=EepReadByte(0x00,1214);
  2673  033A  30BE               	movlw	190
  2674  033B  00F4               	movwf	EepReadByte@reg_add
  2675  033C  3004               	movlw	4
  2676  033D  00F5               	movwf	EepReadByte@reg_add+1
  2677  033E  3000               	movlw	0
  2678  033F  3182  228E  3183   	fcall	_EepReadByte
  2679  0342  0140               	movlb	0	; select bank0
  2680  0343  00EE               	movwf	??_main
  2681  0344  086E               	movf	??_main,w
  2682  0345  0141               	movlb	1	; select bank1
  2683  0346  00EC               	movwf	main@data^(0+128)
  2684  0347                     l3337:
  2685                           
  2686                           ;main.c: 265:         printf("value: %d\n", data);
  2687  0347  3020               	movlw	low (STR_1| (0+32768))
  2688  0348  0140               	movlb	0	; select bank0
  2689  0349  00E6               	movwf	printf@fmt
  2690  034A  3088               	movlw	high (STR_1| (0+32768))
  2691  034B  00E7               	movwf	printf@fmt+1
  2692  034C  0141               	movlb	1	; select bank1
  2693  034D  086C               	movf	main@data^(0+128),w
  2694  034E  0140               	movlb	0	; select bank0
  2695  034F  00EE               	movwf	??_main
  2696  0350  01EF               	clrf	??_main+1
  2697  0351  086E               	movf	??_main,w
  2698  0352  00E8               	movwf	?_printf+2
  2699  0353  086F               	movf	??_main+1,w
  2700  0354  00E9               	movwf	?_printf+3
  2701  0355  3181  2169  3183   	fcall	_printf
  2702  0358                     l3339:
  2703                           
  2704                           ;main.c: 266:         _delay((unsigned long)((500)*(4000000/4000.0)));
  2705  0358  3003               	movlw	3
  2706  0359  0140               	movlb	0	; select bank0
  2707  035A  00EF               	movwf	??_main+1
  2708  035B  308A               	movlw	138
  2709  035C  00EE               	movwf	??_main
  2710  035D  3055               	movlw	85
  2711  035E                     u1937:
  2712  035E  0B89               	decfsz	9,f
  2713  035F  2B5E               	goto	u1937
  2714  0360  0BEE               	decfsz	??_main,f
  2715  0361  2B5E               	goto	u1937
  2716  0362  0BEF               	decfsz	??_main+1,f
  2717  0363  2B5E               	goto	u1937
  2718  0364  3200               	nop2
  2719  0365  2B3A               	goto	l3335
  2720  0366  3180  2802         	ljmp	start
  2721  0368                     __end_of_main:
  2722                           
  2723                           	psect	text1
  2724  0169                     __ptext1:	
  2725 ;; *************** function _printf *****************
  2726 ;; Defined at:
  2727 ;;		line 5 in file "D:\program files\Microchip\xc8\v2.31\pic\sources\c99\common\printf.c"
  2728 ;; Parameters:    Size  Location     Type
  2729 ;;  fmt             2   70[BANK0 ] PTR const unsigned char 
  2730 ;;		 -> STR_1(11), 
  2731 ;; Auto vars:     Size  Location     Type
  2732 ;;  ret             2    0        int 
  2733 ;;  ap              1   77[BANK0 ] PTR void [1]
  2734 ;;		 -> ?_printf(2), 
  2735 ;; Return value:  Size  Location     Type
  2736 ;;                  2   70[BANK0 ] int 
  2737 ;; Registers used:
  2738 ;;		wreg, fsr0l, fsr0h, fsr1l, fsr1h, status,2, status,0, pclath, cstack
  2739 ;; Tracked objects:
  2740 ;;		On entry : 0/0
  2741 ;;		On exit  : 0/0
  2742 ;;		Unchanged: 0/0
  2743 ;; Data sizes:     COMMON   BANK0   BANK1   BANK2   BANK3   BANK4   BANK5   BANK6   BANK7   BANK8   BANK9  BANK10  BANK1
      +1  BANK12  BANK13  BANK14  BANK15  BANK16  BANK17  BANK18  BANK19  BANK20  BANK21  BANK22  BANK23  BANK24  BANK25
  2744 ;;      Params:         0       4       0       0       0       0       0       0       0       0       0       0       
      +0       0       0       0       0       0       0       0       0       0       0       0       0       0       0
  2745 ;;      Locals:         0       3       0       0       0       0       0       0       0       0       0       0       
      +0       0       0       0       0       0       0       0       0       0       0       0       0       0       0
  2746 ;;      Temps:          0       1       0       0       0       0       0       0       0       0       0       0       
      +0       0       0       0       0       0       0       0       0       0       0       0       0       0       0
  2747 ;;      Totals:         0       8       0       0       0       0       0       0       0       0       0       0       
      +0       0       0       0       0       0       0       0       0       0       0       0       0       0       0
  2748 ;;Total ram usage:        8 bytes
  2749 ;; Hardware stack levels used:    1
  2750 ;; Hardware stack levels required when called:    8
  2751 ;; This function calls:
  2752 ;;		_vfprintf
  2753 ;; This function is called by:
  2754 ;;		_main
  2755 ;; This function uses a non-reentrant model
  2756 ;;
  2757                           
  2758                           
  2759                           ;psect for function _printf
  2760  0169                     _printf:
  2761  0169                     l2851:	
  2762                           ;incstack = 0
  2763                           ; Regs used in _printf: [wreg-fsr1h+status,2+status,0+pclath+cstack]
  2764                           
  2765  0169  3068               	movlw	(low ((?_printf| 0+2)))& (0+255)
  2766  016A  0140               	movlb	0	; select bank0
  2767  016B  00EA               	movwf	??_printf
  2768  016C  086A               	movf	??_printf,w
  2769  016D  00ED               	movwf	printf@ap
  2770  016E                     l2853:
  2771  016E  0867               	movf	printf@fmt+1,w
  2772  016F  00DF               	movwf	vfprintf@fmt+1
  2773  0170  0866               	movf	printf@fmt,w
  2774  0171  00DE               	movwf	vfprintf@fmt
  2775  0172  306D               	movlw	(low (printf@ap| 0))& (0+255)
  2776  0173  00EA               	movwf	??_printf
  2777  0174  086A               	movf	??_printf,w
  2778  0175  00E0               	movwf	vfprintf@ap
  2779  0176  3000               	movlw	0
  2780  0177  3182  221E  3181   	fcall	_vfprintf
  2781  017A                     l1272:
  2782  017A  0008               	return
  2783  017B                     __end_of_printf:
  2784                           
  2785                           	psect	text2
  2786  021E                     __ptext2:	
  2787 ;; *************** function _vfprintf *****************
  2788 ;; Defined at:
  2789 ;;		line 1390 in file "D:\program files\Microchip\xc8\v2.31\pic\sources\c99\common\doprnt.c"
  2790 ;; Parameters:    Size  Location     Type
  2791 ;;  fp              1    wreg     PTR struct _IO_FILE
  2792 ;;		 -> NULL(0), 
  2793 ;;  fmt             2   62[BANK0 ] PTR const unsigned char 
  2794 ;;		 -> STR_1(11), 
  2795 ;;  ap              1   64[BANK0 ] PTR PTR void 
  2796 ;;		 -> printf@ap(1), 
  2797 ;; Auto vars:     Size  Location     Type
  2798 ;;  fp              1   67[BANK0 ] PTR struct _IO_FILE
  2799 ;;		 -> NULL(0), 
  2800 ;;  cfmt            2   68[BANK0 ] PTR unsigned char 
  2801 ;;		 -> STR_1(11), 
  2802 ;; Return value:  Size  Location     Type
  2803 ;;                  2   62[BANK0 ] int 
  2804 ;; Registers used:
  2805 ;;		wreg, fsr0l, fsr0h, fsr1l, fsr1h, status,2, status,0, pclath, cstack
  2806 ;; Tracked objects:
  2807 ;;		On entry : 0/0
  2808 ;;		On exit  : 0/0
  2809 ;;		Unchanged: 0/0
  2810 ;; Data sizes:     COMMON   BANK0   BANK1   BANK2   BANK3   BANK4   BANK5   BANK6   BANK7   BANK8   BANK9  BANK10  BANK1
      +1  BANK12  BANK13  BANK14  BANK15  BANK16  BANK17  BANK18  BANK19  BANK20  BANK21  BANK22  BANK23  BANK24  BANK25
  2811 ;;      Params:         0       3       0       0       0       0       0       0       0       0       0       0       
      +0       0       0       0       0       0       0       0       0       0       0       0       0       0       0
  2812 ;;      Locals:         0       3       0       0       0       0       0       0       0       0       0       0       
      +0       0       0       0       0       0       0       0       0       0       0       0       0       0       0
  2813 ;;      Temps:          0       2       0       0       0       0       0       0       0       0       0       0       
      +0       0       0       0       0       0       0       0       0       0       0       0       0       0       0
  2814 ;;      Totals:         0       8       0       0       0       0       0       0       0       0       0       0       
      +0       0       0       0       0       0       0       0       0       0       0       0       0       0       0
  2815 ;;Total ram usage:        8 bytes
  2816 ;; Hardware stack levels used:    1
  2817 ;; Hardware stack levels required when called:    7
  2818 ;; This function calls:
  2819 ;;		_vfpfcnvrt
  2820 ;; This function is called by:
  2821 ;;		_printf
  2822 ;; This function uses a non-reentrant model
  2823 ;;
  2824                           
  2825                           
  2826                           ;psect for function _vfprintf
  2827  021E                     _vfprintf:
  2828                           
  2829                           ;incstack = 0
  2830                           ; Regs used in _vfprintf: [wreg-fsr1h+status,2+status,0+pclath+cstack]
  2831                           ;vfprintf@fp stored from wreg
  2832  021E  0140               	movlb	0	; select bank0
  2833  021F  00E3               	movwf	vfprintf@fp
  2834  0220                     l2711:
  2835                           
  2836                           ;D:\program files\Microchip\xc8\v2.31\pic\sources\c99\common\doprnt.c: 1390: int vfprint
      +                          f(FILE *fp, const char *fmt, va_list ap);D:\program files\Microchip\xc8\v2.31\pic\source
      +                          s\c99\common\doprnt.c: 1391: {;D:\program files\Microchip\xc8\v2.31\pic\sources\c99\comm
      +                          on\doprnt.c: 1393:     char *cfmt;;D:\program files\Microchip\xc8\v2.31\pic\sources\c99\
      +                          common\doprnt.c: 1395:     cfmt = (char *)fmt;
  2837  0220  085F               	movf	vfprintf@fmt+1,w
  2838  0221  00E5               	movwf	vfprintf@cfmt+1
  2839  0222  085E               	movf	vfprintf@fmt,w
  2840  0223  00E4               	movwf	vfprintf@cfmt
  2841  0224                     l2713:
  2842                           
  2843                           ;D:\program files\Microchip\xc8\v2.31\pic\sources\c99\common\doprnt.c: 1396:     nout = 
      +                          0;
  2844  0224  0141               	movlb	1	; select bank1
  2845  0225  01BD               	clrf	_nout^(0+128)
  2846  0226  01BE               	clrf	(_nout+1)^(0+128)
  2847                           
  2848                           ;D:\program files\Microchip\xc8\v2.31\pic\sources\c99\common\doprnt.c: 1397:     while (
      +                          *cfmt) {
  2849  0227  2A3C               	goto	l2717
  2850  0228                     l2715:
  2851                           
  2852                           ;D:\program files\Microchip\xc8\v2.31\pic\sources\c99\common\doprnt.c: 1398:         nou
      +                          t += vfpfcnvrt(fp, &cfmt, ap);
  2853  0228  3064               	movlw	(low (vfprintf@cfmt| 0))& (0+255)
  2854  0229  00E1               	movwf	??_vfprintf
  2855  022A  0861               	movf	??_vfprintf,w
  2856  022B  00CE               	movwf	vfpfcnvrt@fmt
  2857  022C  0860               	movf	vfprintf@ap,w
  2858  022D  00E2               	movwf	??_vfprintf+1
  2859  022E  0862               	movf	??_vfprintf+1,w
  2860  022F  00CF               	movwf	vfpfcnvrt@ap
  2861  0230  0863               	movf	vfprintf@fp,w
  2862  0231  3183  23C1  3182   	fcall	_vfpfcnvrt
  2863  0234  0140               	movlb	0	; select bank0
  2864  0235  084E               	movf	?_vfpfcnvrt,w
  2865  0236  0141               	movlb	1	; select bank1
  2866  0237  07BD               	addwf	_nout^(0+128),f
  2867  0238  0140               	movlb	0	; select bank0
  2868  0239  084F               	movf	?_vfpfcnvrt+1,w
  2869  023A  0141               	movlb	1	; select bank1
  2870  023B  3DBE               	addwfc	(_nout+1)^(0+128),f
  2871  023C                     l2717:
  2872                           
  2873                           ;D:\program files\Microchip\xc8\v2.31\pic\sources\c99\common\doprnt.c: 1397:     while (
      +                          *cfmt) {
  2874  023C  0140               	movlb	0	; select bank0
  2875  023D  0864               	movf	vfprintf@cfmt,w
  2876  023E  0084               	movwf	4
  2877  023F  0865               	movf	vfprintf@cfmt+1,w
  2878  0240  0085               	movwf	5
  2879  0241  0012               	moviw fsr0++
  2880  0242  1D03               	btfss	3,2
  2881  0243  2A45               	goto	u1591
  2882  0244  2A46               	goto	u1590
  2883  0245                     u1591:
  2884  0245  2A28               	goto	l2715
  2885  0246                     u1590:
  2886  0246                     l2719:
  2887                           
  2888                           ;D:\program files\Microchip\xc8\v2.31\pic\sources\c99\common\doprnt.c: 1400:     return 
      +                          nout;
  2889  0246  0141               	movlb	1	; select bank1
  2890  0247  083E               	movf	(_nout+1)^(0+128),w
  2891  0248  0140               	movlb	0	; select bank0
  2892  0249  00DF               	movwf	?_vfprintf+1
  2893  024A  0141               	movlb	1	; select bank1
  2894  024B  083D               	movf	_nout^(0+128),w
  2895  024C  0140               	movlb	0	; select bank0
  2896  024D  00DE               	movwf	?_vfprintf
  2897  024E                     l1344:
  2898  024E  0008               	return
  2899  024F                     __end_of_vfprintf:
  2900                           
  2901                           	psect	text3
  2902  03C1                     __ptext3:	
  2903 ;; *************** function _vfpfcnvrt *****************
  2904 ;; Defined at:
  2905 ;;		line 692 in file "D:\program files\Microchip\xc8\v2.31\pic\sources\c99\common\doprnt.c"
  2906 ;; Parameters:    Size  Location     Type
  2907 ;;  fp              1    wreg     PTR struct _IO_FILE
  2908 ;;		 -> NULL(0), 
  2909 ;;  fmt             1   46[BANK0 ] PTR PTR unsigned char 
  2910 ;;		 -> vfprintf@cfmt(2), 
  2911 ;;  ap              1   47[BANK0 ] PTR PTR void 
  2912 ;;		 -> printf@ap(1), 
  2913 ;; Auto vars:     Size  Location     Type
  2914 ;;  fp              1   61[BANK0 ] PTR struct _IO_FILE
  2915 ;;		 -> NULL(0), 
  2916 ;;  ll              8   53[BANK0 ] long long 
  2917 ;;  llu             8    0        unsigned long long 
  2918 ;;  f               4    0        unsigned long long 
  2919 ;;  ct              3    0        unsigned char [3]
  2920 ;;  vp              2    0        PTR void 
  2921 ;;  i               2    0        int 
  2922 ;;  done            2    0        int 
  2923 ;;  cp              2    0        PTR unsigned char 
  2924 ;;  c               1    0        unsigned char 
  2925 ;; Return value:  Size  Location     Type
  2926 ;;                  2   46[BANK0 ] int 
  2927 ;; Registers used:
  2928 ;;		wreg, fsr0l, fsr0h, fsr1l, fsr1h, status,2, status,0, pclath, cstack
  2929 ;; Tracked objects:
  2930 ;;		On entry : 0/0
  2931 ;;		On exit  : 0/0
  2932 ;;		Unchanged: 0/0
  2933 ;; Data sizes:     COMMON   BANK0   BANK1   BANK2   BANK3   BANK4   BANK5   BANK6   BANK7   BANK8   BANK9  BANK10  BANK1
      +1  BANK12  BANK13  BANK14  BANK15  BANK16  BANK17  BANK18  BANK19  BANK20  BANK21  BANK22  BANK23  BANK24  BANK25
  2934 ;;      Params:         0       2       0       0       0       0       0       0       0       0       0       0       
      +0       0       0       0       0       0       0       0       0       0       0       0       0       0       0
  2935 ;;      Locals:         0       9       0       0       0       0       0       0       0       0       0       0       
      +0       0       0       0       0       0       0       0       0       0       0       0       0       0       0
  2936 ;;      Temps:          0       5       0       0       0       0       0       0       0       0       0       0       
      +0       0       0       0       0       0       0       0       0       0       0       0       0       0       0
  2937 ;;      Totals:         0      16       0       0       0       0       0       0       0       0       0       0       
      +0       0       0       0       0       0       0       0       0       0       0       0       0       0       0
  2938 ;;Total ram usage:       16 bytes
  2939 ;; Hardware stack levels used:    1
  2940 ;; Hardware stack levels required when called:    6
  2941 ;; This function calls:
  2942 ;;		_dtoa
  2943 ;;		_fputc
  2944 ;; This function is called by:
  2945 ;;		_vfprintf
  2946 ;; This function uses a non-reentrant model
  2947 ;;
  2948                           
  2949                           
  2950                           ;psect for function _vfpfcnvrt
  2951  03C1                     _vfpfcnvrt:
  2952                           
  2953                           ;incstack = 0
  2954                           ; Regs used in _vfpfcnvrt: [wreg-fsr1h+status,2+status,0+pclath+cstack]
  2955                           ;vfpfcnvrt@fp stored from wreg
  2956  03C1  0140               	movlb	0	; select bank0
  2957  03C2  00DD               	movwf	vfpfcnvrt@fp
  2958  03C3                     l2573:
  2959                           
  2960                           ;D:\program files\Microchip\xc8\v2.31\pic\sources\c99\common\doprnt.c: 692: static int v
      +                          fpfcnvrt(FILE *fp, char *fmt[], va_list ap);D:\program files\Microchip\xc8\v2.31\pic\sou
      +                          rces\c99\common\doprnt.c: 693: {;D:\program files\Microchip\xc8\v2.31\pic\sources\c99\co
      +                          mmon\doprnt.c: 694:     char c, *cp, ct[3];;D:\program files\Microchip\xc8\v2.31\pic\sou
      +                          rces\c99\common\doprnt.c: 695:     int done, i;;D:\program files\Microchip\xc8\v2.31\pic
      +                          \sources\c99\common\doprnt.c: 696:     long long ll;;D:\program files\Microchip\xc8\v2.3
      +                          1\pic\sources\c99\common\doprnt.c: 697:     unsigned long long llu;
  2961  03C3  084E               	movf	vfpfcnvrt@fmt,w
  2962  03C4  0086               	movwf	6
  2963  03C5  0187               	clrf	7
  2964  03C6  3F40               	moviw [0]fsr1
  2965  03C7  00D0               	movwf	??_vfpfcnvrt
  2966  03C8  3F41               	moviw [1]fsr1
  2967  03C9  00D1               	movwf	??_vfpfcnvrt+1
  2968  03CA  0850               	movf	??_vfpfcnvrt,w
  2969  03CB  0084               	movwf	4
  2970  03CC  0851               	movf	??_vfpfcnvrt+1,w
  2971  03CD  0085               	movwf	5
  2972  03CE  0012               	moviw fsr0++
  2973  03CF  3A25               	xorlw	37
  2974  03D0  1D03               	btfss	3,2
  2975  03D1  2BD3               	goto	u1481
  2976  03D2  2BD4               	goto	u1480
  2977  03D3                     u1481:
  2978  03D3  2C78               	goto	l2609
  2979  03D4                     u1480:
  2980  03D4                     l2575:
  2981                           
  2982                           ;D:\program files\Microchip\xc8\v2.31\pic\sources\c99\common\doprnt.c: 703:         ++*f
      +                          mt;
  2983  03D4  084E               	movf	vfpfcnvrt@fmt,w
  2984  03D5  0086               	movwf	6
  2985  03D6  0187               	clrf	7
  2986  03D7  3001               	movlw	1
  2987  03D8  0781               	addwf	1,f
  2988  03D9  3141               	addfsr 1,1
  2989  03DA  1803               	skipnc
  2990  03DB  0A81               	incf	1,f
  2991  03DC                     l2577:
  2992                           
  2993                           ;D:\program files\Microchip\xc8\v2.31\pic\sources\c99\common\doprnt.c: 705:         flag
      +                          s = width = 0;
  2994  03DC  0141               	movlb	1	; select bank1
  2995  03DD  01BF               	clrf	_width^(0+128)
  2996  03DE  01C0               	clrf	(_width+1)^(0+128)
  2997  03DF  01C3               	clrf	_flags^(0+128)
  2998  03E0  01C4               	clrf	(_flags+1)^(0+128)
  2999  03E1                     l2579:
  3000                           
  3001                           ;D:\program files\Microchip\xc8\v2.31\pic\sources\c99\common\doprnt.c: 706:         prec
      +                           = -1;
  3002  03E1  30FF               	movlw	255
  3003  03E2  00C1               	movwf	_prec^(0+128)
  3004  03E3  30FF               	movlw	255
  3005  03E4  00C2               	movwf	(_prec^(0+128)+1)
  3006  03E5                     l2581:
  3007                           
  3008                           ;D:\program files\Microchip\xc8\v2.31\pic\sources\c99\common\doprnt.c: 847:         if (
      +                          (*fmt[0] == 'd') || (*fmt[0] == 'i')) {
  3009  03E5  0140               	movlb	0	; select bank0
  3010  03E6  084E               	movf	vfpfcnvrt@fmt,w
  3011  03E7  0086               	movwf	6
  3012  03E8  0187               	clrf	7
  3013  03E9  3F40               	moviw [0]fsr1
  3014  03EA  00D0               	movwf	??_vfpfcnvrt
  3015  03EB  3F41               	moviw [1]fsr1
  3016  03EC  00D1               	movwf	??_vfpfcnvrt+1
  3017  03ED  0850               	movf	??_vfpfcnvrt,w
  3018  03EE  0084               	movwf	4
  3019  03EF  0851               	movf	??_vfpfcnvrt+1,w
  3020  03F0  0085               	movwf	5
  3021  03F1  0012               	moviw fsr0++
  3022  03F2  3A64               	xorlw	100
  3023  03F3  1903               	btfsc	3,2
  3024  03F4  2BF6               	goto	u1491
  3025  03F5  2BF7               	goto	u1490
  3026  03F6                     u1491:
  3027  03F6  2C08               	goto	l2585
  3028  03F7                     u1490:
  3029  03F7                     l2583:
  3030  03F7  084E               	movf	vfpfcnvrt@fmt,w
  3031  03F8  0086               	movwf	6
  3032  03F9  0187               	clrf	7
  3033  03FA  3F40               	moviw [0]fsr1
  3034  03FB  00D0               	movwf	??_vfpfcnvrt
  3035  03FC  3F41               	moviw [1]fsr1
  3036  03FD  00D1               	movwf	??_vfpfcnvrt+1
  3037  03FE  0850               	movf	??_vfpfcnvrt,w
  3038  03FF  0084               	movwf	4
  3039  0400  0851               	movf	??_vfpfcnvrt+1,w
  3040  0401  0085               	movwf	5
  3041  0402  0012               	moviw fsr0++
  3042  0403  3A69               	xorlw	105
  3043  0404  1D03               	btfss	3,2
  3044  0405  2C07               	goto	u1501
  3045  0406  2C08               	goto	u1500
  3046  0407                     u1501:
  3047  0407  2C43               	goto	l2593
  3048  0408                     u1500:
  3049  0408                     l2585:
  3050                           
  3051                           ;D:\program files\Microchip\xc8\v2.31\pic\sources\c99\common\doprnt.c: 849:             
      +                          ++*fmt;
  3052  0408  084E               	movf	vfpfcnvrt@fmt,w
  3053  0409  0086               	movwf	6
  3054  040A  0187               	clrf	7
  3055  040B  3001               	movlw	1
  3056  040C  0781               	addwf	1,f
  3057  040D  3141               	addfsr 1,1
  3058  040E  1803               	skipnc
  3059  040F  0A81               	incf	1,f
  3060  0410                     l2587:
  3061                           
  3062                           ;D:\program files\Microchip\xc8\v2.31\pic\sources\c99\common\doprnt.c: 850:             
      +                          ll = (long long)(*(int *)__va_arg(*(int **)ap, (int)0));
  3063  0410  084F               	movf	vfpfcnvrt@ap,w
  3064  0411  0086               	movwf	6
  3065  0412  0187               	clrf	7
  3066  0413  0801               	movf	1,w
  3067  0414  0084               	movwf	4
  3068  0415  0185               	clrf	5
  3069  0416  3002               	movlw	2
  3070  0417  0781               	addwf	1,f
  3071  0418  3F00               	moviw [0]fsr0
  3072  0419  00D0               	movwf	??_vfpfcnvrt
  3073  041A  3F01               	moviw [1]fsr0
  3074  041B  00D1               	movwf	??_vfpfcnvrt+1
  3075  041C  0850               	movf	??_vfpfcnvrt,w
  3076  041D  00D5               	movwf	vfpfcnvrt@ll
  3077  041E  0851               	movf	??_vfpfcnvrt+1,w
  3078  041F  00D6               	movwf	vfpfcnvrt@ll+1
  3079  0420  0D89               	rlf	9,f
  3080  0421  3B89               	subwfb	9,f
  3081  0422  0989               	comf	9,f
  3082  0423  00D7               	movwf	vfpfcnvrt@ll+2
  3083  0424  00D8               	movwf	vfpfcnvrt@ll+3
  3084  0425  00D9               	movwf	vfpfcnvrt@ll+4
  3085  0426  00DA               	movwf	vfpfcnvrt@ll+5
  3086  0427  00DB               	movwf	vfpfcnvrt@ll+6
  3087  0428  00DC               	movwf	vfpfcnvrt@ll+7
  3088  0429                     l2589:
  3089                           
  3090                           ;D:\program files\Microchip\xc8\v2.31\pic\sources\c99\common\doprnt.c: 852:             
      +                          return dtoa(fp, ll);
  3091  0429  0855               	movf	vfpfcnvrt@ll,w
  3092  042A  00B0               	movwf	dtoa@d
  3093  042B  0856               	movf	vfpfcnvrt@ll+1,w
  3094  042C  00B1               	movwf	dtoa@d+1
  3095  042D  0857               	movf	vfpfcnvrt@ll+2,w
  3096  042E  00B2               	movwf	dtoa@d+2
  3097  042F  0858               	movf	vfpfcnvrt@ll+3,w
  3098  0430  00B3               	movwf	dtoa@d+3
  3099  0431  0859               	movf	vfpfcnvrt@ll+4,w
  3100  0432  00B4               	movwf	dtoa@d+4
  3101  0433  085A               	movf	vfpfcnvrt@ll+5,w
  3102  0434  00B5               	movwf	dtoa@d+5
  3103  0435  085B               	movf	vfpfcnvrt@ll+6,w
  3104  0436  00B6               	movwf	dtoa@d+6
  3105  0437  085C               	movf	vfpfcnvrt@ll+7,w
  3106  0438  00B7               	movwf	dtoa@d+7
  3107  0439  085D               	movf	vfpfcnvrt@fp,w
  3108  043A  3186  2687  3183   	fcall	_dtoa
  3109  043D  0140               	movlb	0	; select bank0
  3110  043E  0831               	movf	?_dtoa+1,w
  3111  043F  00CF               	movwf	?_vfpfcnvrt+1
  3112  0440  0830               	movf	?_dtoa,w
  3113  0441  00CE               	movwf	?_vfpfcnvrt
  3114  0442  2C9B               	goto	l1337
  3115  0443                     l2593:
  3116                           
  3117                           ;D:\program files\Microchip\xc8\v2.31\pic\sources\c99\common\doprnt.c: 1372:         if 
      +                          ((*fmt)[0] == '%') {
  3118  0443  084E               	movf	vfpfcnvrt@fmt,w
  3119  0444  0086               	movwf	6
  3120  0445  0187               	clrf	7
  3121  0446  3F40               	moviw [0]fsr1
  3122  0447  00D0               	movwf	??_vfpfcnvrt
  3123  0448  3F41               	moviw [1]fsr1
  3124  0449  00D1               	movwf	??_vfpfcnvrt+1
  3125  044A  0850               	movf	??_vfpfcnvrt,w
  3126  044B  0084               	movwf	4
  3127  044C  0851               	movf	??_vfpfcnvrt+1,w
  3128  044D  0085               	movwf	5
  3129  044E  0012               	moviw fsr0++
  3130  044F  3A25               	xorlw	37
  3131  0450  1D03               	btfss	3,2
  3132  0451  2C53               	goto	u1511
  3133  0452  2C54               	goto	u1510
  3134  0453                     u1511:
  3135  0453  2C6D               	goto	l2603
  3136  0454                     u1510:
  3137  0454                     l2595:
  3138                           
  3139                           ;D:\program files\Microchip\xc8\v2.31\pic\sources\c99\common\doprnt.c: 1373:            
      +                           ++*fmt;
  3140  0454  084E               	movf	vfpfcnvrt@fmt,w
  3141  0455  0086               	movwf	6
  3142  0456  0187               	clrf	7
  3143  0457  3001               	movlw	1
  3144  0458  0781               	addwf	1,f
  3145  0459  3141               	addfsr 1,1
  3146  045A  1803               	skipnc
  3147  045B  0A81               	incf	1,f
  3148  045C                     l2597:
  3149                           
  3150                           ;D:\program files\Microchip\xc8\v2.31\pic\sources\c99\common\doprnt.c: 1374:            
      +                           fputc((int)'%', fp);
  3151  045C  3025               	movlw	37
  3152  045D  00F2               	movwf	fputc@c
  3153  045E  3000               	movlw	0
  3154  045F  00F3               	movwf	fputc@c+1
  3155  0460  085D               	movf	vfpfcnvrt@fp,w
  3156  0461  00D0               	movwf	??_vfpfcnvrt
  3157  0462  0850               	movf	??_vfpfcnvrt,w
  3158  0463  00F4               	movwf	fputc@fp
  3159  0464  3182  224F  3183   	fcall	_fputc
  3160  0467                     l2599:
  3161                           
  3162                           ;D:\program files\Microchip\xc8\v2.31\pic\sources\c99\common\doprnt.c: 1375:            
      +                           return 1;
  3163  0467  3001               	movlw	1
  3164  0468  0140               	movlb	0	; select bank0
  3165  0469  00CE               	movwf	?_vfpfcnvrt
  3166  046A  3000               	movlw	0
  3167  046B  00CF               	movwf	?_vfpfcnvrt+1
  3168  046C  2C9B               	goto	l1337
  3169  046D                     l2603:
  3170                           
  3171                           ;D:\program files\Microchip\xc8\v2.31\pic\sources\c99\common\doprnt.c: 1379:         ++*
      +                          fmt;
  3172  046D  084E               	movf	vfpfcnvrt@fmt,w
  3173  046E  0086               	movwf	6
  3174  046F  0187               	clrf	7
  3175  0470  3001               	movlw	1
  3176  0471  0781               	addwf	1,f
  3177  0472  3141               	addfsr 1,1
  3178  0473  1803               	skipnc
  3179  0474  0A81               	incf	1,f
  3180  0475                     l2605:
  3181                           
  3182                           ;D:\program files\Microchip\xc8\v2.31\pic\sources\c99\common\doprnt.c: 1380:         ret
      +                          urn 0;
  3183  0475  01CE               	clrf	?_vfpfcnvrt
  3184  0476  01CF               	clrf	?_vfpfcnvrt+1
  3185  0477  2C9B               	goto	l1337
  3186  0478                     l2609:
  3187                           
  3188                           ;D:\program files\Microchip\xc8\v2.31\pic\sources\c99\common\doprnt.c: 1384:     fputc((
      +                          int)(*fmt)[0], fp);
  3189  0478  084E               	movf	vfpfcnvrt@fmt,w
  3190  0479  0086               	movwf	6
  3191  047A  0187               	clrf	7
  3192  047B  3F40               	moviw [0]fsr1
  3193  047C  00D0               	movwf	??_vfpfcnvrt
  3194  047D  3F41               	moviw [1]fsr1
  3195  047E  00D1               	movwf	??_vfpfcnvrt+1
  3196  047F  0850               	movf	??_vfpfcnvrt,w
  3197  0480  0084               	movwf	4
  3198  0481  0851               	movf	??_vfpfcnvrt+1,w
  3199  0482  0085               	movwf	5
  3200  0483  0800               	movf	0,w	;code access
  3201  0484  00D2               	movwf	??_vfpfcnvrt+2
  3202  0485  01D3               	clrf	??_vfpfcnvrt+3
  3203  0486  0852               	movf	??_vfpfcnvrt+2,w
  3204  0487  00F2               	movwf	fputc@c
  3205  0488  0853               	movf	??_vfpfcnvrt+3,w
  3206  0489  00F3               	movwf	fputc@c+1
  3207  048A  085D               	movf	vfpfcnvrt@fp,w
  3208  048B  00D4               	movwf	??_vfpfcnvrt+4
  3209  048C  0854               	movf	??_vfpfcnvrt+4,w
  3210  048D  00F4               	movwf	fputc@fp
  3211  048E  3182  224F  3183   	fcall	_fputc
  3212  0491                     l2611:
  3213                           
  3214                           ;D:\program files\Microchip\xc8\v2.31\pic\sources\c99\common\doprnt.c: 1385:     ++*fmt;
  3215  0491  0140               	movlb	0	; select bank0
  3216  0492  084E               	movf	vfpfcnvrt@fmt,w
  3217  0493  0086               	movwf	6
  3218  0494  0187               	clrf	7
  3219  0495  3001               	movlw	1
  3220  0496  0781               	addwf	1,f
  3221  0497  3141               	addfsr 1,1
  3222  0498  1803               	skipnc
  3223  0499  0A81               	incf	1,f
  3224  049A  2C67               	goto	l2599
  3225  049B                     l1337:
  3226  049B  0008               	return
  3227  049C                     __end_of_vfpfcnvrt:
  3228                           
  3229                           	psect	text4
  3230  0687                     __ptext4:	
  3231 ;; *************** function _dtoa *****************
  3232 ;; Defined at:
  3233 ;;		line 287 in file "D:\program files\Microchip\xc8\v2.31\pic\sources\c99\common\doprnt.c"
  3234 ;; Parameters:    Size  Location     Type
  3235 ;;  fp              1    wreg     PTR struct _IO_FILE
  3236 ;;		 -> NULL(0), 
  3237 ;;  d               8   16[BANK0 ] long long 
  3238 ;; Auto vars:     Size  Location     Type
  3239 ;;  fp              1   31[BANK0 ] PTR struct _IO_FILE
  3240 ;;		 -> NULL(0), 
  3241 ;;  n               8   36[BANK0 ] long long 
  3242 ;;  i               2   44[BANK0 ] int 
  3243 ;;  s               2   34[BANK0 ] int 
  3244 ;;  w               2   32[BANK0 ] int 
  3245 ;;  p               2   29[BANK0 ] int 
  3246 ;; Return value:  Size  Location     Type
  3247 ;;                  2   16[BANK0 ] int 
  3248 ;; Registers used:
  3249 ;;		wreg, fsr1l, fsr1h, status,2, status,0, pclath, cstack
  3250 ;; Tracked objects:
  3251 ;;		On entry : 0/0
  3252 ;;		On exit  : 0/0
  3253 ;;		Unchanged: 0/0
  3254 ;; Data sizes:     COMMON   BANK0   BANK1   BANK2   BANK3   BANK4   BANK5   BANK6   BANK7   BANK8   BANK9  BANK10  BANK1
      +1  BANK12  BANK13  BANK14  BANK15  BANK16  BANK17  BANK18  BANK19  BANK20  BANK21  BANK22  BANK23  BANK24  BANK25
  3255 ;;      Params:         0       8       0       0       0       0       0       0       0       0       0       0       
      +0       0       0       0       0       0       0       0       0       0       0       0       0       0       0
  3256 ;;      Locals:         0      19       0       0       0       0       0       0       0       0       0       0       
      +0       0       0       0       0       0       0       0       0       0       0       0       0       0       0
  3257 ;;      Temps:          0       3       0       0       0       0       0       0       0       0       0       0       
      +0       0       0       0       0       0       0       0       0       0       0       0       0       0       0
  3258 ;;      Totals:         0      30       0       0       0       0       0       0       0       0       0       0       
      +0       0       0       0       0       0       0       0       0       0       0       0       0       0       0
  3259 ;;Total ram usage:       30 bytes
  3260 ;; Hardware stack levels used:    1
  3261 ;; Hardware stack levels required when called:    5
  3262 ;; This function calls:
  3263 ;;		___aodiv
  3264 ;;		___aomod
  3265 ;;		_abs
  3266 ;;		_pad
  3267 ;; This function is called by:
  3268 ;;		_vfpfcnvrt
  3269 ;; This function uses a non-reentrant model
  3270 ;;
  3271                           
  3272                           
  3273                           ;psect for function _dtoa
  3274  0687                     _dtoa:
  3275                           
  3276                           ;incstack = 0
  3277                           ; Regs used in _dtoa: [wreg+fsr1l+fsr1h+status,2+status,0+pclath+cstack]
  3278                           ;dtoa@fp stored from wreg
  3279  0687  0140               	movlb	0	; select bank0
  3280  0688  00BF               	movwf	dtoa@fp
  3281  0689                     l2503:
  3282                           
  3283                           ;D:\program files\Microchip\xc8\v2.31\pic\sources\c99\common\doprnt.c: 287: static int d
      +                          toa(FILE *fp, long long d);D:\program files\Microchip\xc8\v2.31\pic\sources\c99\common\d
      +                          oprnt.c: 288: {;D:\program files\Microchip\xc8\v2.31\pic\sources\c99\common\doprnt.c: 28
      +                          9:     int i, p, s, w;;D:\program files\Microchip\xc8\v2.31\pic\sources\c99\common\doprn
      +                          t.c: 290:     long long n;;D:\program files\Microchip\xc8\v2.31\pic\sources\c99\common\d
      +                          oprnt.c: 293:     n = d;
  3284  0689  0830               	movf	dtoa@d,w
  3285  068A  00C4               	movwf	dtoa@n
  3286  068B  0831               	movf	dtoa@d+1,w
  3287  068C  00C5               	movwf	dtoa@n+1
  3288  068D  0832               	movf	dtoa@d+2,w
  3289  068E  00C6               	movwf	dtoa@n+2
  3290  068F  0833               	movf	dtoa@d+3,w
  3291  0690  00C7               	movwf	dtoa@n+3
  3292  0691  0834               	movf	dtoa@d+4,w
  3293  0692  00C8               	movwf	dtoa@n+4
  3294  0693  0835               	movf	dtoa@d+5,w
  3295  0694  00C9               	movwf	dtoa@n+5
  3296  0695  0836               	movf	dtoa@d+6,w
  3297  0696  00CA               	movwf	dtoa@n+6
  3298  0697  0837               	movf	dtoa@d+7,w
  3299  0698  00CB               	movwf	dtoa@n+7
  3300  0699                     l2505:
  3301                           
  3302                           ;D:\program files\Microchip\xc8\v2.31\pic\sources\c99\common\doprnt.c: 294:     s = n < 
      +                          0 ? 1 : 0;
  3303  0699  3044               	movlw	low dtoa@n
  3304  069A  0086               	movwf	6
  3305  069B  3000               	movlw	high dtoa@n
  3306  069C  0087               	movwf	7
  3307  069D  3F47               	moviw [7]fsr1
  3308  069E  00B8               	movwf	??_dtoa
  3309  069F  1BB8               	btfsc	??_dtoa,7
  3310  06A0  2EA2               	goto	u1311
  3311  06A1  2EA4               	goto	u1310
  3312  06A2                     u1311:
  3313  06A2  3001               	movlw	1
  3314  06A3  2EA5               	goto	u1320
  3315  06A4                     u1310:
  3316  06A4  3000               	movlw	0
  3317  06A5                     u1320:
  3318  06A5  0140               	movlb	0	; select bank0
  3319  06A6  00B9               	movwf	??_dtoa+1
  3320  06A7  01BA               	clrf	??_dtoa+2
  3321  06A8  0839               	movf	??_dtoa+1,w
  3322  06A9  00C2               	movwf	dtoa@s
  3323  06AA  083A               	movf	??_dtoa+2,w
  3324  06AB  00C3               	movwf	dtoa@s+1
  3325  06AC                     l2507:
  3326                           
  3327                           ;D:\program files\Microchip\xc8\v2.31\pic\sources\c99\common\doprnt.c: 295:     if (s) {
  3328  06AC  0842               	movf	dtoa@s,w
  3329  06AD  0443               	iorwf	dtoa@s+1,w
  3330  06AE  1903               	btfsc	3,2
  3331  06AF  2EB1               	goto	u1331
  3332  06B0  2EB2               	goto	u1330
  3333  06B1                     u1331:
  3334  06B1  2ED0               	goto	l1307
  3335  06B2                     u1330:
  3336  06B2                     l2509:
  3337                           
  3338                           ;D:\program files\Microchip\xc8\v2.31\pic\sources\c99\common\doprnt.c: 296:         n = 
      +                          -n;
  3339  06B2  09C4               	comf	dtoa@n,f
  3340  06B3  09C5               	comf	dtoa@n+1,f
  3341  06B4  09C6               	comf	dtoa@n+2,f
  3342  06B5  09C7               	comf	dtoa@n+3,f
  3343  06B6  09C8               	comf	dtoa@n+4,f
  3344  06B7  09C9               	comf	dtoa@n+5,f
  3345  06B8  09CA               	comf	dtoa@n+6,f
  3346  06B9  09CB               	comf	dtoa@n+7,f
  3347  06BA  0AC4               	incf	dtoa@n,f
  3348  06BB  1D03               	skipz
  3349  06BC  2ED0               	goto	u134lld
  3350  06BD  0AC5               	incf	dtoa@n+1,f
  3351  06BE  1D03               	skipz
  3352  06BF  2ED0               	goto	u134lld
  3353  06C0  0AC6               	incf	dtoa@n+2,f
  3354  06C1  1D03               	skipz
  3355  06C2  2ED0               	goto	u134lld
  3356  06C3  0AC7               	incf	dtoa@n+3,f
  3357  06C4  1D03               	skipz
  3358  06C5  2ED0               	goto	u134lld
  3359  06C6  0AC8               	incf	dtoa@n+4,f
  3360  06C7  1D03               	skipz
  3361  06C8  2ED0               	goto	u134lld
  3362  06C9  0AC9               	incf	dtoa@n+5,f
  3363  06CA  1D03               	skipz
  3364  06CB  2ED0               	goto	u134lld
  3365  06CC  0ACA               	incf	dtoa@n+6,f
  3366  06CD  1D03               	skipz
  3367  06CE  2ED0               	goto	u134lld
  3368  06CF  0ACB               	incf	dtoa@n+7,f
  3369  06D0                     u134lld:
  3370  06D0                     l1307:	
  3371                           ;D:\program files\Microchip\xc8\v2.31\pic\sources\c99\common\doprnt.c: 297:     }
  3372                           
  3373                           
  3374                           ;D:\program files\Microchip\xc8\v2.31\pic\sources\c99\common\doprnt.c: 300:     if (!(pr
      +                          ec < 0)) {
  3375  06D0  0141               	movlb	1	; select bank1
  3376  06D1  1BC2               	btfsc	(_prec+1)^(0+128),7
  3377  06D2  2ED4               	goto	u1351
  3378  06D3  2ED5               	goto	u1350
  3379  06D4                     u1351:
  3380  06D4  2ED9               	goto	l1308
  3381  06D5                     u1350:
  3382  06D5                     l2511:
  3383                           
  3384                           ;D:\program files\Microchip\xc8\v2.31\pic\sources\c99\common\doprnt.c: 301:         flag
      +                          s &= ~(1 << 1);
  3385  06D5  30FD               	movlw	253
  3386  06D6  05C3               	andwf	_flags^(0+128),f
  3387  06D7  30FF               	movlw	255
  3388  06D8  05C4               	andwf	(_flags+1)^(0+128),f
  3389  06D9                     l1308:	
  3390                           ;D:\program files\Microchip\xc8\v2.31\pic\sources\c99\common\doprnt.c: 302:     }
  3391                           
  3392                           
  3393                           ;D:\program files\Microchip\xc8\v2.31\pic\sources\c99\common\doprnt.c: 303:     p = (0 <
      +                           prec) ? prec : 1;
  3394  06D9  0842               	movf	(_prec+1)^(0+128),w
  3395  06DA  3A80               	xorlw	128
  3396  06DB  0140               	movlb	0	; select bank0
  3397  06DC  00B8               	movwf	??_dtoa
  3398  06DD  3080               	movlw	128
  3399  06DE  0238               	subwf	??_dtoa,w
  3400  06DF  1D03               	skipz
  3401  06E0  2EE4               	goto	u1365
  3402  06E1  3001               	movlw	1
  3403  06E2  0141               	movlb	1	; select bank1
  3404  06E3  0241               	subwf	_prec^(0+128),w
  3405  06E4                     u1365:
  3406  06E4  1803               	skipnc
  3407  06E5  2EE7               	goto	u1361
  3408  06E6  2EE8               	goto	u1360
  3409  06E7                     u1361:
  3410  06E7  2EEE               	goto	l2515
  3411  06E8                     u1360:
  3412  06E8                     l2513:
  3413  06E8  3001               	movlw	1
  3414  06E9  0140               	movlb	0	; select bank0
  3415  06EA  00BD               	movwf	dtoa@p
  3416  06EB  3000               	movlw	0
  3417  06EC  00BE               	movwf	dtoa@p+1
  3418  06ED  2EF6               	goto	l1312
  3419  06EE                     l2515:
  3420  06EE  0141               	movlb	1	; select bank1
  3421  06EF  0842               	movf	(_prec+1)^(0+128),w
  3422  06F0  0140               	movlb	0	; select bank0
  3423  06F1  00BE               	movwf	dtoa@p+1
  3424  06F2  0141               	movlb	1	; select bank1
  3425  06F3  0841               	movf	_prec^(0+128),w
  3426  06F4  0140               	movlb	0	; select bank0
  3427  06F5  00BD               	movwf	dtoa@p
  3428  06F6                     l1312:
  3429                           
  3430                           ;D:\program files\Microchip\xc8\v2.31\pic\sources\c99\common\doprnt.c: 304:     w = widt
      +                          h;
  3431  06F6  0141               	movlb	1	; select bank1
  3432  06F7  0840               	movf	(_width+1)^(0+128),w
  3433  06F8  0140               	movlb	0	; select bank0
  3434  06F9  00C1               	movwf	dtoa@w+1
  3435  06FA  0141               	movlb	1	; select bank1
  3436  06FB  083F               	movf	_width^(0+128),w
  3437  06FC  0140               	movlb	0	; select bank0
  3438  06FD  00C0               	movwf	dtoa@w
  3439  06FE                     l2517:
  3440                           
  3441                           ;D:\program files\Microchip\xc8\v2.31\pic\sources\c99\common\doprnt.c: 305:     if (s ||
      +                           (flags & (1 << 2))) {
  3442  06FE  0842               	movf	dtoa@s,w
  3443  06FF  0443               	iorwf	dtoa@s+1,w
  3444  0700  1D03               	btfss	3,2
  3445  0701  2F03               	goto	u1371
  3446  0702  2F04               	goto	u1370
  3447  0703                     u1371:
  3448  0703  2F09               	goto	l2521
  3449  0704                     u1370:
  3450  0704                     l2519:
  3451  0704  0141               	movlb	1	; select bank1
  3452  0705  1D43               	btfss	_flags^(0+128),2
  3453  0706  2F08               	goto	u1381
  3454  0707  2F09               	goto	u1380
  3455  0708                     u1381:
  3456  0708  2F0E               	goto	l1313
  3457  0709                     u1380:
  3458  0709                     l2521:
  3459                           
  3460                           ;D:\program files\Microchip\xc8\v2.31\pic\sources\c99\common\doprnt.c: 306:         --w;
  3461  0709  30FF               	movlw	255
  3462  070A  0140               	movlb	0	; select bank0
  3463  070B  07C0               	addwf	dtoa@w,f
  3464  070C  30FF               	movlw	255
  3465  070D  3DC1               	addwfc	dtoa@w+1,f
  3466  070E                     l1313:	
  3467                           ;D:\program files\Microchip\xc8\v2.31\pic\sources\c99\common\doprnt.c: 307:     }
  3468                           
  3469                           
  3470                           ;D:\program files\Microchip\xc8\v2.31\pic\sources\c99\common\doprnt.c: 310:     i = size
      +                          of(dbuf) - 1;
  3471  070E  301F               	movlw	31
  3472  070F  0140               	movlb	0	; select bank0
  3473  0710  00CC               	movwf	dtoa@i
  3474  0711  3000               	movlw	0
  3475  0712  00CD               	movwf	dtoa@i+1
  3476  0713                     l2523:
  3477                           
  3478                           ;D:\program files\Microchip\xc8\v2.31\pic\sources\c99\common\doprnt.c: 311:     dbuf[i] 
      +                          = '\0';
  3479  0713  0141               	movlb	1	; select bank1
  3480  0714  01E5               	clrf	(_dbuf^(0+128)+31)
  3481                           
  3482                           ;D:\program files\Microchip\xc8\v2.31\pic\sources\c99\common\doprnt.c: 312:     while (!
      +                          (i < 1) && (n || (0 < p) || ((0 < w) && (flags & (1 << 1))))) {
  3483  0715  2F7E               	goto	l1316
  3484  0716                     l2525:
  3485                           
  3486                           ;D:\program files\Microchip\xc8\v2.31\pic\sources\c99\common\doprnt.c: 313:         --i;
  3487  0716  30FF               	movlw	255
  3488  0717  0140               	movlb	0	; select bank0
  3489  0718  07CC               	addwf	dtoa@i,f
  3490  0719  30FF               	movlw	255
  3491  071A  3DCD               	addwfc	dtoa@i+1,f
  3492  071B                     l2527:
  3493                           
  3494                           ;D:\program files\Microchip\xc8\v2.31\pic\sources\c99\common\doprnt.c: 314:         dbuf
      +                          [i] = (char)((int)'0' + abs(n % 10));
  3495  071B  300A               	movlw	10
  3496  071C  00A0               	movwf	___aomod@divisor
  3497  071D  01A1               	clrf	___aomod@divisor+1
  3498  071E  01A2               	clrf	___aomod@divisor+2
  3499  071F  01A3               	clrf	___aomod@divisor+3
  3500  0720  01A4               	clrf	___aomod@divisor+4
  3501  0721  01A5               	clrf	___aomod@divisor+5
  3502  0722  01A6               	clrf	___aomod@divisor+6
  3503  0723  01A7               	clrf	___aomod@divisor+7
  3504  0724  0844               	movf	dtoa@n,w
  3505  0725  00A8               	movwf	___aomod@dividend
  3506  0726  0845               	movf	dtoa@n+1,w
  3507  0727  00A9               	movwf	___aomod@dividend+1
  3508  0728  0846               	movf	dtoa@n+2,w
  3509  0729  00AA               	movwf	___aomod@dividend+2
  3510  072A  0847               	movf	dtoa@n+3,w
  3511  072B  00AB               	movwf	___aomod@dividend+3
  3512  072C  0848               	movf	dtoa@n+4,w
  3513  072D  00AC               	movwf	___aomod@dividend+4
  3514  072E  0849               	movf	dtoa@n+5,w
  3515  072F  00AD               	movwf	___aomod@dividend+5
  3516  0730  084A               	movf	dtoa@n+6,w
  3517  0731  00AE               	movwf	___aomod@dividend+6
  3518  0732  084B               	movf	dtoa@n+7,w
  3519  0733  00AF               	movwf	___aomod@dividend+7
  3520  0734  3184  249C  3186   	fcall	___aomod
  3521  0737  0140               	movlb	0	; select bank0
  3522  0738  0821               	movf	?___aomod+1,w
  3523  0739  00F4               	movwf	abs@a+1
  3524  073A  0820               	movf	?___aomod,w
  3525  073B  00F3               	movwf	abs@a
  3526  073C  3181  2194  3186   	fcall	_abs
  3527  073F  0873               	movf	?_abs,w
  3528  0740  3E30               	addlw	48
  3529  0741  0140               	movlb	0	; select bank0
  3530  0742  00B8               	movwf	??_dtoa
  3531  0743  084C               	movf	dtoa@i,w
  3532  0744  3EC6               	addlw	(low (_dbuf| 0))& (0+255)
  3533  0745  0086               	movwf	6
  3534  0746  0187               	clrf	7
  3535  0747  0838               	movf	??_dtoa,w
  3536  0748  0081               	movwf	1
  3537  0749                     l2529:
  3538                           
  3539                           ;D:\program files\Microchip\xc8\v2.31\pic\sources\c99\common\doprnt.c: 315:         --p;
  3540  0749  30FF               	movlw	255
  3541  074A  07BD               	addwf	dtoa@p,f
  3542  074B  30FF               	movlw	255
  3543  074C  3DBE               	addwfc	dtoa@p+1,f
  3544  074D                     l2531:
  3545                           
  3546                           ;D:\program files\Microchip\xc8\v2.31\pic\sources\c99\common\doprnt.c: 316:         --w;
  3547  074D  30FF               	movlw	255
  3548  074E  07C0               	addwf	dtoa@w,f
  3549  074F  30FF               	movlw	255
  3550  0750  3DC1               	addwfc	dtoa@w+1,f
  3551  0751                     l2533:
  3552                           
  3553                           ;D:\program files\Microchip\xc8\v2.31\pic\sources\c99\common\doprnt.c: 317:         n = 
      +                          n / 10;
  3554  0751  300A               	movlw	10
  3555  0752  00A0               	movwf	___aodiv@divisor
  3556  0753  01A1               	clrf	___aodiv@divisor+1
  3557  0754  01A2               	clrf	___aodiv@divisor+2
  3558  0755  01A3               	clrf	___aodiv@divisor+3
  3559  0756  01A4               	clrf	___aodiv@divisor+4
  3560  0757  01A5               	clrf	___aodiv@divisor+5
  3561  0758  01A6               	clrf	___aodiv@divisor+6
  3562  0759  01A7               	clrf	___aodiv@divisor+7
  3563  075A  0844               	movf	dtoa@n,w
  3564  075B  00A8               	movwf	___aodiv@dividend
  3565  075C  0845               	movf	dtoa@n+1,w
  3566  075D  00A9               	movwf	___aodiv@dividend+1
  3567  075E  0846               	movf	dtoa@n+2,w
  3568  075F  00AA               	movwf	___aodiv@dividend+2
  3569  0760  0847               	movf	dtoa@n+3,w
  3570  0761  00AB               	movwf	___aodiv@dividend+3
  3571  0762  0848               	movf	dtoa@n+4,w
  3572  0763  00AC               	movwf	___aodiv@dividend+4
  3573  0764  0849               	movf	dtoa@n+5,w
  3574  0765  00AD               	movwf	___aodiv@dividend+5
  3575  0766  084A               	movf	dtoa@n+6,w
  3576  0767  00AE               	movwf	___aodiv@dividend+6
  3577  0768  084B               	movf	dtoa@n+7,w
  3578  0769  00AF               	movwf	___aodiv@dividend+7
  3579  076A  3185  2586  3186   	fcall	___aodiv
  3580  076D  0140               	movlb	0	; select bank0
  3581  076E  0820               	movf	?___aodiv,w
  3582  076F  00C4               	movwf	dtoa@n
  3583  0770  0821               	movf	?___aodiv+1,w
  3584  0771  00C5               	movwf	dtoa@n+1
  3585  0772  0822               	movf	?___aodiv+2,w
  3586  0773  00C6               	movwf	dtoa@n+2
  3587  0774  0823               	movf	?___aodiv+3,w
  3588  0775  00C7               	movwf	dtoa@n+3
  3589  0776  0824               	movf	?___aodiv+4,w
  3590  0777  00C8               	movwf	dtoa@n+4
  3591  0778  0825               	movf	?___aodiv+5,w
  3592  0779  00C9               	movwf	dtoa@n+5
  3593  077A  0826               	movf	?___aodiv+6,w
  3594  077B  00CA               	movwf	dtoa@n+6
  3595  077C  0827               	movf	?___aodiv+7,w
  3596  077D  00CB               	movwf	dtoa@n+7
  3597  077E                     l1316:	
  3598                           ;D:\program files\Microchip\xc8\v2.31\pic\sources\c99\common\doprnt.c: 318:     }
  3599                           
  3600                           
  3601                           ;D:\program files\Microchip\xc8\v2.31\pic\sources\c99\common\doprnt.c: 312:     while (!
      +                          (i < 1) && (n || (0 < p) || ((0 < w) && (flags & (1 << 1))))) {
  3602  077E  0140               	movlb	0	; select bank0
  3603  077F  084D               	movf	dtoa@i+1,w
  3604  0780  3A80               	xorlw	128
  3605  0781  00B8               	movwf	??_dtoa
  3606  0782  3080               	movlw	128
  3607  0783  0238               	subwf	??_dtoa,w
  3608  0784  1D03               	skipz
  3609  0785  2F88               	goto	u1395
  3610  0786  3001               	movlw	1
  3611  0787  024C               	subwf	dtoa@i,w
  3612  0788                     u1395:
  3613  0788  1C03               	skipc
  3614  0789  2F8B               	goto	u1391
  3615  078A  2F8C               	goto	u1390
  3616  078B                     u1391:
  3617  078B  2FB9               	goto	l2543
  3618  078C                     u1390:
  3619  078C                     l2535:
  3620  078C  0140               	movlb	0	; select bank0
  3621  078D  0844               	movf	dtoa@n,w
  3622  078E  0445               	iorwf	dtoa@n+1,w
  3623  078F  0446               	iorwf	dtoa@n+2,w
  3624  0790  0447               	iorwf	dtoa@n+3,w
  3625  0791  0448               	iorwf	dtoa@n+4,w
  3626  0792  0449               	iorwf	dtoa@n+5,w
  3627  0793  044A               	iorwf	dtoa@n+6,w
  3628  0794  044B               	iorwf	dtoa@n+7,w
  3629  0795  1D03               	skipz
  3630  0796  2F98               	goto	u1401
  3631  0797  2F99               	goto	u1400
  3632  0798                     u1401:
  3633  0798  2F16               	goto	l2525
  3634  0799                     u1400:
  3635  0799                     l2537:
  3636  0799  083E               	movf	dtoa@p+1,w
  3637  079A  3A80               	xorlw	128
  3638  079B  00B8               	movwf	??_dtoa
  3639  079C  3080               	movlw	128
  3640  079D  0238               	subwf	??_dtoa,w
  3641  079E  1D03               	skipz
  3642  079F  2FA2               	goto	u1415
  3643  07A0  3001               	movlw	1
  3644  07A1  023D               	subwf	dtoa@p,w
  3645  07A2                     u1415:
  3646  07A2  1803               	skipnc
  3647  07A3  2FA5               	goto	u1411
  3648  07A4  2FA6               	goto	u1410
  3649  07A5                     u1411:
  3650  07A5  2F16               	goto	l2525
  3651  07A6                     u1410:
  3652  07A6                     l2539:
  3653  07A6  0140               	movlb	0	; select bank0
  3654  07A7  0841               	movf	dtoa@w+1,w
  3655  07A8  3A80               	xorlw	128
  3656  07A9  00B8               	movwf	??_dtoa
  3657  07AA  3080               	movlw	128
  3658  07AB  0238               	subwf	??_dtoa,w
  3659  07AC  1D03               	skipz
  3660  07AD  2FB0               	goto	u1425
  3661  07AE  3001               	movlw	1
  3662  07AF  0240               	subwf	dtoa@w,w
  3663  07B0                     u1425:
  3664  07B0  1C03               	skipc
  3665  07B1  2FB3               	goto	u1421
  3666  07B2  2FB4               	goto	u1420
  3667  07B3                     u1421:
  3668  07B3  2FB9               	goto	l2543
  3669  07B4                     u1420:
  3670  07B4                     l2541:
  3671  07B4  0141               	movlb	1	; select bank1
  3672  07B5  18C3               	btfsc	_flags^(0+128),1
  3673  07B6  2FB8               	goto	u1431
  3674  07B7  2FB9               	goto	u1430
  3675  07B8                     u1431:
  3676  07B8  2F16               	goto	l2525
  3677  07B9                     u1430:
  3678  07B9                     l2543:
  3679                           
  3680                           ;D:\program files\Microchip\xc8\v2.31\pic\sources\c99\common\doprnt.c: 321:     if (s ||
      +                           (flags & (1 << 2))) {
  3681  07B9  0140               	movlb	0	; select bank0
  3682  07BA  0842               	movf	dtoa@s,w
  3683  07BB  0443               	iorwf	dtoa@s+1,w
  3684  07BC  1D03               	btfss	3,2
  3685  07BD  2FBF               	goto	u1441
  3686  07BE  2FC0               	goto	u1440
  3687  07BF                     u1441:
  3688  07BF  2FC5               	goto	l2547
  3689  07C0                     u1440:
  3690  07C0                     l2545:
  3691  07C0  0141               	movlb	1	; select bank1
  3692  07C1  1D43               	btfss	_flags^(0+128),2
  3693  07C2  2FC4               	goto	u1451
  3694  07C3  2FC5               	goto	u1450
  3695  07C4                     u1451:
  3696  07C4  2FE1               	goto	l2557
  3697  07C5                     u1450:
  3698  07C5                     l2547:
  3699                           
  3700                           ;D:\program files\Microchip\xc8\v2.31\pic\sources\c99\common\doprnt.c: 322:         --i;
  3701  07C5  30FF               	movlw	255
  3702  07C6  0140               	movlb	0	; select bank0
  3703  07C7  07CC               	addwf	dtoa@i,f
  3704  07C8  30FF               	movlw	255
  3705  07C9  3DCD               	addwfc	dtoa@i+1,f
  3706  07CA                     l2549:
  3707                           
  3708                           ;D:\program files\Microchip\xc8\v2.31\pic\sources\c99\common\doprnt.c: 323:         dbuf
      +                          [i] = s ? '-' : '+';
  3709  07CA  0842               	movf	dtoa@s,w
  3710  07CB  0443               	iorwf	dtoa@s+1,w
  3711  07CC  1D03               	btfss	3,2
  3712  07CD  2FCF               	goto	u1461
  3713  07CE  2FD0               	goto	u1460
  3714  07CF                     u1461:
  3715  07CF  2FD5               	goto	l2553
  3716  07D0                     u1460:
  3717  07D0                     l2551:
  3718  07D0  302B               	movlw	43
  3719  07D1  00BB               	movwf	_dtoa$1704
  3720  07D2  3000               	movlw	0
  3721  07D3  00BC               	movwf	_dtoa$1704+1
  3722  07D4  2FD9               	goto	l2555
  3723  07D5                     l2553:
  3724  07D5  302D               	movlw	45
  3725  07D6  00BB               	movwf	_dtoa$1704
  3726  07D7  3000               	movlw	0
  3727  07D8  00BC               	movwf	_dtoa$1704+1
  3728  07D9                     l2555:
  3729  07D9  083B               	movf	_dtoa$1704,w
  3730  07DA  00B8               	movwf	??_dtoa
  3731  07DB  084C               	movf	dtoa@i,w
  3732  07DC  3EC6               	addlw	(low (_dbuf| 0))& (0+255)
  3733  07DD  0086               	movwf	6
  3734  07DE  0187               	clrf	7
  3735  07DF  0838               	movf	??_dtoa,w
  3736  07E0  0081               	movwf	1
  3737  07E1                     l2557:
  3738                           
  3739                           ;D:\program files\Microchip\xc8\v2.31\pic\sources\c99\common\doprnt.c: 327:     return p
      +                          ad(fp, &dbuf[i], w);
  3740  07E1  0140               	movlb	0	; select bank0
  3741  07E2  084C               	movf	dtoa@i,w
  3742  07E3  3EC6               	addlw	(low (_dbuf| 0))& (0+255)
  3743  07E4  00B8               	movwf	??_dtoa
  3744  07E5  0838               	movf	??_dtoa,w
  3745  07E6  00A4               	movwf	pad@buf
  3746  07E7  0841               	movf	dtoa@w+1,w
  3747  07E8  00A6               	movwf	pad@p+1
  3748  07E9  0840               	movf	dtoa@w,w
  3749  07EA  00A5               	movwf	pad@p
  3750  07EB  083F               	movf	dtoa@fp,w
  3751  07EC  3183  2368  3186   	fcall	_pad
  3752  07EF  0140               	movlb	0	; select bank0
  3753  07F0  0825               	movf	?_pad+1,w
  3754  07F1  00B1               	movwf	?_dtoa+1
  3755  07F2  0824               	movf	?_pad,w
  3756  07F3  00B0               	movwf	?_dtoa
  3757  07F4                     l1330:
  3758  07F4  0008               	return
  3759  07F5                     __end_of_dtoa:
  3760                           
  3761                           	psect	text5
  3762  0368                     __ptext5:	
  3763 ;; *************** function _pad *****************
  3764 ;; Defined at:
  3765 ;;		line 72 in file "D:\program files\Microchip\xc8\v2.31\pic\sources\c99\common\doprnt.c"
  3766 ;; Parameters:    Size  Location     Type
  3767 ;;  fp              1    wreg     PTR struct _IO_FILE
  3768 ;;		 -> NULL(0), 
  3769 ;;  buf             1    4[BANK0 ] PTR unsigned char 
  3770 ;;		 -> dbuf(32), 
  3771 ;;  p               2    5[BANK0 ] int 
  3772 ;; Auto vars:     Size  Location     Type
  3773 ;;  fp              1   12[BANK0 ] PTR struct _IO_FILE
  3774 ;;		 -> NULL(0), 
  3775 ;;  w               2   10[BANK0 ] int 
  3776 ;;  i               2    8[BANK0 ] int 
  3777 ;; Return value:  Size  Location     Type
  3778 ;;                  2    4[BANK0 ] int 
  3779 ;; Registers used:
  3780 ;;		wreg, fsr1l, fsr1h, status,2, status,0, pclath, cstack
  3781 ;; Tracked objects:
  3782 ;;		On entry : 0/0
  3783 ;;		On exit  : 0/0
  3784 ;;		Unchanged: 0/0
  3785 ;; Data sizes:     COMMON   BANK0   BANK1   BANK2   BANK3   BANK4   BANK5   BANK6   BANK7   BANK8   BANK9  BANK10  BANK1
      +1  BANK12  BANK13  BANK14  BANK15  BANK16  BANK17  BANK18  BANK19  BANK20  BANK21  BANK22  BANK23  BANK24  BANK25
  3786 ;;      Params:         0       3       0       0       0       0       0       0       0       0       0       0       
      +0       0       0       0       0       0       0       0       0       0       0       0       0       0       0
  3787 ;;      Locals:         0       5       0       0       0       0       0       0       0       0       0       0       
      +0       0       0       0       0       0       0       0       0       0       0       0       0       0       0
  3788 ;;      Temps:          0       1       0       0       0       0       0       0       0       0       0       0       
      +0       0       0       0       0       0       0       0       0       0       0       0       0       0       0
  3789 ;;      Totals:         0       9       0       0       0       0       0       0       0       0       0       0       
      +0       0       0       0       0       0       0       0       0       0       0       0       0       0       0
  3790 ;;Total ram usage:        9 bytes
  3791 ;; Hardware stack levels used:    1
  3792 ;; Hardware stack levels required when called:    4
  3793 ;; This function calls:
  3794 ;;		_fputc
  3795 ;;		_fputs
  3796 ;;		_strlen
  3797 ;; This function is called by:
  3798 ;;		_dtoa
  3799 ;; This function uses a non-reentrant model
  3800 ;;
  3801                           
  3802                           
  3803                           ;psect for function _pad
  3804  0368                     _pad:
  3805                           
  3806                           ;incstack = 0
  3807                           ; Regs used in _pad: [wreg+fsr1l+fsr1h+status,2+status,0+pclath+cstack]
  3808                           ;pad@fp stored from wreg
  3809  0368  0140               	movlb	0	; select bank0
  3810  0369  00AC               	movwf	pad@fp
  3811  036A                     l2479:
  3812                           
  3813                           ;D:\program files\Microchip\xc8\v2.31\pic\sources\c99\common\doprnt.c: 72: static int pa
      +                          d(FILE *fp, char *buf, int p);D:\program files\Microchip\xc8\v2.31\pic\sources\c99\commo
      +                          n\doprnt.c: 73: {;D:\program files\Microchip\xc8\v2.31\pic\sources\c99\common\doprnt.c: 
      +                          74:     int i, w;;D:\program files\Microchip\xc8\v2.31\pic\sources\c99\common\doprnt.c: 
      +                          77:     if (flags & (1 << 0)) {
  3814  036A  0141               	movlb	1	; select bank1
  3815  036B  1C43               	btfss	_flags^(0+128),0
  3816  036C  2B6E               	goto	u1261
  3817  036D  2B6F               	goto	u1260
  3818  036E                     u1261:
  3819  036E  2B78               	goto	l2483
  3820  036F                     u1260:
  3821  036F                     l2481:
  3822                           
  3823                           ;D:\program files\Microchip\xc8\v2.31\pic\sources\c99\common\doprnt.c: 78:         fputs
      +                          ((const char *)buf, fp);
  3824  036F  0140               	movlb	0	; select bank0
  3825  0370  082C               	movf	pad@fp,w
  3826  0371  00A7               	movwf	??_pad
  3827  0372  0827               	movf	??_pad,w
  3828  0373  00FA               	movwf	fputs@fp
  3829  0374  0824               	movf	pad@buf,w
  3830  0375  3181  21F6  3183   	fcall	_fputs
  3831  0378                     l2483:
  3832                           
  3833                           ;D:\program files\Microchip\xc8\v2.31\pic\sources\c99\common\doprnt.c: 82:     w = (p < 
      +                          0) ? 0 : p;
  3834  0378  0140               	movlb	0	; select bank0
  3835  0379  1BA6               	btfsc	pad@p+1,7
  3836  037A  2B7C               	goto	u1271
  3837  037B  2B7D               	goto	u1270
  3838  037C                     u1271:
  3839  037C  2B82               	goto	l2487
  3840  037D                     u1270:
  3841  037D                     l2485:
  3842  037D  0826               	movf	pad@p+1,w
  3843  037E  00AB               	movwf	pad@w+1
  3844  037F  0825               	movf	pad@p,w
  3845  0380  00AA               	movwf	pad@w
  3846  0381  2B84               	goto	l1299
  3847  0382                     l2487:
  3848  0382  01AA               	clrf	pad@w
  3849  0383  01AB               	clrf	pad@w+1
  3850  0384                     l1299:
  3851                           
  3852                           ;D:\program files\Microchip\xc8\v2.31\pic\sources\c99\common\doprnt.c: 83:     i = 0;
  3853  0384  01A8               	clrf	pad@i
  3854  0385  01A9               	clrf	pad@i+1
  3855                           
  3856                           ;D:\program files\Microchip\xc8\v2.31\pic\sources\c99\common\doprnt.c: 84:     while (i 
      +                          < w) {
  3857  0386  2B98               	goto	l2493
  3858  0387                     l2489:
  3859                           
  3860                           ;D:\program files\Microchip\xc8\v2.31\pic\sources\c99\common\doprnt.c: 85:         fputc
      +                          (' ', fp);
  3861  0387  3020               	movlw	32
  3862  0388  00F2               	movwf	fputc@c
  3863  0389  3000               	movlw	0
  3864  038A  00F3               	movwf	fputc@c+1
  3865  038B  0140               	movlb	0	; select bank0
  3866  038C  082C               	movf	pad@fp,w
  3867  038D  00A7               	movwf	??_pad
  3868  038E  0827               	movf	??_pad,w
  3869  038F  00F4               	movwf	fputc@fp
  3870  0390  3182  224F  3183   	fcall	_fputc
  3871  0393                     l2491:
  3872                           
  3873                           ;D:\program files\Microchip\xc8\v2.31\pic\sources\c99\common\doprnt.c: 86:         ++i;
  3874  0393  3001               	movlw	1
  3875  0394  0140               	movlb	0	; select bank0
  3876  0395  07A8               	addwf	pad@i,f
  3877  0396  3000               	movlw	0
  3878  0397  3DA9               	addwfc	pad@i+1,f
  3879  0398                     l2493:
  3880                           
  3881                           ;D:\program files\Microchip\xc8\v2.31\pic\sources\c99\common\doprnt.c: 84:     while (i 
      +                          < w) {
  3882  0398  0829               	movf	pad@i+1,w
  3883  0399  3A80               	xorlw	128
  3884  039A  00A7               	movwf	??_pad
  3885  039B  082B               	movf	pad@w+1,w
  3886  039C  3A80               	xorlw	128
  3887  039D  0227               	subwf	??_pad,w
  3888  039E  1D03               	skipz
  3889  039F  2BA2               	goto	u1285
  3890  03A0  082A               	movf	pad@w,w
  3891  03A1  0228               	subwf	pad@i,w
  3892  03A2                     u1285:
  3893  03A2  1C03               	skipc
  3894  03A3  2BA5               	goto	u1281
  3895  03A4  2BA6               	goto	u1280
  3896  03A5                     u1281:
  3897  03A5  2B87               	goto	l2489
  3898  03A6                     u1280:
  3899  03A6                     l1302:
  3900                           
  3901                           ;D:\program files\Microchip\xc8\v2.31\pic\sources\c99\common\doprnt.c: 90:     if (!(fla
      +                          gs & (1 << 0))) {
  3902  03A6  0141               	movlb	1	; select bank1
  3903  03A7  1843               	btfsc	_flags^(0+128),0
  3904  03A8  2BAA               	goto	u1291
  3905  03A9  2BAB               	goto	u1290
  3906  03AA                     u1291:
  3907  03AA  2BB4               	goto	l1303
  3908  03AB                     u1290:
  3909  03AB                     l2495:
  3910                           
  3911                           ;D:\program files\Microchip\xc8\v2.31\pic\sources\c99\common\doprnt.c: 91:         fputs
      +                          ((const char *)buf, fp);
  3912  03AB  0140               	movlb	0	; select bank0
  3913  03AC  082C               	movf	pad@fp,w
  3914  03AD  00A7               	movwf	??_pad
  3915  03AE  0827               	movf	??_pad,w
  3916  03AF  00FA               	movwf	fputs@fp
  3917  03B0  0824               	movf	pad@buf,w
  3918  03B1  3181  21F6  3183   	fcall	_fputs
  3919  03B4                     l1303:	
  3920                           ;D:\program files\Microchip\xc8\v2.31\pic\sources\c99\common\doprnt.c: 92:     }
  3921                           
  3922                           
  3923                           ;D:\program files\Microchip\xc8\v2.31\pic\sources\c99\common\doprnt.c: 94:     return (i
      +                          nt)(strlen(buf) + (size_t)w);
  3924  03B4  0140               	movlb	0	; select bank0
  3925  03B5  0824               	movf	pad@buf,w
  3926  03B6  3181  217B  3183   	fcall	_strlen
  3927  03B9  0140               	movlb	0	; select bank0
  3928  03BA  082A               	movf	pad@w,w
  3929  03BB  0770               	addwf	?_strlen,w
  3930  03BC  00A4               	movwf	?_pad
  3931  03BD  082B               	movf	pad@w+1,w
  3932  03BE  3D71               	addwfc	?_strlen+1,w
  3933  03BF  00A5               	movwf	?_pad+1
  3934  03C0                     l1304:
  3935  03C0  0008               	return
  3936  03C1                     __end_of_pad:
  3937                           
  3938                           	psect	text6
  3939  017B                     __ptext6:	
  3940 ;; *************** function _strlen *****************
  3941 ;; Defined at:
  3942 ;;		line 5 in file "D:\program files\Microchip\xc8\v2.31\pic\sources\c99\common\strlen.c"
  3943 ;; Parameters:    Size  Location     Type
  3944 ;;  s               1    wreg     PTR const unsigned char 
  3945 ;;		 -> dbuf(32), 
  3946 ;; Auto vars:     Size  Location     Type
  3947 ;;  s               1    4[COMMON] PTR const unsigned char 
  3948 ;;		 -> dbuf(32), 
  3949 ;;  a               1    3[COMMON] PTR const unsigned char 
  3950 ;;		 -> dbuf(32), 
  3951 ;; Return value:  Size  Location     Type
  3952 ;;                  2    0[COMMON] unsigned int 
  3953 ;; Registers used:
  3954 ;;		wreg, fsr1l, fsr1h, status,2, status,0
  3955 ;; Tracked objects:
  3956 ;;		On entry : 0/0
  3957 ;;		On exit  : 0/0
  3958 ;;		Unchanged: 0/0
  3959 ;; Data sizes:     COMMON   BANK0   BANK1   BANK2   BANK3   BANK4   BANK5   BANK6   BANK7   BANK8   BANK9  BANK10  BANK1
      +1  BANK12  BANK13  BANK14  BANK15  BANK16  BANK17  BANK18  BANK19  BANK20  BANK21  BANK22  BANK23  BANK24  BANK25
  3960 ;;      Params:         2       0       0       0       0       0       0       0       0       0       0       0       
      +0       0       0       0       0       0       0       0       0       0       0       0       0       0       0
  3961 ;;      Locals:         2       0       0       0       0       0       0       0       0       0       0       0       
      +0       0       0       0       0       0       0       0       0       0       0       0       0       0       0
  3962 ;;      Temps:          1       0       0       0       0       0       0       0       0       0       0       0       
      +0       0       0       0       0       0       0       0       0       0       0       0       0       0       0
  3963 ;;      Totals:         5       0       0       0       0       0       0       0       0       0       0       0       
      +0       0       0       0       0       0       0       0       0       0       0       0       0       0       0
  3964 ;;Total ram usage:        5 bytes
  3965 ;; Hardware stack levels used:    1
  3966 ;; This function calls:
  3967 ;;		Nothing
  3968 ;; This function is called by:
  3969 ;;		_pad
  3970 ;; This function uses a non-reentrant model
  3971 ;;
  3972                           
  3973                           
  3974                           ;psect for function _strlen
  3975  017B                     _strlen:
  3976                           
  3977                           ;incstack = 0
  3978                           ; Regs used in _strlen: [wreg+fsr1l+fsr1h+status,2+status,0]
  3979                           ;strlen@s stored from wreg
  3980  017B  00F4               	movwf	strlen@s
  3981  017C                     l2401:
  3982  017C  0874               	movf	strlen@s,w
  3983  017D  00F2               	movwf	??_strlen
  3984  017E  0872               	movf	??_strlen,w
  3985  017F  00F3               	movwf	strlen@a
  3986  0180  2985               	goto	l2405
  3987  0181                     l2403:
  3988  0181  3001               	movlw	1
  3989  0182  00F2               	movwf	??_strlen
  3990  0183  0872               	movf	??_strlen,w
  3991  0184  07F4               	addwf	strlen@s,f
  3992  0185                     l2405:
  3993  0185  0874               	movf	strlen@s,w
  3994  0186  0086               	movwf	6
  3995  0187  0187               	clrf	7
  3996  0188  0801               	movf	1,w
  3997  0189  1D03               	btfss	3,2
  3998  018A  298C               	goto	u1041
  3999  018B  298D               	goto	u1040
  4000  018C                     u1041:
  4001  018C  2981               	goto	l2403
  4002  018D                     u1040:
  4003  018D                     l2407:
  4004  018D  0873               	movf	strlen@a,w
  4005  018E  0274               	subwf	strlen@s,w
  4006  018F  00F0               	movwf	?_strlen
  4007  0190  01F1               	clrf	?_strlen+1
  4008  0191  1BF0               	btfsc	?_strlen,7
  4009  0192  03F1               	decf	?_strlen+1,f
  4010  0193                     l1377:
  4011  0193  0008               	return
  4012  0194                     __end_of_strlen:
  4013                           
  4014                           	psect	text7
  4015  01F6                     __ptext7:	
  4016 ;; *************** function _fputs *****************
  4017 ;; Defined at:
  4018 ;;		line 8 in file "D:\program files\Microchip\xc8\v2.31\pic\sources\c99\common\nf_fputs.c"
  4019 ;; Parameters:    Size  Location     Type
  4020 ;;  s               1    wreg     PTR const unsigned char 
  4021 ;;		 -> dbuf(32), 
  4022 ;;  fp              1   10[COMMON] PTR struct _IO_FILE
  4023 ;;		 -> NULL(0), 
  4024 ;; Auto vars:     Size  Location     Type
  4025 ;;  s               1    3[BANK0 ] PTR const unsigned char 
  4026 ;;		 -> dbuf(32), 
  4027 ;;  i               2    1[BANK0 ] int 
  4028 ;;  c               1    0[BANK0 ] unsigned char 
  4029 ;; Return value:  Size  Location     Type
  4030 ;;                  2   10[COMMON] int 
  4031 ;; Registers used:
  4032 ;;		wreg, fsr1l, fsr1h, status,2, status,0, pclath, cstack
  4033 ;; Tracked objects:
  4034 ;;		On entry : 0/0
  4035 ;;		On exit  : 0/0
  4036 ;;		Unchanged: 0/0
  4037 ;; Data sizes:     COMMON   BANK0   BANK1   BANK2   BANK3   BANK4   BANK5   BANK6   BANK7   BANK8   BANK9  BANK10  BANK1
      +1  BANK12  BANK13  BANK14  BANK15  BANK16  BANK17  BANK18  BANK19  BANK20  BANK21  BANK22  BANK23  BANK24  BANK25
  4038 ;;      Params:         1       0       0       0       0       0       0       0       0       0       0       0       
      +0       0       0       0       0       0       0       0       0       0       0       0       0       0       0
  4039 ;;      Locals:         0       4       0       0       0       0       0       0       0       0       0       0       
      +0       0       0       0       0       0       0       0       0       0       0       0       0       0       0
  4040 ;;      Temps:          3       0       0       0       0       0       0       0       0       0       0       0       
      +0       0       0       0       0       0       0       0       0       0       0       0       0       0       0
  4041 ;;      Totals:         4       4       0       0       0       0       0       0       0       0       0       0       
      +0       0       0       0       0       0       0       0       0       0       0       0       0       0       0
  4042 ;;Total ram usage:        8 bytes
  4043 ;; Hardware stack levels used:    1
  4044 ;; Hardware stack levels required when called:    3
  4045 ;; This function calls:
  4046 ;;		_fputc
  4047 ;; This function is called by:
  4048 ;;		_pad
  4049 ;; This function uses a non-reentrant model
  4050 ;;
  4051                           
  4052                           
  4053                           ;psect for function _fputs
  4054  01F6                     _fputs:
  4055                           
  4056                           ;incstack = 0
  4057                           ; Regs used in _fputs: [wreg+fsr1l+fsr1h+status,2+status,0+pclath+cstack]
  4058                           ;fputs@s stored from wreg
  4059  01F6  0140               	movlb	0	; select bank0
  4060  01F7  00A3               	movwf	fputs@s
  4061  01F8                     l2393:
  4062  01F8  01A1               	clrf	fputs@i
  4063  01F9  01A2               	clrf	fputs@i+1
  4064  01FA  2A0E               	goto	l2399
  4065  01FB                     l2395:
  4066  01FB  0820               	movf	fputs@c,w
  4067  01FC  00FB               	movwf	??_fputs
  4068  01FD  01FC               	clrf	??_fputs+1
  4069  01FE  087B               	movf	??_fputs,w
  4070  01FF  00F2               	movwf	fputc@c
  4071  0200  087C               	movf	??_fputs+1,w
  4072  0201  00F3               	movwf	fputc@c+1
  4073  0202  087A               	movf	fputs@fp,w
  4074  0203  00FD               	movwf	??_fputs+2
  4075  0204  087D               	movf	??_fputs+2,w
  4076  0205  00F4               	movwf	fputc@fp
  4077  0206  3182  224F  3181   	fcall	_fputc
  4078  0209                     l2397:
  4079  0209  3001               	movlw	1
  4080  020A  0140               	movlb	0	; select bank0
  4081  020B  07A1               	addwf	fputs@i,f
  4082  020C  3000               	movlw	0
  4083  020D  3DA2               	addwfc	fputs@i+1,f
  4084  020E                     l2399:
  4085  020E  0821               	movf	fputs@i,w
  4086  020F  0723               	addwf	fputs@s,w
  4087  0210  00FB               	movwf	??_fputs
  4088  0211  087B               	movf	??_fputs,w
  4089  0212  0086               	movwf	6
  4090  0213  0187               	clrf	7
  4091  0214  0801               	movf	1,w
  4092  0215  00FC               	movwf	??_fputs+1
  4093  0216  087C               	movf	??_fputs+1,w
  4094  0217  00A0               	movwf	fputs@c
  4095  0218  0820               	movf	fputs@c,w
  4096  0219  1D03               	btfss	3,2
  4097  021A  2A1C               	goto	u1031
  4098  021B  2A1D               	goto	u1030
  4099  021C                     u1031:
  4100  021C  29FB               	goto	l2395
  4101  021D                     u1030:
  4102  021D                     l1371:
  4103  021D  0008               	return
  4104  021E                     __end_of_fputs:
  4105                           
  4106                           	psect	text8
  4107  024F                     __ptext8:	
  4108 ;; *************** function _fputc *****************
  4109 ;; Defined at:
  4110 ;;		line 8 in file "D:\program files\Microchip\xc8\v2.31\pic\sources\c99\common\nf_fputc.c"
  4111 ;; Parameters:    Size  Location     Type
  4112 ;;  c               2    2[COMMON] int 
  4113 ;;  fp              1    4[COMMON] PTR struct _IO_FILE
  4114 ;;		 -> NULL(0), 
  4115 ;; Auto vars:     Size  Location     Type
  4116 ;;		None
  4117 ;; Return value:  Size  Location     Type
  4118 ;;                  2    2[COMMON] int 
  4119 ;; Registers used:
  4120 ;;		wreg, fsr1l, fsr1h, status,2, status,0, pclath, cstack
  4121 ;; Tracked objects:
  4122 ;;		On entry : 0/0
  4123 ;;		On exit  : 0/0
  4124 ;;		Unchanged: 0/0
  4125 ;; Data sizes:     COMMON   BANK0   BANK1   BANK2   BANK3   BANK4   BANK5   BANK6   BANK7   BANK8   BANK9  BANK10  BANK1
      +1  BANK12  BANK13  BANK14  BANK15  BANK16  BANK17  BANK18  BANK19  BANK20  BANK21  BANK22  BANK23  BANK24  BANK25
  4126 ;;      Params:         3       0       0       0       0       0       0       0       0       0       0       0       
      +0       0       0       0       0       0       0       0       0       0       0       0       0       0       0
  4127 ;;      Locals:         0       0       0       0       0       0       0       0       0       0       0       0       
      +0       0       0       0       0       0       0       0       0       0       0       0       0       0       0
  4128 ;;      Temps:          5       0       0       0       0       0       0       0       0       0       0       0       
      +0       0       0       0       0       0       0       0       0       0       0       0       0       0       0
  4129 ;;      Totals:         8       0       0       0       0       0       0       0       0       0       0       0       
      +0       0       0       0       0       0       0       0       0       0       0       0       0       0       0
  4130 ;;Total ram usage:        8 bytes
  4131 ;; Hardware stack levels used:    1
  4132 ;; Hardware stack levels required when called:    2
  4133 ;; This function calls:
  4134 ;;		_putch
  4135 ;; This function is called by:
  4136 ;;		_pad
  4137 ;;		_vfpfcnvrt
  4138 ;;		_fputs
  4139 ;; This function uses a non-reentrant model
  4140 ;;
  4141                           
  4142                           
  4143                           ;psect for function _fputc
  4144  024F                     _fputc:
  4145  024F                     l2379:	
  4146                           ;incstack = 0
  4147                           ; Regs used in _fputc: [wreg+fsr1l+fsr1h+status,2+status,0+pclath+cstack]
  4148                           
  4149  024F  0874               	movf	fputc@fp,w
  4150  0250  1903               	btfsc	3,2
  4151  0251  2A53               	goto	u991
  4152  0252  2A54               	goto	u990
  4153  0253                     u991:
  4154  0253  2A59               	goto	l2383
  4155  0254                     u990:
  4156  0254                     l2381:
  4157  0254  0874               	movf	fputc@fp,w
  4158  0255  1D03               	btfss	3,2
  4159  0256  2A58               	goto	u1001
  4160  0257  2A59               	goto	u1000
  4161  0258                     u1001:
  4162  0258  2A5E               	goto	l2385
  4163  0259                     u1000:
  4164  0259                     l2383:
  4165  0259  0872               	movf	fputc@c,w
  4166  025A  3180  20DD  3182   	fcall	_putch
  4167  025D  2A8D               	goto	l1363
  4168  025E                     l2385:
  4169  025E  0874               	movf	fputc@fp,w
  4170  025F  3E03               	addlw	3
  4171  0260  0086               	movwf	6
  4172  0261  0187               	clrf	7
  4173  0262  0016               	moviw fsr1++
  4174  0263  0401               	iorwf	1,w
  4175  0264  1903               	btfsc	3,2
  4176  0265  2A67               	goto	u1011
  4177  0266  2A68               	goto	u1010
  4178  0267                     u1011:
  4179  0267  2A85               	goto	l2389
  4180  0268                     u1010:
  4181  0268                     l2387:
  4182  0268  0874               	movf	fputc@fp,w
  4183  0269  3E03               	addlw	3
  4184  026A  0086               	movwf	6
  4185  026B  0187               	clrf	7
  4186  026C  3F40               	moviw [0]fsr1
  4187  026D  00F5               	movwf	??_fputc
  4188  026E  3F41               	moviw [1]fsr1
  4189  026F  00F6               	movwf	??_fputc+1
  4190  0270  0A74               	incf	fputc@fp,w
  4191  0271  0086               	movwf	6
  4192  0272  0187               	clrf	7
  4193  0273  3F40               	moviw [0]fsr1
  4194  0274  00F7               	movwf	??_fputc+2
  4195  0275  3F41               	moviw [1]fsr1
  4196  0276  00F8               	movwf	??_fputc+3
  4197  0277  0878               	movf	??_fputc+3,w
  4198  0278  3A80               	xorlw	128
  4199  0279  00F9               	movwf	??_fputc+4
  4200  027A  0876               	movf	??_fputc+1,w
  4201  027B  3A80               	xorlw	128
  4202  027C  0279               	subwf	??_fputc+4,w
  4203  027D  1D03               	skipz
  4204  027E  2A81               	goto	u1025
  4205  027F  0875               	movf	??_fputc,w
  4206  0280  0277               	subwf	??_fputc+2,w
  4207  0281                     u1025:
  4208  0281  1803               	skipnc
  4209  0282  2A84               	goto	u1021
  4210  0283  2A85               	goto	u1020
  4211  0284                     u1021:
  4212  0284  2A8D               	goto	l1363
  4213  0285                     u1020:
  4214  0285                     l2389:
  4215  0285  0A74               	incf	fputc@fp,w
  4216  0286  0086               	movwf	6
  4217  0287  0187               	clrf	7
  4218  0288  3001               	movlw	1
  4219  0289  0781               	addwf	1,f
  4220  028A  3141               	addfsr 1,1
  4221  028B  1803               	skipnc
  4222  028C  0A81               	incf	1,f
  4223  028D                     l1363:
  4224  028D  0008               	return
  4225  028E                     __end_of_fputc:
  4226                           
  4227                           	psect	text9
  4228  00DD                     __ptext9:	
  4229 ;; *************** function _putch *****************
  4230 ;; Defined at:
  4231 ;;		line 146 in file "mcc_generated_files/eusart1.c"
  4232 ;; Parameters:    Size  Location     Type
  4233 ;;  txData          1    wreg     unsigned char 
  4234 ;; Auto vars:     Size  Location     Type
  4235 ;;  txData          1    1[COMMON] unsigned char 
  4236 ;; Return value:  Size  Location     Type
  4237 ;;                  1    wreg      void 
  4238 ;; Registers used:
  4239 ;;		wreg, status,2, status,0, pclath, cstack
  4240 ;; Tracked objects:
  4241 ;;		On entry : 0/0
  4242 ;;		On exit  : 0/0
  4243 ;;		Unchanged: 0/0
  4244 ;; Data sizes:     COMMON   BANK0   BANK1   BANK2   BANK3   BANK4   BANK5   BANK6   BANK7   BANK8   BANK9  BANK10  BANK1
      +1  BANK12  BANK13  BANK14  BANK15  BANK16  BANK17  BANK18  BANK19  BANK20  BANK21  BANK22  BANK23  BANK24  BANK25
  4245 ;;      Params:         0       0       0       0       0       0       0       0       0       0       0       0       
      +0       0       0       0       0       0       0       0       0       0       0       0       0       0       0
  4246 ;;      Locals:         1       0       0       0       0       0       0       0       0       0       0       0       
      +0       0       0       0       0       0       0       0       0       0       0       0       0       0       0
  4247 ;;      Temps:          0       0       0       0       0       0       0       0       0       0       0       0       
      +0       0       0       0       0       0       0       0       0       0       0       0       0       0       0
  4248 ;;      Totals:         1       0       0       0       0       0       0       0       0       0       0       0       
      +0       0       0       0       0       0       0       0       0       0       0       0       0       0       0
  4249 ;;Total ram usage:        1 bytes
  4250 ;; Hardware stack levels used:    1
  4251 ;; Hardware stack levels required when called:    1
  4252 ;; This function calls:
  4253 ;;		_EUSART1_Write
  4254 ;; This function is called by:
  4255 ;;		_fputc
  4256 ;; This function uses a non-reentrant model
  4257 ;;
  4258                           
  4259                           
  4260                           ;psect for function _putch
  4261  00DD                     _putch:
  4262                           
  4263                           ;incstack = 0
  4264                           ; Regs used in _putch: [wreg+status,2+status,0+pclath+cstack]
  4265                           ;putch@txData stored from wreg
  4266  00DD  00F1               	movwf	putch@txData
  4267  00DE                     l2377:
  4268                           
  4269                           ;mcc_generated_files/eusart1.c: 146: void putch(char txData);mcc_generated_files/eusart1
      +                          .c: 147: {;mcc_generated_files/eusart1.c: 148:     EUSART1_Write(txData);
  4270  00DE  0871               	movf	putch@txData,w
  4271  00DF  3181  2118  3180   	fcall	_EUSART1_Write
  4272  00E2                     l723:
  4273  00E2  0008               	return
  4274  00E3                     __end_of_putch:
  4275                           
  4276                           	psect	text10
  4277  0118                     __ptext10:	
  4278 ;; *************** function _EUSART1_Write *****************
  4279 ;; Defined at:
  4280 ;;		line 132 in file "mcc_generated_files/eusart1.c"
  4281 ;; Parameters:    Size  Location     Type
  4282 ;;  txData          1    wreg     unsigned char 
  4283 ;; Auto vars:     Size  Location     Type
  4284 ;;  txData          1    0[COMMON] unsigned char 
  4285 ;; Return value:  Size  Location     Type
  4286 ;;                  1    wreg      void 
  4287 ;; Registers used:
  4288 ;;		wreg
  4289 ;; Tracked objects:
  4290 ;;		On entry : 0/0
  4291 ;;		On exit  : 0/0
  4292 ;;		Unchanged: 0/0
  4293 ;; Data sizes:     COMMON   BANK0   BANK1   BANK2   BANK3   BANK4   BANK5   BANK6   BANK7   BANK8   BANK9  BANK10  BANK1
      +1  BANK12  BANK13  BANK14  BANK15  BANK16  BANK17  BANK18  BANK19  BANK20  BANK21  BANK22  BANK23  BANK24  BANK25
  4294 ;;      Params:         0       0       0       0       0       0       0       0       0       0       0       0       
      +0       0       0       0       0       0       0       0       0       0       0       0       0       0       0
  4295 ;;      Locals:         1       0       0       0       0       0       0       0       0       0       0       0       
      +0       0       0       0       0       0       0       0       0       0       0       0       0       0       0
  4296 ;;      Temps:          0       0       0       0       0       0       0       0       0       0       0       0       
      +0       0       0       0       0       0       0       0       0       0       0       0       0       0       0
  4297 ;;      Totals:         1       0       0       0       0       0       0       0       0       0       0       0       
      +0       0       0       0       0       0       0       0       0       0       0       0       0       0       0
  4298 ;;Total ram usage:        1 bytes
  4299 ;; Hardware stack levels used:    1
  4300 ;; This function calls:
  4301 ;;		Nothing
  4302 ;; This function is called by:
  4303 ;;		_putch
  4304 ;; This function uses a non-reentrant model
  4305 ;;
  4306                           
  4307                           
  4308                           ;psect for function _EUSART1_Write
  4309  0118                     _EUSART1_Write:
  4310                           
  4311                           ;incstack = 0
  4312                           ; Regs used in _EUSART1_Write: [wreg]
  4313                           ;EUSART1_Write@txData stored from wreg
  4314  0118  00F0               	movwf	EUSART1_Write@txData
  4315  0119                     l2373:
  4316  0119                     l714:	
  4317                           ;mcc_generated_files/eusart1.c: 135:     {;mcc_generated_files/eusart1.c: 136:     }
  4318                           
  4319                           
  4320                           ;mcc_generated_files/eusart1.c: 134:     while(0 == PIR3bits.TX1IF)
  4321  0119  014E               	movlb	14	; select bank14
  4322  011A  1E0F               	btfss	15,4	;volatile
  4323  011B  291D               	goto	u981
  4324  011C  291E               	goto	u980
  4325  011D                     u981:
  4326  011D  2919               	goto	l714
  4327  011E                     u980:
  4328  011E                     l2375:
  4329                           
  4330                           ;mcc_generated_files/eusart1.c: 138:     TX1REG = txData;
  4331  011E  0870               	movf	EUSART1_Write@txData,w
  4332  011F  0142               	movlb	2	; select bank2
  4333  0120  009A               	movwf	26	;volatile
  4334  0121                     l717:
  4335  0121  0008               	return
  4336  0122                     __end_of_EUSART1_Write:
  4337                           
  4338                           	psect	text11
  4339  0194                     __ptext11:	
  4340 ;; *************** function _abs *****************
  4341 ;; Defined at:
  4342 ;;		line 1 in file "D:\program files\Microchip\xc8\v2.31\pic\sources\c99\common\abs.c"
  4343 ;; Parameters:    Size  Location     Type
  4344 ;;  a               2    3[COMMON] int 
  4345 ;; Auto vars:     Size  Location     Type
  4346 ;;		None
  4347 ;; Return value:  Size  Location     Type
  4348 ;;                  2    3[COMMON] int 
  4349 ;; Registers used:
  4350 ;;		wreg, status,2, status,0
  4351 ;; Tracked objects:
  4352 ;;		On entry : 0/0
  4353 ;;		On exit  : 0/0
  4354 ;;		Unchanged: 0/0
  4355 ;; Data sizes:     COMMON   BANK0   BANK1   BANK2   BANK3   BANK4   BANK5   BANK6   BANK7   BANK8   BANK9  BANK10  BANK1
      +1  BANK12  BANK13  BANK14  BANK15  BANK16  BANK17  BANK18  BANK19  BANK20  BANK21  BANK22  BANK23  BANK24  BANK25
  4356 ;;      Params:         2       0       0       0       0       0       0       0       0       0       0       0       
      +0       0       0       0       0       0       0       0       0       0       0       0       0       0       0
  4357 ;;      Locals:         0       0       0       0       0       0       0       0       0       0       0       0       
      +0       0       0       0       0       0       0       0       0       0       0       0       0       0       0
  4358 ;;      Temps:          2       0       0       0       0       0       0       0       0       0       0       0       
      +0       0       0       0       0       0       0       0       0       0       0       0       0       0       0
  4359 ;;      Totals:         4       0       0       0       0       0       0       0       0       0       0       0       
      +0       0       0       0       0       0       0       0       0       0       0       0       0       0       0
  4360 ;;Total ram usage:        4 bytes
  4361 ;; Hardware stack levels used:    1
  4362 ;; This function calls:
  4363 ;;		Nothing
  4364 ;; This function is called by:
  4365 ;;		_dtoa
  4366 ;; This function uses a non-reentrant model
  4367 ;;
  4368                           
  4369                           
  4370                           ;psect for function _abs
  4371  0194                     _abs:
  4372  0194                     l2499:	
  4373                           ;incstack = 0
  4374                           ; Regs used in _abs: [wreg+status,2+status,0]
  4375                           
  4376  0194  0874               	movf	abs@a+1,w
  4377  0195  3A80               	xorlw	128
  4378  0196  00F5               	movwf	??_abs
  4379  0197  3080               	movlw	128
  4380  0198  0275               	subwf	??_abs,w
  4381  0199  1D03               	skipz
  4382  019A  299D               	goto	u1305
  4383  019B  3001               	movlw	1
  4384  019C  0273               	subwf	abs@a,w
  4385  019D                     u1305:
  4386  019D  1803               	skipnc
  4387  019E  29A0               	goto	u1301
  4388  019F  29A1               	goto	u1300
  4389  01A0                     u1301:
  4390  01A0  29AD               	goto	l1348
  4391  01A1                     u1300:
  4392  01A1                     l2501:
  4393  01A1  0973               	comf	abs@a,w
  4394  01A2  00F5               	movwf	??_abs
  4395  01A3  0974               	comf	abs@a+1,w
  4396  01A4  00F6               	movwf	??_abs+1
  4397  01A5  0AF5               	incf	??_abs,f
  4398  01A6  1903               	skipnz
  4399  01A7  0AF6               	incf	??_abs+1,f
  4400  01A8  0875               	movf	??_abs,w
  4401  01A9  00F3               	movwf	?_abs
  4402  01AA  0876               	movf	??_abs+1,w
  4403  01AB  00F4               	movwf	?_abs+1
  4404  01AC  29AD               	goto	l1351
  4405  01AD                     l1348:
  4406  01AD                     l1351:
  4407  01AD  0008               	return
  4408  01AE                     __end_of_abs:
  4409                           
  4410                           	psect	text12
  4411  049C                     __ptext12:	
  4412 ;; *************** function ___aomod *****************
  4413 ;; Defined at:
  4414 ;;		line 7 in file "D:\program files\Microchip\xc8\v2.31\pic\sources\c99\common\aomod.c"
  4415 ;; Parameters:    Size  Location     Type
  4416 ;;  divisor         8    0[BANK0 ] long long 
  4417 ;;  dividend        8    8[BANK0 ] long long 
  4418 ;; Auto vars:     Size  Location     Type
  4419 ;;  sign            1    2[COMMON] unsigned char 
  4420 ;;  counter         1    1[COMMON] unsigned char 
  4421 ;; Return value:  Size  Location     Type
  4422 ;;                  8    0[BANK0 ] long long 
  4423 ;; Registers used:
  4424 ;;		wreg, fsr1l, fsr1h, status,2, status,0
  4425 ;; Tracked objects:
  4426 ;;		On entry : 0/0
  4427 ;;		On exit  : 0/0
  4428 ;;		Unchanged: 0/0
  4429 ;; Data sizes:     COMMON   BANK0   BANK1   BANK2   BANK3   BANK4   BANK5   BANK6   BANK7   BANK8   BANK9  BANK10  BANK1
      +1  BANK12  BANK13  BANK14  BANK15  BANK16  BANK17  BANK18  BANK19  BANK20  BANK21  BANK22  BANK23  BANK24  BANK25
  4430 ;;      Params:         0      16       0       0       0       0       0       0       0       0       0       0       
      +0       0       0       0       0       0       0       0       0       0       0       0       0       0       0
  4431 ;;      Locals:         2       0       0       0       0       0       0       0       0       0       0       0       
      +0       0       0       0       0       0       0       0       0       0       0       0       0       0       0
  4432 ;;      Temps:          1       0       0       0       0       0       0       0       0       0       0       0       
      +0       0       0       0       0       0       0       0       0       0       0       0       0       0       0
  4433 ;;      Totals:         3      16       0       0       0       0       0       0       0       0       0       0       
      +0       0       0       0       0       0       0       0       0       0       0       0       0       0       0
  4434 ;;Total ram usage:       19 bytes
  4435 ;; Hardware stack levels used:    1
  4436 ;; This function calls:
  4437 ;;		Nothing
  4438 ;; This function is called by:
  4439 ;;		_dtoa
  4440 ;; This function uses a non-reentrant model
  4441 ;;
  4442                           
  4443                           
  4444                           ;psect for function ___aomod
  4445  049C                     ___aomod:
  4446  049C                     l2449:	
  4447                           ;incstack = 0
  4448                           ; Regs used in ___aomod: [wreg+fsr1l+fsr1h+status,2+status,0]
  4449                           
  4450  049C  01F2               	clrf	___aomod@sign
  4451  049D                     l2451:
  4452  049D  3028               	movlw	low ___aomod@dividend
  4453  049E  0086               	movwf	6
  4454  049F  3000               	movlw	high ___aomod@dividend
  4455  04A0  0087               	movwf	7
  4456  04A1  3F47               	moviw [7]fsr1
  4457  04A2  00F0               	movwf	??___aomod
  4458  04A3  1FF0               	btfss	??___aomod,7
  4459  04A4  2CA6               	goto	u1161
  4460  04A5  2CA7               	goto	u1160
  4461  04A6                     u1161:
  4462  04A6  2CC8               	goto	l2455
  4463  04A7                     u1160:
  4464  04A7                     l2453:
  4465  04A7  0140               	movlb	0	; select bank0
  4466  04A8  09A8               	comf	___aomod@dividend,f
  4467  04A9  09A9               	comf	___aomod@dividend+1,f
  4468  04AA  09AA               	comf	___aomod@dividend+2,f
  4469  04AB  09AB               	comf	___aomod@dividend+3,f
  4470  04AC  09AC               	comf	___aomod@dividend+4,f
  4471  04AD  09AD               	comf	___aomod@dividend+5,f
  4472  04AE  09AE               	comf	___aomod@dividend+6,f
  4473  04AF  09AF               	comf	___aomod@dividend+7,f
  4474  04B0  0AA8               	incf	___aomod@dividend,f
  4475  04B1  1D03               	skipz
  4476  04B2  2CC6               	goto	u117lld
  4477  04B3  0AA9               	incf	___aomod@dividend+1,f
  4478  04B4  1D03               	skipz
  4479  04B5  2CC6               	goto	u117lld
  4480  04B6  0AAA               	incf	___aomod@dividend+2,f
  4481  04B7  1D03               	skipz
  4482  04B8  2CC6               	goto	u117lld
  4483  04B9  0AAB               	incf	___aomod@dividend+3,f
  4484  04BA  1D03               	skipz
  4485  04BB  2CC6               	goto	u117lld
  4486  04BC  0AAC               	incf	___aomod@dividend+4,f
  4487  04BD  1D03               	skipz
  4488  04BE  2CC6               	goto	u117lld
  4489  04BF  0AAD               	incf	___aomod@dividend+5,f
  4490  04C0  1D03               	skipz
  4491  04C1  2CC6               	goto	u117lld
  4492  04C2  0AAE               	incf	___aomod@dividend+6,f
  4493  04C3  1D03               	skipz
  4494  04C4  2CC6               	goto	u117lld
  4495  04C5  0AAF               	incf	___aomod@dividend+7,f
  4496  04C6                     u117lld:
  4497  04C6  01F2               	clrf	___aomod@sign
  4498  04C7  0AF2               	incf	___aomod@sign,f
  4499  04C8                     l2455:
  4500  04C8  3020               	movlw	low ___aomod@divisor
  4501  04C9  0086               	movwf	6
  4502  04CA  3000               	movlw	high ___aomod@divisor
  4503  04CB  0087               	movwf	7
  4504  04CC  3F47               	moviw [7]fsr1
  4505  04CD  00F0               	movwf	??___aomod
  4506  04CE  1FF0               	btfss	??___aomod,7
  4507  04CF  2CD1               	goto	u1181
  4508  04D0  2CD2               	goto	u1180
  4509  04D1                     u1181:
  4510  04D1  2CF1               	goto	l2459
  4511  04D2                     u1180:
  4512  04D2                     l2457:
  4513  04D2  0140               	movlb	0	; select bank0
  4514  04D3  09A0               	comf	___aomod@divisor,f
  4515  04D4  09A1               	comf	___aomod@divisor+1,f
  4516  04D5  09A2               	comf	___aomod@divisor+2,f
  4517  04D6  09A3               	comf	___aomod@divisor+3,f
  4518  04D7  09A4               	comf	___aomod@divisor+4,f
  4519  04D8  09A5               	comf	___aomod@divisor+5,f
  4520  04D9  09A6               	comf	___aomod@divisor+6,f
  4521  04DA  09A7               	comf	___aomod@divisor+7,f
  4522  04DB  0AA0               	incf	___aomod@divisor,f
  4523  04DC  1D03               	skipz
  4524  04DD  2CF1               	goto	u119lld
  4525  04DE  0AA1               	incf	___aomod@divisor+1,f
  4526  04DF  1D03               	skipz
  4527  04E0  2CF1               	goto	u119lld
  4528  04E1  0AA2               	incf	___aomod@divisor+2,f
  4529  04E2  1D03               	skipz
  4530  04E3  2CF1               	goto	u119lld
  4531  04E4  0AA3               	incf	___aomod@divisor+3,f
  4532  04E5  1D03               	skipz
  4533  04E6  2CF1               	goto	u119lld
  4534  04E7  0AA4               	incf	___aomod@divisor+4,f
  4535  04E8  1D03               	skipz
  4536  04E9  2CF1               	goto	u119lld
  4537  04EA  0AA5               	incf	___aomod@divisor+5,f
  4538  04EB  1D03               	skipz
  4539  04EC  2CF1               	goto	u119lld
  4540  04ED  0AA6               	incf	___aomod@divisor+6,f
  4541  04EE  1D03               	skipz
  4542  04EF  2CF1               	goto	u119lld
  4543  04F0  0AA7               	incf	___aomod@divisor+7,f
  4544  04F1                     u119lld:
  4545  04F1                     l2459:
  4546  04F1  0140               	movlb	0	; select bank0
  4547  04F2  0820               	movf	___aomod@divisor,w
  4548  04F3  0421               	iorwf	___aomod@divisor+1,w
  4549  04F4  0422               	iorwf	___aomod@divisor+2,w
  4550  04F5  0423               	iorwf	___aomod@divisor+3,w
  4551  04F6  0424               	iorwf	___aomod@divisor+4,w
  4552  04F7  0425               	iorwf	___aomod@divisor+5,w
  4553  04F8  0426               	iorwf	___aomod@divisor+6,w
  4554  04F9  0427               	iorwf	___aomod@divisor+7,w
  4555  04FA  1903               	skipnz
  4556  04FB  2CFD               	goto	u1201
  4557  04FC  2CFE               	goto	u1200
  4558  04FD                     u1201:
  4559  04FD  2D51               	goto	l2475
  4560  04FE                     u1200:
  4561  04FE                     l2461:
  4562  04FE  01F1               	clrf	___aomod@counter
  4563  04FF  0AF1               	incf	___aomod@counter,f
  4564  0500  2D0D               	goto	l2467
  4565  0501                     l2463:
  4566  0501  35A0               	lslf	___aomod@divisor,f
  4567  0502  0DA1               	rlf	___aomod@divisor+1,f
  4568  0503  0DA2               	rlf	___aomod@divisor+2,f
  4569  0504  0DA3               	rlf	___aomod@divisor+3,f
  4570  0505  0DA4               	rlf	___aomod@divisor+4,f
  4571  0506  0DA5               	rlf	___aomod@divisor+5,f
  4572  0507  0DA6               	rlf	___aomod@divisor+6,f
  4573  0508  0DA7               	rlf	___aomod@divisor+7,f
  4574  0509                     l2465:
  4575  0509  3001               	movlw	1
  4576  050A  00F0               	movwf	??___aomod
  4577  050B  0870               	movf	??___aomod,w
  4578  050C  07F1               	addwf	___aomod@counter,f
  4579  050D                     l2467:
  4580  050D  1FA7               	btfss	___aomod@divisor+7,7
  4581  050E  2D10               	goto	u1211
  4582  050F  2D11               	goto	u1210
  4583  0510                     u1211:
  4584  0510  2D01               	goto	l2463
  4585  0511                     u1210:
  4586  0511                     l2469:
  4587  0511  0827               	movf	___aomod@divisor+7,w
  4588  0512  022F               	subwf	___aomod@dividend+7,w
  4589  0513  1D03               	skipz
  4590  0514  2D2F               	goto	u1225
  4591  0515  0826               	movf	___aomod@divisor+6,w
  4592  0516  022E               	subwf	___aomod@dividend+6,w
  4593  0517  1D03               	skipz
  4594  0518  2D2F               	goto	u1225
  4595  0519  0825               	movf	___aomod@divisor+5,w
  4596  051A  022D               	subwf	___aomod@dividend+5,w
  4597  051B  1D03               	skipz
  4598  051C  2D2F               	goto	u1225
  4599  051D  0824               	movf	___aomod@divisor+4,w
  4600  051E  022C               	subwf	___aomod@dividend+4,w
  4601  051F  1D03               	skipz
  4602  0520  2D2F               	goto	u1225
  4603  0521  0823               	movf	___aomod@divisor+3,w
  4604  0522  022B               	subwf	___aomod@dividend+3,w
  4605  0523  1D03               	skipz
  4606  0524  2D2F               	goto	u1225
  4607  0525  0822               	movf	___aomod@divisor+2,w
  4608  0526  022A               	subwf	___aomod@dividend+2,w
  4609  0527  1D03               	skipz
  4610  0528  2D2F               	goto	u1225
  4611  0529  0821               	movf	___aomod@divisor+1,w
  4612  052A  0229               	subwf	___aomod@dividend+1,w
  4613  052B  1D03               	skipz
  4614  052C  2D2F               	goto	u1225
  4615  052D  0820               	movf	___aomod@divisor,w
  4616  052E  0228               	subwf	___aomod@dividend,w
  4617  052F                     u1225:
  4618  052F  1C03               	skipc
  4619  0530  2D32               	goto	u1221
  4620  0531  2D33               	goto	u1220
  4621  0532                     u1221:
  4622  0532  2D43               	goto	l2473
  4623  0533                     u1220:
  4624  0533                     l2471:
  4625  0533  0820               	movf	___aomod@divisor,w
  4626  0534  02A8               	subwf	___aomod@dividend,f
  4627  0535  0821               	movf	___aomod@divisor+1,w
  4628  0536  3BA9               	subwfb	___aomod@dividend+1,f
  4629  0537  0822               	movf	___aomod@divisor+2,w
  4630  0538  3BAA               	subwfb	___aomod@dividend+2,f
  4631  0539  0823               	movf	___aomod@divisor+3,w
  4632  053A  3BAB               	subwfb	___aomod@dividend+3,f
  4633  053B  0824               	movf	___aomod@divisor+4,w
  4634  053C  3BAC               	subwfb	___aomod@dividend+4,f
  4635  053D  0825               	movf	___aomod@divisor+5,w
  4636  053E  3BAD               	subwfb	___aomod@dividend+5,f
  4637  053F  0826               	movf	___aomod@divisor+6,w
  4638  0540  3BAE               	subwfb	___aomod@dividend+6,f
  4639  0541  0827               	movf	___aomod@divisor+7,w
  4640  0542  3BAF               	subwfb	___aomod@dividend+7,f
  4641  0543                     l2473:
  4642  0543  36A7               	lsrf	___aomod@divisor+7,f
  4643  0544  0CA6               	rrf	___aomod@divisor+6,f
  4644  0545  0CA5               	rrf	___aomod@divisor+5,f
  4645  0546  0CA4               	rrf	___aomod@divisor+4,f
  4646  0547  0CA3               	rrf	___aomod@divisor+3,f
  4647  0548  0CA2               	rrf	___aomod@divisor+2,f
  4648  0549  0CA1               	rrf	___aomod@divisor+1,f
  4649  054A  0CA0               	rrf	___aomod@divisor,f
  4650  054B  3001               	movlw	1
  4651  054C  02F1               	subwf	___aomod@counter,f
  4652  054D  1D03               	btfss	3,2
  4653  054E  2D50               	goto	u1231
  4654  054F  2D51               	goto	u1230
  4655  0550                     u1231:
  4656  0550  2D11               	goto	l2469
  4657  0551                     u1230:
  4658  0551                     l2475:
  4659  0551  0872               	movf	___aomod@sign,w
  4660  0552  1903               	btfsc	3,2
  4661  0553  2D55               	goto	u1241
  4662  0554  2D56               	goto	u1240
  4663  0555                     u1241:
  4664  0555  2D74               	goto	l922
  4665  0556                     u1240:
  4666  0556                     l2477:
  4667  0556  09A8               	comf	___aomod@dividend,f
  4668  0557  09A9               	comf	___aomod@dividend+1,f
  4669  0558  09AA               	comf	___aomod@dividend+2,f
  4670  0559  09AB               	comf	___aomod@dividend+3,f
  4671  055A  09AC               	comf	___aomod@dividend+4,f
  4672  055B  09AD               	comf	___aomod@dividend+5,f
  4673  055C  09AE               	comf	___aomod@dividend+6,f
  4674  055D  09AF               	comf	___aomod@dividend+7,f
  4675  055E  0AA8               	incf	___aomod@dividend,f
  4676  055F  1D03               	skipz
  4677  0560  2D74               	goto	u125lld
  4678  0561  0AA9               	incf	___aomod@dividend+1,f
  4679  0562  1D03               	skipz
  4680  0563  2D74               	goto	u125lld
  4681  0564  0AAA               	incf	___aomod@dividend+2,f
  4682  0565  1D03               	skipz
  4683  0566  2D74               	goto	u125lld
  4684  0567  0AAB               	incf	___aomod@dividend+3,f
  4685  0568  1D03               	skipz
  4686  0569  2D74               	goto	u125lld
  4687  056A  0AAC               	incf	___aomod@dividend+4,f
  4688  056B  1D03               	skipz
  4689  056C  2D74               	goto	u125lld
  4690  056D  0AAD               	incf	___aomod@dividend+5,f
  4691  056E  1D03               	skipz
  4692  056F  2D74               	goto	u125lld
  4693  0570  0AAE               	incf	___aomod@dividend+6,f
  4694  0571  1D03               	skipz
  4695  0572  2D74               	goto	u125lld
  4696  0573  0AAF               	incf	___aomod@dividend+7,f
  4697  0574                     u125lld:
  4698  0574                     l922:
  4699  0574  0140               	movlb	0	; select bank0
  4700  0575  0828               	movf	___aomod@dividend,w
  4701  0576  00A0               	movwf	?___aomod
  4702  0577  0829               	movf	___aomod@dividend+1,w
  4703  0578  00A1               	movwf	?___aomod+1
  4704  0579  082A               	movf	___aomod@dividend+2,w
  4705  057A  00A2               	movwf	?___aomod+2
  4706  057B  082B               	movf	___aomod@dividend+3,w
  4707  057C  00A3               	movwf	?___aomod+3
  4708  057D  082C               	movf	___aomod@dividend+4,w
  4709  057E  00A4               	movwf	?___aomod+4
  4710  057F  082D               	movf	___aomod@dividend+5,w
  4711  0580  00A5               	movwf	?___aomod+5
  4712  0581  082E               	movf	___aomod@dividend+6,w
  4713  0582  00A6               	movwf	?___aomod+6
  4714  0583  082F               	movf	___aomod@dividend+7,w
  4715  0584  00A7               	movwf	?___aomod+7
  4716  0585                     l923:
  4717  0585  0008               	return
  4718  0586                     __end_of___aomod:
  4719                           
  4720                           	psect	text13
  4721  0586                     __ptext13:	
  4722 ;; *************** function ___aodiv *****************
  4723 ;; Defined at:
  4724 ;;		line 7 in file "D:\program files\Microchip\xc8\v2.31\pic\sources\c99\common\aodiv.c"
  4725 ;; Parameters:    Size  Location     Type
  4726 ;;  divisor         8    0[BANK0 ] long long 
  4727 ;;  dividend        8    8[BANK0 ] long long 
  4728 ;; Auto vars:     Size  Location     Type
  4729 ;;  quotient        8    3[COMMON] long long 
  4730 ;;  sign            1    2[COMMON] unsigned char 
  4731 ;;  counter         1    1[COMMON] unsigned char 
  4732 ;; Return value:  Size  Location     Type
  4733 ;;                  8    0[BANK0 ] long long 
  4734 ;; Registers used:
  4735 ;;		wreg, fsr1l, fsr1h, status,2, status,0
  4736 ;; Tracked objects:
  4737 ;;		On entry : 0/0
  4738 ;;		On exit  : 0/0
  4739 ;;		Unchanged: 0/0
  4740 ;; Data sizes:     COMMON   BANK0   BANK1   BANK2   BANK3   BANK4   BANK5   BANK6   BANK7   BANK8   BANK9  BANK10  BANK1
      +1  BANK12  BANK13  BANK14  BANK15  BANK16  BANK17  BANK18  BANK19  BANK20  BANK21  BANK22  BANK23  BANK24  BANK25
  4741 ;;      Params:         0      16       0       0       0       0       0       0       0       0       0       0       
      +0       0       0       0       0       0       0       0       0       0       0       0       0       0       0
  4742 ;;      Locals:        10       0       0       0       0       0       0       0       0       0       0       0       
      +0       0       0       0       0       0       0       0       0       0       0       0       0       0       0
  4743 ;;      Temps:          1       0       0       0       0       0       0       0       0       0       0       0       
      +0       0       0       0       0       0       0       0       0       0       0       0       0       0       0
  4744 ;;      Totals:        11      16       0       0       0       0       0       0       0       0       0       0       
      +0       0       0       0       0       0       0       0       0       0       0       0       0       0       0
  4745 ;;Total ram usage:       27 bytes
  4746 ;; Hardware stack levels used:    1
  4747 ;; This function calls:
  4748 ;;		Nothing
  4749 ;; This function is called by:
  4750 ;;		_dtoa
  4751 ;; This function uses a non-reentrant model
  4752 ;;
  4753                           
  4754                           
  4755                           ;psect for function ___aodiv
  4756  0586                     ___aodiv:
  4757  0586                     l2411:	
  4758                           ;incstack = 0
  4759                           ; Regs used in ___aodiv: [wreg+fsr1l+fsr1h+status,2+status,0]
  4760                           
  4761  0586  01F2               	clrf	___aodiv@sign
  4762  0587                     l2413:
  4763  0587  3020               	movlw	low ___aodiv@divisor
  4764  0588  0086               	movwf	6
  4765  0589  3000               	movlw	high ___aodiv@divisor
  4766  058A  0087               	movwf	7
  4767  058B  3F47               	moviw [7]fsr1
  4768  058C  00F0               	movwf	??___aodiv
  4769  058D  1FF0               	btfss	??___aodiv,7
  4770  058E  2D90               	goto	u1051
  4771  058F  2D91               	goto	u1050
  4772  0590                     u1051:
  4773  0590  2DB2               	goto	l2417
  4774  0591                     u1050:
  4775  0591                     l2415:
  4776  0591  0140               	movlb	0	; select bank0
  4777  0592  09A0               	comf	___aodiv@divisor,f
  4778  0593  09A1               	comf	___aodiv@divisor+1,f
  4779  0594  09A2               	comf	___aodiv@divisor+2,f
  4780  0595  09A3               	comf	___aodiv@divisor+3,f
  4781  0596  09A4               	comf	___aodiv@divisor+4,f
  4782  0597  09A5               	comf	___aodiv@divisor+5,f
  4783  0598  09A6               	comf	___aodiv@divisor+6,f
  4784  0599  09A7               	comf	___aodiv@divisor+7,f
  4785  059A  0AA0               	incf	___aodiv@divisor,f
  4786  059B  1D03               	skipz
  4787  059C  2DB0               	goto	u106lld
  4788  059D  0AA1               	incf	___aodiv@divisor+1,f
  4789  059E  1D03               	skipz
  4790  059F  2DB0               	goto	u106lld
  4791  05A0  0AA2               	incf	___aodiv@divisor+2,f
  4792  05A1  1D03               	skipz
  4793  05A2  2DB0               	goto	u106lld
  4794  05A3  0AA3               	incf	___aodiv@divisor+3,f
  4795  05A4  1D03               	skipz
  4796  05A5  2DB0               	goto	u106lld
  4797  05A6  0AA4               	incf	___aodiv@divisor+4,f
  4798  05A7  1D03               	skipz
  4799  05A8  2DB0               	goto	u106lld
  4800  05A9  0AA5               	incf	___aodiv@divisor+5,f
  4801  05AA  1D03               	skipz
  4802  05AB  2DB0               	goto	u106lld
  4803  05AC  0AA6               	incf	___aodiv@divisor+6,f
  4804  05AD  1D03               	skipz
  4805  05AE  2DB0               	goto	u106lld
  4806  05AF  0AA7               	incf	___aodiv@divisor+7,f
  4807  05B0                     u106lld:
  4808  05B0  01F2               	clrf	___aodiv@sign
  4809  05B1  0AF2               	incf	___aodiv@sign,f
  4810  05B2                     l2417:
  4811  05B2  3028               	movlw	low ___aodiv@dividend
  4812  05B3  0086               	movwf	6
  4813  05B4  3000               	movlw	high ___aodiv@dividend
  4814  05B5  0087               	movwf	7
  4815  05B6  3F47               	moviw [7]fsr1
  4816  05B7  00F0               	movwf	??___aodiv
  4817  05B8  1FF0               	btfss	??___aodiv,7
  4818  05B9  2DBB               	goto	u1071
  4819  05BA  2DBC               	goto	u1070
  4820  05BB                     u1071:
  4821  05BB  2DDF               	goto	l2423
  4822  05BC                     u1070:
  4823  05BC                     l2419:
  4824  05BC  0140               	movlb	0	; select bank0
  4825  05BD  09A8               	comf	___aodiv@dividend,f
  4826  05BE  09A9               	comf	___aodiv@dividend+1,f
  4827  05BF  09AA               	comf	___aodiv@dividend+2,f
  4828  05C0  09AB               	comf	___aodiv@dividend+3,f
  4829  05C1  09AC               	comf	___aodiv@dividend+4,f
  4830  05C2  09AD               	comf	___aodiv@dividend+5,f
  4831  05C3  09AE               	comf	___aodiv@dividend+6,f
  4832  05C4  09AF               	comf	___aodiv@dividend+7,f
  4833  05C5  0AA8               	incf	___aodiv@dividend,f
  4834  05C6  1D03               	skipz
  4835  05C7  2DDB               	goto	u108lld
  4836  05C8  0AA9               	incf	___aodiv@dividend+1,f
  4837  05C9  1D03               	skipz
  4838  05CA  2DDB               	goto	u108lld
  4839  05CB  0AAA               	incf	___aodiv@dividend+2,f
  4840  05CC  1D03               	skipz
  4841  05CD  2DDB               	goto	u108lld
  4842  05CE  0AAB               	incf	___aodiv@dividend+3,f
  4843  05CF  1D03               	skipz
  4844  05D0  2DDB               	goto	u108lld
  4845  05D1  0AAC               	incf	___aodiv@dividend+4,f
  4846  05D2  1D03               	skipz
  4847  05D3  2DDB               	goto	u108lld
  4848  05D4  0AAD               	incf	___aodiv@dividend+5,f
  4849  05D5  1D03               	skipz
  4850  05D6  2DDB               	goto	u108lld
  4851  05D7  0AAE               	incf	___aodiv@dividend+6,f
  4852  05D8  1D03               	skipz
  4853  05D9  2DDB               	goto	u108lld
  4854  05DA  0AAF               	incf	___aodiv@dividend+7,f
  4855  05DB                     u108lld:
  4856  05DB                     l2421:
  4857  05DB  3001               	movlw	1
  4858  05DC  00F0               	movwf	??___aodiv
  4859  05DD  0870               	movf	??___aodiv,w
  4860  05DE  06F2               	xorwf	___aodiv@sign,f
  4861  05DF                     l2423:
  4862  05DF  3073               	movlw	low ___aodiv@quotient
  4863  05E0  0086               	movwf	6
  4864  05E1  3000               	movlw	high ___aodiv@quotient
  4865  05E2  0087               	movwf	7
  4866  05E3  3008               	movlw	8
  4867  05E4  00F0               	movwf	??___aodiv
  4868  05E5  3000               	movlw	0
  4869  05E6                     u1090:
  4870  05E6  001E               	movwi fsr1++
  4871  05E7  0BF0               	decfsz	??___aodiv,f
  4872  05E8  2DE6               	goto	u1090
  4873  05E9                     l2425:
  4874  05E9  0140               	movlb	0	; select bank0
  4875  05EA  0820               	movf	___aodiv@divisor,w
  4876  05EB  0421               	iorwf	___aodiv@divisor+1,w
  4877  05EC  0422               	iorwf	___aodiv@divisor+2,w
  4878  05ED  0423               	iorwf	___aodiv@divisor+3,w
  4879  05EE  0424               	iorwf	___aodiv@divisor+4,w
  4880  05EF  0425               	iorwf	___aodiv@divisor+5,w
  4881  05F0  0426               	iorwf	___aodiv@divisor+6,w
  4882  05F1  0427               	iorwf	___aodiv@divisor+7,w
  4883  05F2  1903               	skipnz
  4884  05F3  2DF5               	goto	u1101
  4885  05F4  2DF6               	goto	u1100
  4886  05F5                     u1101:
  4887  05F5  2E52               	goto	l2445
  4888  05F6                     u1100:
  4889  05F6                     l2427:
  4890  05F6  01F1               	clrf	___aodiv@counter
  4891  05F7  0AF1               	incf	___aodiv@counter,f
  4892  05F8  2E05               	goto	l2433
  4893  05F9                     l2429:
  4894  05F9  35A0               	lslf	___aodiv@divisor,f
  4895  05FA  0DA1               	rlf	___aodiv@divisor+1,f
  4896  05FB  0DA2               	rlf	___aodiv@divisor+2,f
  4897  05FC  0DA3               	rlf	___aodiv@divisor+3,f
  4898  05FD  0DA4               	rlf	___aodiv@divisor+4,f
  4899  05FE  0DA5               	rlf	___aodiv@divisor+5,f
  4900  05FF  0DA6               	rlf	___aodiv@divisor+6,f
  4901  0600  0DA7               	rlf	___aodiv@divisor+7,f
  4902  0601                     l2431:
  4903  0601  3001               	movlw	1
  4904  0602  00F0               	movwf	??___aodiv
  4905  0603  0870               	movf	??___aodiv,w
  4906  0604  07F1               	addwf	___aodiv@counter,f
  4907  0605                     l2433:
  4908  0605  1FA7               	btfss	___aodiv@divisor+7,7
  4909  0606  2E08               	goto	u1111
  4910  0607  2E09               	goto	u1110
  4911  0608                     u1111:
  4912  0608  2DF9               	goto	l2429
  4913  0609                     u1110:
  4914  0609                     l2435:
  4915  0609  35F3               	lslf	___aodiv@quotient,f
  4916  060A  0DF4               	rlf	___aodiv@quotient+1,f
  4917  060B  0DF5               	rlf	___aodiv@quotient+2,f
  4918  060C  0DF6               	rlf	___aodiv@quotient+3,f
  4919  060D  0DF7               	rlf	___aodiv@quotient+4,f
  4920  060E  0DF8               	rlf	___aodiv@quotient+5,f
  4921  060F  0DF9               	rlf	___aodiv@quotient+6,f
  4922  0610  0DFA               	rlf	___aodiv@quotient+7,f
  4923  0611                     l2437:
  4924  0611  0827               	movf	___aodiv@divisor+7,w
  4925  0612  022F               	subwf	___aodiv@dividend+7,w
  4926  0613  1D03               	skipz
  4927  0614  2E2F               	goto	u1125
  4928  0615  0826               	movf	___aodiv@divisor+6,w
  4929  0616  022E               	subwf	___aodiv@dividend+6,w
  4930  0617  1D03               	skipz
  4931  0618  2E2F               	goto	u1125
  4932  0619  0825               	movf	___aodiv@divisor+5,w
  4933  061A  022D               	subwf	___aodiv@dividend+5,w
  4934  061B  1D03               	skipz
  4935  061C  2E2F               	goto	u1125
  4936  061D  0824               	movf	___aodiv@divisor+4,w
  4937  061E  022C               	subwf	___aodiv@dividend+4,w
  4938  061F  1D03               	skipz
  4939  0620  2E2F               	goto	u1125
  4940  0621  0823               	movf	___aodiv@divisor+3,w
  4941  0622  022B               	subwf	___aodiv@dividend+3,w
  4942  0623  1D03               	skipz
  4943  0624  2E2F               	goto	u1125
  4944  0625  0822               	movf	___aodiv@divisor+2,w
  4945  0626  022A               	subwf	___aodiv@dividend+2,w
  4946  0627  1D03               	skipz
  4947  0628  2E2F               	goto	u1125
  4948  0629  0821               	movf	___aodiv@divisor+1,w
  4949  062A  0229               	subwf	___aodiv@dividend+1,w
  4950  062B  1D03               	skipz
  4951  062C  2E2F               	goto	u1125
  4952  062D  0820               	movf	___aodiv@divisor,w
  4953  062E  0228               	subwf	___aodiv@dividend,w
  4954  062F                     u1125:
  4955  062F  1C03               	skipc
  4956  0630  2E32               	goto	u1121
  4957  0631  2E33               	goto	u1120
  4958  0632                     u1121:
  4959  0632  2E44               	goto	l2443
  4960  0633                     u1120:
  4961  0633                     l2439:
  4962  0633  0820               	movf	___aodiv@divisor,w
  4963  0634  02A8               	subwf	___aodiv@dividend,f
  4964  0635  0821               	movf	___aodiv@divisor+1,w
  4965  0636  3BA9               	subwfb	___aodiv@dividend+1,f
  4966  0637  0822               	movf	___aodiv@divisor+2,w
  4967  0638  3BAA               	subwfb	___aodiv@dividend+2,f
  4968  0639  0823               	movf	___aodiv@divisor+3,w
  4969  063A  3BAB               	subwfb	___aodiv@dividend+3,f
  4970  063B  0824               	movf	___aodiv@divisor+4,w
  4971  063C  3BAC               	subwfb	___aodiv@dividend+4,f
  4972  063D  0825               	movf	___aodiv@divisor+5,w
  4973  063E  3BAD               	subwfb	___aodiv@dividend+5,f
  4974  063F  0826               	movf	___aodiv@divisor+6,w
  4975  0640  3BAE               	subwfb	___aodiv@dividend+6,f
  4976  0641  0827               	movf	___aodiv@divisor+7,w
  4977  0642  3BAF               	subwfb	___aodiv@dividend+7,f
  4978  0643                     l2441:
  4979  0643  1473               	bsf	___aodiv@quotient,0
  4980  0644                     l2443:
  4981  0644  36A7               	lsrf	___aodiv@divisor+7,f
  4982  0645  0CA6               	rrf	___aodiv@divisor+6,f
  4983  0646  0CA5               	rrf	___aodiv@divisor+5,f
  4984  0647  0CA4               	rrf	___aodiv@divisor+4,f
  4985  0648  0CA3               	rrf	___aodiv@divisor+3,f
  4986  0649  0CA2               	rrf	___aodiv@divisor+2,f
  4987  064A  0CA1               	rrf	___aodiv@divisor+1,f
  4988  064B  0CA0               	rrf	___aodiv@divisor,f
  4989  064C  3001               	movlw	1
  4990  064D  02F1               	subwf	___aodiv@counter,f
  4991  064E  1D03               	btfss	3,2
  4992  064F  2E51               	goto	u1131
  4993  0650  2E52               	goto	u1130
  4994  0651                     u1131:
  4995  0651  2E09               	goto	l2435
  4996  0652                     u1130:
  4997  0652                     l2445:
  4998  0652  0872               	movf	___aodiv@sign,w
  4999  0653  1903               	btfsc	3,2
  5000  0654  2E56               	goto	u1141
  5001  0655  2E57               	goto	u1140
  5002  0656                     u1141:
  5003  0656  2E75               	goto	l909
  5004  0657                     u1140:
  5005  0657                     l2447:
  5006  0657  09F3               	comf	___aodiv@quotient,f
  5007  0658  09F4               	comf	___aodiv@quotient+1,f
  5008  0659  09F5               	comf	___aodiv@quotient+2,f
  5009  065A  09F6               	comf	___aodiv@quotient+3,f
  5010  065B  09F7               	comf	___aodiv@quotient+4,f
  5011  065C  09F8               	comf	___aodiv@quotient+5,f
  5012  065D  09F9               	comf	___aodiv@quotient+6,f
  5013  065E  09FA               	comf	___aodiv@quotient+7,f
  5014  065F  0AF3               	incf	___aodiv@quotient,f
  5015  0660  1D03               	skipz
  5016  0661  2E75               	goto	u115lld
  5017  0662  0AF4               	incf	___aodiv@quotient+1,f
  5018  0663  1D03               	skipz
  5019  0664  2E75               	goto	u115lld
  5020  0665  0AF5               	incf	___aodiv@quotient+2,f
  5021  0666  1D03               	skipz
  5022  0667  2E75               	goto	u115lld
  5023  0668  0AF6               	incf	___aodiv@quotient+3,f
  5024  0669  1D03               	skipz
  5025  066A  2E75               	goto	u115lld
  5026  066B  0AF7               	incf	___aodiv@quotient+4,f
  5027  066C  1D03               	skipz
  5028  066D  2E75               	goto	u115lld
  5029  066E  0AF8               	incf	___aodiv@quotient+5,f
  5030  066F  1D03               	skipz
  5031  0670  2E75               	goto	u115lld
  5032  0671  0AF9               	incf	___aodiv@quotient+6,f
  5033  0672  1D03               	skipz
  5034  0673  2E75               	goto	u115lld
  5035  0674  0AFA               	incf	___aodiv@quotient+7,f
  5036  0675                     u115lld:
  5037  0675                     l909:
  5038  0675  0873               	movf	___aodiv@quotient,w
  5039  0676  0140               	movlb	0	; select bank0
  5040  0677  00A0               	movwf	?___aodiv
  5041  0678  0874               	movf	___aodiv@quotient+1,w
  5042  0679  00A1               	movwf	?___aodiv+1
  5043  067A  0875               	movf	___aodiv@quotient+2,w
  5044  067B  00A2               	movwf	?___aodiv+2
  5045  067C  0876               	movf	___aodiv@quotient+3,w
  5046  067D  00A3               	movwf	?___aodiv+3
  5047  067E  0877               	movf	___aodiv@quotient+4,w
  5048  067F  00A4               	movwf	?___aodiv+4
  5049  0680  0878               	movf	___aodiv@quotient+5,w
  5050  0681  00A5               	movwf	?___aodiv+5
  5051  0682  0879               	movf	___aodiv@quotient+6,w
  5052  0683  00A6               	movwf	?___aodiv+6
  5053  0684  087A               	movf	___aodiv@quotient+7,w
  5054  0685  00A7               	movwf	?___aodiv+7
  5055  0686                     l910:
  5056  0686  0008               	return
  5057  0687                     __end_of___aodiv:
  5058                           
  5059                           	psect	text14
  5060  0147                     __ptext14:	
  5061 ;; *************** function _SYSTEM_Initialize *****************
  5062 ;; Defined at:
  5063 ;;		line 50 in file "mcc_generated_files/mcc.c"
  5064 ;; Parameters:    Size  Location     Type
  5065 ;;		None
  5066 ;; Auto vars:     Size  Location     Type
  5067 ;;		None
  5068 ;; Return value:  Size  Location     Type
  5069 ;;                  1    wreg      void 
  5070 ;; Registers used:
  5071 ;;		wreg, status,2, status,0, pclath, cstack
  5072 ;; Tracked objects:
  5073 ;;		On entry : 0/0
  5074 ;;		On exit  : 0/0
  5075 ;;		Unchanged: 0/0
  5076 ;; Data sizes:     COMMON   BANK0   BANK1   BANK2   BANK3   BANK4   BANK5   BANK6   BANK7   BANK8   BANK9  BANK10  BANK1
      +1  BANK12  BANK13  BANK14  BANK15  BANK16  BANK17  BANK18  BANK19  BANK20  BANK21  BANK22  BANK23  BANK24  BANK25
  5077 ;;      Params:         0       0       0       0       0       0       0       0       0       0       0       0       
      +0       0       0       0       0       0       0       0       0       0       0       0       0       0       0
  5078 ;;      Locals:         0       0       0       0       0       0       0       0       0       0       0       0       
      +0       0       0       0       0       0       0       0       0       0       0       0       0       0       0
  5079 ;;      Temps:          0       0       0       0       0       0       0       0       0       0       0       0       
      +0       0       0       0       0       0       0       0       0       0       0       0       0       0       0
  5080 ;;      Totals:         0       0       0       0       0       0       0       0       0       0       0       0       
      +0       0       0       0       0       0       0       0       0       0       0       0       0       0       0
  5081 ;;Total ram usage:        0 bytes
  5082 ;; Hardware stack levels used:    1
  5083 ;; Hardware stack levels required when called:    2
  5084 ;; This function calls:
  5085 ;;		_EUSART1_Initialize
  5086 ;;		_I2C1_Initialize
  5087 ;;		_OSCILLATOR_Initialize
  5088 ;;		_PIN_MANAGER_Initialize
  5089 ;;		_PMD_Initialize
  5090 ;; This function is called by:
  5091 ;;		_main
  5092 ;; This function uses a non-reentrant model
  5093 ;;
  5094                           
  5095                           
  5096                           ;psect for function _SYSTEM_Initialize
  5097  0147                     _SYSTEM_Initialize:
  5098  0147                     l2761:	
  5099                           ;incstack = 0
  5100                           ; Regs used in _SYSTEM_Initialize: [wreg+status,2+status,0+pclath+cstack]
  5101                           
  5102                           
  5103                           ;mcc_generated_files/mcc.c: 52:     PMD_Initialize();
  5104  0147  3180  20E9  3181   	fcall	_PMD_Initialize
  5105  014A                     l2763:
  5106                           
  5107                           ;mcc_generated_files/mcc.c: 53:     I2C1_Initialize();
  5108  014A  3180  20F1  3181   	fcall	_I2C1_Initialize
  5109  014D                     l2765:
  5110                           
  5111                           ;mcc_generated_files/mcc.c: 54:     PIN_MANAGER_Initialize();
  5112  014D  3182  22D1  3181   	fcall	_PIN_MANAGER_Initialize
  5113  0150                     l2767:
  5114                           
  5115                           ;mcc_generated_files/mcc.c: 55:     OSCILLATOR_Initialize();
  5116  0150  3181  210E  3181   	fcall	_OSCILLATOR_Initialize
  5117  0153                     l2769:
  5118                           
  5119                           ;mcc_generated_files/mcc.c: 56:     EUSART1_Initialize();
  5120  0153  3181  21AE  3181   	fcall	_EUSART1_Initialize
  5121  0156                     l139:
  5122  0156  0008               	return
  5123  0157                     __end_of_SYSTEM_Initialize:
  5124                           
  5125                           	psect	text15
  5126  00E9                     __ptext15:	
  5127 ;; *************** function _PMD_Initialize *****************
  5128 ;; Defined at:
  5129 ;;		line 75 in file "mcc_generated_files/mcc.c"
  5130 ;; Parameters:    Size  Location     Type
  5131 ;;		None
  5132 ;; Auto vars:     Size  Location     Type
  5133 ;;		None
  5134 ;; Return value:  Size  Location     Type
  5135 ;;                  1    wreg      void 
  5136 ;; Registers used:
  5137 ;;		status,2
  5138 ;; Tracked objects:
  5139 ;;		On entry : 0/0
  5140 ;;		On exit  : 0/0
  5141 ;;		Unchanged: 0/0
  5142 ;; Data sizes:     COMMON   BANK0   BANK1   BANK2   BANK3   BANK4   BANK5   BANK6   BANK7   BANK8   BANK9  BANK10  BANK1
      +1  BANK12  BANK13  BANK14  BANK15  BANK16  BANK17  BANK18  BANK19  BANK20  BANK21  BANK22  BANK23  BANK24  BANK25
  5143 ;;      Params:         0       0       0       0       0       0       0       0       0       0       0       0       
      +0       0       0       0       0       0       0       0       0       0       0       0       0       0       0
  5144 ;;      Locals:         0       0       0       0       0       0       0       0       0       0       0       0       
      +0       0       0       0       0       0       0       0       0       0       0       0       0       0       0
  5145 ;;      Temps:          0       0       0       0       0       0       0       0       0       0       0       0       
      +0       0       0       0       0       0       0       0       0       0       0       0       0       0       0
  5146 ;;      Totals:         0       0       0       0       0       0       0       0       0       0       0       0       
      +0       0       0       0       0       0       0       0       0       0       0       0       0       0       0
  5147 ;;Total ram usage:        0 bytes
  5148 ;; Hardware stack levels used:    1
  5149 ;; This function calls:
  5150 ;;		Nothing
  5151 ;; This function is called by:
  5152 ;;		_SYSTEM_Initialize
  5153 ;; This function uses a non-reentrant model
  5154 ;;
  5155                           
  5156                           
  5157                           ;psect for function _PMD_Initialize
  5158  00E9                     _PMD_Initialize:
  5159  00E9                     l2625:	
  5160                           ;incstack = 0
  5161                           ; Regs used in _PMD_Initialize: [status,2]
  5162                           
  5163                           
  5164                           ;mcc_generated_files/mcc.c: 78:     PMD0 = 0x00;
  5165  00E9  014F               	movlb	15	; select bank15
  5166  00EA  0196               	clrf	22	;volatile
  5167                           
  5168                           ;mcc_generated_files/mcc.c: 80:     PMD1 = 0x00;
  5169  00EB  0197               	clrf	23	;volatile
  5170                           
  5171                           ;mcc_generated_files/mcc.c: 82:     PMD2 = 0x00;
  5172  00EC  0198               	clrf	24	;volatile
  5173                           
  5174                           ;mcc_generated_files/mcc.c: 84:     PMD3 = 0x00;
  5175  00ED  0199               	clrf	25	;volatile
  5176                           
  5177                           ;mcc_generated_files/mcc.c: 86:     PMD4 = 0x00;
  5178  00EE  019A               	clrf	26	;volatile
  5179                           
  5180                           ;mcc_generated_files/mcc.c: 88:     PMD5 = 0x00;
  5181  00EF  019B               	clrf	27	;volatile
  5182  00F0                     l145:
  5183  00F0  0008               	return
  5184  00F1                     __end_of_PMD_Initialize:
  5185                           
  5186                           	psect	text16
  5187  02D1                     __ptext16:	
  5188 ;; *************** function _PIN_MANAGER_Initialize *****************
  5189 ;; Defined at:
  5190 ;;		line 55 in file "mcc_generated_files/pin_manager.c"
  5191 ;; Parameters:    Size  Location     Type
  5192 ;;		None
  5193 ;; Auto vars:     Size  Location     Type
  5194 ;;		None
  5195 ;; Return value:  Size  Location     Type
  5196 ;;                  1    wreg      void 
  5197 ;; Registers used:
  5198 ;;		wreg, status,2
  5199 ;; Tracked objects:
  5200 ;;		On entry : 0/0
  5201 ;;		On exit  : 0/0
  5202 ;;		Unchanged: 0/0
  5203 ;; Data sizes:     COMMON   BANK0   BANK1   BANK2   BANK3   BANK4   BANK5   BANK6   BANK7   BANK8   BANK9  BANK10  BANK1
      +1  BANK12  BANK13  BANK14  BANK15  BANK16  BANK17  BANK18  BANK19  BANK20  BANK21  BANK22  BANK23  BANK24  BANK25
  5204 ;;      Params:         0       0       0       0       0       0       0       0       0       0       0       0       
      +0       0       0       0       0       0       0       0       0       0       0       0       0       0       0
  5205 ;;      Locals:         0       0       0       0       0       0       0       0       0       0       0       0       
      +0       0       0       0       0       0       0       0       0       0       0       0       0       0       0
  5206 ;;      Temps:          0       0       0       0       0       0       0       0       0       0       0       0       
      +0       0       0       0       0       0       0       0       0       0       0       0       0       0       0
  5207 ;;      Totals:         0       0       0       0       0       0       0       0       0       0       0       0       
      +0       0       0       0       0       0       0       0       0       0       0       0       0       0       0
  5208 ;;Total ram usage:        0 bytes
  5209 ;; Hardware stack levels used:    1
  5210 ;; This function calls:
  5211 ;;		Nothing
  5212 ;; This function is called by:
  5213 ;;		_SYSTEM_Initialize
  5214 ;; This function uses a non-reentrant model
  5215 ;;
  5216                           
  5217                           
  5218                           ;psect for function _PIN_MANAGER_Initialize
  5219  02D1                     _PIN_MANAGER_Initialize:
  5220  02D1                     l2635:	
  5221                           ;incstack = 0
  5222                           ; Regs used in _PIN_MANAGER_Initialize: [wreg+status,2]
  5223                           
  5224                           
  5225                           ;mcc_generated_files/pin_manager.c: 60:     LATE = 0x00;
  5226  02D1  0140               	movlb	0	; select bank0
  5227  02D2  019C               	clrf	28	;volatile
  5228                           
  5229                           ;mcc_generated_files/pin_manager.c: 61:     LATD = 0x00;
  5230  02D3  019B               	clrf	27	;volatile
  5231                           
  5232                           ;mcc_generated_files/pin_manager.c: 62:     LATA = 0x00;
  5233  02D4  0198               	clrf	24	;volatile
  5234                           
  5235                           ;mcc_generated_files/pin_manager.c: 63:     LATB = 0x00;
  5236  02D5  0199               	clrf	25	;volatile
  5237                           
  5238                           ;mcc_generated_files/pin_manager.c: 64:     LATC = 0x00;
  5239  02D6  019A               	clrf	26	;volatile
  5240  02D7                     l2637:
  5241                           
  5242                           ;mcc_generated_files/pin_manager.c: 69:     TRISE = 0x0F;
  5243  02D7  300F               	movlw	15
  5244  02D8  0096               	movwf	22	;volatile
  5245  02D9                     l2639:
  5246                           
  5247                           ;mcc_generated_files/pin_manager.c: 70:     TRISA = 0xFF;
  5248  02D9  30FF               	movlw	255
  5249  02DA  0092               	movwf	18	;volatile
  5250  02DB                     l2641:
  5251                           
  5252                           ;mcc_generated_files/pin_manager.c: 71:     TRISB = 0xFF;
  5253  02DB  30FF               	movlw	255
  5254  02DC  0093               	movwf	19	;volatile
  5255  02DD                     l2643:
  5256                           
  5257                           ;mcc_generated_files/pin_manager.c: 72:     TRISC = 0xFA;
  5258  02DD  30FA               	movlw	250
  5259  02DE  0094               	movwf	20	;volatile
  5260  02DF                     l2645:
  5261                           
  5262                           ;mcc_generated_files/pin_manager.c: 73:     TRISD = 0xFF;
  5263  02DF  30FF               	movlw	255
  5264  02E0  0095               	movwf	21	;volatile
  5265  02E1                     l2647:
  5266                           
  5267                           ;mcc_generated_files/pin_manager.c: 78:     ANSELD = 0xFF;
  5268  02E1  30FF               	movlw	255
  5269  02E2  017E               	movlb	62	; select bank62
  5270  02E3  00D9               	movwf	89	;volatile
  5271  02E4                     l2649:
  5272                           
  5273                           ;mcc_generated_files/pin_manager.c: 79:     ANSELC = 0xAD;
  5274  02E4  30AD               	movlw	173
  5275  02E5  00CE               	movwf	78	;volatile
  5276  02E6                     l2651:
  5277                           
  5278                           ;mcc_generated_files/pin_manager.c: 80:     ANSELB = 0xFF;
  5279  02E6  30FF               	movlw	255
  5280  02E7  00C3               	movwf	67	;volatile
  5281  02E8                     l2653:
  5282                           
  5283                           ;mcc_generated_files/pin_manager.c: 81:     ANSELE = 0x07;
  5284  02E8  3007               	movlw	7
  5285  02E9  00E4               	movwf	100	;volatile
  5286  02EA                     l2655:
  5287                           
  5288                           ;mcc_generated_files/pin_manager.c: 82:     ANSELA = 0xFF;
  5289  02EA  30FF               	movlw	255
  5290  02EB  00B8               	movwf	56	;volatile
  5291                           
  5292                           ;mcc_generated_files/pin_manager.c: 87:     WPUD = 0x00;
  5293  02EC  01DA               	clrf	90	;volatile
  5294                           
  5295                           ;mcc_generated_files/pin_manager.c: 88:     WPUE = 0x00;
  5296  02ED  01E5               	clrf	101	;volatile
  5297                           
  5298                           ;mcc_generated_files/pin_manager.c: 89:     WPUB = 0x00;
  5299  02EE  01C4               	clrf	68	;volatile
  5300                           
  5301                           ;mcc_generated_files/pin_manager.c: 90:     WPUA = 0x00;
  5302  02EF  01B9               	clrf	57	;volatile
  5303  02F0                     l2657:
  5304                           
  5305                           ;mcc_generated_files/pin_manager.c: 91:     WPUC = 0x58;
  5306  02F0  3058               	movlw	88
  5307  02F1  00CF               	movwf	79	;volatile
  5308  02F2                     l2659:
  5309                           
  5310                           ;mcc_generated_files/pin_manager.c: 96:     ODCONE = 0x00;
  5311  02F2  01E6               	clrf	102	;volatile
  5312  02F3                     l2661:
  5313                           
  5314                           ;mcc_generated_files/pin_manager.c: 97:     ODCONA = 0x00;
  5315  02F3  01BA               	clrf	58	;volatile
  5316  02F4                     l2663:
  5317                           
  5318                           ;mcc_generated_files/pin_manager.c: 98:     ODCONB = 0x00;
  5319  02F4  01C5               	clrf	69	;volatile
  5320  02F5                     l2665:
  5321                           
  5322                           ;mcc_generated_files/pin_manager.c: 99:     ODCONC = 0x00;
  5323  02F5  01D0               	clrf	80	;volatile
  5324  02F6                     l2667:
  5325                           
  5326                           ;mcc_generated_files/pin_manager.c: 100:     ODCOND = 0x00;
  5327  02F6  01DB               	clrf	91	;volatile
  5328                           
  5329                           ;mcc_generated_files/pin_manager.c: 105:     SLRCONA = 0xFF;
  5330  02F7  30FF               	movlw	255
  5331  02F8  00BB               	movwf	59	;volatile
  5332                           
  5333                           ;mcc_generated_files/pin_manager.c: 106:     SLRCONB = 0xFF;
  5334  02F9  30FF               	movlw	255
  5335  02FA  00C6               	movwf	70	;volatile
  5336                           
  5337                           ;mcc_generated_files/pin_manager.c: 107:     SLRCONC = 0xFF;
  5338  02FB  30FF               	movlw	255
  5339  02FC  00D1               	movwf	81	;volatile
  5340                           
  5341                           ;mcc_generated_files/pin_manager.c: 108:     SLRCOND = 0xFF;
  5342  02FD  30FF               	movlw	255
  5343  02FE  00DC               	movwf	92	;volatile
  5344                           
  5345                           ;mcc_generated_files/pin_manager.c: 109:     SLRCONE = 0x07;
  5346  02FF  3007               	movlw	7
  5347  0300  00E7               	movwf	103	;volatile
  5348                           
  5349                           ;mcc_generated_files/pin_manager.c: 114:     INLVLA = 0xFF;
  5350  0301  30FF               	movlw	255
  5351  0302  00BC               	movwf	60	;volatile
  5352                           
  5353                           ;mcc_generated_files/pin_manager.c: 115:     INLVLB = 0xFF;
  5354  0303  30FF               	movlw	255
  5355  0304  00C7               	movwf	71	;volatile
  5356                           
  5357                           ;mcc_generated_files/pin_manager.c: 116:     INLVLC = 0xFF;
  5358  0305  30FF               	movlw	255
  5359  0306  00D2               	movwf	82	;volatile
  5360                           
  5361                           ;mcc_generated_files/pin_manager.c: 117:     INLVLD = 0xFF;
  5362  0307  30FF               	movlw	255
  5363  0308  00DD               	movwf	93	;volatile
  5364                           
  5365                           ;mcc_generated_files/pin_manager.c: 118:     INLVLE = 0x0F;
  5366  0309  300F               	movlw	15
  5367  030A  00E8               	movwf	104	;volatile
  5368                           
  5369                           ;mcc_generated_files/pin_manager.c: 127:     SSP1CLKPPS = 0x14;
  5370  030B  3014               	movlw	20
  5371  030C  017D               	movlb	61	; select bank61
  5372  030D  00C5               	movwf	69	;volatile
  5373                           
  5374                           ;mcc_generated_files/pin_manager.c: 128:     RC4PPS = 0x15;
  5375  030E  3015               	movlw	21
  5376  030F  017E               	movlb	62	; select bank62
  5377  0310  00A4               	movwf	36	;volatile
  5378                           
  5379                           ;mcc_generated_files/pin_manager.c: 129:     RC2PPS = 0x0F;
  5380  0311  300F               	movlw	15
  5381  0312  00A2               	movwf	34	;volatile
  5382                           
  5383                           ;mcc_generated_files/pin_manager.c: 130:     RC6PPS = 0x16;
  5384  0313  3016               	movlw	22
  5385  0314  00A6               	movwf	38	;volatile
  5386                           
  5387                           ;mcc_generated_files/pin_manager.c: 131:     SSP1DATPPS = 0x16;
  5388  0315  3016               	movlw	22
  5389  0316  017D               	movlb	61	; select bank61
  5390  0317  00C6               	movwf	70	;volatile
  5391                           
  5392                           ;mcc_generated_files/pin_manager.c: 132:     RX1DTPPS = 0x11;
  5393  0318  3011               	movlw	17
  5394  0319  00CB               	movwf	75	;volatile
  5395  031A                     l230:
  5396  031A  0008               	return
  5397  031B                     __end_of_PIN_MANAGER_Initialize:
  5398                           
  5399                           	psect	text17
  5400  010E                     __ptext17:	
  5401 ;; *************** function _OSCILLATOR_Initialize *****************
  5402 ;; Defined at:
  5403 ;;		line 59 in file "mcc_generated_files/mcc.c"
  5404 ;; Parameters:    Size  Location     Type
  5405 ;;		None
  5406 ;; Auto vars:     Size  Location     Type
  5407 ;;		None
  5408 ;; Return value:  Size  Location     Type
  5409 ;;                  1    wreg      void 
  5410 ;; Registers used:
  5411 ;;		wreg, status,2
  5412 ;; Tracked objects:
  5413 ;;		On entry : 0/0
  5414 ;;		On exit  : 0/0
  5415 ;;		Unchanged: 0/0
  5416 ;; Data sizes:     COMMON   BANK0   BANK1   BANK2   BANK3   BANK4   BANK5   BANK6   BANK7   BANK8   BANK9  BANK10  BANK1
      +1  BANK12  BANK13  BANK14  BANK15  BANK16  BANK17  BANK18  BANK19  BANK20  BANK21  BANK22  BANK23  BANK24  BANK25
  5417 ;;      Params:         0       0       0       0       0       0       0       0       0       0       0       0       
      +0       0       0       0       0       0       0       0       0       0       0       0       0       0       0
  5418 ;;      Locals:         0       0       0       0       0       0       0       0       0       0       0       0       
      +0       0       0       0       0       0       0       0       0       0       0       0       0       0       0
  5419 ;;      Temps:          0       0       0       0       0       0       0       0       0       0       0       0       
      +0       0       0       0       0       0       0       0       0       0       0       0       0       0       0
  5420 ;;      Totals:         0       0       0       0       0       0       0       0       0       0       0       0       
      +0       0       0       0       0       0       0       0       0       0       0       0       0       0       0
  5421 ;;Total ram usage:        0 bytes
  5422 ;; Hardware stack levels used:    1
  5423 ;; This function calls:
  5424 ;;		Nothing
  5425 ;; This function is called by:
  5426 ;;		_SYSTEM_Initialize
  5427 ;; This function uses a non-reentrant model
  5428 ;;
  5429                           
  5430                           
  5431                           ;psect for function _OSCILLATOR_Initialize
  5432  010E                     _OSCILLATOR_Initialize:
  5433  010E                     l2669:	
  5434                           ;incstack = 0
  5435                           ; Regs used in _OSCILLATOR_Initialize: [wreg+status,2]
  5436                           
  5437                           
  5438                           ;mcc_generated_files/mcc.c: 62:     OSCCON1 = 0x60;
  5439  010E  3060               	movlw	96
  5440  010F  0151               	movlb	17	; select bank17
  5441  0110  008D               	movwf	13	;volatile
  5442  0111                     l2671:
  5443                           
  5444                           ;mcc_generated_files/mcc.c: 64:     OSCCON3 = 0x00;
  5445  0111  018F               	clrf	15	;volatile
  5446  0112                     l2673:
  5447                           
  5448                           ;mcc_generated_files/mcc.c: 66:     OSCEN = 0x00;
  5449  0112  0191               	clrf	17	;volatile
  5450                           
  5451                           ;mcc_generated_files/mcc.c: 68:     OSCFRQ = 0x02;
  5452  0113  3002               	movlw	2
  5453  0114  0093               	movwf	19	;volatile
  5454  0115                     l2675:
  5455                           
  5456                           ;mcc_generated_files/mcc.c: 70:     OSCSTAT = 0x00;
  5457  0115  0190               	clrf	16	;volatile
  5458  0116                     l2677:
  5459                           
  5460                           ;mcc_generated_files/mcc.c: 72:     OSCTUNE = 0x00;
  5461  0116  0192               	clrf	18	;volatile
  5462  0117                     l142:
  5463  0117  0008               	return
  5464  0118                     __end_of_OSCILLATOR_Initialize:
  5465                           
  5466                           	psect	text18
  5467  00F1                     __ptext18:	
  5468 ;; *************** function _I2C1_Initialize *****************
  5469 ;; Defined at:
  5470 ;;		line 167 in file "mcc_generated_files/i2c1_master.c"
  5471 ;; Parameters:    Size  Location     Type
  5472 ;;		None
  5473 ;; Auto vars:     Size  Location     Type
  5474 ;;		None
  5475 ;; Return value:  Size  Location     Type
  5476 ;;                  1    wreg      void 
  5477 ;; Registers used:
  5478 ;;		wreg, status,2
  5479 ;; Tracked objects:
  5480 ;;		On entry : 0/0
  5481 ;;		On exit  : 0/0
  5482 ;;		Unchanged: 0/0
  5483 ;; Data sizes:     COMMON   BANK0   BANK1   BANK2   BANK3   BANK4   BANK5   BANK6   BANK7   BANK8   BANK9  BANK10  BANK1
      +1  BANK12  BANK13  BANK14  BANK15  BANK16  BANK17  BANK18  BANK19  BANK20  BANK21  BANK22  BANK23  BANK24  BANK25
  5484 ;;      Params:         0       0       0       0       0       0       0       0       0       0       0       0       
      +0       0       0       0       0       0       0       0       0       0       0       0       0       0       0
  5485 ;;      Locals:         0       0       0       0       0       0       0       0       0       0       0       0       
      +0       0       0       0       0       0       0       0       0       0       0       0       0       0       0
  5486 ;;      Temps:          0       0       0       0       0       0       0       0       0       0       0       0       
      +0       0       0       0       0       0       0       0       0       0       0       0       0       0       0
  5487 ;;      Totals:         0       0       0       0       0       0       0       0       0       0       0       0       
      +0       0       0       0       0       0       0       0       0       0       0       0       0       0       0
  5488 ;;Total ram usage:        0 bytes
  5489 ;; Hardware stack levels used:    1
  5490 ;; This function calls:
  5491 ;;		Nothing
  5492 ;; This function is called by:
  5493 ;;		_SYSTEM_Initialize
  5494 ;; This function uses a non-reentrant model
  5495 ;;
  5496                           
  5497                           
  5498                           ;psect for function _I2C1_Initialize
  5499  00F1                     _I2C1_Initialize:
  5500  00F1                     l2627:	
  5501                           ;incstack = 0
  5502                           ; Regs used in _I2C1_Initialize: [wreg+status,2]
  5503                           
  5504                           
  5505                           ;mcc_generated_files/i2c1_master.c: 169:     SSP1STAT = 0x00;
  5506  00F1  0143               	movlb	3	; select bank3
  5507  00F2  018F               	clrf	15	;volatile
  5508  00F3                     l2629:
  5509                           
  5510                           ;mcc_generated_files/i2c1_master.c: 170:     SSP1CON1 = 0x08;
  5511  00F3  3008               	movlw	8
  5512  00F4  0090               	movwf	16	;volatile
  5513  00F5                     l2631:
  5514                           
  5515                           ;mcc_generated_files/i2c1_master.c: 171:     SSP1CON2 = 0x00;
  5516  00F5  0191               	clrf	17	;volatile
  5517                           
  5518                           ;mcc_generated_files/i2c1_master.c: 172:     SSP1ADD = 0x09;
  5519  00F6  3009               	movlw	9
  5520  00F7  008D               	movwf	13	;volatile
  5521  00F8                     l2633:
  5522                           
  5523                           ;mcc_generated_files/i2c1_master.c: 173:     SSP1CON1bits.SSPEN = 0;
  5524  00F8  1290               	bcf	16,5	;volatile
  5525  00F9                     l338:
  5526  00F9  0008               	return
  5527  00FA                     __end_of_I2C1_Initialize:
  5528                           
  5529                           	psect	text19
  5530  01AE                     __ptext19:	
  5531 ;; *************** function _EUSART1_Initialize *****************
  5532 ;; Defined at:
  5533 ;;		line 66 in file "mcc_generated_files/eusart1.c"
  5534 ;; Parameters:    Size  Location     Type
  5535 ;;		None
  5536 ;; Auto vars:     Size  Location     Type
  5537 ;;		None
  5538 ;; Return value:  Size  Location     Type
  5539 ;;                  1    wreg      void 
  5540 ;; Registers used:
  5541 ;;		wreg, status,2, status,0, pclath, cstack
  5542 ;; Tracked objects:
  5543 ;;		On entry : 0/0
  5544 ;;		On exit  : 0/0
  5545 ;;		Unchanged: 0/0
  5546 ;; Data sizes:     COMMON   BANK0   BANK1   BANK2   BANK3   BANK4   BANK5   BANK6   BANK7   BANK8   BANK9  BANK10  BANK1
      +1  BANK12  BANK13  BANK14  BANK15  BANK16  BANK17  BANK18  BANK19  BANK20  BANK21  BANK22  BANK23  BANK24  BANK25
  5547 ;;      Params:         0       0       0       0       0       0       0       0       0       0       0       0       
      +0       0       0       0       0       0       0       0       0       0       0       0       0       0       0
  5548 ;;      Locals:         0       0       0       0       0       0       0       0       0       0       0       0       
      +0       0       0       0       0       0       0       0       0       0       0       0       0       0       0
  5549 ;;      Temps:          0       0       0       0       0       0       0       0       0       0       0       0       
      +0       0       0       0       0       0       0       0       0       0       0       0       0       0       0
  5550 ;;      Totals:         0       0       0       0       0       0       0       0       0       0       0       0       
      +0       0       0       0       0       0       0       0       0       0       0       0       0       0       0
  5551 ;;Total ram usage:        0 bytes
  5552 ;; Hardware stack levels used:    1
  5553 ;; Hardware stack levels required when called:    1
  5554 ;; This function calls:
  5555 ;;		_EUSART1_SetErrorHandler
  5556 ;;		_EUSART1_SetFramingErrorHandler
  5557 ;;		_EUSART1_SetOverrunErrorHandler
  5558 ;; This function is called by:
  5559 ;;		_SYSTEM_Initialize
  5560 ;; This function uses a non-reentrant model
  5561 ;;
  5562                           
  5563                           
  5564                           ;psect for function _EUSART1_Initialize
  5565  01AE                     _EUSART1_Initialize:
  5566  01AE                     l2679:	
  5567                           ;incstack = 0
  5568                           ; Regs used in _EUSART1_Initialize: [wreg+status,2+status,0+pclath+cstack]
  5569                           
  5570                           
  5571                           ;mcc_generated_files/eusart1.c: 71:     BAUD1CON = 0x08;
  5572  01AE  3008               	movlw	8
  5573  01AF  0142               	movlb	2	; select bank2
  5574  01B0  009F               	movwf	31	;volatile
  5575                           
  5576                           ;mcc_generated_files/eusart1.c: 74:     RC1STA = 0x90;
  5577  01B1  3090               	movlw	144
  5578  01B2  009D               	movwf	29	;volatile
  5579                           
  5580                           ;mcc_generated_files/eusart1.c: 77:     TX1STA = 0x24;
  5581  01B3  3024               	movlw	36
  5582  01B4  009E               	movwf	30	;volatile
  5583                           
  5584                           ;mcc_generated_files/eusart1.c: 80:     SP1BRGL = 0x67;
  5585  01B5  3067               	movlw	103
  5586  01B6  009B               	movwf	27	;volatile
  5587  01B7                     l2681:
  5588                           
  5589                           ;mcc_generated_files/eusart1.c: 83:     SP1BRGH = 0x00;
  5590  01B7  019C               	clrf	28	;volatile
  5591  01B8                     l2683:
  5592                           
  5593                           ;mcc_generated_files/eusart1.c: 86:     EUSART1_SetFramingErrorHandler(EUSART1_DefaultFr
      +                          amingErrorHandler);
  5594  01B8  3000               	movlw	0
  5595  01B9  00F0               	movwf	EUSART1_SetFramingErrorHandler@interruptHandler
  5596  01BA  3000               	movlw	0
  5597  01BB  00F1               	movwf	EUSART1_SetFramingErrorHandler@interruptHandler+1
  5598  01BC  3180  20D1  3181   	fcall	_EUSART1_SetFramingErrorHandler
  5599  01BF                     l2685:
  5600                           
  5601                           ;mcc_generated_files/eusart1.c: 87:     EUSART1_SetOverrunErrorHandler(EUSART1_DefaultOv
      +                          errunErrorHandler);
  5602  01BF  3000               	movlw	0
  5603  01C0  00F0               	movwf	EUSART1_SetOverrunErrorHandler@interruptHandler
  5604  01C1  3000               	movlw	0
  5605  01C2  00F1               	movwf	EUSART1_SetOverrunErrorHandler@interruptHandler+1
  5606  01C3  3180  20D7  3181   	fcall	_EUSART1_SetOverrunErrorHandler
  5607  01C6                     l2687:
  5608                           
  5609                           ;mcc_generated_files/eusart1.c: 88:     EUSART1_SetErrorHandler(EUSART1_DefaultErrorHand
      +                          ler);
  5610  01C6  3000               	movlw	0
  5611  01C7  00F0               	movwf	EUSART1_SetErrorHandler@interruptHandler
  5612  01C8  3000               	movlw	0
  5613  01C9  00F1               	movwf	EUSART1_SetErrorHandler@interruptHandler+1
  5614  01CA  3180  20CB  3181   	fcall	_EUSART1_SetErrorHandler
  5615  01CD                     l2689:
  5616                           
  5617                           ;mcc_generated_files/eusart1.c: 90:     eusart1RxLastError.status = 0;
  5618  01CD  0141               	movlb	1	; select bank1
  5619  01CE  01C5               	clrf	_eusart1RxLastError^(0+128)	;volatile
  5620  01CF                     l690:
  5621  01CF  0008               	return
  5622  01D0                     __end_of_EUSART1_Initialize:
  5623                           
  5624                           	psect	text20
  5625  00D7                     __ptext20:	
  5626 ;; *************** function _EUSART1_SetOverrunErrorHandler *****************
  5627 ;; Defined at:
  5628 ;;		line 170 in file "mcc_generated_files/eusart1.c"
  5629 ;; Parameters:    Size  Location     Type
  5630 ;;  interruptHan    2    0[COMMON] PTR FTN()void 
  5631 ;;		 -> EUSART1_DefaultOverrunErrorHandler(1), 
  5632 ;; Auto vars:     Size  Location     Type
  5633 ;;		None
  5634 ;; Return value:  Size  Location     Type
  5635 ;;                  1    wreg      void 
  5636 ;; Registers used:
  5637 ;;		wreg
  5638 ;; Tracked objects:
  5639 ;;		On entry : 0/0
  5640 ;;		On exit  : 0/0
  5641 ;;		Unchanged: 0/0
  5642 ;; Data sizes:     COMMON   BANK0   BANK1   BANK2   BANK3   BANK4   BANK5   BANK6   BANK7   BANK8   BANK9  BANK10  BANK1
      +1  BANK12  BANK13  BANK14  BANK15  BANK16  BANK17  BANK18  BANK19  BANK20  BANK21  BANK22  BANK23  BANK24  BANK25
  5643 ;;      Params:         2       0       0       0       0       0       0       0       0       0       0       0       
      +0       0       0       0       0       0       0       0       0       0       0       0       0       0       0
  5644 ;;      Locals:         0       0       0       0       0       0       0       0       0       0       0       0       
      +0       0       0       0       0       0       0       0       0       0       0       0       0       0       0
  5645 ;;      Temps:          0       0       0       0       0       0       0       0       0       0       0       0       
      +0       0       0       0       0       0       0       0       0       0       0       0       0       0       0
  5646 ;;      Totals:         2       0       0       0       0       0       0       0       0       0       0       0       
      +0       0       0       0       0       0       0       0       0       0       0       0       0       0       0
  5647 ;;Total ram usage:        2 bytes
  5648 ;; Hardware stack levels used:    1
  5649 ;; This function calls:
  5650 ;;		Nothing
  5651 ;; This function is called by:
  5652 ;;		_EUSART1_Initialize
  5653 ;; This function uses a non-reentrant model
  5654 ;;
  5655                           
  5656                           
  5657                           ;psect for function _EUSART1_SetOverrunErrorHandler
  5658  00D7                     _EUSART1_SetOverrunErrorHandler:
  5659  00D7                     l2569:	
  5660                           ;incstack = 0
  5661                           ; Regs used in _EUSART1_SetOverrunErrorHandler: [wreg]
  5662                           
  5663                           
  5664                           ;mcc_generated_files/eusart1.c: 171:     EUSART1_OverrunErrorHandler = interruptHandler;
  5665  00D7  0871               	movf	EUSART1_SetOverrunErrorHandler@interruptHandler+1,w
  5666  00D8  0141               	movlb	1	; select bank1
  5667  00D9  00E9               	movwf	(_EUSART1_OverrunErrorHandler+1)^(0+128)
  5668  00DA  0870               	movf	EUSART1_SetOverrunErrorHandler@interruptHandler,w
  5669  00DB  00E8               	movwf	_EUSART1_OverrunErrorHandler^(0+128)
  5670  00DC                     l738:
  5671  00DC  0008               	return
  5672  00DD                     __end_of_EUSART1_SetOverrunErrorHandler:
  5673                           
  5674                           	psect	text21
  5675  00D1                     __ptext21:	
  5676 ;; *************** function _EUSART1_SetFramingErrorHandler *****************
  5677 ;; Defined at:
  5678 ;;		line 166 in file "mcc_generated_files/eusart1.c"
  5679 ;; Parameters:    Size  Location     Type
  5680 ;;  interruptHan    2    0[COMMON] PTR FTN()void 
  5681 ;;		 -> EUSART1_DefaultFramingErrorHandler(1), 
  5682 ;; Auto vars:     Size  Location     Type
  5683 ;;		None
  5684 ;; Return value:  Size  Location     Type
  5685 ;;                  1    wreg      void 
  5686 ;; Registers used:
  5687 ;;		wreg
  5688 ;; Tracked objects:
  5689 ;;		On entry : 0/0
  5690 ;;		On exit  : 0/0
  5691 ;;		Unchanged: 0/0
  5692 ;; Data sizes:     COMMON   BANK0   BANK1   BANK2   BANK3   BANK4   BANK5   BANK6   BANK7   BANK8   BANK9  BANK10  BANK1
      +1  BANK12  BANK13  BANK14  BANK15  BANK16  BANK17  BANK18  BANK19  BANK20  BANK21  BANK22  BANK23  BANK24  BANK25
  5693 ;;      Params:         2       0       0       0       0       0       0       0       0       0       0       0       
      +0       0       0       0       0       0       0       0       0       0       0       0       0       0       0
  5694 ;;      Locals:         0       0       0       0       0       0       0       0       0       0       0       0       
      +0       0       0       0       0       0       0       0       0       0       0       0       0       0       0
  5695 ;;      Temps:          0       0       0       0       0       0       0       0       0       0       0       0       
      +0       0       0       0       0       0       0       0       0       0       0       0       0       0       0
  5696 ;;      Totals:         2       0       0       0       0       0       0       0       0       0       0       0       
      +0       0       0       0       0       0       0       0       0       0       0       0       0       0       0
  5697 ;;Total ram usage:        2 bytes
  5698 ;; Hardware stack levels used:    1
  5699 ;; This function calls:
  5700 ;;		Nothing
  5701 ;; This function is called by:
  5702 ;;		_EUSART1_Initialize
  5703 ;; This function uses a non-reentrant model
  5704 ;;
  5705                           
  5706                           
  5707                           ;psect for function _EUSART1_SetFramingErrorHandler
  5708  00D1                     _EUSART1_SetFramingErrorHandler:
  5709  00D1                     l2567:	
  5710                           ;incstack = 0
  5711                           ; Regs used in _EUSART1_SetFramingErrorHandler: [wreg]
  5712                           
  5713                           
  5714                           ;mcc_generated_files/eusart1.c: 167:     EUSART1_FramingErrorHandler = interruptHandler;
  5715  00D1  0871               	movf	EUSART1_SetFramingErrorHandler@interruptHandler+1,w
  5716  00D2  0141               	movlb	1	; select bank1
  5717  00D3  00EB               	movwf	(_EUSART1_FramingErrorHandler+1)^(0+128)
  5718  00D4  0870               	movf	EUSART1_SetFramingErrorHandler@interruptHandler,w
  5719  00D5  00EA               	movwf	_EUSART1_FramingErrorHandler^(0+128)
  5720  00D6                     l735:
  5721  00D6  0008               	return
  5722  00D7                     __end_of_EUSART1_SetFramingErrorHandler:
  5723                           
  5724                           	psect	text22
  5725  00CB                     __ptext22:	
  5726 ;; *************** function _EUSART1_SetErrorHandler *****************
  5727 ;; Defined at:
  5728 ;;		line 174 in file "mcc_generated_files/eusart1.c"
  5729 ;; Parameters:    Size  Location     Type
  5730 ;;  interruptHan    2    0[COMMON] PTR FTN()void 
  5731 ;;		 -> EUSART1_DefaultErrorHandler(1), 
  5732 ;; Auto vars:     Size  Location     Type
  5733 ;;		None
  5734 ;; Return value:  Size  Location     Type
  5735 ;;                  1    wreg      void 
  5736 ;; Registers used:
  5737 ;;		wreg
  5738 ;; Tracked objects:
  5739 ;;		On entry : 0/0
  5740 ;;		On exit  : 0/0
  5741 ;;		Unchanged: 0/0
  5742 ;; Data sizes:     COMMON   BANK0   BANK1   BANK2   BANK3   BANK4   BANK5   BANK6   BANK7   BANK8   BANK9  BANK10  BANK1
      +1  BANK12  BANK13  BANK14  BANK15  BANK16  BANK17  BANK18  BANK19  BANK20  BANK21  BANK22  BANK23  BANK24  BANK25
  5743 ;;      Params:         2       0       0       0       0       0       0       0       0       0       0       0       
      +0       0       0       0       0       0       0       0       0       0       0       0       0       0       0
  5744 ;;      Locals:         0       0       0       0       0       0       0       0       0       0       0       0       
      +0       0       0       0       0       0       0       0       0       0       0       0       0       0       0
  5745 ;;      Temps:          0       0       0       0       0       0       0       0       0       0       0       0       
      +0       0       0       0       0       0       0       0       0       0       0       0       0       0       0
  5746 ;;      Totals:         2       0       0       0       0       0       0       0       0       0       0       0       
      +0       0       0       0       0       0       0       0       0       0       0       0       0       0       0
  5747 ;;Total ram usage:        2 bytes
  5748 ;; Hardware stack levels used:    1
  5749 ;; This function calls:
  5750 ;;		Nothing
  5751 ;; This function is called by:
  5752 ;;		_EUSART1_Initialize
  5753 ;; This function uses a non-reentrant model
  5754 ;;
  5755                           
  5756                           
  5757                           ;psect for function _EUSART1_SetErrorHandler
  5758  00CB                     _EUSART1_SetErrorHandler:
  5759  00CB                     l2571:	
  5760                           ;incstack = 0
  5761                           ; Regs used in _EUSART1_SetErrorHandler: [wreg]
  5762                           
  5763                           
  5764                           ;mcc_generated_files/eusart1.c: 175:     EUSART1_ErrorHandler = interruptHandler;
  5765  00CB  0871               	movf	EUSART1_SetErrorHandler@interruptHandler+1,w
  5766  00CC  0141               	movlb	1	; select bank1
  5767  00CD  00E7               	movwf	(_EUSART1_ErrorHandler+1)^(0+128)
  5768  00CE  0870               	movf	EUSART1_SetErrorHandler@interruptHandler,w
  5769  00CF  00E6               	movwf	_EUSART1_ErrorHandler^(0+128)
  5770  00D0                     l741:
  5771  00D0  0008               	return
  5772  00D1                     __end_of_EUSART1_SetErrorHandler:
  5773                           
  5774                           	psect	text23
  5775  01D0                     __ptext23:	
  5776 ;; *************** function _EepWriteByte *****************
  5777 ;; Defined at:
  5778 ;;		line 150 in file "main.c"
  5779 ;; Parameters:    Size  Location     Type
  5780 ;;  dev_add         1    wreg     unsigned char 
  5781 ;;  reg_add         2    2[COMMON] unsigned short 
  5782 ;;  byte            1    4[COMMON] unsigned char 
  5783 ;; Auto vars:     Size  Location     Type
  5784 ;;  dev_add         1    5[COMMON] unsigned char 
  5785 ;;  ACK_bit         1    6[COMMON] _Bool 
  5786 ;; Return value:  Size  Location     Type
  5787 ;;                  1    wreg      void 
  5788 ;; Registers used:
  5789 ;;		wreg, status,2, status,0, pclath, cstack
  5790 ;; Tracked objects:
  5791 ;;		On entry : 0/0
  5792 ;;		On exit  : 0/0
  5793 ;;		Unchanged: 0/0
  5794 ;; Data sizes:     COMMON   BANK0   BANK1   BANK2   BANK3   BANK4   BANK5   BANK6   BANK7   BANK8   BANK9  BANK10  BANK1
      +1  BANK12  BANK13  BANK14  BANK15  BANK16  BANK17  BANK18  BANK19  BANK20  BANK21  BANK22  BANK23  BANK24  BANK25
  5795 ;;      Params:         3       0       0       0       0       0       0       0       0       0       0       0       
      +0       0       0       0       0       0       0       0       0       0       0       0       0       0       0
  5796 ;;      Locals:         2       0       0       0       0       0       0       0       0       0       0       0       
      +0       0       0       0       0       0       0       0       0       0       0       0       0       0       0
  5797 ;;      Temps:          0       0       0       0       0       0       0       0       0       0       0       0       
      +0       0       0       0       0       0       0       0       0       0       0       0       0       0       0
  5798 ;;      Totals:         5       0       0       0       0       0       0       0       0       0       0       0       
      +0       0       0       0       0       0       0       0       0       0       0       0       0       0       0
  5799 ;;Total ram usage:        5 bytes
  5800 ;; Hardware stack levels used:    1
  5801 ;; Hardware stack levels required when called:    1
  5802 ;; This function calls:
  5803 ;;		_Send_I2C_ControlByte
  5804 ;;		_Send_I2C_Data
  5805 ;;		_Send_I2C_StartBit
  5806 ;;		_Send_I2C_StopBit
  5807 ;; This function is called by:
  5808 ;;		_main
  5809 ;; This function uses a non-reentrant model
  5810 ;;
  5811                           
  5812                           
  5813                           ;psect for function _EepWriteByte
  5814  01D0                     _EepWriteByte:
  5815                           
  5816                           ;incstack = 0
  5817                           ; Regs used in _EepWriteByte: [wreg+status,2+status,0+pclath+cstack]
  5818                           ;EepWriteByte@dev_add stored from wreg
  5819  01D0  00F5               	movwf	EepWriteByte@dev_add
  5820  01D1                     l2803:
  5821                           
  5822                           ;main.c: 152:     _Bool ACK_bit = 1;
  5823  01D1  01F6               	clrf	EepWriteByte@ACK_bit
  5824  01D2  0AF6               	incf	EepWriteByte@ACK_bit,f
  5825                           
  5826                           ;main.c: 153:     while(ACK_bit)
  5827  01D3  29E1               	goto	l2811
  5828  01D4                     l2805:
  5829                           
  5830                           ;main.c: 154:     {;main.c: 155:         Send_I2C_StartBit();
  5831  01D4  3180  20FA  3181   	fcall	_Send_I2C_StartBit
  5832  01D7                     l2807:
  5833                           
  5834                           ;main.c: 156:         Send_I2C_ControlByte(dev_add, 0);
  5835  01D7  01F0               	clrf	Send_I2C_ControlByte@RW_bit
  5836  01D8  0875               	movf	EepWriteByte@dev_add,w
  5837  01D9  3181  2139  3181   	fcall	_Send_I2C_ControlByte
  5838  01DC                     l2809:
  5839                           
  5840                           ;main.c: 157:         ACK_bit = SSP1CON2bits.ACKSTAT;
  5841  01DC  3000               	movlw	0
  5842  01DD  0143               	movlb	3	; select bank3
  5843  01DE  1B11               	btfsc	17,6	;volatile
  5844  01DF  3001               	movlw	1
  5845  01E0  00F6               	movwf	EepWriteByte@ACK_bit
  5846  01E1                     l2811:
  5847                           
  5848                           ;main.c: 153:     while(ACK_bit)
  5849  01E1  0876               	movf	EepWriteByte@ACK_bit,w
  5850  01E2  1D03               	btfss	3,2
  5851  01E3  29E5               	goto	u1621
  5852  01E4  29E6               	goto	u1620
  5853  01E5                     u1621:
  5854  01E5  29D4               	goto	l2805
  5855  01E6                     u1620:
  5856  01E6                     l2813:
  5857                           
  5858                           ;main.c: 159:     Send_I2C_Data(reg_add>>8);
  5859  01E6  0873               	movf	EepWriteByte@reg_add+1,w
  5860  01E7  3181  212D  3181   	fcall	_Send_I2C_Data
  5861                           
  5862                           ;main.c: 161:     Send_I2C_Data(reg_add);
  5863  01EA  0872               	movf	EepWriteByte@reg_add,w
  5864  01EB  3181  212D  3181   	fcall	_Send_I2C_Data
  5865                           
  5866                           ;main.c: 163:     Send_I2C_Data(byte);
  5867  01EE  0874               	movf	EepWriteByte@byte,w
  5868  01EF  3181  212D  3181   	fcall	_Send_I2C_Data
  5869  01F2                     l2815:
  5870                           
  5871                           ;main.c: 165:     Send_I2C_StopBit();
  5872  01F2  3181  2104  3181   	fcall	_Send_I2C_StopBit
  5873  01F5                     l630:
  5874  01F5  0008               	return
  5875  01F6                     __end_of_EepWriteByte:
  5876                           
  5877                           	psect	text24
  5878  028E                     __ptext24:	
  5879 ;; *************** function _EepReadByte *****************
  5880 ;; Defined at:
  5881 ;;		line 168 in file "main.c"
  5882 ;; Parameters:    Size  Location     Type
  5883 ;;  dev_add         1    wreg     unsigned char 
  5884 ;;  reg_add         2    4[COMMON] unsigned short 
  5885 ;; Auto vars:     Size  Location     Type
  5886 ;;  dev_add         1    8[COMMON] unsigned char 
  5887 ;;  ACK_bit         1    9[COMMON] _Bool 
  5888 ;;  data            1    7[COMMON] unsigned char 
  5889 ;; Return value:  Size  Location     Type
  5890 ;;                  1    wreg      unsigned char 
  5891 ;; Registers used:
  5892 ;;		wreg, status,2, status,0, pclath, cstack
  5893 ;; Tracked objects:
  5894 ;;		On entry : 0/0
  5895 ;;		On exit  : 0/0
  5896 ;;		Unchanged: 0/0
  5897 ;; Data sizes:     COMMON   BANK0   BANK1   BANK2   BANK3   BANK4   BANK5   BANK6   BANK7   BANK8   BANK9  BANK10  BANK1
      +1  BANK12  BANK13  BANK14  BANK15  BANK16  BANK17  BANK18  BANK19  BANK20  BANK21  BANK22  BANK23  BANK24  BANK25
  5898 ;;      Params:         2       0       0       0       0       0       0       0       0       0       0       0       
      +0       0       0       0       0       0       0       0       0       0       0       0       0       0       0
  5899 ;;      Locals:         3       0       0       0       0       0       0       0       0       0       0       0       
      +0       0       0       0       0       0       0       0       0       0       0       0       0       0       0
  5900 ;;      Temps:          1       0       0       0       0       0       0       0       0       0       0       0       
      +0       0       0       0       0       0       0       0       0       0       0       0       0       0       0
  5901 ;;      Totals:         6       0       0       0       0       0       0       0       0       0       0       0       
      +0       0       0       0       0       0       0       0       0       0       0       0       0       0       0
  5902 ;;Total ram usage:        6 bytes
  5903 ;; Hardware stack levels used:    1
  5904 ;; Hardware stack levels required when called:    1
  5905 ;; This function calls:
  5906 ;;		_Read_I2C_Data
  5907 ;;		_Send_I2C_ControlByte
  5908 ;;		_Send_I2C_Data
  5909 ;;		_Send_I2C_NAK
  5910 ;;		_Send_I2C_StartBit
  5911 ;;		_Send_I2C_StopBit
  5912 ;; This function is called by:
  5913 ;;		_main
  5914 ;; This function uses a non-reentrant model
  5915 ;;
  5916                           
  5917                           
  5918                           ;psect for function _EepReadByte
  5919  028E                     _EepReadByte:
  5920                           
  5921                           ;incstack = 0
  5922                           ; Regs used in _EepReadByte: [wreg+status,2+status,0+pclath+cstack]
  5923                           ;EepReadByte@dev_add stored from wreg
  5924  028E  00F8               	movwf	EepReadByte@dev_add
  5925  028F                     l2817:
  5926                           
  5927                           ;main.c: 170:     _Bool ACK_bit = 1;
  5928  028F  01F9               	clrf	EepReadByte@ACK_bit
  5929  0290  0AF9               	incf	EepReadByte@ACK_bit,f
  5930  0291                     l2819:
  5931                           
  5932                           ;main.c: 172:     while(ACK_bit)
  5933  0291  2A9F               	goto	l2827
  5934  0292                     l2821:
  5935                           
  5936                           ;main.c: 173:     {;main.c: 174:         Send_I2C_StartBit();
  5937  0292  3180  20FA  3182   	fcall	_Send_I2C_StartBit
  5938  0295                     l2823:
  5939                           
  5940                           ;main.c: 175:         Send_I2C_ControlByte(dev_add, 0);
  5941  0295  01F0               	clrf	Send_I2C_ControlByte@RW_bit
  5942  0296  0878               	movf	EepReadByte@dev_add,w
  5943  0297  3181  2139  3182   	fcall	_Send_I2C_ControlByte
  5944  029A                     l2825:
  5945                           
  5946                           ;main.c: 176:         ACK_bit = SSP1CON2bits.ACKSTAT;
  5947  029A  3000               	movlw	0
  5948  029B  0143               	movlb	3	; select bank3
  5949  029C  1B11               	btfsc	17,6	;volatile
  5950  029D  3001               	movlw	1
  5951  029E  00F9               	movwf	EepReadByte@ACK_bit
  5952  029F                     l2827:
  5953                           
  5954                           ;main.c: 172:     while(ACK_bit)
  5955  029F  0879               	movf	EepReadByte@ACK_bit,w
  5956  02A0  1D03               	btfss	3,2
  5957  02A1  2AA3               	goto	u1631
  5958  02A2  2AA4               	goto	u1630
  5959  02A3                     u1631:
  5960  02A3  2A92               	goto	l2821
  5961  02A4                     u1630:
  5962  02A4                     l2829:
  5963                           
  5964                           ;main.c: 178:     Send_I2C_Data(reg_add>>8);
  5965  02A4  0875               	movf	EepReadByte@reg_add+1,w
  5966  02A5  3181  212D  3182   	fcall	_Send_I2C_Data
  5967                           
  5968                           ;main.c: 180:     Send_I2C_Data(reg_add);
  5969  02A8  0874               	movf	EepReadByte@reg_add,w
  5970  02A9  3181  212D  3182   	fcall	_Send_I2C_Data
  5971  02AC                     l2831:
  5972                           
  5973                           ;main.c: 183:     ACK_bit = 1;
  5974  02AC  01F9               	clrf	EepReadByte@ACK_bit
  5975  02AD  0AF9               	incf	EepReadByte@ACK_bit,f
  5976                           
  5977                           ;main.c: 184:     while(ACK_bit)
  5978  02AE  2ABD               	goto	l2839
  5979  02AF                     l2833:
  5980                           
  5981                           ;main.c: 185:     {;main.c: 186:         Send_I2C_StartBit();
  5982  02AF  3180  20FA  3182   	fcall	_Send_I2C_StartBit
  5983  02B2                     l2835:
  5984                           
  5985                           ;main.c: 187:         Send_I2C_ControlByte(dev_add, 1);
  5986  02B2  01F0               	clrf	Send_I2C_ControlByte@RW_bit
  5987  02B3  0AF0               	incf	Send_I2C_ControlByte@RW_bit,f
  5988  02B4  0878               	movf	EepReadByte@dev_add,w
  5989  02B5  3181  2139  3182   	fcall	_Send_I2C_ControlByte
  5990  02B8                     l2837:
  5991                           
  5992                           ;main.c: 188:         ACK_bit = SSP1CON2bits.ACKSTAT;
  5993  02B8  3000               	movlw	0
  5994  02B9  0143               	movlb	3	; select bank3
  5995  02BA  1B11               	btfsc	17,6	;volatile
  5996  02BB  3001               	movlw	1
  5997  02BC  00F9               	movwf	EepReadByte@ACK_bit
  5998  02BD                     l2839:
  5999                           
  6000                           ;main.c: 184:     while(ACK_bit)
  6001  02BD  0879               	movf	EepReadByte@ACK_bit,w
  6002  02BE  1D03               	btfss	3,2
  6003  02BF  2AC1               	goto	u1641
  6004  02C0  2AC2               	goto	u1640
  6005  02C1                     u1641:
  6006  02C1  2AAF               	goto	l2833
  6007  02C2                     u1640:
  6008  02C2                     l2841:
  6009                           
  6010                           ;main.c: 191:     data=Read_I2C_Data();
  6011  02C2  3181  2157  3182   	fcall	_Read_I2C_Data
  6012  02C5  0870               	movf	?_Read_I2C_Data,w
  6013  02C6  00F6               	movwf	??_EepReadByte
  6014  02C7  0876               	movf	??_EepReadByte,w
  6015  02C8  00F7               	movwf	EepReadByte@data
  6016  02C9                     l2843:
  6017                           
  6018                           ;main.c: 192:     Send_I2C_NAK();
  6019  02C9  3181  2122  3182   	fcall	_Send_I2C_NAK
  6020  02CC                     l2845:
  6021                           
  6022                           ;main.c: 193:     Send_I2C_StopBit();
  6023  02CC  3181  2104  3182   	fcall	_Send_I2C_StopBit
  6024  02CF                     l2847:
  6025                           
  6026                           ;main.c: 195:     return data;
  6027  02CF  0877               	movf	EepReadByte@data,w
  6028  02D0                     l639:
  6029  02D0  0008               	return
  6030  02D1                     __end_of_EepReadByte:
  6031                           
  6032                           	psect	text25
  6033  0104                     __ptext25:	
  6034 ;; *************** function _Send_I2C_StopBit *****************
  6035 ;; Defined at:
  6036 ;;		line 120 in file "main.c"
  6037 ;; Parameters:    Size  Location     Type
  6038 ;;		None
  6039 ;; Auto vars:     Size  Location     Type
  6040 ;;		None
  6041 ;; Return value:  Size  Location     Type
  6042 ;;                  1    wreg      void 
  6043 ;; Registers used:
  6044 ;;		None
  6045 ;; Tracked objects:
  6046 ;;		On entry : 0/0
  6047 ;;		On exit  : 0/0
  6048 ;;		Unchanged: 0/0
  6049 ;; Data sizes:     COMMON   BANK0   BANK1   BANK2   BANK3   BANK4   BANK5   BANK6   BANK7   BANK8   BANK9  BANK10  BANK1
      +1  BANK12  BANK13  BANK14  BANK15  BANK16  BANK17  BANK18  BANK19  BANK20  BANK21  BANK22  BANK23  BANK24  BANK25
  6050 ;;      Params:         0       0       0       0       0       0       0       0       0       0       0       0       
      +0       0       0       0       0       0       0       0       0       0       0       0       0       0       0
  6051 ;;      Locals:         0       0       0       0       0       0       0       0       0       0       0       0       
      +0       0       0       0       0       0       0       0       0       0       0       0       0       0       0
  6052 ;;      Temps:          0       0       0       0       0       0       0       0       0       0       0       0       
      +0       0       0       0       0       0       0       0       0       0       0       0       0       0       0
  6053 ;;      Totals:         0       0       0       0       0       0       0       0       0       0       0       0       
      +0       0       0       0       0       0       0       0       0       0       0       0       0       0       0
  6054 ;;Total ram usage:        0 bytes
  6055 ;; Hardware stack levels used:    1
  6056 ;; This function calls:
  6057 ;;		Nothing
  6058 ;; This function is called by:
  6059 ;;		_EepWriteByte
  6060 ;;		_EepReadByte
  6061 ;; This function uses a non-reentrant model
  6062 ;;
  6063                           
  6064                           
  6065                           ;psect for function _Send_I2C_StopBit
  6066  0104                     _Send_I2C_StopBit:
  6067  0104                     l2707:	
  6068                           ;incstack = 0
  6069                           ; Regs used in _Send_I2C_StopBit: []
  6070                           
  6071                           
  6072                           ;main.c: 122:     PIR3bits.SSP1IF=0;
  6073  0104  014E               	movlb	14	; select bank14
  6074  0105  100F               	bcf	15,0	;volatile
  6075                           
  6076                           ;main.c: 123:     SSP1CON2bits.PEN=1;
  6077  0106  0143               	movlb	3	; select bank3
  6078  0107  1511               	bsf	17,2	;volatile
  6079  0108                     l609:	
  6080                           ;main.c: 124:     while(!PIR3bits.SSP1IF);
  6081                           
  6082  0108  014E               	movlb	14	; select bank14
  6083  0109  1C0F               	btfss	15,0	;volatile
  6084  010A  290C               	goto	u1571
  6085  010B  290D               	goto	u1570
  6086  010C                     u1571:
  6087  010C  2908               	goto	l609
  6088  010D                     u1570:
  6089  010D                     l612:
  6090  010D  0008               	return
  6091  010E                     __end_of_Send_I2C_StopBit:
  6092                           
  6093                           	psect	text26
  6094  00FA                     __ptext26:	
  6095 ;; *************** function _Send_I2C_StartBit *****************
  6096 ;; Defined at:
  6097 ;;		line 110 in file "main.c"
  6098 ;; Parameters:    Size  Location     Type
  6099 ;;		None
  6100 ;; Auto vars:     Size  Location     Type
  6101 ;;		None
  6102 ;; Return value:  Size  Location     Type
  6103 ;;                  1    wreg      void 
  6104 ;; Registers used:
  6105 ;;		None
  6106 ;; Tracked objects:
  6107 ;;		On entry : 0/0
  6108 ;;		On exit  : 0/0
  6109 ;;		Unchanged: 0/0
  6110 ;; Data sizes:     COMMON   BANK0   BANK1   BANK2   BANK3   BANK4   BANK5   BANK6   BANK7   BANK8   BANK9  BANK10  BANK1
      +1  BANK12  BANK13  BANK14  BANK15  BANK16  BANK17  BANK18  BANK19  BANK20  BANK21  BANK22  BANK23  BANK24  BANK25
  6111 ;;      Params:         0       0       0       0       0       0       0       0       0       0       0       0       
      +0       0       0       0       0       0       0       0       0       0       0       0       0       0       0
  6112 ;;      Locals:         0       0       0       0       0       0       0       0       0       0       0       0       
      +0       0       0       0       0       0       0       0       0       0       0       0       0       0       0
  6113 ;;      Temps:          0       0       0       0       0       0       0       0       0       0       0       0       
      +0       0       0       0       0       0       0       0       0       0       0       0       0       0       0
  6114 ;;      Totals:         0       0       0       0       0       0       0       0       0       0       0       0       
      +0       0       0       0       0       0       0       0       0       0       0       0       0       0       0
  6115 ;;Total ram usage:        0 bytes
  6116 ;; Hardware stack levels used:    1
  6117 ;; This function calls:
  6118 ;;		Nothing
  6119 ;; This function is called by:
  6120 ;;		_EepWriteByte
  6121 ;;		_EepReadByte
  6122 ;; This function uses a non-reentrant model
  6123 ;;
  6124                           
  6125                           
  6126                           ;psect for function _Send_I2C_StartBit
  6127  00FA                     _Send_I2C_StartBit:
  6128  00FA                     l2705:	
  6129                           ;incstack = 0
  6130                           ; Regs used in _Send_I2C_StartBit: []
  6131                           
  6132                           
  6133                           ;main.c: 112:     PIR3bits.SSP1IF=0;
  6134  00FA  014E               	movlb	14	; select bank14
  6135  00FB  100F               	bcf	15,0	;volatile
  6136                           
  6137                           ;main.c: 113:     SSP1CON2bits.SEN=1;
  6138  00FC  0143               	movlb	3	; select bank3
  6139  00FD  1411               	bsf	17,0	;volatile
  6140  00FE                     l603:	
  6141                           ;main.c: 114:     while(!PIR3bits.SSP1IF);
  6142                           
  6143  00FE  014E               	movlb	14	; select bank14
  6144  00FF  1C0F               	btfss	15,0	;volatile
  6145  0100  2902               	goto	u1561
  6146  0101  2903               	goto	u1560
  6147  0102                     u1561:
  6148  0102  28FE               	goto	l603
  6149  0103                     u1560:
  6150  0103                     l606:
  6151  0103  0008               	return
  6152  0104                     __end_of_Send_I2C_StartBit:
  6153                           
  6154                           	psect	text27
  6155  0122                     __ptext27:	
  6156 ;; *************** function _Send_I2C_NAK *****************
  6157 ;; Defined at:
  6158 ;;		line 142 in file "main.c"
  6159 ;; Parameters:    Size  Location     Type
  6160 ;;		None
  6161 ;; Auto vars:     Size  Location     Type
  6162 ;;		None
  6163 ;; Return value:  Size  Location     Type
  6164 ;;                  1    wreg      void 
  6165 ;; Registers used:
  6166 ;;		None
  6167 ;; Tracked objects:
  6168 ;;		On entry : 0/0
  6169 ;;		On exit  : 0/0
  6170 ;;		Unchanged: 0/0
  6171 ;; Data sizes:     COMMON   BANK0   BANK1   BANK2   BANK3   BANK4   BANK5   BANK6   BANK7   BANK8   BANK9  BANK10  BANK1
      +1  BANK12  BANK13  BANK14  BANK15  BANK16  BANK17  BANK18  BANK19  BANK20  BANK21  BANK22  BANK23  BANK24  BANK25
  6172 ;;      Params:         0       0       0       0       0       0       0       0       0       0       0       0       
      +0       0       0       0       0       0       0       0       0       0       0       0       0       0       0
  6173 ;;      Locals:         0       0       0       0       0       0       0       0       0       0       0       0       
      +0       0       0       0       0       0       0       0       0       0       0       0       0       0       0
  6174 ;;      Temps:          0       0       0       0       0       0       0       0       0       0       0       0       
      +0       0       0       0       0       0       0       0       0       0       0       0       0       0       0
  6175 ;;      Totals:         0       0       0       0       0       0       0       0       0       0       0       0       
      +0       0       0       0       0       0       0       0       0       0       0       0       0       0       0
  6176 ;;Total ram usage:        0 bytes
  6177 ;; Hardware stack levels used:    1
  6178 ;; This function calls:
  6179 ;;		Nothing
  6180 ;; This function is called by:
  6181 ;;		_EepReadByte
  6182 ;; This function uses a non-reentrant model
  6183 ;;
  6184                           
  6185                           
  6186                           ;psect for function _Send_I2C_NAK
  6187  0122                     _Send_I2C_NAK:
  6188  0122                     l2709:	
  6189                           ;incstack = 0
  6190                           ; Regs used in _Send_I2C_NAK: []
  6191                           
  6192                           
  6193                           ;main.c: 144:     PIR3bits.SSP1IF=0;
  6194  0122  014E               	movlb	14	; select bank14
  6195  0123  100F               	bcf	15,0	;volatile
  6196                           
  6197                           ;main.c: 145:     SSP1CON2bits.ACKDT=1;
  6198  0124  0143               	movlb	3	; select bank3
  6199  0125  1691               	bsf	17,5	;volatile
  6200                           
  6201                           ;main.c: 146:     SSP1CON2bits.ACKEN=1;
  6202  0126  1611               	bsf	17,4	;volatile
  6203  0127                     l621:	
  6204                           ;main.c: 147:     while(!PIR3bits.SSP1IF);
  6205                           
  6206  0127  014E               	movlb	14	; select bank14
  6207  0128  1C0F               	btfss	15,0	;volatile
  6208  0129  292B               	goto	u1581
  6209  012A  292C               	goto	u1580
  6210  012B                     u1581:
  6211  012B  2927               	goto	l621
  6212  012C                     u1580:
  6213  012C                     l624:
  6214  012C  0008               	return
  6215  012D                     __end_of_Send_I2C_NAK:
  6216                           
  6217                           	psect	text28
  6218  012D                     __ptext28:	
  6219 ;; *************** function _Send_I2C_Data *****************
  6220 ;; Defined at:
  6221 ;;		line 63 in file "main.c"
  6222 ;; Parameters:    Size  Location     Type
  6223 ;;  databyte        1    wreg     unsigned char 
  6224 ;; Auto vars:     Size  Location     Type
  6225 ;;  databyte        1    0[COMMON] unsigned char 
  6226 ;; Return value:  Size  Location     Type
  6227 ;;                  1    wreg      void 
  6228 ;; Registers used:
  6229 ;;		wreg
  6230 ;; Tracked objects:
  6231 ;;		On entry : 0/0
  6232 ;;		On exit  : 0/0
  6233 ;;		Unchanged: 0/0
  6234 ;; Data sizes:     COMMON   BANK0   BANK1   BANK2   BANK3   BANK4   BANK5   BANK6   BANK7   BANK8   BANK9  BANK10  BANK1
      +1  BANK12  BANK13  BANK14  BANK15  BANK16  BANK17  BANK18  BANK19  BANK20  BANK21  BANK22  BANK23  BANK24  BANK25
  6235 ;;      Params:         0       0       0       0       0       0       0       0       0       0       0       0       
      +0       0       0       0       0       0       0       0       0       0       0       0       0       0       0
  6236 ;;      Locals:         1       0       0       0       0       0       0       0       0       0       0       0       
      +0       0       0       0       0       0       0       0       0       0       0       0       0       0       0
  6237 ;;      Temps:          0       0       0       0       0       0       0       0       0       0       0       0       
      +0       0       0       0       0       0       0       0       0       0       0       0       0       0       0
  6238 ;;      Totals:         1       0       0       0       0       0       0       0       0       0       0       0       
      +0       0       0       0       0       0       0       0       0       0       0       0       0       0       0
  6239 ;;Total ram usage:        1 bytes
  6240 ;; Hardware stack levels used:    1
  6241 ;; This function calls:
  6242 ;;		Nothing
  6243 ;; This function is called by:
  6244 ;;		_EepWriteByte
  6245 ;;		_EepReadByte
  6246 ;; This function uses a non-reentrant model
  6247 ;;
  6248                           
  6249                           
  6250                           ;psect for function _Send_I2C_Data
  6251  012D                     _Send_I2C_Data:
  6252                           
  6253                           ;incstack = 0
  6254                           ; Regs used in _Send_I2C_Data: [wreg]
  6255                           ;Send_I2C_Data@databyte stored from wreg
  6256  012D  00F0               	movwf	Send_I2C_Data@databyte
  6257  012E                     l2691:
  6258                           
  6259                           ;main.c: 63: void Send_I2C_Data(uint8_t databyte);main.c: 64: {;main.c: 65:     PIR3bits
      +                          .SSP1IF=0;
  6260  012E  014E               	movlb	14	; select bank14
  6261  012F  100F               	bcf	15,0	;volatile
  6262  0130                     l2693:
  6263                           
  6264                           ;main.c: 66:     SSP1BUF = databyte;
  6265  0130  0870               	movf	Send_I2C_Data@databyte,w
  6266  0131  0143               	movlb	3	; select bank3
  6267  0132  008C               	movwf	12	;volatile
  6268  0133                     l585:	
  6269                           ;main.c: 67:     while(!PIR3bits.SSP1IF);
  6270                           
  6271  0133  014E               	movlb	14	; select bank14
  6272  0134  1C0F               	btfss	15,0	;volatile
  6273  0135  2937               	goto	u1531
  6274  0136  2938               	goto	u1530
  6275  0137                     u1531:
  6276  0137  2933               	goto	l585
  6277  0138                     u1530:
  6278  0138                     l588:
  6279  0138  0008               	return
  6280  0139                     __end_of_Send_I2C_Data:
  6281                           
  6282                           	psect	text29
  6283  0139                     __ptext29:	
  6284 ;; *************** function _Send_I2C_ControlByte *****************
  6285 ;; Defined at:
  6286 ;;		line 93 in file "main.c"
  6287 ;; Parameters:    Size  Location     Type
  6288 ;;  BlockAddress    1    wreg     unsigned char 
  6289 ;;  RW_bit          1    0[COMMON] unsigned char 
  6290 ;; Auto vars:     Size  Location     Type
  6291 ;;  BlockAddress    1    1[COMMON] unsigned char 
  6292 ;; Return value:  Size  Location     Type
  6293 ;;                  1    wreg      void 
  6294 ;; Registers used:
  6295 ;;		wreg, status,2, status,0
  6296 ;; Tracked objects:
  6297 ;;		On entry : 0/0
  6298 ;;		On exit  : 0/0
  6299 ;;		Unchanged: 0/0
  6300 ;; Data sizes:     COMMON   BANK0   BANK1   BANK2   BANK3   BANK4   BANK5   BANK6   BANK7   BANK8   BANK9  BANK10  BANK1
      +1  BANK12  BANK13  BANK14  BANK15  BANK16  BANK17  BANK18  BANK19  BANK20  BANK21  BANK22  BANK23  BANK24  BANK25
  6301 ;;      Params:         1       0       0       0       0       0       0       0       0       0       0       0       
      +0       0       0       0       0       0       0       0       0       0       0       0       0       0       0
  6302 ;;      Locals:         1       0       0       0       0       0       0       0       0       0       0       0       
      +0       0       0       0       0       0       0       0       0       0       0       0       0       0       0
  6303 ;;      Temps:          0       0       0       0       0       0       0       0       0       0       0       0       
      +0       0       0       0       0       0       0       0       0       0       0       0       0       0       0
  6304 ;;      Totals:         2       0       0       0       0       0       0       0       0       0       0       0       
      +0       0       0       0       0       0       0       0       0       0       0       0       0       0       0
  6305 ;;Total ram usage:        2 bytes
  6306 ;; Hardware stack levels used:    1
  6307 ;; This function calls:
  6308 ;;		Nothing
  6309 ;; This function is called by:
  6310 ;;		_EepWriteByte
  6311 ;;		_EepReadByte
  6312 ;; This function uses a non-reentrant model
  6313 ;;
  6314                           
  6315                           
  6316                           ;psect for function _Send_I2C_ControlByte
  6317  0139                     _Send_I2C_ControlByte:
  6318                           
  6319                           ;incstack = 0
  6320                           ; Regs used in _Send_I2C_ControlByte: [wreg+status,2+status,0]
  6321                           ;Send_I2C_ControlByte@BlockAddress stored from wreg
  6322  0139  00F1               	movwf	Send_I2C_ControlByte@BlockAddress
  6323  013A                     l2701:
  6324                           
  6325                           ;main.c: 93: void Send_I2C_ControlByte(uint8_t BlockAddress,uint8_t RW_bit);main.c: 94: 
      +                          {;main.c: 95:     PIR3bits.SSP1IF=0;
  6326  013A  014E               	movlb	14	; select bank14
  6327  013B  100F               	bcf	15,0	;volatile
  6328  013C                     l2703:
  6329                           
  6330                           ;main.c: 103:     SSP1BUF = ((0b1010 << 4) | (BlockAddress <<1)) + RW_bit;
  6331  013C  3571               	lslf	Send_I2C_ControlByte@BlockAddress,w
  6332  013D  38A0               	iorlw	160
  6333  013E  0770               	addwf	Send_I2C_ControlByte@RW_bit,w
  6334  013F  0143               	movlb	3	; select bank3
  6335  0140  008C               	movwf	12	;volatile
  6336  0141                     l597:	
  6337                           ;main.c: 104:     while(!PIR3bits.SSP1IF);
  6338                           
  6339  0141  014E               	movlb	14	; select bank14
  6340  0142  1C0F               	btfss	15,0	;volatile
  6341  0143  2945               	goto	u1551
  6342  0144  2946               	goto	u1550
  6343  0145                     u1551:
  6344  0145  2941               	goto	l597
  6345  0146                     u1550:
  6346  0146                     l600:
  6347  0146  0008               	return
  6348  0147                     __end_of_Send_I2C_ControlByte:
  6349                           
  6350                           	psect	text30
  6351  0157                     __ptext30:	
  6352 ;; *************** function _Read_I2C_Data *****************
  6353 ;; Defined at:
  6354 ;;		line 74 in file "main.c"
  6355 ;; Parameters:    Size  Location     Type
  6356 ;;		None
  6357 ;; Auto vars:     Size  Location     Type
  6358 ;;		None
  6359 ;; Return value:  Size  Location     Type
  6360 ;;                  2    0[COMMON] unsigned int 
  6361 ;; Registers used:
  6362 ;;		wreg
  6363 ;; Tracked objects:
  6364 ;;		On entry : 0/0
  6365 ;;		On exit  : 0/0
  6366 ;;		Unchanged: 0/0
  6367 ;; Data sizes:     COMMON   BANK0   BANK1   BANK2   BANK3   BANK4   BANK5   BANK6   BANK7   BANK8   BANK9  BANK10  BANK1
      +1  BANK12  BANK13  BANK14  BANK15  BANK16  BANK17  BANK18  BANK19  BANK20  BANK21  BANK22  BANK23  BANK24  BANK25
  6368 ;;      Params:         2       0       0       0       0       0       0       0       0       0       0       0       
      +0       0       0       0       0       0       0       0       0       0       0       0       0       0       0
  6369 ;;      Locals:         0       0       0       0       0       0       0       0       0       0       0       0       
      +0       0       0       0       0       0       0       0       0       0       0       0       0       0       0
  6370 ;;      Temps:          2       0       0       0       0       0       0       0       0       0       0       0       
      +0       0       0       0       0       0       0       0       0       0       0       0       0       0       0
  6371 ;;      Totals:         4       0       0       0       0       0       0       0       0       0       0       0       
      +0       0       0       0       0       0       0       0       0       0       0       0       0       0       0
  6372 ;;Total ram usage:        4 bytes
  6373 ;; Hardware stack levels used:    1
  6374 ;; This function calls:
  6375 ;;		Nothing
  6376 ;; This function is called by:
  6377 ;;		_EepReadByte
  6378 ;; This function uses a non-reentrant model
  6379 ;;
  6380                           
  6381                           
  6382                           ;psect for function _Read_I2C_Data
  6383  0157                     _Read_I2C_Data:
  6384  0157                     l2695:	
  6385                           ;incstack = 0
  6386                           ; Regs used in _Read_I2C_Data: [wreg]
  6387                           
  6388                           
  6389                           ;main.c: 76:     PIR3bits.SSP1IF=0;
  6390  0157  014E               	movlb	14	; select bank14
  6391  0158  100F               	bcf	15,0	;volatile
  6392                           
  6393                           ;main.c: 77:     SSP1CON2bits.RCEN=1;
  6394  0159  0143               	movlb	3	; select bank3
  6395  015A  1591               	bsf	17,3	;volatile
  6396  015B                     l591:	
  6397                           ;main.c: 78:     while(!PIR3bits.SSP1IF);
  6398                           
  6399  015B  014E               	movlb	14	; select bank14
  6400  015C  1C0F               	btfss	15,0	;volatile
  6401  015D  295F               	goto	u1541
  6402  015E  2960               	goto	u1540
  6403  015F                     u1541:
  6404  015F  295B               	goto	l591
  6405  0160                     u1540:
  6406  0160                     l2697:
  6407                           
  6408                           ;main.c: 79:     return (SSP1BUF);
  6409  0160  0143               	movlb	3	; select bank3
  6410  0161  080C               	movf	12,w	;volatile
  6411  0162  00F2               	movwf	??_Read_I2C_Data
  6412  0163  01F3               	clrf	??_Read_I2C_Data+1
  6413  0164  0872               	movf	??_Read_I2C_Data,w
  6414  0165  00F0               	movwf	?_Read_I2C_Data
  6415  0166  0873               	movf	??_Read_I2C_Data+1,w
  6416  0167  00F1               	movwf	?_Read_I2C_Data+1
  6417  0168                     l594:
  6418  0168  0008               	return
  6419  0169                     __end_of_Read_I2C_Data:
  6420  007E                     btemp	set	126	;btemp
  6421  007E                     wtemp0	set	126
  6422                           
  6423                           	psect	config
  6424                           
  6425                           ;Config register CONFIG1 @ 0x8007
  6426                           ;	External Oscillator mode selection bits
  6427                           ;	FEXTOSC = OFF, Oscillator not enabled
  6428                           ;	Power-up default value for COSC bits
  6429                           ;	RSTOSC = HFINT1, HFINTOSC (1MHz)
  6430                           ;	Clock Out Enable bit
  6431                           ;	CLKOUTEN = OFF, CLKOUT function is disabled; i/o or oscillator function on OSC2
  6432                           ;	Clock Switch Enable bit
  6433                           ;	CSWEN = ON, Writing to NOSC and NDIV is allowed
  6434                           ;	Fail-Safe Clock Monitor Enable bit
  6435                           ;	FCMEN = ON, FSCM timer enabled
  6436  8007                     	org	32775
  6437  8007  3FEC               	dw	16364
  6438                           
  6439                           ;Config register CONFIG2 @ 0x8008
  6440                           ;	Master Clear Enable bit
  6441                           ;	MCLRE = ON, MCLR pin is Master Clear function
  6442                           ;	Power-up Timer Enable bit
  6443                           ;	PWRTE = OFF, PWRT disabled
  6444                           ;	Low-Power BOR enable bit
  6445                           ;	LPBOREN = OFF, ULPBOR disabled
  6446                           ;	Brown-out reset enable bits
  6447                           ;	BOREN = ON, Brown-out Reset Enabled, SBOREN bit is ignored
  6448                           ;	Brown-out Reset Voltage Selection
  6449                           ;	BORV = LO, Brown-out Reset Voltage (VBOR) set to 1.9V on LF, and 2.45V on F Devices
  6450                           ;	Zero-cross detect disable
  6451                           ;	ZCD = OFF, Zero-cross detect circuit is disabled at POR.
  6452                           ;	Peripheral Pin Select one-way control
  6453                           ;	PPS1WAY = ON, The PPSLOCK bit can be cleared and set only once in software
  6454                           ;	Stack Overflow/Underflow Reset Enable bit
  6455                           ;	STVREN = ON, Stack Overflow or Underflow will cause a reset
  6456  8008                     	org	32776
  6457  8008  3FFF               	dw	16383
  6458                           
  6459                           ;Config register CONFIG3 @ 0x8009
  6460                           ;	WDT Period Select bits
  6461                           ;	WDTCPS = WDTCPS_31, Divider ratio 1:65536; software control of WDTPS
  6462                           ;	WDT operating mode
  6463                           ;	WDTE = OFF, WDT Disabled, SWDTEN is ignored
  6464                           ;	WDT Window Select bits
  6465                           ;	WDTCWS = WDTCWS_7, window always open (100%); software control; keyed access not requi
      +                          red
  6466                           ;	WDT input clock selector
  6467                           ;	WDTCCS = SC, Software Control
  6468  8009                     	org	32777
  6469  8009  3F9F               	dw	16287
  6470                           
  6471                           ;Config register CONFIG4 @ 0x800A
  6472                           ;	Boot Block Size Selection bits
  6473                           ;	BBSIZE = BB512, 512 words boot block size
  6474                           ;	Boot Block Enable bit
  6475                           ;	BBEN = OFF, Boot Block disabled
  6476                           ;	SAF Enable bit
  6477                           ;	SAFEN = OFF, SAF disabled
  6478                           ;	Application Block Write Protection bit
  6479                           ;	WRTAPP = OFF, Application Block not write protected
  6480                           ;	Boot Block Write Protection bit
  6481                           ;	WRTB = OFF, Boot Block not write protected
  6482                           ;	Configuration Register Write Protection bit
  6483                           ;	WRTC = OFF, Configuration Register not write protected
  6484                           ;	Storage Area Flash Write Protection bit
  6485                           ;	WRTSAF = OFF, SAF not write protected
  6486                           ;	Low Voltage Programming Enable bit
  6487                           ;	LVP = OFF, High Voltage on MCLR/Vpp must be used for programming
  6488  800A                     	org	32778
  6489  800A  1FFF               	dw	8191
  6490                           
  6491                           ;Config register CONFIG5 @ 0x800B
  6492                           ;	UserNVM Program memory code protection bit
  6493                           ;	CP = OFF, UserNVM code protection disabled
  6494  800B                     	org	32779
  6495  800B  3FFF               	dw	16383

Data Sizes:
    Strings     11
    Constant    32
    Data        0
    BSS         70
    Persistent  38
    Stack       0

Auto Spaces:
    Space          Size  Autos    Used
    COMMON           14     14      14
    BANK0            80     80      80
    BANK1            80      1      77
    BANK2            80      0       0
    BANK3            80      0       0
    BANK4            80      0       0
    BANK5            80      0       0
    BANK6            80      0       0
    BANK7            80      0       0
    BANK8            80      0       0
    BANK9            80      0       0
    BANK10           80      0       0
    BANK11           80      0       0
    BANK12           80      0       0
    BANK13           80      0       0
    BANK14           80      0       0
    BANK15           80      0       0
    BANK16           80      0       0
    BANK17           80      0       0
    BANK18           80      0       0
    BANK19           80      0       0
    BANK20           80      0       0
    BANK21           80      0       0
    BANK22           80      0       0
    BANK23           80      0       0
    BANK24           80      0       0
    BANK25           32      0       0

Pointer List with Targets:

    I2C1_Read1ByteRegister@returnValue.data	PTR unsigned char  size(1) Largest target is 0

    I2C1_Read2ByteRegister@returnValue.data	PTR unsigned char  size(1) Largest target is 0

    I2C1_Write1ByteRegister@data.data	PTR unsigned char  size(1) Largest target is 0

    I2C1_Write2ByteRegister@data.data	PTR unsigned char  size(1) Largest target is 0

    I2C1_DO_TX$1971$0	PTR void  size(1) Largest target is 4
		 -> I2C1_ReadDataBlock@bufferBlock(COMMON[3]), I2C1_Write2ByteRegister@data(COMMON[2]), I2C1_Write1ByteRegister@data(COMMON[1]), I2C1_Read2ByteRegister@returnValue(COMMON[2]), 
		 -> NULL(NULL[0]), I2C1_Read1ByteRegister@returnValue(COMMON[1]), 

    cb$0	PTR void  size(1) Largest target is 4
		 -> I2C1_ReadDataBlock@bufferBlock(COMMON[3]), I2C1_Write2ByteRegister@data(COMMON[2]), I2C1_Write1ByteRegister@data(COMMON[1]), I2C1_Read2ByteRegister@returnValue(COMMON[2]), 
		 -> NULL(NULL[0]), I2C1_Read1ByteRegister@returnValue(COMMON[1]), 

    Absolute function$0	PTR void  size(1) Largest target is 4
		 -> I2C1_ReadDataBlock@bufferBlock(COMMON[3]), I2C1_Write2ByteRegister@data(COMMON[2]), I2C1_Write1ByteRegister@data(COMMON[1]), I2C1_Read2ByteRegister@returnValue(COMMON[2]), 
		 -> NULL(NULL[0]), I2C1_Read1ByteRegister@returnValue(COMMON[1]), 

    cb$0	PTR void  size(1) Largest target is 4
		 -> I2C1_ReadDataBlock@bufferBlock(COMMON[3]), I2C1_Write2ByteRegister@data(COMMON[2]), I2C1_Write1ByteRegister@data(COMMON[1]), I2C1_Read2ByteRegister@returnValue(COMMON[2]), 
		 -> NULL(NULL[0]), I2C1_Read1ByteRegister@returnValue(COMMON[1]), 

    S324$0$0	PTR void  size(1) Largest target is 4
		 -> I2C1_ReadDataBlock@bufferBlock(COMMON[3]), I2C1_Write2ByteRegister@data(COMMON[2]), I2C1_Write1ByteRegister@data(COMMON[1]), I2C1_Read2ByteRegister@returnValue(COMMON[2]), 
		 -> NULL(NULL[0]), I2C1_Read1ByteRegister@returnValue(COMMON[1]), 

    strlen@s	PTR const unsigned char  size(1) Largest target is 32
		 -> dbuf(BANK1[32]), 

    strlen@a	PTR const unsigned char  size(1) Largest target is 32
		 -> dbuf(BANK1[32]), 

    fputs@s	PTR const unsigned char  size(1) Largest target is 32
		 -> dbuf(BANK1[32]), 

    fputs@fp	PTR struct _IO_FILE size(1) Largest target is 0
		 -> NULL(NULL[0]), 

    S1641_IO_FILE$buffer	PTR unsigned char  size(1) Largest target is 0

    fputc@fp.buffer	PTR unsigned char  size(1) Largest target is 0

    fputc@fp	PTR struct _IO_FILE size(1) Largest target is 0
		 -> NULL(NULL[0]), 

    vfprintf@ap	PTR PTR void  size(1) Largest target is 1
		 -> printf@ap(BANK0[1]), 

    vfprintf@fp	PTR struct _IO_FILE size(1) Largest target is 0
		 -> NULL(NULL[0]), 

    vfprintf@fmt	PTR const unsigned char  size(2) Largest target is 11
		 -> STR_1(CODE[11]), 

    vfprintf@cfmt	PTR unsigned char  size(2) Largest target is 11
		 -> STR_1(CODE[11]), 

    vfpfcnvrt@fp	PTR struct _IO_FILE size(1) Largest target is 0
		 -> NULL(NULL[0]), 

    vfpfcnvrt@ap	PTR PTR void  size(1) Largest target is 1
		 -> printf@ap(BANK0[1]), 

    vfpfcnvrt@fmt	PTR PTR unsigned char  size(1) Largest target is 2
		 -> vfprintf@cfmt(BANK0[2]), 

    dtoa@fp	PTR struct _IO_FILE size(1) Largest target is 0
		 -> NULL(NULL[0]), 

    pad@fp	PTR struct _IO_FILE size(1) Largest target is 0
		 -> NULL(NULL[0]), 

    pad@buf	PTR unsigned char  size(1) Largest target is 32
		 -> dbuf(BANK1[32]), 

    printf@fmt	PTR const unsigned char  size(2) Largest target is 11
		 -> STR_1(CODE[11]), 

    printf@ap	PTR void [1] size(1) Largest target is 2
		 -> ?_printf(BANK0[2]), 

    EUSART1_SetErrorHandler@interruptHandler	PTR FTN()void  size(2) Largest target is 1
		 -> EUSART1_DefaultErrorHandler(), 

    EUSART1_ErrorHandler	PTR FTN()void  size(2) Largest target is 1
		 -> EUSART1_DefaultErrorHandler(), Absolute function(), 

    EUSART1_SetOverrunErrorHandler@interruptHandler	PTR FTN()void  size(2) Largest target is 1
		 -> EUSART1_DefaultOverrunErrorHandler(), 

    EUSART1_OverrunErrorHandler	PTR FTN()void  size(2) Largest target is 1
		 -> EUSART1_DefaultOverrunErrorHandler(), Absolute function(), 

    EUSART1_SetFramingErrorHandler@interruptHandler	PTR FTN()void  size(2) Largest target is 1
		 -> EUSART1_DefaultFramingErrorHandler(), 

    EUSART1_FramingErrorHandler	PTR FTN()void  size(2) Largest target is 1
		 -> EUSART1_DefaultFramingErrorHandler(), Absolute function(), 

    S324$data_ptr	PTR unsigned char  size(1) Largest target is 4
		 -> I2C1_ReadDataBlock@reg(COMMON[1]), I2C1_ReadDataBlock@bufferBlock(COMMON[3]), I2C1_Write2ByteRegister@reg(COMMON[1]), I2C1_Write2ByteRegister@data(COMMON[2]), 
		 -> I2C1_Write1ByteRegister@reg(COMMON[1]), I2C1_Write1ByteRegister@data(COMMON[1]), I2C1_Read2ByteRegister@reg(COMMON[1]), I2C1_Read2ByteRegister@returnValue(COMMON[2]), 
		 -> NULL(NULL[0]), I2C1_Read1ByteRegister@reg(COMMON[1]), I2C1_Read1ByteRegister@returnValue(COMMON[1]), 

    I2C1_Status.data_ptr	PTR unsigned char  size(1) Largest target is 4
		 -> I2C1_ReadDataBlock@reg(COMMON[1]), I2C1_ReadDataBlock@bufferBlock(COMMON[3]), I2C1_Write2ByteRegister@reg(COMMON[1]), I2C1_Write2ByteRegister@data(COMMON[2]), 
		 -> I2C1_Write1ByteRegister@reg(COMMON[1]), I2C1_Write1ByteRegister@data(COMMON[1]), I2C1_Read2ByteRegister@reg(COMMON[1]), I2C1_Read2ByteRegister@returnValue(COMMON[2]), 
		 -> NULL(NULL[0]), I2C1_Read1ByteRegister@reg(COMMON[1]), I2C1_Read1ByteRegister@returnValue(COMMON[1]), 

    S324$callbackPayload	PTR void [6] size(1) Largest target is 4
		 -> I2C1_ReadDataBlock@bufferBlock(COMMON[3]), I2C1_Write2ByteRegister@data(COMMON[2]), I2C1_Write1ByteRegister@data(COMMON[1]), I2C1_Read2ByteRegister@returnValue(COMMON[2]), 
		 -> NULL(NULL[0]), I2C1_Read1ByteRegister@returnValue(COMMON[1]), 

    I2C1_Status.callbackPayload	PTR void [6] size(1) Largest target is 4
		 -> I2C1_ReadDataBlock@bufferBlock(COMMON[3]), I2C1_Write2ByteRegister@data(COMMON[2]), I2C1_Write1ByteRegister@data(COMMON[1]), I2C1_Read2ByteRegister@returnValue(COMMON[2]), 
		 -> NULL(NULL[0]), I2C1_Read1ByteRegister@returnValue(COMMON[1]), 

    S324$callbackTable	PTR FTN(PTR void ,)enum E360[6] size(2) Largest target is 1
		 -> I2C1_CallbackReturnReset(), I2C1_CallbackReturnStop(), Absolute function(), rdBlkRegCompleteHandler(), 
		 -> wr2RegCompleteHandler(), wr1RegCompleteHandler(), rd2RegCompleteHandler(), rd1RegCompleteHandler(), 

    I2C1_Status.callbackTable	PTR FTN(PTR void ,)enum E360[6] size(2) Largest target is 1
		 -> I2C1_CallbackReturnReset(), I2C1_CallbackReturnStop(), Absolute function(), rdBlkRegCompleteHandler(), 
		 -> wr2RegCompleteHandler(), wr1RegCompleteHandler(), rd2RegCompleteHandler(), rd1RegCompleteHandler(), 

    i2c1_fsmStateTable	const PTR FTN()enum E8119[16] size(2) Largest target is 1
		 -> I2C1_DO_ADDRESS_NACK(), I2C1_DO_RESET(), I2C1_DO_RX_NACK_RESTART(), I2C1_DO_RX_NACK_STOP(), 
		 -> I2C1_DO_RX_ACK(), I2C1_DO_SEND_STOP(), I2C1_DO_SEND_RESTART(), I2C1_DO_SEND_RESTART_WRITE(), 
		 -> I2C1_DO_SEND_RESTART_READ(), I2C1_DO_TX_EMPTY(), I2C1_DO_RCEN(), I2C1_DO_RX(), 
		 -> I2C1_DO_TX(), I2C1_DO_SEND_ADR_WRITE(), I2C1_DO_SEND_ADR_READ(), I2C1_DO_IDLE(), 

    rdBlkRegCompleteHandler@ptr.data	PTR unsigned char  size(1) Largest target is 0

    S94$data	PTR unsigned char  size(1) Largest target is 0

    bufferBlock.data	PTR unsigned char  size(1) Largest target is 0


Critical Paths under _main in COMMON

    _pad->_fputs
    _fputs->_fputc
    _fputc->_putch
    _putch->_EUSART1_Write
    _abs->___aomod
    _EUSART1_Initialize->_EUSART1_SetErrorHandler
    _EUSART1_Initialize->_EUSART1_SetFramingErrorHandler
    _EUSART1_Initialize->_EUSART1_SetOverrunErrorHandler
    _EepWriteByte->_Send_I2C_ControlByte
    _EepReadByte->_Read_I2C_Data

Critical Paths under _main in BANK0

    _main->_printf
    _printf->_vfprintf
    _vfprintf->_vfpfcnvrt
    _vfpfcnvrt->_dtoa
    _dtoa->___aodiv
    _dtoa->___aomod
    _pad->_fputs
    _abs->___aomod

Critical Paths under _main in BANK1

    None.

Critical Paths under _main in BANK2

    None.

Critical Paths under _main in BANK3

    None.

Critical Paths under _main in BANK4

    None.

Critical Paths under _main in BANK5

    None.

Critical Paths under _main in BANK6

    None.

Critical Paths under _main in BANK7

    None.

Critical Paths under _main in BANK8

    None.

Critical Paths under _main in BANK9

    None.

Critical Paths under _main in BANK10

    None.

Critical Paths under _main in BANK11

    None.

Critical Paths under _main in BANK12

    None.

Critical Paths under _main in BANK13

    None.

Critical Paths under _main in BANK14

    None.

Critical Paths under _main in BANK15

    None.

Critical Paths under _main in BANK16

    None.

Critical Paths under _main in BANK17

    None.

Critical Paths under _main in BANK18

    None.

Critical Paths under _main in BANK19

    None.

Critical Paths under _main in BANK20

    None.

Critical Paths under _main in BANK21

    None.

Critical Paths under _main in BANK22

    None.

Critical Paths under _main in BANK23

    None.

Critical Paths under _main in BANK24

    None.

Critical Paths under _main in BANK25

    None.

Call Graph Tables:

 ---------------------------------------------------------------------------------
 (Depth) Function   	        Calls       Base Space   Used Autos Params    Refs
 ---------------------------------------------------------------------------------
 (0) _main                                                55    55      0    7342
                                             78 BANK0      2     2      0
                                              0 BANK1      1     1      0
                        _EepReadByte
                       _EepWriteByte
                  _SYSTEM_Initialize
                             _printf
 ---------------------------------------------------------------------------------
 (1) _printf                                               8     4      4    5936
                                             70 BANK0      8     4      4
                           _vfprintf
 ---------------------------------------------------------------------------------
 (2) _vfprintf                                             8     5      3    5806
                                             62 BANK0      8     5      3
                          _vfpfcnvrt
 ---------------------------------------------------------------------------------
 (3) _vfpfcnvrt                                           40    38      2    5478
                                             46 BANK0     16    14      2
                               _dtoa
                              _fputc
 ---------------------------------------------------------------------------------
 (4) _dtoa                                                30    22      8    4133
                                             16 BANK0     30    22      8
                            ___aodiv
                            ___aomod
                                _abs
                                _pad
 ---------------------------------------------------------------------------------
 (5) _pad                                                  9     6      3    2510
                                              4 BANK0      9     6      3
                              _fputc
                              _fputs
                             _strlen
 ---------------------------------------------------------------------------------
 (6) _strlen                                               5     3      2     123
                                              0 COMMON     5     3      2
 ---------------------------------------------------------------------------------
 (6) _fputs                                                8     7      1    1127
                                             10 COMMON     4     3      1
                                              0 BANK0      4     4      0
                              _fputc
 ---------------------------------------------------------------------------------
 (4) _fputc                                                8     5      3     812
                                              2 COMMON     8     5      3
                              _putch
 ---------------------------------------------------------------------------------
 (5) _putch                                                1     1      0      44
                                              1 COMMON     1     1      0
                      _EUSART1_Write
 ---------------------------------------------------------------------------------
 (6) _EUSART1_Write                                        1     1      0      22
                                              0 COMMON     1     1      0
 ---------------------------------------------------------------------------------
 (5) _abs                                                  4     2      2     142
                                              3 COMMON     4     2      2
                            ___aomod (ARG)
 ---------------------------------------------------------------------------------
 (5) ___aomod                                             19     3     16     448
                                              0 COMMON     3     3      0
                                              0 BANK0     16     0     16
 ---------------------------------------------------------------------------------
 (5) ___aodiv                                             27    11     16     452
                                              0 COMMON    11    11      0
                                              0 BANK0     16     0     16
 ---------------------------------------------------------------------------------
 (1) _SYSTEM_Initialize                                    0     0      0     294
                 _EUSART1_Initialize
                    _I2C1_Initialize
              _OSCILLATOR_Initialize
             _PIN_MANAGER_Initialize
                     _PMD_Initialize
 ---------------------------------------------------------------------------------
 (2) _PMD_Initialize                                       0     0      0       0
 ---------------------------------------------------------------------------------
 (2) _PIN_MANAGER_Initialize                               0     0      0       0
 ---------------------------------------------------------------------------------
 (2) _OSCILLATOR_Initialize                                0     0      0       0
 ---------------------------------------------------------------------------------
 (2) _I2C1_Initialize                                      0     0      0       0
 ---------------------------------------------------------------------------------
 (2) _EUSART1_Initialize                                   0     0      0     294
            _EUSART1_SetErrorHandler
     _EUSART1_SetFramingErrorHandler
     _EUSART1_SetOverrunErrorHandler
 ---------------------------------------------------------------------------------
 (3) _EUSART1_SetOverrunErrorHandler                       2     0      2      98
                                              0 COMMON     2     0      2
 ---------------------------------------------------------------------------------
 (3) _EUSART1_SetFramingErrorHandler                       2     0      2      98
                                              0 COMMON     2     0      2
 ---------------------------------------------------------------------------------
 (3) _EUSART1_SetErrorHandler                              2     0      2      98
                                              0 COMMON     2     0      2
 ---------------------------------------------------------------------------------
 (1) _EepWriteByte                                         5     2      3     558
                                              2 COMMON     5     2      3
               _Send_I2C_ControlByte
                      _Send_I2C_Data
                  _Send_I2C_StartBit
                   _Send_I2C_StopBit
 ---------------------------------------------------------------------------------
 (1) _EepReadByte                                          6     4      2     530
                                              4 COMMON     6     4      2
                      _Read_I2C_Data
               _Send_I2C_ControlByte
                      _Send_I2C_Data
                       _Send_I2C_NAK
                  _Send_I2C_StartBit
                   _Send_I2C_StopBit
 ---------------------------------------------------------------------------------
 (2) _Send_I2C_StopBit                                     0     0      0       0
 ---------------------------------------------------------------------------------
 (2) _Send_I2C_StartBit                                    0     0      0       0
 ---------------------------------------------------------------------------------
 (2) _Send_I2C_NAK                                         0     0      0       0
 ---------------------------------------------------------------------------------
 (2) _Send_I2C_Data                                        1     1      0      22
                                              0 COMMON     1     1      0
 ---------------------------------------------------------------------------------
 (2) _Send_I2C_ControlByte                                 2     1      1     272
                                              0 COMMON     2     1      1
 ---------------------------------------------------------------------------------
 (2) _Read_I2C_Data                                        4     2      2       0
                                              0 COMMON     4     2      2
 ---------------------------------------------------------------------------------
 Estimated maximum stack depth 6
 ---------------------------------------------------------------------------------

 Call Graph Graphs:

 _main (ROOT)
   _EepReadByte
     _Read_I2C_Data
     _Send_I2C_ControlByte
     _Send_I2C_Data
     _Send_I2C_NAK
     _Send_I2C_StartBit
     _Send_I2C_StopBit
   _EepWriteByte
     _Send_I2C_ControlByte
     _Send_I2C_Data
     _Send_I2C_StartBit
     _Send_I2C_StopBit
   _SYSTEM_Initialize
     _EUSART1_Initialize
       _EUSART1_SetErrorHandler
       _EUSART1_SetFramingErrorHandler
       _EUSART1_SetOverrunErrorHandler
     _I2C1_Initialize
     _OSCILLATOR_Initialize
     _PIN_MANAGER_Initialize
     _PMD_Initialize
   _printf
     _vfprintf
       _vfpfcnvrt
         _dtoa
           ___aodiv
           ___aomod
           _abs
             ___aomod (ARG)
           _pad
             _fputc
               _putch
                 _EUSART1_Write
             _fputs
               _fputc
                 _putch
                   _EUSART1_Write
             _strlen
         _fputc
           _putch
             _EUSART1_Write

 Address spaces:
Name               Size   Autos  Total    Cost      Usage
BIGRAM             7F0      0       0       0        0.0%
NULL                 0      0       0       0        0.0%
CODE                 0      0       0       0        0.0%
BITCOMMON            E      0       0       1        0.0%
BITSFR0              0      0       0       1        0.0%
SFR0                 0      0       0       1        0.0%
COMMON               E      E       E       2      100.0%
BITSFR1              0      0       0       2        0.0%
SFR1                 0      0       0       2        0.0%
BITSFR2              0      0       0       3        0.0%
SFR2                 0      0       0       3        0.0%
STACK                0      0       0       3        0.0%
BITBANK0            50      0       0       4        0.0%
BITSFR3              0      0       0       4        0.0%
SFR3                 0      0       0       4        0.0%
BANK0               50     50      50       5      100.0%
BITSFR4              0      0       0       5        0.0%
SFR4                 0      0       0       5        0.0%
BITBANK1            50      0       0       6        0.0%
BITSFR5              0      0       0       6        0.0%
SFR5                 0      0       0       6        0.0%
BANK1               50      1      4D       7       96.2%
BITSFR6              0      0       0       7        0.0%
SFR6                 0      0       0       7        0.0%
BITSFR7              0      0       0       8        0.0%
SFR7                 0      0       0       8        0.0%
ABS                  0      0      AB       8        0.0%
BITBANK2            50      0       0       9        0.0%
BITSFR8              0      0       0       9        0.0%
SFR8                 0      0       0       9        0.0%
BANK2               50      0       0      10        0.0%
BITSFR9              0      0       0      10        0.0%
SFR9                 0      0       0      10        0.0%
BITBANK3            50      0       0      11        0.0%
BITSFR10             0      0       0      11        0.0%
SFR10                0      0       0      11        0.0%
BANK3               50      0       0      12        0.0%
BITSFR11             0      0       0      12        0.0%
SFR11                0      0       0      12        0.0%
BITBANK4            50      0       0      13        0.0%
BITSFR12             0      0       0      13        0.0%
SFR12                0      0       0      13        0.0%
BANK4               50      0       0      14        0.0%
BITSFR13             0      0       0      14        0.0%
SFR13                0      0       0      14        0.0%
BITBANK5            50      0       0      15        0.0%
BITSFR14             0      0       0      15        0.0%
SFR14                0      0       0      15        0.0%
BANK5               50      0       0      16        0.0%
BITSFR15             0      0       0      16        0.0%
SFR15                0      0       0      16        0.0%
BITBANK6            50      0       0      17        0.0%
BITSFR16             0      0       0      17        0.0%
SFR16                0      0       0      17        0.0%
BANK6               50      0       0      18        0.0%
BITSFR17             0      0       0      18        0.0%
SFR17                0      0       0      18        0.0%
BITBANK7            50      0       0      19        0.0%
BITSFR18             0      0       0      19        0.0%
SFR18                0      0       0      19        0.0%
BANK7               50      0       0      20        0.0%
BITSFR19             0      0       0      20        0.0%
SFR19                0      0       0      20        0.0%
BITBANK8            50      0       0      21        0.0%
BITSFR20             0      0       0      21        0.0%
SFR20                0      0       0      21        0.0%
BANK8               50      0       0      22        0.0%
BITSFR21             0      0       0      22        0.0%
SFR21                0      0       0      22        0.0%
BITBANK9            50      0       0      23        0.0%
BITSFR22             0      0       0      23        0.0%
SFR22                0      0       0      23        0.0%
BANK9               50      0       0      24        0.0%
BITSFR23             0      0       0      24        0.0%
SFR23                0      0       0      24        0.0%
BITBANK10           50      0       0      25        0.0%
BITSFR24             0      0       0      25        0.0%
SFR24                0      0       0      25        0.0%
BANK10              50      0       0      26        0.0%
BITSFR25             0      0       0      26        0.0%
SFR25                0      0       0      26        0.0%
BITBANK11           50      0       0      27        0.0%
BITSFR26             0      0       0      27        0.0%
SFR26                0      0       0      27        0.0%
BANK11              50      0       0      28        0.0%
BITSFR27             0      0       0      28        0.0%
SFR27                0      0       0      28        0.0%
BITBANK12           50      0       0      29        0.0%
BITSFR28             0      0       0      29        0.0%
SFR28                0      0       0      29        0.0%
BANK12              50      0       0      30        0.0%
BITSFR29             0      0       0      30        0.0%
SFR29                0      0       0      30        0.0%
BITBANK13           50      0       0      31        0.0%
BITSFR30             0      0       0      31        0.0%
SFR30                0      0       0      31        0.0%
BANK13              50      0       0      32        0.0%
BITSFR31             0      0       0      32        0.0%
SFR31                0      0       0      32        0.0%
BITBANK14           50      0       0      33        0.0%
BITSFR32             0      0       0      33        0.0%
SFR32                0      0       0      33        0.0%
BANK14              50      0       0      34        0.0%
BITSFR33             0      0       0      34        0.0%
SFR33                0      0       0      34        0.0%
BITBANK15           50      0       0      35        0.0%
BITSFR34             0      0       0      35        0.0%
SFR34                0      0       0      35        0.0%
BANK15              50      0       0      36        0.0%
BITSFR35             0      0       0      36        0.0%
SFR35                0      0       0      36        0.0%
BITBANK16           50      0       0      37        0.0%
BITSFR36             0      0       0      37        0.0%
SFR36                0      0       0      37        0.0%
BANK16              50      0       0      38        0.0%
BITSFR37             0      0       0      38        0.0%
SFR37                0      0       0      38        0.0%
BITBANK17           50      0       0      39        0.0%
BITSFR38             0      0       0      39        0.0%
SFR38                0      0       0      39        0.0%
BANK17              50      0       0      40        0.0%
BITSFR39             0      0       0      40        0.0%
SFR39                0      0       0      40        0.0%
BITBANK18           50      0       0      41        0.0%
BITSFR40             0      0       0      41        0.0%
SFR40                0      0       0      41        0.0%
BANK18              50      0       0      42        0.0%
BITSFR41             0      0       0      42        0.0%
SFR41                0      0       0      42        0.0%
BITBANK19           50      0       0      43        0.0%
BITSFR42             0      0       0      43        0.0%
SFR42                0      0       0      43        0.0%
BANK19              50      0       0      44        0.0%
BITSFR43             0      0       0      44        0.0%
SFR43                0      0       0      44        0.0%
BITBANK20           50      0       0      45        0.0%
BITSFR44             0      0       0      45        0.0%
SFR44                0      0       0      45        0.0%
BANK20              50      0       0      46        0.0%
BITSFR45             0      0       0      46        0.0%
SFR45                0      0       0      46        0.0%
BITBANK21           50      0       0      47        0.0%
BITSFR46             0      0       0      47        0.0%
SFR46                0      0       0      47        0.0%
BANK21              50      0       0      48        0.0%
BITSFR47             0      0       0      48        0.0%
SFR47                0      0       0      48        0.0%
BITBANK22           50      0       0      49        0.0%
BITSFR48             0      0       0      49        0.0%
SFR48                0      0       0      49        0.0%
BANK22              50      0       0      50        0.0%
BITSFR49             0      0       0      50        0.0%
SFR49                0      0       0      50        0.0%
BITBANK23           50      0       0      51        0.0%
BITSFR50             0      0       0      51        0.0%
SFR50                0      0       0      51        0.0%
BANK23              50      0       0      52        0.0%
BITSFR51             0      0       0      52        0.0%
SFR51                0      0       0      52        0.0%
BITBANK24           50      0       0      53        0.0%
BITSFR52             0      0       0      53        0.0%
SFR52                0      0       0      53        0.0%
BANK24              50      0       0      54        0.0%
BITSFR53             0      0       0      54        0.0%
SFR53                0      0       0      54        0.0%
BITBANK25           20      0       0      55        0.0%
BITSFR54             0      0       0      55        0.0%
SFR54                0      0       0      55        0.0%
BANK25              20      0       0      56        0.0%
BITSFR55             0      0       0      56        0.0%
SFR55                0      0       0      56        0.0%
BITSFR56             0      0       0      57        0.0%
SFR56                0      0       0      57        0.0%
DATA                 0      0      AB      57        0.0%
BITSFR57             0      0       0      58        0.0%
SFR57                0      0       0      58        0.0%
BITSFR58             0      0       0      59        0.0%
SFR58                0      0       0      59        0.0%
BITSFR59             0      0       0      60        0.0%
SFR59                0      0       0      60        0.0%
BITSFR60             0      0       0      61        0.0%
SFR60                0      0       0      61        0.0%
BITSFR61             0      0       0      62        0.0%
SFR61                0      0       0      62        0.0%
BITSFR62             0      0       0      63        0.0%
SFR62                0      0       0      63        0.0%
BITSFR63             0      0       0      64        0.0%
SFR63                0      0       0      64        0.0%


Microchip Technology PIC Macro Assembler V2.31 build 20201012212115 
Symbol Table                                                                                   Wed Aug 18 01:19:57 2021

                                 _Read_I2C_Data 0157                                             l142 0117  
                                           l230 031A                                             l145 00F0  
                                           l139 0156                                             l600 0146  
                                           l338 00F9                                             l603 00FE  
                                           l612 010D                                             l621 0127  
                                           l606 0103                                             l630 01F5  
                                           l624 012C                                             l609 0108  
                                           l714 0119                                             l723 00E2  
                                           l741 00D0                                             l717 0121  
                                           l910 0686                                             l591 015B  
                                           l639 02D0                                             l735 00D6  
                                           l585 0133                                             l594 0168  
                                           l738 00DC                                             l690 01CF  
                                           l922 0574                                             l923 0585  
                                           l588 0138                                             l597 0141  
                                           l909 0675                            __end_of_EepWriteByte 01F6  
                                           u980 011E                                             u981 011D  
                                           u990 0254                                             u991 0253  
                                           _abs 0194                    __end_of_Send_I2C_ControlByte 0147  
                                           _pad 0368                         __size_of_PMD_Initialize 0008  
                                           wreg 0009                            _I2C1_DO_RX_NACK_STOP 0000  
                                          ?_abs 0073                                            l1302 03A6  
                                          l1303 03B4                                            l1304 03C0  
                                          l1312 06F6                                            l1313 070E  
                                          l1330 07F4                                            l1307 06D0  
                                          l1316 077E                                            l1308 06D9  
                                          l1351 01AD                                            l1344 024E  
                                          l1272 017A                                            l2401 017C  
                                          l1337 049B                                            l2411 0586  
                                          l1363 028D                                            l1371 021D  
                                          l2403 0181                                            l1348 01AD  
                                          l2421 05DB                                            l2413 0587  
                                          l2501 01A1                                            l2405 0185  
                                          l2431 0601                                            l2423 05DF  
                                          l2415 0591                                            l2407 018D  
                                          l2511 06D5                                            l2503 0689  
                                          l2441 0643                                            l2433 0605  
                                          l2425 05E9                                            l2417 05B2  
                                          l1377 0193                                            l2521 0709  
                                          l2513 06E8                                            l2505 0699  
                                          l2443 0644                                            l2435 0609  
                                          l2427 05F6                                            l2419 05BC  
                                          l2451 049D                                            l1299 0384  
                                          l2531 074D                                            l2523 0713  
                                          l2515 06EE                                            l2507 06AC  
                                          l2611 0491                                            l2603 046D  
                                          l3331 032D                                            l3323 031B  
                                          l2701 013A                                            l2437 0611  
                                          l2429 05F9                                            l2445 0652  
                                          l2461 04FE                                            l2453 04A7  
                                          l2373 0119                                            l2381 0254  
                                          l2541 07B4                                            l2533 0751  
                                          l2525 0716                                            l2517 06FE  
                                          l2509 06B2                                            l2605 0475  
                                          l3333 033A                                            l3325 031E  
                                          l2703 013C                                            l2631 00F5  
                                          l2447 0657                                            l2439 0633  
                                          l2471 0533                                            l2463 0501  
                                          l2455 04C8                                            l2375 011E  
                                          l2383 0259                                            l2551 07D0  
                                          l2535 078C                                            l2543 07B9  
                                          l2527 071B                                            l2519 0704  
                                          l2711 0220                                            l3335 033A  
                                          l3327 0323                                            l2705 00FA  
                                          l2633 00F8                                            l2641 02DB  
                                          l2625 00E9                                            l2473 0543  
                                          l2465 0509                                            l2457 04D2  
                                          l2449 049C                                            l2377 00DE  
                                          l2385 025E                                            l2393 01F8  
                                          l2481 036F                                            l2553 07D5  
                                          l2545 07C0                                            l2537 0799  
                                          l2529 0749                                            l2609 0478  
                                          l2713 0224                                            l3337 0347  
                                          l3329 0324                                            l2707 0104  
                                          l2811 01E1                                            l2803 01D1  
                                          l2571 00CB                                            l2627 00F1  
                                          l2651 02E6                                            l2643 02DD  
                                          l2635 02D1                                            l2467 050D  
                                          l2475 0551                                            l2459 04F1  
                                          l2387 0268                                            l2379 024F  
                                          l2395 01FB                                            l2491 0393  
                                          l2483 0378                                            l2555 07D9  
                                          l2547 07C5                                            l2539 07A6  
                                          l2715 0228                                            l3339 0358  
                                          l2709 0122                                            l2821 0292  
                                          l2813 01E6                                            l2805 01D4  
                                          l2629 00F3                                            l2661 02F3  
                                          l2653 02E8                                            l2645 02DF  
                                          l2637 02D7                                            l2477 0556  
                                          l2469 0511                                            l2389 0285  
                                          l2397 0209                                            l2493 0398  
                                          l2485 037D                                            l2549 07CA  
                                          l2557 07E1                                            l2581 03E5  
                                          l2573 03C3                                            l2717 023C  
                                          l2831 02AC                                            l2823 0295  
                                          l2815 01F2                                            l2807 01D7  
                                          l2567 00D1                                            l2671 0111  
                                          l2663 02F4                                            l2655 02EA  
                                          l2647 02E1                                            l2639 02D9  
                                          l2399 020E                                            l2495 03AB  
                                          l2487 0382                                            l2479 036A  
                                          l2583 03F7                                            l2575 03D4  
                                          l2719 0246                                            l2841 02C2  
                                          l2833 02AF                                            l2825 029A  
                                          l2817 028F                                            l2809 01DC  
                                          l2569 00D7                                            l2681 01B7  
                                          l2673 0112                                            l2665 02F5  
                                          l2657 02F0                                            l2649 02E4  
                                          l2761 0147                                            l2489 0387  
                                          l2593 0443                                            l2585 0408  
                                          l2577 03DC                                            l2691 012E  
                                          l2843 02C9                                            l2835 02B2  
                                          l2827 029F                                            l2819 0291  
                                          l2683 01B8                                            l2675 0115  
                                          l2667 02F6                                            l2659 02F2  
                                          l2763 014A                                            l2499 0194  
                                          l2595 0454                                            l2587 0410  
                                          l2579 03E1                                            l2851 0169  
                                          l2693 0130                                            l2845 02CC  
                                          l2837 02B8                                            l2829 02A4  
                                          l2685 01BF                                            l2677 0116  
                                          l2669 010E                                            l2765 014D  
                                          l2597 045C                                            l2589 0429  
                                          l2853 016E                                            ?_pad 0024  
                                          l2695 0157                                            l2847 02CF  
                                          l2839 02BD                                            l2687 01C6  
                                          l2679 01AE                                            l2767 0150  
                                          l2599 0467                                            l2697 0160  
                                          l2689 01CD                                            l2769 0153  
                                          STR_1 0820                                            u1000 0259  
                                          u1001 0258                                            u1010 0268  
                                          u1011 0267                                            u1100 05F6  
                                          u1020 0285                                            u1101 05F5  
                                          u1021 0284                                            u1110 0609  
                                          u1030 021D                                            u1111 0608  
                                          u1031 021C                                            u1120 0633  
                                          u1200 04FE                                            u1040 018D  
                                          u1121 0632                                            u1201 04FD  
                                          u1025 0281                                            u1041 018C  
                                          u1130 0652                                            u1050 0591  
                                          u1210 0511                                            u1131 0651  
                                          u1051 0590                                            u1211 0510  
                                          u1140 0657                                            u1220 0533  
                                          u1300 01A1                                            u1141 0656  
                                          u1125 062F                                            u1221 0532  
                                          u1301 01A0                                            u1070 05BC  
                                          u1230 0551                                            u1310 06A4  
                                          u1071 05BB                                            u1231 0550  
                                          u1311 06A2                                            u1240 0556  
                                          u1160 04A7                                            u1400 0799  
                                          u1320 06A5                                            u1241 0555  
                                          u1225 052F                                            u1161 04A6  
                                          u1305 019D                                            u1401 0798  
                                          u1090 05E6                                            u1410 07A6  
                                          u1330 06B2                                            u1411 07A5  
                                          u1331 06B1                                            u1180 04D2  
                                          u1260 036F                                            u1420 07B4  
                                          u1500 0408                                            u1181 04D1  
                                          u1261 036E                                            u1421 07B3  
                                          u1501 0407                                            _LATA 0018  
                                          u1270 037D                                            u1430 07B9  
                                          u1350 06D5                                            u1510 0454  
                                          _LATB 0019                                            u1271 037C  
                                          u1431 07B8                                            u1415 07A2  
                                          u1351 06D4                                            u1511 0453  
                                          _LATC 001A                                            u1280 03A6  
                                          u1440 07C0                                            u1360 06E8  
                                          _LATD 001B                                            u1281 03A5  
                                          u1441 07BF                                            u1425 07B0  
                                          u1361 06E7                                            _LATE 001C  
                                          u1530 0138                                            u1290 03AB  
                                          u1450 07C5                                            u1370 0704  
                                          u1531 0137                                            u1291 03AA  
                                          u1451 07C4                                            u1371 0703  
                                          u1540 0160                                            u1620 01E6  
                                          u1460 07D0                                            u1380 0709  
                                          u1541 015F                                            u1621 01E5  
                                          u1285 03A2                                            u1461 07CF  
                                          u1381 0708                                            u1365 06E4  
                                          u1550 0146                                            u1630 02A4  
                                          u1390 078C                                            u1551 0145  
                                          u1631 02A3                                            u1391 078B  
                                          u1560 0103                                            u1640 02C2  
                                          u1480 03D4                                            u1561 0102  
                                          u1641 02C1                                            u1481 03D3  
                                          u1570 010D                                            u1490 03F7  
                                          u1571 010C                                            u1395 0788  
                                          u1491 03F6                                            u1580 012C  
                                          u1581 012B                                            u1590 0246  
                                          u1591 0245                                            u1927 0328  
                                          u1937 035E                                            _PMD0 0796  
                                          _PMD1 0797                                            _PMD2 0798  
                                          _PMD3 0799                                            _PMD4 079A  
                                          _PMD5 079B                                            _WPUA 1F39  
                                          _WPUB 1F44                                            _WPUC 1F4F  
                                          _WPUD 1F5A                                            _WPUE 1F65  
                                 _EUSART1_Write 0118                                            abs@a 0073  
                                          _dbuf 00C6                                            _main 031B  
                                          _dtoa 0687                                            _prec 00C1  
                                          _nout 00BD                                            pad@i 0028  
                                          pad@p 0025                                            fsr0h 0005  
                                          fsr1h 0007                                            indf0 0000  
                                          fsr0l 0004                                            indf1 0001  
                                          fsr1l 0006                                            pad@w 002A  
                                          btemp 007E                                            start 0002  
                                         ??_abs 0075                                           ??_pad 0027  
                                ?_Read_I2C_Data 0070                  __size_of_OSCILLATOR_Initialize 000A  
                 __end_of_OSCILLATOR_Initialize 0118                                 __end_of___aodiv 0687  
                                         ?_main 0070                                           ?_dtoa 0030  
                               __end_of___aomod 0586                      __end_of_i2c1_fsmStateTable 0820  
                                         _OSCEN 0891                                    vfpfcnvrt@fmt 004E  
                                         _TRISA 0012                                           _TRISB 0013  
                                         _TRISC 0014                                           _TRISD 0015  
                                         _TRISE 0016                                     _EepReadByte 028E  
                             ??_I2C1_Initialize 0070                                           _flags 00C3  
                                         _fputc 024F                                           _fputs 01F6  
                                         pad@fp 002C                                           _width 00BF  
                                         _putch 00DD                                           dtoa@d 0030  
                                         dtoa@i 004C                                           dtoa@n 0044  
                                         dtoa@p 003D                                           dtoa@s 0042  
                                         dtoa@w 0040                                  ?_EUSART1_Write 0070  
                               EepReadByte@data 0077                                           status 0003  
                                         wtemp0 007E                      __size_of_Send_I2C_StartBit 000A  
            _EUSART1_DefaultFramingErrorHandler 0000                                 __initialization 07F5  
                    __end_of_EUSART1_Initialize 01D0                                    __end_of_main 0368  
                                  __end_of_dtoa 07F5                                          ??_main 006E  
                                        ??_dtoa 0038                Send_I2C_ControlByte@BlockAddress 0071  
                                        ?_fputc 0072                                          ?_fputs 007A  
                                        _ANSELA 1F38                                          ?_putch 0070  
                                        _ANSELB 1F43                                          _ANSELC 1F4E  
                                        _ANSELD 1F59                                          _ANSELE 1F64  
                                        _RC1REG 0119                                          _RC1STA 011D  
                                        _RC2PPS 1F22                                          _RC4PPS 1F24  
                                        _ODCONA 1F3A                                          _ODCONB 1F45  
                                        _ODCONC 1F50                                          _RC6PPS 1F26  
                                        _ODCOND 1F5B                                          _ODCONE 1F66  
                                        _INLVLA 1F3C                                          _INLVLB 1F47  
                                        _INLVLC 1F52                                          _INLVLD 1F5D  
                                        _INLVLE 1F68                                   ?_Send_I2C_NAK 0070  
                                        _OSCFRQ 0893                                          u106lld 05B0  
                                        u115lld 0675                                          u108lld 05DB  
                                        u125lld 0574                                          u117lld 04C6  
                                        u134lld 06D0                                          u119lld 04F1  
                                        _TX1REG 011A                                          _TX1STA 011E  
                              _I2C1_DO_TX_EMPTY 0000                            _Send_I2C_ControlByte 0139  
                                  vfprintf@cfmt 0064                                       ??___aodiv 0070  
                                     ??___aomod 0070                                 ??_Read_I2C_Data 0072  
                        __size_of_Send_I2C_Data 000C                           __size_of_EepWriteByte 0026  
                      ?_EUSART1_SetErrorHandler 0070                                          _printf 0169  
                                        pad@buf 0024                ??_EUSART1_SetOverrunErrorHandler 0072  
               ?_EUSART1_SetOverrunErrorHandler 0070                                          dtoa@fp 003F  
                                        _strlen 017B                           _I2C1_DO_SEND_ADR_READ 0000  
                                        fputc@c 0072                                  _PMD_Initialize 00E9  
                                        fputs@c 0020                                          fputs@i 0021  
                                        fputs@s 0023                           Send_I2C_Data@databyte 0070  
                              __end_of_vfprintf 024F                                 ??_EUSART1_Write 0070  
                       _I2C1_DO_RX_NACK_RESTART 0000                                  ??_Send_I2C_NAK 0070  
                             _SYSTEM_Initialize 0147                         __end_of__initialization 07FD  
                            ?_SYSTEM_Initialize 0070                                    _EepWriteByte 01D0  
                         ?_Send_I2C_ControlByte 0070                         _rdBlkRegCompleteHandler 0000  
                     __size_of_Send_I2C_StopBit 000A                                  __pcstackCOMMON 0070  
                           ??_SYSTEM_Initialize 0072                                   __end_of_fputc 028E  
                                 __end_of_fputs 021E                                   __end_of_putch 00E3  
                        __end_of_PMD_Initialize 00F1                                   _Send_I2C_Data 012D  
                                       ??_fputc 0075                       __end_of_SYSTEM_Initialize 0157  
                                       ??_fputs 007B                                         ??_putch 0071  
                                    __pbssBANK1 00A0                           _rd1RegCompleteHandler 0000  
                             _I2C1_DO_SEND_STOP 0000                           _wr1RegCompleteHandler 0000  
               __end_of_EUSART1_SetErrorHandler 00D1                                      __pmaintext 031B  
                           EepWriteByte@ACK_bit 0076                                 _I2C1_Initialize 00F1  
                                       ?_printf 0066                                 ?_PMD_Initialize 0070  
                                       ?_strlen 0070          __end_of_EUSART1_SetFramingErrorHandler 00D7  
       __size_of_EUSART1_SetFramingErrorHandler 0006                  _EUSART1_SetFramingErrorHandler 00D1  
                                  ?_EepReadByte 0074                                         _SP1BRGH 011C  
                                       _SP1BRGL 011B                                         _OSCCON1 088D  
                                       _OSCCON3 088F                              __size_of_vfpfcnvrt 00DB  
                                       _OSCSTAT 0890                                  ?_Send_I2C_Data 0070  
                                       _OSCTUNE 0892                                         _SSP1ADD 018D  
                                       _SLRCONA 1F3B                                         _SLRCONB 1F46  
                                       _SLRCONC 1F51                                         _SLRCOND 1F5C  
                                       _SLRCONE 1F67                                         _SSP1BUF 018C  
                            _i2c1_fsmStateTable 0800                          ??_Send_I2C_ControlByte 0071  
                           EepWriteByte@dev_add 0075                                         ___aodiv 0586  
                                       ___aomod 049C                                       ?_vfprintf 005E  
                           EepWriteByte@reg_add 0072                            __end_of_Send_I2C_NAK 012D  
                                       __ptext1 0169                                         __ptext2 021E  
                                       __ptext3 03C1                                         __ptext4 0687  
                                       __ptext5 0368                                         __ptext6 017B  
                                       __ptext7 01F6                                         __ptext8 024F  
                                       __ptext9 00DD                                 __size_of_printf 0012  
                               __size_of_strlen 0019                           _OSCILLATOR_Initialize 010E  
                                  __size_of_abs 001A                                EepWriteByte@byte 0074  
                                  __size_of_pad 0059                              _EUSART1_Initialize 01AE  
                      ??_PIN_MANAGER_Initialize 0070                      __size_of_SYSTEM_Initialize 0010  
                                       clrloop0 00E4                            end_of_initialization 07FD  
                           ?_EUSART1_Initialize 0070                                         fputc@fp 0074  
                   _EUSART1_OverrunErrorHandler 00E8                                         fputs@fp 007A  
                        _I2C1_DO_SEND_ADR_WRITE 0000                         __end_of_I2C1_Initialize 00FA  
                                   _I2C1_Status 00A0                                _Send_I2C_StopBit 0104  
                             __end_of_vfpfcnvrt 049C                                      ??_vfprintf 0061  
                          ??_EUSART1_Initialize 0072                      _I2C1_DO_SEND_RESTART_WRITE 0000  
                                       strlen@a 0073                                         strlen@s 0074  
                               ??_Send_I2C_Data 0070                __size_of_EUSART1_SetErrorHandler 0006  
                           EUSART1_Write@txData 0070                                     vfpfcnvrt@ap 004F  
                                   vfpfcnvrt@fp 005D                                     vfpfcnvrt@ll 0055  
                         __end_of_Read_I2C_Data 0169                                  _I2C1_DO_RX_ACK 0000  
                        ?_OSCILLATOR_Initialize 0070                                  __end_of_printf 017B  
                                __end_of_strlen 0194                             start_initialization 07F5  
               __size_of_PIN_MANAGER_Initialize 004A                                     __end_of_abs 01AE  
                                   __end_of_pad 03C1                            __size_of_EepReadByte 0043  
                                   putch@txData 0071                           __end_of_EUSART1_Write 0122  
                              ?_I2C1_Initialize 0070                                     vfprintf@fmt 005E  
                         __size_of_Send_I2C_NAK 000B                                ??_PMD_Initialize 0070  
                                      ??_printf 006A                                        ??_strlen 0072  
                          _I2C1_DO_SEND_RESTART 0000                                       ___latbits 0003  
                                 __pcstackBANK0 0020                                   __pcstackBANK1 00EC  
                              ___aodiv@dividend 0028                ??_EUSART1_SetFramingErrorHandler 0072  
               ?_EUSART1_SetFramingErrorHandler 0070                                    _Send_I2C_NAK 0122  
                                     __pnvBANK1 00E6                           _rd2RegCompleteHandler 0000  
                        _PIN_MANAGER_Initialize 02D1                                       _dtoa$1704 003B  
                         _wr2RegCompleteHandler 0000                                        ?___aodiv 0020  
                                      ?___aomod 0020                                ___aodiv@quotient 0073  
                             __size_of_vfprintf 0031                                        _BAUD1CON 011F  
            _EUSART1_DefaultOverrunErrorHandler 0000                            _EUSART1_ErrorHandler 00E6  
                      __end_of_Send_I2C_StopBit 010E                         _EUSART1_SetErrorHandler 00CB  
                                __size_of_fputc 003F                                  __size_of_fputs 0028  
                                __size_of_putch 0006         EUSART1_SetErrorHandler@interruptHandler 0070  
                                    _I2C1_DO_RX 0000                                      _I2C1_DO_TX 0000  
                                     clear_ram0 00E3                                        _PIE3bits 0719  
                 __size_of_Send_I2C_ControlByte 000E                                        _PIR3bits 070F  
                                      _RX1DTPPS 1ECB                       _I2C1_DO_SEND_RESTART_READ 0000  
                                      _SSP1CON1 0190                                        _SSP1CON2 0191  
                                      _SSP1STAT 018F                                       _vfpfcnvrt 03C1  
                                 _I2C1_DO_RESET 0000                                   ?_EepWriteByte 0072  
                                    vfprintf@ap 0060                                      vfprintf@fp 0063  
                       ??_OSCILLATOR_Initialize 0070                                __size_of___aodiv 0101  
                              __size_of___aomod 00EA                     __size_of_EUSART1_Initialize 0022  
                                    ?_vfpfcnvrt 004E                                 ___aodiv@divisor 0020  
                               ___aodiv@counter 0071                       ??_EUSART1_SetErrorHandler 0072  
                   _EUSART1_DefaultErrorHandler 0000                           __end_of_Send_I2C_Data 0139  
                                      __ptext10 0118                                        __ptext11 0194  
                                      __ptext20 00D7                                        __ptext12 049C  
                                      __ptext21 00D1                                        __ptext13 0586  
                                      __ptext30 0157                                        __ptext22 00CB  
                                      __ptext14 0147                                        __ptext23 01D0  
                                      __ptext15 00E9                                        __ptext24 028E  
                                      __ptext16 02D1                                        __ptext25 0104  
                                      __ptext17 010E                                        __ptext26 00FA  
                                      __ptext18 00F1                                        __ptext27 0122  
                                      __ptext19 01AE                                        __ptext28 012D  
                                      __ptext29 0139                                    _SSP1CON1bits 0190  
                                  _SSP1CON2bits 0191                      Send_I2C_ControlByte@RW_bit 0070  
                            EepReadByte@ACK_bit 0079                        _I2C1_CallbackReturnReset 0000  
                                ??_EepWriteByte 0075                                   __size_of_main 004D  
                                 __size_of_dtoa 016E                                      _RC1STAbits 011D  
EUSART1_SetOverrunErrorHandler@interruptHandler 0070                                        _vfprintf 021E  
                                      main@data 00EC                                       printf@fmt 0066  
                                  _SSP1STATbits 018F                     _EUSART1_FramingErrorHandler 00EA  
                                  _I2C1_DO_IDLE 0000                                    _I2C1_DO_RCEN 0000  
                              ___aomod@dividend 0028                                   ??_EepReadByte 0076  
                            EepReadByte@dev_add 0078                          __size_of_Read_I2C_Data 0012  
                            EepReadByte@reg_add 0074                         ?_PIN_MANAGER_Initialize 0070  
        __end_of_EUSART1_SetOverrunErrorHandler 00DD         __size_of_EUSART1_SetOverrunErrorHandler 0006  
                _EUSART1_SetOverrunErrorHandler 00D7                         _I2C1_CallbackReturnStop 0000  
                             _Send_I2C_StartBit 00FA                            _I2C1_DO_ADDRESS_NACK 0000  
                            ?_Send_I2C_StartBit 0070                                        printf@ap 006D  
EUSART1_SetFramingErrorHandler@interruptHandler 0070                                 ___aomod@divisor 0020  
                                   ??_vfpfcnvrt 0050                                 ___aomod@counter 0071  
                      __size_of_I2C1_Initialize 0009                          __size_of_EUSART1_Write 000A  
                            _eusart1RxLastError 00C5                                   __pstringtext1 0800  
                                 __pstringtext2 0820                                   __pstringtext3 0000  
                           ??_Send_I2C_StartBit 0070                                      _SSP1DATPPS 1EC6  
                                    _SSP1CLKPPS 1EC5                               ?_Send_I2C_StopBit 0070  
                                    _TX1STAbits 011E                             __end_of_EepReadByte 02D1  
                            ??_Send_I2C_StopBit 0070                                    ___aodiv@sign 0072  
                __end_of_PIN_MANAGER_Initialize 031B                       __end_of_Send_I2C_StartBit 0104  
                                  ___aomod@sign 0072  
