

Microchip MPLAB XC8 Assembler V2.32 build 20210201212658 
                                                                                               Fri Aug 13 18:33:52 2021

Microchip MPLAB XC8 C Compiler v2.32 (Free license) build 20210201212658 Og1 
     1                           	processor	16LF15376
     2                           	pagewidth 120
     3                           	opt	flic
     4                           	psect	idataBANK2,global,class=CODE,delta=2,noexec
     5                           	psect	stringtext1,global,class=STRCODE,delta=2,noexec
     6                           	psect	nvBANK2,global,class=BANK2,space=1,delta=1,noexec
     7                           	psect	nvBANK3,global,class=BANK3,space=1,delta=1,noexec
     8                           	psect	nvBANK4,global,class=BANK4,space=1,delta=1,noexec
     9                           	psect	stringtext2,global,class=STRCODE,delta=2,noexec
    10                           	psect	stringtext3,global,class=STRCODE,delta=2,noexec
    11                           	psect	stringtext4,global,class=STRCODE,delta=2,noexec
    12                           	psect	stringtext5,global,class=STRCODE,delta=2,noexec
    13                           	psect	stringtext6,global,class=STRCODE,delta=2,noexec
    14                           	psect	stringtext7,global,class=STRCODE,delta=2,noexec
    15                           	psect	cinit,global,class=CODE,merge=1,delta=2
    16                           	psect	bssCOMMON,global,class=COMMON,space=1,delta=1,noexec
    17                           	psect	bssBANK1,global,class=BANK1,space=1,delta=1,noexec
    18                           	psect	bssBANK2,global,class=BANK2,space=1,delta=1,noexec
    19                           	psect	dataBANK2,global,class=BANK2,space=1,delta=1,noexec
    20                           	psect	bssBANK3,global,class=BANK3,space=1,delta=1,noexec
    21                           	psect	bssBANK4,global,class=BANK4,space=1,delta=1,noexec
    22                           	psect	bssBANK5,global,class=BANK5,space=1,delta=1,noexec
    23                           	psect	inittext,global,class=CODE,delta=2
    24                           	psect	clrtext,global,class=CODE,delta=2
    25                           	psect	cstackBANK3,global,class=BANK3,space=1,delta=1,noexec
    26                           	psect	cstackBANK2,global,class=BANK2,space=1,delta=1,noexec
    27                           	psect	cstackBANK1,global,class=BANK1,space=1,delta=1,noexec
    28                           	psect	cstackCOMMON,global,class=COMMON,space=1,delta=1,noexec
    29                           	psect	cstackBANK0,global,class=BANK0,space=1,delta=1,noexec
    30                           	psect	maintext,global,class=CODE,merge=1,split=1,delta=2
    31                           	psect	text1,local,class=CODE,merge=1,delta=2
    32                           	psect	text2,local,class=CODE,merge=1,delta=2
    33                           	psect	text3,local,class=CODE,merge=1,delta=2
    34                           	psect	text4,local,class=CODE,merge=1,delta=2
    35                           	psect	text5,local,class=CODE,merge=1,delta=2
    36                           	psect	text6,local,class=CODE,merge=1,delta=2
    37                           	psect	text7,local,class=CODE,merge=1,delta=2
    38                           	psect	text8,local,class=CODE,merge=1,delta=2
    39                           	psect	text9,local,class=CODE,merge=1,delta=2
    40                           	psect	text10,local,class=CODE,merge=1,delta=2
    41                           	psect	text11,local,class=CODE,merge=1,delta=2
    42                           	psect	text12,local,class=CODE,merge=1,delta=2
    43                           	psect	text13,local,class=CODE,merge=1,delta=2,group=3
    44                           	psect	text14,local,class=CODE,merge=1,delta=2,group=2
    45                           	psect	text15,local,class=CODE,merge=1,delta=2
    46                           	psect	text16,local,class=CODE,merge=1,delta=2,group=3
    47                           	psect	text17,local,class=CODE,merge=1,delta=2,group=1
    48                           	psect	text18,local,class=CODE,merge=1,delta=2,group=1
    49                           	psect	text19,local,class=CODE,merge=1,delta=2,group=1
    50                           	psect	text20,local,class=CODE,merge=1,delta=2,group=3
    51                           	psect	text21,local,class=CODE,merge=1,delta=2,group=3
    52                           	psect	text22,local,class=CODE,merge=1,delta=2,group=1
    53                           	psect	text23,local,class=CODE,merge=1,delta=2,group=3
    54                           	psect	text24,local,class=CODE,merge=1,delta=2,group=3
    55                           	psect	text25,local,class=CODE,merge=1,delta=2,group=3
    56                           	psect	text26,local,class=CODE,merge=1,delta=2
    57                           	psect	text27,local,class=CODE,merge=1,delta=2
    58                           	psect	text28,local,class=CODE,merge=1,delta=2,group=3
    59                           	psect	text29,local,class=CODE,merge=1,delta=2,group=3
    60                           	psect	text30,local,class=CODE,merge=1,delta=2,group=3
    61                           	psect	text31,local,class=CODE,merge=1,delta=2,group=3
    62                           	psect	text32,local,class=CODE,merge=1,delta=2,group=3
    63                           	psect	text33,local,class=CODE,merge=1,delta=2,group=2
    64                           	psect	text34,local,class=CODE,merge=1,delta=2
    65                           	psect	text35,local,class=CODE,merge=1,delta=2
    66                           	psect	text36,local,class=CODE,merge=1,delta=2
    67                           	psect	text37,local,class=CODE,merge=1,delta=2,group=3
    68                           	psect	text38,local,class=CODE,merge=1,delta=2
    69                           	psect	text39,local,class=CODE,merge=1,delta=2
    70                           	psect	text40,local,class=CODE,merge=1,delta=2
    71                           	psect	text41,local,class=CODE,merge=1,delta=2
    72                           	psect	text42,local,class=CODE,merge=1,delta=2
    73                           	psect	text43,local,class=CODE,merge=1,delta=2
    74                           	psect	text44,local,class=CODE,merge=1,delta=2
    75                           	psect	text45,local,class=CODE,merge=1,inline,delta=2
    76                           	psect	text46,local,class=CODE,merge=1,delta=2
    77                           	psect	text47,local,class=CODE,merge=1,delta=2
    78                           	psect	text48,local,class=CODE,merge=1,delta=2
    79                           	psect	text49,local,class=CODE,merge=1,inline,delta=2
    80                           	psect	text50,local,class=CODE,merge=1,inline,delta=2
    81                           	psect	text51,local,class=CODE,merge=1,delta=2
    82                           	psect	text52,local,class=CODE,merge=1,delta=2
    83                           	psect	text53,local,class=CODE,merge=1,delta=2
    84                           	psect	text54,local,class=CODE,merge=1,delta=2
    85                           	psect	text55,local,class=CODE,merge=1,delta=2
    86                           	psect	text56,local,class=CODE,merge=1,delta=2
    87                           	psect	text57,local,class=CODE,merge=1,delta=2
    88                           	psect	text58,local,class=CODE,merge=1,delta=2
    89                           	psect	text59,local,class=CODE,merge=1,delta=2
    90                           	psect	text60,local,class=CODE,merge=1,delta=2
    91                           	psect	text61,local,class=CODE,merge=1,delta=2
    92                           	psect	text62,local,class=CODE,merge=1,delta=2
    93                           	psect	text63,local,class=CODE,merge=1,delta=2
    94                           	psect	text64,local,class=CODE,merge=1,delta=2
    95                           	psect	text65,local,class=CODE,merge=1,delta=2
    96                           	psect	text66,local,class=CODE,merge=1,delta=2
    97                           	psect	text67,local,class=CODE,merge=1,inline,delta=2
    98                           	psect	text68,local,class=CODE,merge=1,inline,delta=2
    99                           	psect	text69,local,class=CODE,merge=1,inline,delta=2
   100                           	psect	text70,local,class=CODE,merge=1,inline,delta=2
   101                           	psect	text71,local,class=CODE,merge=1,inline,delta=2
   102                           	psect	text72,local,class=CODE,merge=1,inline,delta=2
   103                           	psect	text73,local,class=CODE,merge=1,inline,delta=2
   104                           	psect	text74,local,class=CODE,merge=1,delta=2
   105                           	psect	text75,local,class=CODE,merge=1,delta=2
   106                           	psect	text76,local,class=CODE,merge=1,delta=2
   107                           	psect	text77,local,class=CODE,merge=1,delta=2
   108                           	psect	text78,local,class=CODE,merge=1,delta=2
   109                           	psect	text79,local,class=CODE,merge=1,delta=2
   110                           	psect	text80,local,class=CODE,merge=1,delta=2
   111                           	psect	text81,local,class=CODE,merge=1,delta=2
   112                           	psect	text82,local,class=CODE,merge=1,delta=2
   113                           	psect	text83,local,class=CODE,merge=1,delta=2
   114                           	psect	text84,local,class=CODE,merge=1,delta=2
   115                           	psect	text85,local,class=CODE,merge=1,delta=2
   116                           	psect	text86,local,class=CODE,merge=1,delta=2
   117                           	psect	text87,local,class=CODE,merge=1,delta=2
   118                           	psect	text88,local,class=CODE,merge=1,delta=2
   119                           	psect	text89,local,class=CODE,merge=1,inline,delta=2
   120                           	psect	text90,local,class=CODE,merge=1,inline,delta=2
   121                           	psect	text91,local,class=CODE,merge=1,inline,delta=2
   122                           	psect	text92,local,class=CODE,merge=1,delta=2
   123                           	psect	text93,local,class=CODE,merge=1,inline,delta=2
   124                           	psect	text94,local,class=CODE,merge=1,inline,delta=2
   125                           	psect	text95,local,class=CODE,merge=1,inline,delta=2
   126                           	psect	intentry,global,class=CODE,delta=2
   127                           	psect	text97,local,class=CODE,merge=1,delta=2
   128                           	psect	text98,local,class=CODE,merge=1,delta=2
   129                           	psect	text99,local,class=CODE,merge=1,delta=2
   130                           	psect	text100,local,class=CODE,merge=1,delta=2
   131                           	psect	text101,local,class=CODE,merge=1,delta=2
   132                           	psect	text102,local,class=CODE,merge=1,delta=2
   133                           	psect	config,global,abs,ovrld,class=CONFIG,space=4,delta=2,noexec
   134                           	dabs	1,0x7E,2
   135  0000                     
   136                           ; Version 2.30
   137                           ; Generated 15/09/2020 GMT
   138                           ; 
   139                           ; Copyright © 2020, Microchip Technology Inc. and its subsidiaries ("Microchip")
   140                           ; All rights reserved.
   141                           ; 
   142                           ; This software is developed by Microchip Technology Inc. and its subsidiaries ("Microch
      +                          ip").
   143                           ; 
   144                           ; Redistribution and use in source and binary forms, with or without modification, are
   145                           ; permitted provided that the following conditions are met:
   146                           ; 
   147                           ;     1. Redistributions of source code must retain the above copyright notice, this lis
      +                          t of
   148                           ;        conditions and the following disclaimer.
   149                           ; 
   150                           ;     2. Redistributions in binary form must reproduce the above copyright notice, this 
      +                          list
   151                           ;        of conditions and the following disclaimer in the documentation and/or other
   152                           ;        materials provided with the distribution. Publication is not required when
   153                           ;        this file is used in an embedded application.
   154                           ; 
   155                           ;     3. Microchip's name may not be used to endorse or promote products derived from th
      +                          is
   156                           ;        software without specific prior written permission.
   157                           ; 
   158                           ; THIS SOFTWARE IS PROVIDED BY MICROCHIP "AS IS" AND ANY EXPRESS OR IMPLIED WARRANTIES,
   159                           ; INCLUDING, BUT NOT LIMITED TO, THE IMPLIED WARRANTIES OF MERCHANTABILITY AND FITNESS F
      +                          OR
   160                           ; PURPOSE ARE DISCLAIMED.  IN NO EVENT SHALL MICROCHIP BE LIABLE FOR ANY DIRECT, INDIREC
      +                          T,
   161                           ; INCIDENTAL, SPECIAL, EXEMPLARY, OR CONSEQUENTIAL DAMAGES (INCLUDING BUT NOT LIMITED TO
   162                           ; PROCUREMENT OF SUBSTITUTE GOODS OR SERVICES; LOSS OF USE, DATA OR PROFITS; OR BUSINESS
   163                           ; INTERRUPTION) HOWSOEVER CAUSED AND ON ANY THEORY OF LIABILITY, WHETHER IN CONTRACT, ST
      +                          RICT
   164                           ; LIABILITY, OR TORT (INCLUDING NEGLIGENCE OR OTHERWISE) ARISING IN ANY WAY OUT OF THE U
      +                          SE OF
   165                           ; THIS SOFTWARE, EVEN IF ADVISED OF THE POSSIBILITY OF SUCH DAMAGE.
   166                           ; 
   167                           ; 
   168                           ; Code-generator required, PIC16LF15376 Definitions
   169                           ; 
   170                           ; SFR Addresses
   171  0000                     	;# 
   172  0001                     	;# 
   173  0002                     	;# 
   174  0003                     	;# 
   175  0004                     	;# 
   176  0005                     	;# 
   177  0006                     	;# 
   178  0007                     	;# 
   179  0008                     	;# 
   180  0009                     	;# 
   181  000A                     	;# 
   182  000B                     	;# 
   183  000C                     	;# 
   184  000D                     	;# 
   185  000E                     	;# 
   186  000F                     	;# 
   187  0010                     	;# 
   188  0012                     	;# 
   189  0013                     	;# 
   190  0014                     	;# 
   191  0015                     	;# 
   192  0016                     	;# 
   193  0018                     	;# 
   194  0019                     	;# 
   195  001A                     	;# 
   196  001B                     	;# 
   197  001C                     	;# 
   198  009B                     	;# 
   199  009B                     	;# 
   200  009C                     	;# 
   201  009D                     	;# 
   202  009E                     	;# 
   203  009F                     	;# 
   204  0119                     	;# 
   205  0119                     	;# 
   206  0119                     	;# 
   207  011A                     	;# 
   208  011A                     	;# 
   209  011A                     	;# 
   210  011B                     	;# 
   211  011B                     	;# 
   212  011B                     	;# 
   213  011B                     	;# 
   214  011B                     	;# 
   215  011C                     	;# 
   216  011C                     	;# 
   217  011C                     	;# 
   218  011D                     	;# 
   219  011D                     	;# 
   220  011D                     	;# 
   221  011E                     	;# 
   222  011E                     	;# 
   223  011E                     	;# 
   224  011F                     	;# 
   225  011F                     	;# 
   226  011F                     	;# 
   227  011F                     	;# 
   228  011F                     	;# 
   229  018C                     	;# 
   230  018D                     	;# 
   231  018E                     	;# 
   232  018F                     	;# 
   233  0190                     	;# 
   234  0191                     	;# 
   235  0192                     	;# 
   236  0196                     	;# 
   237  0197                     	;# 
   238  0198                     	;# 
   239  0199                     	;# 
   240  019A                     	;# 
   241  019B                     	;# 
   242  019C                     	;# 
   243  020C                     	;# 
   244  020C                     	;# 
   245  020D                     	;# 
   246  020E                     	;# 
   247  020F                     	;# 
   248  020F                     	;# 
   249  0210                     	;# 
   250  0210                     	;# 
   251  0211                     	;# 
   252  0211                     	;# 
   253  028C                     	;# 
   254  028C                     	;# 
   255  028D                     	;# 
   256  028D                     	;# 
   257  028E                     	;# 
   258  028F                     	;# 
   259  0290                     	;# 
   260  0291                     	;# 
   261  030C                     	;# 
   262  030C                     	;# 
   263  030D                     	;# 
   264  030E                     	;# 
   265  030F                     	;# 
   266  0310                     	;# 
   267  0310                     	;# 
   268  0311                     	;# 
   269  0312                     	;# 
   270  0313                     	;# 
   271  0314                     	;# 
   272  0314                     	;# 
   273  0315                     	;# 
   274  0316                     	;# 
   275  0318                     	;# 
   276  0318                     	;# 
   277  0319                     	;# 
   278  031A                     	;# 
   279  031C                     	;# 
   280  031C                     	;# 
   281  031D                     	;# 
   282  031E                     	;# 
   283  038C                     	;# 
   284  038C                     	;# 
   285  038D                     	;# 
   286  038E                     	;# 
   287  058C                     	;# 
   288  058C                     	;# 
   289  058D                     	;# 
   290  058E                     	;# 
   291  058F                     	;# 
   292  058F                     	;# 
   293  0590                     	;# 
   294  0591                     	;# 
   295  0592                     	;# 
   296  0593                     	;# 
   297  059C                     	;# 
   298  059C                     	;# 
   299  059D                     	;# 
   300  059D                     	;# 
   301  059E                     	;# 
   302  059F                     	;# 
   303  060C                     	;# 
   304  060D                     	;# 
   305  060E                     	;# 
   306  060F                     	;# 
   307  0610                     	;# 
   308  0611                     	;# 
   309  0612                     	;# 
   310  0613                     	;# 
   311  0614                     	;# 
   312  070C                     	;# 
   313  070D                     	;# 
   314  070E                     	;# 
   315  070F                     	;# 
   316  0710                     	;# 
   317  0711                     	;# 
   318  0712                     	;# 
   319  0713                     	;# 
   320  0716                     	;# 
   321  0717                     	;# 
   322  0718                     	;# 
   323  0719                     	;# 
   324  071A                     	;# 
   325  071B                     	;# 
   326  071C                     	;# 
   327  071D                     	;# 
   328  0796                     	;# 
   329  0797                     	;# 
   330  0798                     	;# 
   331  0799                     	;# 
   332  079A                     	;# 
   333  079B                     	;# 
   334  080C                     	;# 
   335  080D                     	;# 
   336  080E                     	;# 
   337  080F                     	;# 
   338  0810                     	;# 
   339  0811                     	;# 
   340  0813                     	;# 
   341  0814                     	;# 
   342  081A                     	;# 
   343  081A                     	;# 
   344  081B                     	;# 
   345  081C                     	;# 
   346  081C                     	;# 
   347  081D                     	;# 
   348  081E                     	;# 
   349  081F                     	;# 
   350  088C                     	;# 
   351  088D                     	;# 
   352  088E                     	;# 
   353  088F                     	;# 
   354  0890                     	;# 
   355  0891                     	;# 
   356  0892                     	;# 
   357  0893                     	;# 
   358  0895                     	;# 
   359  0896                     	;# 
   360  090C                     	;# 
   361  090E                     	;# 
   362  090F                     	;# 
   363  091F                     	;# 
   364  098F                     	;# 
   365  098F                     	;# 
   366  0990                     	;# 
   367  0991                     	;# 
   368  0992                     	;# 
   369  0993                     	;# 
   370  0994                     	;# 
   371  0995                     	;# 
   372  0996                     	;# 
   373  0997                     	;# 
   374  0A19                     	;# 
   375  0A19                     	;# 
   376  0A1A                     	;# 
   377  0A1A                     	;# 
   378  0A1B                     	;# 
   379  0A1B                     	;# 
   380  0A1B                     	;# 
   381  0A1C                     	;# 
   382  0A1C                     	;# 
   383  0A1D                     	;# 
   384  0A1D                     	;# 
   385  0A1E                     	;# 
   386  0A1E                     	;# 
   387  0A1F                     	;# 
   388  0A1F                     	;# 
   389  0A1F                     	;# 
   390  1E0F                     	;# 
   391  1E10                     	;# 
   392  1E11                     	;# 
   393  1E12                     	;# 
   394  1E13                     	;# 
   395  1E14                     	;# 
   396  1E15                     	;# 
   397  1E16                     	;# 
   398  1E17                     	;# 
   399  1E18                     	;# 
   400  1E19                     	;# 
   401  1E1A                     	;# 
   402  1E1B                     	;# 
   403  1E1C                     	;# 
   404  1E1D                     	;# 
   405  1E1E                     	;# 
   406  1E1F                     	;# 
   407  1E20                     	;# 
   408  1E21                     	;# 
   409  1E22                     	;# 
   410  1E23                     	;# 
   411  1E24                     	;# 
   412  1E25                     	;# 
   413  1E26                     	;# 
   414  1E27                     	;# 
   415  1E28                     	;# 
   416  1E29                     	;# 
   417  1E2A                     	;# 
   418  1E2B                     	;# 
   419  1E2C                     	;# 
   420  1E2D                     	;# 
   421  1E2E                     	;# 
   422  1E2F                     	;# 
   423  1E30                     	;# 
   424  1E31                     	;# 
   425  1E32                     	;# 
   426  1E33                     	;# 
   427  1E34                     	;# 
   428  1E35                     	;# 
   429  1E36                     	;# 
   430  1E37                     	;# 
   431  1E8F                     	;# 
   432  1E90                     	;# 
   433  1E91                     	;# 
   434  1E92                     	;# 
   435  1E93                     	;# 
   436  1E9C                     	;# 
   437  1EA1                     	;# 
   438  1EA2                     	;# 
   439  1EB1                     	;# 
   440  1EBB                     	;# 
   441  1EBC                     	;# 
   442  1EBD                     	;# 
   443  1EBE                     	;# 
   444  1EC3                     	;# 
   445  1EC5                     	;# 
   446  1EC6                     	;# 
   447  1EC7                     	;# 
   448  1EC8                     	;# 
   449  1EC9                     	;# 
   450  1ECA                     	;# 
   451  1ECB                     	;# 
   452  1ECC                     	;# 
   453  1ECD                     	;# 
   454  1ECE                     	;# 
   455  1F10                     	;# 
   456  1F11                     	;# 
   457  1F12                     	;# 
   458  1F13                     	;# 
   459  1F14                     	;# 
   460  1F15                     	;# 
   461  1F16                     	;# 
   462  1F17                     	;# 
   463  1F18                     	;# 
   464  1F19                     	;# 
   465  1F1A                     	;# 
   466  1F1B                     	;# 
   467  1F1C                     	;# 
   468  1F1D                     	;# 
   469  1F1E                     	;# 
   470  1F1F                     	;# 
   471  1F20                     	;# 
   472  1F21                     	;# 
   473  1F22                     	;# 
   474  1F23                     	;# 
   475  1F24                     	;# 
   476  1F25                     	;# 
   477  1F26                     	;# 
   478  1F27                     	;# 
   479  1F28                     	;# 
   480  1F29                     	;# 
   481  1F2A                     	;# 
   482  1F2B                     	;# 
   483  1F2C                     	;# 
   484  1F2D                     	;# 
   485  1F2E                     	;# 
   486  1F2F                     	;# 
   487  1F30                     	;# 
   488  1F31                     	;# 
   489  1F32                     	;# 
   490  1F38                     	;# 
   491  1F39                     	;# 
   492  1F3A                     	;# 
   493  1F3B                     	;# 
   494  1F3C                     	;# 
   495  1F3D                     	;# 
   496  1F3E                     	;# 
   497  1F3F                     	;# 
   498  1F43                     	;# 
   499  1F44                     	;# 
   500  1F45                     	;# 
   501  1F46                     	;# 
   502  1F47                     	;# 
   503  1F48                     	;# 
   504  1F49                     	;# 
   505  1F4A                     	;# 
   506  1F4E                     	;# 
   507  1F4F                     	;# 
   508  1F50                     	;# 
   509  1F51                     	;# 
   510  1F52                     	;# 
   511  1F53                     	;# 
   512  1F54                     	;# 
   513  1F55                     	;# 
   514  1F59                     	;# 
   515  1F5A                     	;# 
   516  1F5B                     	;# 
   517  1F5C                     	;# 
   518  1F5D                     	;# 
   519  1F64                     	;# 
   520  1F65                     	;# 
   521  1F66                     	;# 
   522  1F67                     	;# 
   523  1F68                     	;# 
   524  1F69                     	;# 
   525  1F6A                     	;# 
   526  1F6B                     	;# 
   527  1FE4                     	;# 
   528  1FE5                     	;# 
   529  1FE6                     	;# 
   530  1FE7                     	;# 
   531  1FE8                     	;# 
   532  1FE8                     	;# 
   533  1FE9                     	;# 
   534  1FEA                     	;# 
   535  1FEB                     	;# 
   536  1FED                     	;# 
   537  1FEE                     	;# 
   538  1FEF                     	;# 
   539  0000                     	;# 
   540  0001                     	;# 
   541  0002                     	;# 
   542  0003                     	;# 
   543  0004                     	;# 
   544  0005                     	;# 
   545  0006                     	;# 
   546  0007                     	;# 
   547  0008                     	;# 
   548  0009                     	;# 
   549  000A                     	;# 
   550  000B                     	;# 
   551  000C                     	;# 
   552  000D                     	;# 
   553  000E                     	;# 
   554  000F                     	;# 
   555  0010                     	;# 
   556  0012                     	;# 
   557  0013                     	;# 
   558  0014                     	;# 
   559  0015                     	;# 
   560  0016                     	;# 
   561  0018                     	;# 
   562  0019                     	;# 
   563  001A                     	;# 
   564  001B                     	;# 
   565  001C                     	;# 
   566  009B                     	;# 
   567  009B                     	;# 
   568  009C                     	;# 
   569  009D                     	;# 
   570  009E                     	;# 
   571  009F                     	;# 
   572  0119                     	;# 
   573  0119                     	;# 
   574  0119                     	;# 
   575  011A                     	;# 
   576  011A                     	;# 
   577  011A                     	;# 
   578  011B                     	;# 
   579  011B                     	;# 
   580  011B                     	;# 
   581  011B                     	;# 
   582  011B                     	;# 
   583  011C                     	;# 
   584  011C                     	;# 
   585  011C                     	;# 
   586  011D                     	;# 
   587  011D                     	;# 
   588  011D                     	;# 
   589  011E                     	;# 
   590  011E                     	;# 
   591  011E                     	;# 
   592  011F                     	;# 
   593  011F                     	;# 
   594  011F                     	;# 
   595  011F                     	;# 
   596  011F                     	;# 
   597  018C                     	;# 
   598  018D                     	;# 
   599  018E                     	;# 
   600  018F                     	;# 
   601  0190                     	;# 
   602  0191                     	;# 
   603  0192                     	;# 
   604  0196                     	;# 
   605  0197                     	;# 
   606  0198                     	;# 
   607  0199                     	;# 
   608  019A                     	;# 
   609  019B                     	;# 
   610  019C                     	;# 
   611  020C                     	;# 
   612  020C                     	;# 
   613  020D                     	;# 
   614  020E                     	;# 
   615  020F                     	;# 
   616  020F                     	;# 
   617  0210                     	;# 
   618  0210                     	;# 
   619  0211                     	;# 
   620  0211                     	;# 
   621  028C                     	;# 
   622  028C                     	;# 
   623  028D                     	;# 
   624  028D                     	;# 
   625  028E                     	;# 
   626  028F                     	;# 
   627  0290                     	;# 
   628  0291                     	;# 
   629  030C                     	;# 
   630  030C                     	;# 
   631  030D                     	;# 
   632  030E                     	;# 
   633  030F                     	;# 
   634  0310                     	;# 
   635  0310                     	;# 
   636  0311                     	;# 
   637  0312                     	;# 
   638  0313                     	;# 
   639  0314                     	;# 
   640  0314                     	;# 
   641  0315                     	;# 
   642  0316                     	;# 
   643  0318                     	;# 
   644  0318                     	;# 
   645  0319                     	;# 
   646  031A                     	;# 
   647  031C                     	;# 
   648  031C                     	;# 
   649  031D                     	;# 
   650  031E                     	;# 
   651  038C                     	;# 
   652  038C                     	;# 
   653  038D                     	;# 
   654  038E                     	;# 
   655  058C                     	;# 
   656  058C                     	;# 
   657  058D                     	;# 
   658  058E                     	;# 
   659  058F                     	;# 
   660  058F                     	;# 
   661  0590                     	;# 
   662  0591                     	;# 
   663  0592                     	;# 
   664  0593                     	;# 
   665  059C                     	;# 
   666  059C                     	;# 
   667  059D                     	;# 
   668  059D                     	;# 
   669  059E                     	;# 
   670  059F                     	;# 
   671  060C                     	;# 
   672  060D                     	;# 
   673  060E                     	;# 
   674  060F                     	;# 
   675  0610                     	;# 
   676  0611                     	;# 
   677  0612                     	;# 
   678  0613                     	;# 
   679  0614                     	;# 
   680  070C                     	;# 
   681  070D                     	;# 
   682  070E                     	;# 
   683  070F                     	;# 
   684  0710                     	;# 
   685  0711                     	;# 
   686  0712                     	;# 
   687  0713                     	;# 
   688  0716                     	;# 
   689  0717                     	;# 
   690  0718                     	;# 
   691  0719                     	;# 
   692  071A                     	;# 
   693  071B                     	;# 
   694  071C                     	;# 
   695  071D                     	;# 
   696  0796                     	;# 
   697  0797                     	;# 
   698  0798                     	;# 
   699  0799                     	;# 
   700  079A                     	;# 
   701  079B                     	;# 
   702  080C                     	;# 
   703  080D                     	;# 
   704  080E                     	;# 
   705  080F                     	;# 
   706  0810                     	;# 
   707  0811                     	;# 
   708  0813                     	;# 
   709  0814                     	;# 
   710  081A                     	;# 
   711  081A                     	;# 
   712  081B                     	;# 
   713  081C                     	;# 
   714  081C                     	;# 
   715  081D                     	;# 
   716  081E                     	;# 
   717  081F                     	;# 
   718  088C                     	;# 
   719  088D                     	;# 
   720  088E                     	;# 
   721  088F                     	;# 
   722  0890                     	;# 
   723  0891                     	;# 
   724  0892                     	;# 
   725  0893                     	;# 
   726  0895                     	;# 
   727  0896                     	;# 
   728  090C                     	;# 
   729  090E                     	;# 
   730  090F                     	;# 
   731  091F                     	;# 
   732  098F                     	;# 
   733  098F                     	;# 
   734  0990                     	;# 
   735  0991                     	;# 
   736  0992                     	;# 
   737  0993                     	;# 
   738  0994                     	;# 
   739  0995                     	;# 
   740  0996                     	;# 
   741  0997                     	;# 
   742  0A19                     	;# 
   743  0A19                     	;# 
   744  0A1A                     	;# 
   745  0A1A                     	;# 
   746  0A1B                     	;# 
   747  0A1B                     	;# 
   748  0A1B                     	;# 
   749  0A1C                     	;# 
   750  0A1C                     	;# 
   751  0A1D                     	;# 
   752  0A1D                     	;# 
   753  0A1E                     	;# 
   754  0A1E                     	;# 
   755  0A1F                     	;# 
   756  0A1F                     	;# 
   757  0A1F                     	;# 
   758  1E0F                     	;# 
   759  1E10                     	;# 
   760  1E11                     	;# 
   761  1E12                     	;# 
   762  1E13                     	;# 
   763  1E14                     	;# 
   764  1E15                     	;# 
   765  1E16                     	;# 
   766  1E17                     	;# 
   767  1E18                     	;# 
   768  1E19                     	;# 
   769  1E1A                     	;# 
   770  1E1B                     	;# 
   771  1E1C                     	;# 
   772  1E1D                     	;# 
   773  1E1E                     	;# 
   774  1E1F                     	;# 
   775  1E20                     	;# 
   776  1E21                     	;# 
   777  1E22                     	;# 
   778  1E23                     	;# 
   779  1E24                     	;# 
   780  1E25                     	;# 
   781  1E26                     	;# 
   782  1E27                     	;# 
   783  1E28                     	;# 
   784  1E29                     	;# 
   785  1E2A                     	;# 
   786  1E2B                     	;# 
   787  1E2C                     	;# 
   788  1E2D                     	;# 
   789  1E2E                     	;# 
   790  1E2F                     	;# 
   791  1E30                     	;# 
   792  1E31                     	;# 
   793  1E32                     	;# 
   794  1E33                     	;# 
   795  1E34                     	;# 
   796  1E35                     	;# 
   797  1E36                     	;# 
   798  1E37                     	;# 
   799  1E8F                     	;# 
   800  1E90                     	;# 
   801  1E91                     	;# 
   802  1E92                     	;# 
   803  1E93                     	;# 
   804  1E9C                     	;# 
   805  1EA1                     	;# 
   806  1EA2                     	;# 
   807  1EB1                     	;# 
   808  1EBB                     	;# 
   809  1EBC                     	;# 
   810  1EBD                     	;# 
   811  1EBE                     	;# 
   812  1EC3                     	;# 
   813  1EC5                     	;# 
   814  1EC6                     	;# 
   815  1EC7                     	;# 
   816  1EC8                     	;# 
   817  1EC9                     	;# 
   818  1ECA                     	;# 
   819  1ECB                     	;# 
   820  1ECC                     	;# 
   821  1ECD                     	;# 
   822  1ECE                     	;# 
   823  1F10                     	;# 
   824  1F11                     	;# 
   825  1F12                     	;# 
   826  1F13                     	;# 
   827  1F14                     	;# 
   828  1F15                     	;# 
   829  1F16                     	;# 
   830  1F17                     	;# 
   831  1F18                     	;# 
   832  1F19                     	;# 
   833  1F1A                     	;# 
   834  1F1B                     	;# 
   835  1F1C                     	;# 
   836  1F1D                     	;# 
   837  1F1E                     	;# 
   838  1F1F                     	;# 
   839  1F20                     	;# 
   840  1F21                     	;# 
   841  1F22                     	;# 
   842  1F23                     	;# 
   843  1F24                     	;# 
   844  1F25                     	;# 
   845  1F26                     	;# 
   846  1F27                     	;# 
   847  1F28                     	;# 
   848  1F29                     	;# 
   849  1F2A                     	;# 
   850  1F2B                     	;# 
   851  1F2C                     	;# 
   852  1F2D                     	;# 
   853  1F2E                     	;# 
   854  1F2F                     	;# 
   855  1F30                     	;# 
   856  1F31                     	;# 
   857  1F32                     	;# 
   858  1F38                     	;# 
   859  1F39                     	;# 
   860  1F3A                     	;# 
   861  1F3B                     	;# 
   862  1F3C                     	;# 
   863  1F3D                     	;# 
   864  1F3E                     	;# 
   865  1F3F                     	;# 
   866  1F43                     	;# 
   867  1F44                     	;# 
   868  1F45                     	;# 
   869  1F46                     	;# 
   870  1F47                     	;# 
   871  1F48                     	;# 
   872  1F49                     	;# 
   873  1F4A                     	;# 
   874  1F4E                     	;# 
   875  1F4F                     	;# 
   876  1F50                     	;# 
   877  1F51                     	;# 
   878  1F52                     	;# 
   879  1F53                     	;# 
   880  1F54                     	;# 
   881  1F55                     	;# 
   882  1F59                     	;# 
   883  1F5A                     	;# 
   884  1F5B                     	;# 
   885  1F5C                     	;# 
   886  1F5D                     	;# 
   887  1F64                     	;# 
   888  1F65                     	;# 
   889  1F66                     	;# 
   890  1F67                     	;# 
   891  1F68                     	;# 
   892  1F69                     	;# 
   893  1F6A                     	;# 
   894  1F6B                     	;# 
   895  1FE4                     	;# 
   896  1FE5                     	;# 
   897  1FE6                     	;# 
   898  1FE7                     	;# 
   899  1FE8                     	;# 
   900  1FE8                     	;# 
   901  1FE9                     	;# 
   902  1FEA                     	;# 
   903  1FEB                     	;# 
   904  1FED                     	;# 
   905  1FEE                     	;# 
   906  1FEF                     	;# 
   907  0000                     	;# 
   908  0001                     	;# 
   909  0002                     	;# 
   910  0003                     	;# 
   911  0004                     	;# 
   912  0005                     	;# 
   913  0006                     	;# 
   914  0007                     	;# 
   915  0008                     	;# 
   916  0009                     	;# 
   917  000A                     	;# 
   918  000B                     	;# 
   919  000C                     	;# 
   920  000D                     	;# 
   921  000E                     	;# 
   922  000F                     	;# 
   923  0010                     	;# 
   924  0012                     	;# 
   925  0013                     	;# 
   926  0014                     	;# 
   927  0015                     	;# 
   928  0016                     	;# 
   929  0018                     	;# 
   930  0019                     	;# 
   931  001A                     	;# 
   932  001B                     	;# 
   933  001C                     	;# 
   934  009B                     	;# 
   935  009B                     	;# 
   936  009C                     	;# 
   937  009D                     	;# 
   938  009E                     	;# 
   939  009F                     	;# 
   940  0119                     	;# 
   941  0119                     	;# 
   942  0119                     	;# 
   943  011A                     	;# 
   944  011A                     	;# 
   945  011A                     	;# 
   946  011B                     	;# 
   947  011B                     	;# 
   948  011B                     	;# 
   949  011B                     	;# 
   950  011B                     	;# 
   951  011C                     	;# 
   952  011C                     	;# 
   953  011C                     	;# 
   954  011D                     	;# 
   955  011D                     	;# 
   956  011D                     	;# 
   957  011E                     	;# 
   958  011E                     	;# 
   959  011E                     	;# 
   960  011F                     	;# 
   961  011F                     	;# 
   962  011F                     	;# 
   963  011F                     	;# 
   964  011F                     	;# 
   965  018C                     	;# 
   966  018D                     	;# 
   967  018E                     	;# 
   968  018F                     	;# 
   969  0190                     	;# 
   970  0191                     	;# 
   971  0192                     	;# 
   972  0196                     	;# 
   973  0197                     	;# 
   974  0198                     	;# 
   975  0199                     	;# 
   976  019A                     	;# 
   977  019B                     	;# 
   978  019C                     	;# 
   979  020C                     	;# 
   980  020C                     	;# 
   981  020D                     	;# 
   982  020E                     	;# 
   983  020F                     	;# 
   984  020F                     	;# 
   985  0210                     	;# 
   986  0210                     	;# 
   987  0211                     	;# 
   988  0211                     	;# 
   989  028C                     	;# 
   990  028C                     	;# 
   991  028D                     	;# 
   992  028D                     	;# 
   993  028E                     	;# 
   994  028F                     	;# 
   995  0290                     	;# 
   996  0291                     	;# 
   997  030C                     	;# 
   998  030C                     	;# 
   999  030D                     	;# 
  1000  030E                     	;# 
  1001  030F                     	;# 
  1002  0310                     	;# 
  1003  0310                     	;# 
  1004  0311                     	;# 
  1005  0312                     	;# 
  1006  0313                     	;# 
  1007  0314                     	;# 
  1008  0314                     	;# 
  1009  0315                     	;# 
  1010  0316                     	;# 
  1011  0318                     	;# 
  1012  0318                     	;# 
  1013  0319                     	;# 
  1014  031A                     	;# 
  1015  031C                     	;# 
  1016  031C                     	;# 
  1017  031D                     	;# 
  1018  031E                     	;# 
  1019  038C                     	;# 
  1020  038C                     	;# 
  1021  038D                     	;# 
  1022  038E                     	;# 
  1023  058C                     	;# 
  1024  058C                     	;# 
  1025  058D                     	;# 
  1026  058E                     	;# 
  1027  058F                     	;# 
  1028  058F                     	;# 
  1029  0590                     	;# 
  1030  0591                     	;# 
  1031  0592                     	;# 
  1032  0593                     	;# 
  1033  059C                     	;# 
  1034  059C                     	;# 
  1035  059D                     	;# 
  1036  059D                     	;# 
  1037  059E                     	;# 
  1038  059F                     	;# 
  1039  060C                     	;# 
  1040  060D                     	;# 
  1041  060E                     	;# 
  1042  060F                     	;# 
  1043  0610                     	;# 
  1044  0611                     	;# 
  1045  0612                     	;# 
  1046  0613                     	;# 
  1047  0614                     	;# 
  1048  070C                     	;# 
  1049  070D                     	;# 
  1050  070E                     	;# 
  1051  070F                     	;# 
  1052  0710                     	;# 
  1053  0711                     	;# 
  1054  0712                     	;# 
  1055  0713                     	;# 
  1056  0716                     	;# 
  1057  0717                     	;# 
  1058  0718                     	;# 
  1059  0719                     	;# 
  1060  071A                     	;# 
  1061  071B                     	;# 
  1062  071C                     	;# 
  1063  071D                     	;# 
  1064  0796                     	;# 
  1065  0797                     	;# 
  1066  0798                     	;# 
  1067  0799                     	;# 
  1068  079A                     	;# 
  1069  079B                     	;# 
  1070  080C                     	;# 
  1071  080D                     	;# 
  1072  080E                     	;# 
  1073  080F                     	;# 
  1074  0810                     	;# 
  1075  0811                     	;# 
  1076  0813                     	;# 
  1077  0814                     	;# 
  1078  081A                     	;# 
  1079  081A                     	;# 
  1080  081B                     	;# 
  1081  081C                     	;# 
  1082  081C                     	;# 
  1083  081D                     	;# 
  1084  081E                     	;# 
  1085  081F                     	;# 
  1086  088C                     	;# 
  1087  088D                     	;# 
  1088  088E                     	;# 
  1089  088F                     	;# 
  1090  0890                     	;# 
  1091  0891                     	;# 
  1092  0892                     	;# 
  1093  0893                     	;# 
  1094  0895                     	;# 
  1095  0896                     	;# 
  1096  090C                     	;# 
  1097  090E                     	;# 
  1098  090F                     	;# 
  1099  091F                     	;# 
  1100  098F                     	;# 
  1101  098F                     	;# 
  1102  0990                     	;# 
  1103  0991                     	;# 
  1104  0992                     	;# 
  1105  0993                     	;# 
  1106  0994                     	;# 
  1107  0995                     	;# 
  1108  0996                     	;# 
  1109  0997                     	;# 
  1110  0A19                     	;# 
  1111  0A19                     	;# 
  1112  0A1A                     	;# 
  1113  0A1A                     	;# 
  1114  0A1B                     	;# 
  1115  0A1B                     	;# 
  1116  0A1B                     	;# 
  1117  0A1C                     	;# 
  1118  0A1C                     	;# 
  1119  0A1D                     	;# 
  1120  0A1D                     	;# 
  1121  0A1E                     	;# 
  1122  0A1E                     	;# 
  1123  0A1F                     	;# 
  1124  0A1F                     	;# 
  1125  0A1F                     	;# 
  1126  1E0F                     	;# 
  1127  1E10                     	;# 
  1128  1E11                     	;# 
  1129  1E12                     	;# 
  1130  1E13                     	;# 
  1131  1E14                     	;# 
  1132  1E15                     	;# 
  1133  1E16                     	;# 
  1134  1E17                     	;# 
  1135  1E18                     	;# 
  1136  1E19                     	;# 
  1137  1E1A                     	;# 
  1138  1E1B                     	;# 
  1139  1E1C                     	;# 
  1140  1E1D                     	;# 
  1141  1E1E                     	;# 
  1142  1E1F                     	;# 
  1143  1E20                     	;# 
  1144  1E21                     	;# 
  1145  1E22                     	;# 
  1146  1E23                     	;# 
  1147  1E24                     	;# 
  1148  1E25                     	;# 
  1149  1E26                     	;# 
  1150  1E27                     	;# 
  1151  1E28                     	;# 
  1152  1E29                     	;# 
  1153  1E2A                     	;# 
  1154  1E2B                     	;# 
  1155  1E2C                     	;# 
  1156  1E2D                     	;# 
  1157  1E2E                     	;# 
  1158  1E2F                     	;# 
  1159  1E30                     	;# 
  1160  1E31                     	;# 
  1161  1E32                     	;# 
  1162  1E33                     	;# 
  1163  1E34                     	;# 
  1164  1E35                     	;# 
  1165  1E36                     	;# 
  1166  1E37                     	;# 
  1167  1E8F                     	;# 
  1168  1E90                     	;# 
  1169  1E91                     	;# 
  1170  1E92                     	;# 
  1171  1E93                     	;# 
  1172  1E9C                     	;# 
  1173  1EA1                     	;# 
  1174  1EA2                     	;# 
  1175  1EB1                     	;# 
  1176  1EBB                     	;# 
  1177  1EBC                     	;# 
  1178  1EBD                     	;# 
  1179  1EBE                     	;# 
  1180  1EC3                     	;# 
  1181  1EC5                     	;# 
  1182  1EC6                     	;# 
  1183  1EC7                     	;# 
  1184  1EC8                     	;# 
  1185  1EC9                     	;# 
  1186  1ECA                     	;# 
  1187  1ECB                     	;# 
  1188  1ECC                     	;# 
  1189  1ECD                     	;# 
  1190  1ECE                     	;# 
  1191  1F10                     	;# 
  1192  1F11                     	;# 
  1193  1F12                     	;# 
  1194  1F13                     	;# 
  1195  1F14                     	;# 
  1196  1F15                     	;# 
  1197  1F16                     	;# 
  1198  1F17                     	;# 
  1199  1F18                     	;# 
  1200  1F19                     	;# 
  1201  1F1A                     	;# 
  1202  1F1B                     	;# 
  1203  1F1C                     	;# 
  1204  1F1D                     	;# 
  1205  1F1E                     	;# 
  1206  1F1F                     	;# 
  1207  1F20                     	;# 
  1208  1F21                     	;# 
  1209  1F22                     	;# 
  1210  1F23                     	;# 
  1211  1F24                     	;# 
  1212  1F25                     	;# 
  1213  1F26                     	;# 
  1214  1F27                     	;# 
  1215  1F28                     	;# 
  1216  1F29                     	;# 
  1217  1F2A                     	;# 
  1218  1F2B                     	;# 
  1219  1F2C                     	;# 
  1220  1F2D                     	;# 
  1221  1F2E                     	;# 
  1222  1F2F                     	;# 
  1223  1F30                     	;# 
  1224  1F31                     	;# 
  1225  1F32                     	;# 
  1226  1F38                     	;# 
  1227  1F39                     	;# 
  1228  1F3A                     	;# 
  1229  1F3B                     	;# 
  1230  1F3C                     	;# 
  1231  1F3D                     	;# 
  1232  1F3E                     	;# 
  1233  1F3F                     	;# 
  1234  1F43                     	;# 
  1235  1F44                     	;# 
  1236  1F45                     	;# 
  1237  1F46                     	;# 
  1238  1F47                     	;# 
  1239  1F48                     	;# 
  1240  1F49                     	;# 
  1241  1F4A                     	;# 
  1242  1F4E                     	;# 
  1243  1F4F                     	;# 
  1244  1F50                     	;# 
  1245  1F51                     	;# 
  1246  1F52                     	;# 
  1247  1F53                     	;# 
  1248  1F54                     	;# 
  1249  1F55                     	;# 
  1250  1F59                     	;# 
  1251  1F5A                     	;# 
  1252  1F5B                     	;# 
  1253  1F5C                     	;# 
  1254  1F5D                     	;# 
  1255  1F64                     	;# 
  1256  1F65                     	;# 
  1257  1F66                     	;# 
  1258  1F67                     	;# 
  1259  1F68                     	;# 
  1260  1F69                     	;# 
  1261  1F6A                     	;# 
  1262  1F6B                     	;# 
  1263  1FE4                     	;# 
  1264  1FE5                     	;# 
  1265  1FE6                     	;# 
  1266  1FE7                     	;# 
  1267  1FE8                     	;# 
  1268  1FE8                     	;# 
  1269  1FE9                     	;# 
  1270  1FEA                     	;# 
  1271  1FEB                     	;# 
  1272  1FED                     	;# 
  1273  1FEE                     	;# 
  1274  1FEF                     	;# 
  1275  0000                     	;# 
  1276  0001                     	;# 
  1277  0002                     	;# 
  1278  0003                     	;# 
  1279  0004                     	;# 
  1280  0005                     	;# 
  1281  0006                     	;# 
  1282  0007                     	;# 
  1283  0008                     	;# 
  1284  0009                     	;# 
  1285  000A                     	;# 
  1286  000B                     	;# 
  1287  000C                     	;# 
  1288  000D                     	;# 
  1289  000E                     	;# 
  1290  000F                     	;# 
  1291  0010                     	;# 
  1292  0012                     	;# 
  1293  0013                     	;# 
  1294  0014                     	;# 
  1295  0015                     	;# 
  1296  0016                     	;# 
  1297  0018                     	;# 
  1298  0019                     	;# 
  1299  001A                     	;# 
  1300  001B                     	;# 
  1301  001C                     	;# 
  1302  009B                     	;# 
  1303  009B                     	;# 
  1304  009C                     	;# 
  1305  009D                     	;# 
  1306  009E                     	;# 
  1307  009F                     	;# 
  1308  0119                     	;# 
  1309  0119                     	;# 
  1310  0119                     	;# 
  1311  011A                     	;# 
  1312  011A                     	;# 
  1313  011A                     	;# 
  1314  011B                     	;# 
  1315  011B                     	;# 
  1316  011B                     	;# 
  1317  011B                     	;# 
  1318  011B                     	;# 
  1319  011C                     	;# 
  1320  011C                     	;# 
  1321  011C                     	;# 
  1322  011D                     	;# 
  1323  011D                     	;# 
  1324  011D                     	;# 
  1325  011E                     	;# 
  1326  011E                     	;# 
  1327  011E                     	;# 
  1328  011F                     	;# 
  1329  011F                     	;# 
  1330  011F                     	;# 
  1331  011F                     	;# 
  1332  011F                     	;# 
  1333  018C                     	;# 
  1334  018D                     	;# 
  1335  018E                     	;# 
  1336  018F                     	;# 
  1337  0190                     	;# 
  1338  0191                     	;# 
  1339  0192                     	;# 
  1340  0196                     	;# 
  1341  0197                     	;# 
  1342  0198                     	;# 
  1343  0199                     	;# 
  1344  019A                     	;# 
  1345  019B                     	;# 
  1346  019C                     	;# 
  1347  020C                     	;# 
  1348  020C                     	;# 
  1349  020D                     	;# 
  1350  020E                     	;# 
  1351  020F                     	;# 
  1352  020F                     	;# 
  1353  0210                     	;# 
  1354  0210                     	;# 
  1355  0211                     	;# 
  1356  0211                     	;# 
  1357  028C                     	;# 
  1358  028C                     	;# 
  1359  028D                     	;# 
  1360  028D                     	;# 
  1361  028E                     	;# 
  1362  028F                     	;# 
  1363  0290                     	;# 
  1364  0291                     	;# 
  1365  030C                     	;# 
  1366  030C                     	;# 
  1367  030D                     	;# 
  1368  030E                     	;# 
  1369  030F                     	;# 
  1370  0310                     	;# 
  1371  0310                     	;# 
  1372  0311                     	;# 
  1373  0312                     	;# 
  1374  0313                     	;# 
  1375  0314                     	;# 
  1376  0314                     	;# 
  1377  0315                     	;# 
  1378  0316                     	;# 
  1379  0318                     	;# 
  1380  0318                     	;# 
  1381  0319                     	;# 
  1382  031A                     	;# 
  1383  031C                     	;# 
  1384  031C                     	;# 
  1385  031D                     	;# 
  1386  031E                     	;# 
  1387  038C                     	;# 
  1388  038C                     	;# 
  1389  038D                     	;# 
  1390  038E                     	;# 
  1391  058C                     	;# 
  1392  058C                     	;# 
  1393  058D                     	;# 
  1394  058E                     	;# 
  1395  058F                     	;# 
  1396  058F                     	;# 
  1397  0590                     	;# 
  1398  0591                     	;# 
  1399  0592                     	;# 
  1400  0593                     	;# 
  1401  059C                     	;# 
  1402  059C                     	;# 
  1403  059D                     	;# 
  1404  059D                     	;# 
  1405  059E                     	;# 
  1406  059F                     	;# 
  1407  060C                     	;# 
  1408  060D                     	;# 
  1409  060E                     	;# 
  1410  060F                     	;# 
  1411  0610                     	;# 
  1412  0611                     	;# 
  1413  0612                     	;# 
  1414  0613                     	;# 
  1415  0614                     	;# 
  1416  070C                     	;# 
  1417  070D                     	;# 
  1418  070E                     	;# 
  1419  070F                     	;# 
  1420  0710                     	;# 
  1421  0711                     	;# 
  1422  0712                     	;# 
  1423  0713                     	;# 
  1424  0716                     	;# 
  1425  0717                     	;# 
  1426  0718                     	;# 
  1427  0719                     	;# 
  1428  071A                     	;# 
  1429  071B                     	;# 
  1430  071C                     	;# 
  1431  071D                     	;# 
  1432  0796                     	;# 
  1433  0797                     	;# 
  1434  0798                     	;# 
  1435  0799                     	;# 
  1436  079A                     	;# 
  1437  079B                     	;# 
  1438  080C                     	;# 
  1439  080D                     	;# 
  1440  080E                     	;# 
  1441  080F                     	;# 
  1442  0810                     	;# 
  1443  0811                     	;# 
  1444  0813                     	;# 
  1445  0814                     	;# 
  1446  081A                     	;# 
  1447  081A                     	;# 
  1448  081B                     	;# 
  1449  081C                     	;# 
  1450  081C                     	;# 
  1451  081D                     	;# 
  1452  081E                     	;# 
  1453  081F                     	;# 
  1454  088C                     	;# 
  1455  088D                     	;# 
  1456  088E                     	;# 
  1457  088F                     	;# 
  1458  0890                     	;# 
  1459  0891                     	;# 
  1460  0892                     	;# 
  1461  0893                     	;# 
  1462  0895                     	;# 
  1463  0896                     	;# 
  1464  090C                     	;# 
  1465  090E                     	;# 
  1466  090F                     	;# 
  1467  091F                     	;# 
  1468  098F                     	;# 
  1469  098F                     	;# 
  1470  0990                     	;# 
  1471  0991                     	;# 
  1472  0992                     	;# 
  1473  0993                     	;# 
  1474  0994                     	;# 
  1475  0995                     	;# 
  1476  0996                     	;# 
  1477  0997                     	;# 
  1478  0A19                     	;# 
  1479  0A19                     	;# 
  1480  0A1A                     	;# 
  1481  0A1A                     	;# 
  1482  0A1B                     	;# 
  1483  0A1B                     	;# 
  1484  0A1B                     	;# 
  1485  0A1C                     	;# 
  1486  0A1C                     	;# 
  1487  0A1D                     	;# 
  1488  0A1D                     	;# 
  1489  0A1E                     	;# 
  1490  0A1E                     	;# 
  1491  0A1F                     	;# 
  1492  0A1F                     	;# 
  1493  0A1F                     	;# 
  1494  1E0F                     	;# 
  1495  1E10                     	;# 
  1496  1E11                     	;# 
  1497  1E12                     	;# 
  1498  1E13                     	;# 
  1499  1E14                     	;# 
  1500  1E15                     	;# 
  1501  1E16                     	;# 
  1502  1E17                     	;# 
  1503  1E18                     	;# 
  1504  1E19                     	;# 
  1505  1E1A                     	;# 
  1506  1E1B                     	;# 
  1507  1E1C                     	;# 
  1508  1E1D                     	;# 
  1509  1E1E                     	;# 
  1510  1E1F                     	;# 
  1511  1E20                     	;# 
  1512  1E21                     	;# 
  1513  1E22                     	;# 
  1514  1E23                     	;# 
  1515  1E24                     	;# 
  1516  1E25                     	;# 
  1517  1E26                     	;# 
  1518  1E27                     	;# 
  1519  1E28                     	;# 
  1520  1E29                     	;# 
  1521  1E2A                     	;# 
  1522  1E2B                     	;# 
  1523  1E2C                     	;# 
  1524  1E2D                     	;# 
  1525  1E2E                     	;# 
  1526  1E2F                     	;# 
  1527  1E30                     	;# 
  1528  1E31                     	;# 
  1529  1E32                     	;# 
  1530  1E33                     	;# 
  1531  1E34                     	;# 
  1532  1E35                     	;# 
  1533  1E36                     	;# 
  1534  1E37                     	;# 
  1535  1E8F                     	;# 
  1536  1E90                     	;# 
  1537  1E91                     	;# 
  1538  1E92                     	;# 
  1539  1E93                     	;# 
  1540  1E9C                     	;# 
  1541  1EA1                     	;# 
  1542  1EA2                     	;# 
  1543  1EB1                     	;# 
  1544  1EBB                     	;# 
  1545  1EBC                     	;# 
  1546  1EBD                     	;# 
  1547  1EBE                     	;# 
  1548  1EC3                     	;# 
  1549  1EC5                     	;# 
  1550  1EC6                     	;# 
  1551  1EC7                     	;# 
  1552  1EC8                     	;# 
  1553  1EC9                     	;# 
  1554  1ECA                     	;# 
  1555  1ECB                     	;# 
  1556  1ECC                     	;# 
  1557  1ECD                     	;# 
  1558  1ECE                     	;# 
  1559  1F10                     	;# 
  1560  1F11                     	;# 
  1561  1F12                     	;# 
  1562  1F13                     	;# 
  1563  1F14                     	;# 
  1564  1F15                     	;# 
  1565  1F16                     	;# 
  1566  1F17                     	;# 
  1567  1F18                     	;# 
  1568  1F19                     	;# 
  1569  1F1A                     	;# 
  1570  1F1B                     	;# 
  1571  1F1C                     	;# 
  1572  1F1D                     	;# 
  1573  1F1E                     	;# 
  1574  1F1F                     	;# 
  1575  1F20                     	;# 
  1576  1F21                     	;# 
  1577  1F22                     	;# 
  1578  1F23                     	;# 
  1579  1F24                     	;# 
  1580  1F25                     	;# 
  1581  1F26                     	;# 
  1582  1F27                     	;# 
  1583  1F28                     	;# 
  1584  1F29                     	;# 
  1585  1F2A                     	;# 
  1586  1F2B                     	;# 
  1587  1F2C                     	;# 
  1588  1F2D                     	;# 
  1589  1F2E                     	;# 
  1590  1F2F                     	;# 
  1591  1F30                     	;# 
  1592  1F31                     	;# 
  1593  1F32                     	;# 
  1594  1F38                     	;# 
  1595  1F39                     	;# 
  1596  1F3A                     	;# 
  1597  1F3B                     	;# 
  1598  1F3C                     	;# 
  1599  1F3D                     	;# 
  1600  1F3E                     	;# 
  1601  1F3F                     	;# 
  1602  1F43                     	;# 
  1603  1F44                     	;# 
  1604  1F45                     	;# 
  1605  1F46                     	;# 
  1606  1F47                     	;# 
  1607  1F48                     	;# 
  1608  1F49                     	;# 
  1609  1F4A                     	;# 
  1610  1F4E                     	;# 
  1611  1F4F                     	;# 
  1612  1F50                     	;# 
  1613  1F51                     	;# 
  1614  1F52                     	;# 
  1615  1F53                     	;# 
  1616  1F54                     	;# 
  1617  1F55                     	;# 
  1618  1F59                     	;# 
  1619  1F5A                     	;# 
  1620  1F5B                     	;# 
  1621  1F5C                     	;# 
  1622  1F5D                     	;# 
  1623  1F64                     	;# 
  1624  1F65                     	;# 
  1625  1F66                     	;# 
  1626  1F67                     	;# 
  1627  1F68                     	;# 
  1628  1F69                     	;# 
  1629  1F6A                     	;# 
  1630  1F6B                     	;# 
  1631  1FE4                     	;# 
  1632  1FE5                     	;# 
  1633  1FE6                     	;# 
  1634  1FE7                     	;# 
  1635  1FE8                     	;# 
  1636  1FE8                     	;# 
  1637  1FE9                     	;# 
  1638  1FEA                     	;# 
  1639  1FEB                     	;# 
  1640  1FED                     	;# 
  1641  1FEE                     	;# 
  1642  1FEF                     	;# 
  1643  0000                     	;# 
  1644  0001                     	;# 
  1645  0002                     	;# 
  1646  0003                     	;# 
  1647  0004                     	;# 
  1648  0005                     	;# 
  1649  0006                     	;# 
  1650  0007                     	;# 
  1651  0008                     	;# 
  1652  0009                     	;# 
  1653  000A                     	;# 
  1654  000B                     	;# 
  1655  000C                     	;# 
  1656  000D                     	;# 
  1657  000E                     	;# 
  1658  000F                     	;# 
  1659  0010                     	;# 
  1660  0012                     	;# 
  1661  0013                     	;# 
  1662  0014                     	;# 
  1663  0015                     	;# 
  1664  0016                     	;# 
  1665  0018                     	;# 
  1666  0019                     	;# 
  1667  001A                     	;# 
  1668  001B                     	;# 
  1669  001C                     	;# 
  1670  009B                     	;# 
  1671  009B                     	;# 
  1672  009C                     	;# 
  1673  009D                     	;# 
  1674  009E                     	;# 
  1675  009F                     	;# 
  1676  0119                     	;# 
  1677  0119                     	;# 
  1678  0119                     	;# 
  1679  011A                     	;# 
  1680  011A                     	;# 
  1681  011A                     	;# 
  1682  011B                     	;# 
  1683  011B                     	;# 
  1684  011B                     	;# 
  1685  011B                     	;# 
  1686  011B                     	;# 
  1687  011C                     	;# 
  1688  011C                     	;# 
  1689  011C                     	;# 
  1690  011D                     	;# 
  1691  011D                     	;# 
  1692  011D                     	;# 
  1693  011E                     	;# 
  1694  011E                     	;# 
  1695  011E                     	;# 
  1696  011F                     	;# 
  1697  011F                     	;# 
  1698  011F                     	;# 
  1699  011F                     	;# 
  1700  011F                     	;# 
  1701  018C                     	;# 
  1702  018D                     	;# 
  1703  018E                     	;# 
  1704  018F                     	;# 
  1705  0190                     	;# 
  1706  0191                     	;# 
  1707  0192                     	;# 
  1708  0196                     	;# 
  1709  0197                     	;# 
  1710  0198                     	;# 
  1711  0199                     	;# 
  1712  019A                     	;# 
  1713  019B                     	;# 
  1714  019C                     	;# 
  1715  020C                     	;# 
  1716  020C                     	;# 
  1717  020D                     	;# 
  1718  020E                     	;# 
  1719  020F                     	;# 
  1720  020F                     	;# 
  1721  0210                     	;# 
  1722  0210                     	;# 
  1723  0211                     	;# 
  1724  0211                     	;# 
  1725  028C                     	;# 
  1726  028C                     	;# 
  1727  028D                     	;# 
  1728  028D                     	;# 
  1729  028E                     	;# 
  1730  028F                     	;# 
  1731  0290                     	;# 
  1732  0291                     	;# 
  1733  030C                     	;# 
  1734  030C                     	;# 
  1735  030D                     	;# 
  1736  030E                     	;# 
  1737  030F                     	;# 
  1738  0310                     	;# 
  1739  0310                     	;# 
  1740  0311                     	;# 
  1741  0312                     	;# 
  1742  0313                     	;# 
  1743  0314                     	;# 
  1744  0314                     	;# 
  1745  0315                     	;# 
  1746  0316                     	;# 
  1747  0318                     	;# 
  1748  0318                     	;# 
  1749  0319                     	;# 
  1750  031A                     	;# 
  1751  031C                     	;# 
  1752  031C                     	;# 
  1753  031D                     	;# 
  1754  031E                     	;# 
  1755  038C                     	;# 
  1756  038C                     	;# 
  1757  038D                     	;# 
  1758  038E                     	;# 
  1759  058C                     	;# 
  1760  058C                     	;# 
  1761  058D                     	;# 
  1762  058E                     	;# 
  1763  058F                     	;# 
  1764  058F                     	;# 
  1765  0590                     	;# 
  1766  0591                     	;# 
  1767  0592                     	;# 
  1768  0593                     	;# 
  1769  059C                     	;# 
  1770  059C                     	;# 
  1771  059D                     	;# 
  1772  059D                     	;# 
  1773  059E                     	;# 
  1774  059F                     	;# 
  1775  060C                     	;# 
  1776  060D                     	;# 
  1777  060E                     	;# 
  1778  060F                     	;# 
  1779  0610                     	;# 
  1780  0611                     	;# 
  1781  0612                     	;# 
  1782  0613                     	;# 
  1783  0614                     	;# 
  1784  070C                     	;# 
  1785  070D                     	;# 
  1786  070E                     	;# 
  1787  070F                     	;# 
  1788  0710                     	;# 
  1789  0711                     	;# 
  1790  0712                     	;# 
  1791  0713                     	;# 
  1792  0716                     	;# 
  1793  0717                     	;# 
  1794  0718                     	;# 
  1795  0719                     	;# 
  1796  071A                     	;# 
  1797  071B                     	;# 
  1798  071C                     	;# 
  1799  071D                     	;# 
  1800  0796                     	;# 
  1801  0797                     	;# 
  1802  0798                     	;# 
  1803  0799                     	;# 
  1804  079A                     	;# 
  1805  079B                     	;# 
  1806  080C                     	;# 
  1807  080D                     	;# 
  1808  080E                     	;# 
  1809  080F                     	;# 
  1810  0810                     	;# 
  1811  0811                     	;# 
  1812  0813                     	;# 
  1813  0814                     	;# 
  1814  081A                     	;# 
  1815  081A                     	;# 
  1816  081B                     	;# 
  1817  081C                     	;# 
  1818  081C                     	;# 
  1819  081D                     	;# 
  1820  081E                     	;# 
  1821  081F                     	;# 
  1822  088C                     	;# 
  1823  088D                     	;# 
  1824  088E                     	;# 
  1825  088F                     	;# 
  1826  0890                     	;# 
  1827  0891                     	;# 
  1828  0892                     	;# 
  1829  0893                     	;# 
  1830  0895                     	;# 
  1831  0896                     	;# 
  1832  090C                     	;# 
  1833  090E                     	;# 
  1834  090F                     	;# 
  1835  091F                     	;# 
  1836  098F                     	;# 
  1837  098F                     	;# 
  1838  0990                     	;# 
  1839  0991                     	;# 
  1840  0992                     	;# 
  1841  0993                     	;# 
  1842  0994                     	;# 
  1843  0995                     	;# 
  1844  0996                     	;# 
  1845  0997                     	;# 
  1846  0A19                     	;# 
  1847  0A19                     	;# 
  1848  0A1A                     	;# 
  1849  0A1A                     	;# 
  1850  0A1B                     	;# 
  1851  0A1B                     	;# 
  1852  0A1B                     	;# 
  1853  0A1C                     	;# 
  1854  0A1C                     	;# 
  1855  0A1D                     	;# 
  1856  0A1D                     	;# 
  1857  0A1E                     	;# 
  1858  0A1E                     	;# 
  1859  0A1F                     	;# 
  1860  0A1F                     	;# 
  1861  0A1F                     	;# 
  1862  1E0F                     	;# 
  1863  1E10                     	;# 
  1864  1E11                     	;# 
  1865  1E12                     	;# 
  1866  1E13                     	;# 
  1867  1E14                     	;# 
  1868  1E15                     	;# 
  1869  1E16                     	;# 
  1870  1E17                     	;# 
  1871  1E18                     	;# 
  1872  1E19                     	;# 
  1873  1E1A                     	;# 
  1874  1E1B                     	;# 
  1875  1E1C                     	;# 
  1876  1E1D                     	;# 
  1877  1E1E                     	;# 
  1878  1E1F                     	;# 
  1879  1E20                     	;# 
  1880  1E21                     	;# 
  1881  1E22                     	;# 
  1882  1E23                     	;# 
  1883  1E24                     	;# 
  1884  1E25                     	;# 
  1885  1E26                     	;# 
  1886  1E27                     	;# 
  1887  1E28                     	;# 
  1888  1E29                     	;# 
  1889  1E2A                     	;# 
  1890  1E2B                     	;# 
  1891  1E2C                     	;# 
  1892  1E2D                     	;# 
  1893  1E2E                     	;# 
  1894  1E2F                     	;# 
  1895  1E30                     	;# 
  1896  1E31                     	;# 
  1897  1E32                     	;# 
  1898  1E33                     	;# 
  1899  1E34                     	;# 
  1900  1E35                     	;# 
  1901  1E36                     	;# 
  1902  1E37                     	;# 
  1903  1E8F                     	;# 
  1904  1E90                     	;# 
  1905  1E91                     	;# 
  1906  1E92                     	;# 
  1907  1E93                     	;# 
  1908  1E9C                     	;# 
  1909  1EA1                     	;# 
  1910  1EA2                     	;# 
  1911  1EB1                     	;# 
  1912  1EBB                     	;# 
  1913  1EBC                     	;# 
  1914  1EBD                     	;# 
  1915  1EBE                     	;# 
  1916  1EC3                     	;# 
  1917  1EC5                     	;# 
  1918  1EC6                     	;# 
  1919  1EC7                     	;# 
  1920  1EC8                     	;# 
  1921  1EC9                     	;# 
  1922  1ECA                     	;# 
  1923  1ECB                     	;# 
  1924  1ECC                     	;# 
  1925  1ECD                     	;# 
  1926  1ECE                     	;# 
  1927  1F10                     	;# 
  1928  1F11                     	;# 
  1929  1F12                     	;# 
  1930  1F13                     	;# 
  1931  1F14                     	;# 
  1932  1F15                     	;# 
  1933  1F16                     	;# 
  1934  1F17                     	;# 
  1935  1F18                     	;# 
  1936  1F19                     	;# 
  1937  1F1A                     	;# 
  1938  1F1B                     	;# 
  1939  1F1C                     	;# 
  1940  1F1D                     	;# 
  1941  1F1E                     	;# 
  1942  1F1F                     	;# 
  1943  1F20                     	;# 
  1944  1F21                     	;# 
  1945  1F22                     	;# 
  1946  1F23                     	;# 
  1947  1F24                     	;# 
  1948  1F25                     	;# 
  1949  1F26                     	;# 
  1950  1F27                     	;# 
  1951  1F28                     	;# 
  1952  1F29                     	;# 
  1953  1F2A                     	;# 
  1954  1F2B                     	;# 
  1955  1F2C                     	;# 
  1956  1F2D                     	;# 
  1957  1F2E                     	;# 
  1958  1F2F                     	;# 
  1959  1F30                     	;# 
  1960  1F31                     	;# 
  1961  1F32                     	;# 
  1962  1F38                     	;# 
  1963  1F39                     	;# 
  1964  1F3A                     	;# 
  1965  1F3B                     	;# 
  1966  1F3C                     	;# 
  1967  1F3D                     	;# 
  1968  1F3E                     	;# 
  1969  1F3F                     	;# 
  1970  1F43                     	;# 
  1971  1F44                     	;# 
  1972  1F45                     	;# 
  1973  1F46                     	;# 
  1974  1F47                     	;# 
  1975  1F48                     	;# 
  1976  1F49                     	;# 
  1977  1F4A                     	;# 
  1978  1F4E                     	;# 
  1979  1F4F                     	;# 
  1980  1F50                     	;# 
  1981  1F51                     	;# 
  1982  1F52                     	;# 
  1983  1F53                     	;# 
  1984  1F54                     	;# 
  1985  1F55                     	;# 
  1986  1F59                     	;# 
  1987  1F5A                     	;# 
  1988  1F5B                     	;# 
  1989  1F5C                     	;# 
  1990  1F5D                     	;# 
  1991  1F64                     	;# 
  1992  1F65                     	;# 
  1993  1F66                     	;# 
  1994  1F67                     	;# 
  1995  1F68                     	;# 
  1996  1F69                     	;# 
  1997  1F6A                     	;# 
  1998  1F6B                     	;# 
  1999  1FE4                     	;# 
  2000  1FE5                     	;# 
  2001  1FE6                     	;# 
  2002  1FE7                     	;# 
  2003  1FE8                     	;# 
  2004  1FE8                     	;# 
  2005  1FE9                     	;# 
  2006  1FEA                     	;# 
  2007  1FEB                     	;# 
  2008  1FED                     	;# 
  2009  1FEE                     	;# 
  2010  1FEF                     	;# 
  2011  0000                     	;# 
  2012  0001                     	;# 
  2013  0002                     	;# 
  2014  0003                     	;# 
  2015  0004                     	;# 
  2016  0005                     	;# 
  2017  0006                     	;# 
  2018  0007                     	;# 
  2019  0008                     	;# 
  2020  0009                     	;# 
  2021  000A                     	;# 
  2022  000B                     	;# 
  2023  000C                     	;# 
  2024  000D                     	;# 
  2025  000E                     	;# 
  2026  000F                     	;# 
  2027  0010                     	;# 
  2028  0012                     	;# 
  2029  0013                     	;# 
  2030  0014                     	;# 
  2031  0015                     	;# 
  2032  0016                     	;# 
  2033  0018                     	;# 
  2034  0019                     	;# 
  2035  001A                     	;# 
  2036  001B                     	;# 
  2037  001C                     	;# 
  2038  009B                     	;# 
  2039  009B                     	;# 
  2040  009C                     	;# 
  2041  009D                     	;# 
  2042  009E                     	;# 
  2043  009F                     	;# 
  2044  0119                     	;# 
  2045  0119                     	;# 
  2046  0119                     	;# 
  2047  011A                     	;# 
  2048  011A                     	;# 
  2049  011A                     	;# 
  2050  011B                     	;# 
  2051  011B                     	;# 
  2052  011B                     	;# 
  2053  011B                     	;# 
  2054  011B                     	;# 
  2055  011C                     	;# 
  2056  011C                     	;# 
  2057  011C                     	;# 
  2058  011D                     	;# 
  2059  011D                     	;# 
  2060  011D                     	;# 
  2061  011E                     	;# 
  2062  011E                     	;# 
  2063  011E                     	;# 
  2064  011F                     	;# 
  2065  011F                     	;# 
  2066  011F                     	;# 
  2067  011F                     	;# 
  2068  011F                     	;# 
  2069  018C                     	;# 
  2070  018D                     	;# 
  2071  018E                     	;# 
  2072  018F                     	;# 
  2073  0190                     	;# 
  2074  0191                     	;# 
  2075  0192                     	;# 
  2076  0196                     	;# 
  2077  0197                     	;# 
  2078  0198                     	;# 
  2079  0199                     	;# 
  2080  019A                     	;# 
  2081  019B                     	;# 
  2082  019C                     	;# 
  2083  020C                     	;# 
  2084  020C                     	;# 
  2085  020D                     	;# 
  2086  020E                     	;# 
  2087  020F                     	;# 
  2088  020F                     	;# 
  2089  0210                     	;# 
  2090  0210                     	;# 
  2091  0211                     	;# 
  2092  0211                     	;# 
  2093  028C                     	;# 
  2094  028C                     	;# 
  2095  028D                     	;# 
  2096  028D                     	;# 
  2097  028E                     	;# 
  2098  028F                     	;# 
  2099  0290                     	;# 
  2100  0291                     	;# 
  2101  030C                     	;# 
  2102  030C                     	;# 
  2103  030D                     	;# 
  2104  030E                     	;# 
  2105  030F                     	;# 
  2106  0310                     	;# 
  2107  0310                     	;# 
  2108  0311                     	;# 
  2109  0312                     	;# 
  2110  0313                     	;# 
  2111  0314                     	;# 
  2112  0314                     	;# 
  2113  0315                     	;# 
  2114  0316                     	;# 
  2115  0318                     	;# 
  2116  0318                     	;# 
  2117  0319                     	;# 
  2118  031A                     	;# 
  2119  031C                     	;# 
  2120  031C                     	;# 
  2121  031D                     	;# 
  2122  031E                     	;# 
  2123  038C                     	;# 
  2124  038C                     	;# 
  2125  038D                     	;# 
  2126  038E                     	;# 
  2127  058C                     	;# 
  2128  058C                     	;# 
  2129  058D                     	;# 
  2130  058E                     	;# 
  2131  058F                     	;# 
  2132  058F                     	;# 
  2133  0590                     	;# 
  2134  0591                     	;# 
  2135  0592                     	;# 
  2136  0593                     	;# 
  2137  059C                     	;# 
  2138  059C                     	;# 
  2139  059D                     	;# 
  2140  059D                     	;# 
  2141  059E                     	;# 
  2142  059F                     	;# 
  2143  060C                     	;# 
  2144  060D                     	;# 
  2145  060E                     	;# 
  2146  060F                     	;# 
  2147  0610                     	;# 
  2148  0611                     	;# 
  2149  0612                     	;# 
  2150  0613                     	;# 
  2151  0614                     	;# 
  2152  070C                     	;# 
  2153  070D                     	;# 
  2154  070E                     	;# 
  2155  070F                     	;# 
  2156  0710                     	;# 
  2157  0711                     	;# 
  2158  0712                     	;# 
  2159  0713                     	;# 
  2160  0716                     	;# 
  2161  0717                     	;# 
  2162  0718                     	;# 
  2163  0719                     	;# 
  2164  071A                     	;# 
  2165  071B                     	;# 
  2166  071C                     	;# 
  2167  071D                     	;# 
  2168  0796                     	;# 
  2169  0797                     	;# 
  2170  0798                     	;# 
  2171  0799                     	;# 
  2172  079A                     	;# 
  2173  079B                     	;# 
  2174  080C                     	;# 
  2175  080D                     	;# 
  2176  080E                     	;# 
  2177  080F                     	;# 
  2178  0810                     	;# 
  2179  0811                     	;# 
  2180  0813                     	;# 
  2181  0814                     	;# 
  2182  081A                     	;# 
  2183  081A                     	;# 
  2184  081B                     	;# 
  2185  081C                     	;# 
  2186  081C                     	;# 
  2187  081D                     	;# 
  2188  081E                     	;# 
  2189  081F                     	;# 
  2190  088C                     	;# 
  2191  088D                     	;# 
  2192  088E                     	;# 
  2193  088F                     	;# 
  2194  0890                     	;# 
  2195  0891                     	;# 
  2196  0892                     	;# 
  2197  0893                     	;# 
  2198  0895                     	;# 
  2199  0896                     	;# 
  2200  090C                     	;# 
  2201  090E                     	;# 
  2202  090F                     	;# 
  2203  091F                     	;# 
  2204  098F                     	;# 
  2205  098F                     	;# 
  2206  0990                     	;# 
  2207  0991                     	;# 
  2208  0992                     	;# 
  2209  0993                     	;# 
  2210  0994                     	;# 
  2211  0995                     	;# 
  2212  0996                     	;# 
  2213  0997                     	;# 
  2214  0A19                     	;# 
  2215  0A19                     	;# 
  2216  0A1A                     	;# 
  2217  0A1A                     	;# 
  2218  0A1B                     	;# 
  2219  0A1B                     	;# 
  2220  0A1B                     	;# 
  2221  0A1C                     	;# 
  2222  0A1C                     	;# 
  2223  0A1D                     	;# 
  2224  0A1D                     	;# 
  2225  0A1E                     	;# 
  2226  0A1E                     	;# 
  2227  0A1F                     	;# 
  2228  0A1F                     	;# 
  2229  0A1F                     	;# 
  2230  1E0F                     	;# 
  2231  1E10                     	;# 
  2232  1E11                     	;# 
  2233  1E12                     	;# 
  2234  1E13                     	;# 
  2235  1E14                     	;# 
  2236  1E15                     	;# 
  2237  1E16                     	;# 
  2238  1E17                     	;# 
  2239  1E18                     	;# 
  2240  1E19                     	;# 
  2241  1E1A                     	;# 
  2242  1E1B                     	;# 
  2243  1E1C                     	;# 
  2244  1E1D                     	;# 
  2245  1E1E                     	;# 
  2246  1E1F                     	;# 
  2247  1E20                     	;# 
  2248  1E21                     	;# 
  2249  1E22                     	;# 
  2250  1E23                     	;# 
  2251  1E24                     	;# 
  2252  1E25                     	;# 
  2253  1E26                     	;# 
  2254  1E27                     	;# 
  2255  1E28                     	;# 
  2256  1E29                     	;# 
  2257  1E2A                     	;# 
  2258  1E2B                     	;# 
  2259  1E2C                     	;# 
  2260  1E2D                     	;# 
  2261  1E2E                     	;# 
  2262  1E2F                     	;# 
  2263  1E30                     	;# 
  2264  1E31                     	;# 
  2265  1E32                     	;# 
  2266  1E33                     	;# 
  2267  1E34                     	;# 
  2268  1E35                     	;# 
  2269  1E36                     	;# 
  2270  1E37                     	;# 
  2271  1E8F                     	;# 
  2272  1E90                     	;# 
  2273  1E91                     	;# 
  2274  1E92                     	;# 
  2275  1E93                     	;# 
  2276  1E9C                     	;# 
  2277  1EA1                     	;# 
  2278  1EA2                     	;# 
  2279  1EB1                     	;# 
  2280  1EBB                     	;# 
  2281  1EBC                     	;# 
  2282  1EBD                     	;# 
  2283  1EBE                     	;# 
  2284  1EC3                     	;# 
  2285  1EC5                     	;# 
  2286  1EC6                     	;# 
  2287  1EC7                     	;# 
  2288  1EC8                     	;# 
  2289  1EC9                     	;# 
  2290  1ECA                     	;# 
  2291  1ECB                     	;# 
  2292  1ECC                     	;# 
  2293  1ECD                     	;# 
  2294  1ECE                     	;# 
  2295  1F10                     	;# 
  2296  1F11                     	;# 
  2297  1F12                     	;# 
  2298  1F13                     	;# 
  2299  1F14                     	;# 
  2300  1F15                     	;# 
  2301  1F16                     	;# 
  2302  1F17                     	;# 
  2303  1F18                     	;# 
  2304  1F19                     	;# 
  2305  1F1A                     	;# 
  2306  1F1B                     	;# 
  2307  1F1C                     	;# 
  2308  1F1D                     	;# 
  2309  1F1E                     	;# 
  2310  1F1F                     	;# 
  2311  1F20                     	;# 
  2312  1F21                     	;# 
  2313  1F22                     	;# 
  2314  1F23                     	;# 
  2315  1F24                     	;# 
  2316  1F25                     	;# 
  2317  1F26                     	;# 
  2318  1F27                     	;# 
  2319  1F28                     	;# 
  2320  1F29                     	;# 
  2321  1F2A                     	;# 
  2322  1F2B                     	;# 
  2323  1F2C                     	;# 
  2324  1F2D                     	;# 
  2325  1F2E                     	;# 
  2326  1F2F                     	;# 
  2327  1F30                     	;# 
  2328  1F31                     	;# 
  2329  1F32                     	;# 
  2330  1F38                     	;# 
  2331  1F39                     	;# 
  2332  1F3A                     	;# 
  2333  1F3B                     	;# 
  2334  1F3C                     	;# 
  2335  1F3D                     	;# 
  2336  1F3E                     	;# 
  2337  1F3F                     	;# 
  2338  1F43                     	;# 
  2339  1F44                     	;# 
  2340  1F45                     	;# 
  2341  1F46                     	;# 
  2342  1F47                     	;# 
  2343  1F48                     	;# 
  2344  1F49                     	;# 
  2345  1F4A                     	;# 
  2346  1F4E                     	;# 
  2347  1F4F                     	;# 
  2348  1F50                     	;# 
  2349  1F51                     	;# 
  2350  1F52                     	;# 
  2351  1F53                     	;# 
  2352  1F54                     	;# 
  2353  1F55                     	;# 
  2354  1F59                     	;# 
  2355  1F5A                     	;# 
  2356  1F5B                     	;# 
  2357  1F5C                     	;# 
  2358  1F5D                     	;# 
  2359  1F64                     	;# 
  2360  1F65                     	;# 
  2361  1F66                     	;# 
  2362  1F67                     	;# 
  2363  1F68                     	;# 
  2364  1F69                     	;# 
  2365  1F6A                     	;# 
  2366  1F6B                     	;# 
  2367  1FE4                     	;# 
  2368  1FE5                     	;# 
  2369  1FE6                     	;# 
  2370  1FE7                     	;# 
  2371  1FE8                     	;# 
  2372  1FE8                     	;# 
  2373  1FE9                     	;# 
  2374  1FEA                     	;# 
  2375  1FEB                     	;# 
  2376  1FED                     	;# 
  2377  1FEE                     	;# 
  2378  1FEF                     	;# 
  2379  0000                     	;# 
  2380  0001                     	;# 
  2381  0002                     	;# 
  2382  0003                     	;# 
  2383  0004                     	;# 
  2384  0005                     	;# 
  2385  0006                     	;# 
  2386  0007                     	;# 
  2387  0008                     	;# 
  2388  0009                     	;# 
  2389  000A                     	;# 
  2390  000B                     	;# 
  2391  000C                     	;# 
  2392  000D                     	;# 
  2393  000E                     	;# 
  2394  000F                     	;# 
  2395  0010                     	;# 
  2396  0012                     	;# 
  2397  0013                     	;# 
  2398  0014                     	;# 
  2399  0015                     	;# 
  2400  0016                     	;# 
  2401  0018                     	;# 
  2402  0019                     	;# 
  2403  001A                     	;# 
  2404  001B                     	;# 
  2405  001C                     	;# 
  2406  009B                     	;# 
  2407  009B                     	;# 
  2408  009C                     	;# 
  2409  009D                     	;# 
  2410  009E                     	;# 
  2411  009F                     	;# 
  2412  0119                     	;# 
  2413  0119                     	;# 
  2414  0119                     	;# 
  2415  011A                     	;# 
  2416  011A                     	;# 
  2417  011A                     	;# 
  2418  011B                     	;# 
  2419  011B                     	;# 
  2420  011B                     	;# 
  2421  011B                     	;# 
  2422  011B                     	;# 
  2423  011C                     	;# 
  2424  011C                     	;# 
  2425  011C                     	;# 
  2426  011D                     	;# 
  2427  011D                     	;# 
  2428  011D                     	;# 
  2429  011E                     	;# 
  2430  011E                     	;# 
  2431  011E                     	;# 
  2432  011F                     	;# 
  2433  011F                     	;# 
  2434  011F                     	;# 
  2435  011F                     	;# 
  2436  011F                     	;# 
  2437  018C                     	;# 
  2438  018D                     	;# 
  2439  018E                     	;# 
  2440  018F                     	;# 
  2441  0190                     	;# 
  2442  0191                     	;# 
  2443  0192                     	;# 
  2444  0196                     	;# 
  2445  0197                     	;# 
  2446  0198                     	;# 
  2447  0199                     	;# 
  2448  019A                     	;# 
  2449  019B                     	;# 
  2450  019C                     	;# 
  2451  020C                     	;# 
  2452  020C                     	;# 
  2453  020D                     	;# 
  2454  020E                     	;# 
  2455  020F                     	;# 
  2456  020F                     	;# 
  2457  0210                     	;# 
  2458  0210                     	;# 
  2459  0211                     	;# 
  2460  0211                     	;# 
  2461  028C                     	;# 
  2462  028C                     	;# 
  2463  028D                     	;# 
  2464  028D                     	;# 
  2465  028E                     	;# 
  2466  028F                     	;# 
  2467  0290                     	;# 
  2468  0291                     	;# 
  2469  030C                     	;# 
  2470  030C                     	;# 
  2471  030D                     	;# 
  2472  030E                     	;# 
  2473  030F                     	;# 
  2474  0310                     	;# 
  2475  0310                     	;# 
  2476  0311                     	;# 
  2477  0312                     	;# 
  2478  0313                     	;# 
  2479  0314                     	;# 
  2480  0314                     	;# 
  2481  0315                     	;# 
  2482  0316                     	;# 
  2483  0318                     	;# 
  2484  0318                     	;# 
  2485  0319                     	;# 
  2486  031A                     	;# 
  2487  031C                     	;# 
  2488  031C                     	;# 
  2489  031D                     	;# 
  2490  031E                     	;# 
  2491  038C                     	;# 
  2492  038C                     	;# 
  2493  038D                     	;# 
  2494  038E                     	;# 
  2495  058C                     	;# 
  2496  058C                     	;# 
  2497  058D                     	;# 
  2498  058E                     	;# 
  2499  058F                     	;# 
  2500  058F                     	;# 
  2501  0590                     	;# 
  2502  0591                     	;# 
  2503  0592                     	;# 
  2504  0593                     	;# 
  2505  059C                     	;# 
  2506  059C                     	;# 
  2507  059D                     	;# 
  2508  059D                     	;# 
  2509  059E                     	;# 
  2510  059F                     	;# 
  2511  060C                     	;# 
  2512  060D                     	;# 
  2513  060E                     	;# 
  2514  060F                     	;# 
  2515  0610                     	;# 
  2516  0611                     	;# 
  2517  0612                     	;# 
  2518  0613                     	;# 
  2519  0614                     	;# 
  2520  070C                     	;# 
  2521  070D                     	;# 
  2522  070E                     	;# 
  2523  070F                     	;# 
  2524  0710                     	;# 
  2525  0711                     	;# 
  2526  0712                     	;# 
  2527  0713                     	;# 
  2528  0716                     	;# 
  2529  0717                     	;# 
  2530  0718                     	;# 
  2531  0719                     	;# 
  2532  071A                     	;# 
  2533  071B                     	;# 
  2534  071C                     	;# 
  2535  071D                     	;# 
  2536  0796                     	;# 
  2537  0797                     	;# 
  2538  0798                     	;# 
  2539  0799                     	;# 
  2540  079A                     	;# 
  2541  079B                     	;# 
  2542  080C                     	;# 
  2543  080D                     	;# 
  2544  080E                     	;# 
  2545  080F                     	;# 
  2546  0810                     	;# 
  2547  0811                     	;# 
  2548  0813                     	;# 
  2549  0814                     	;# 
  2550  081A                     	;# 
  2551  081A                     	;# 
  2552  081B                     	;# 
  2553  081C                     	;# 
  2554  081C                     	;# 
  2555  081D                     	;# 
  2556  081E                     	;# 
  2557  081F                     	;# 
  2558  088C                     	;# 
  2559  088D                     	;# 
  2560  088E                     	;# 
  2561  088F                     	;# 
  2562  0890                     	;# 
  2563  0891                     	;# 
  2564  0892                     	;# 
  2565  0893                     	;# 
  2566  0895                     	;# 
  2567  0896                     	;# 
  2568  090C                     	;# 
  2569  090E                     	;# 
  2570  090F                     	;# 
  2571  091F                     	;# 
  2572  098F                     	;# 
  2573  098F                     	;# 
  2574  0990                     	;# 
  2575  0991                     	;# 
  2576  0992                     	;# 
  2577  0993                     	;# 
  2578  0994                     	;# 
  2579  0995                     	;# 
  2580  0996                     	;# 
  2581  0997                     	;# 
  2582  0A19                     	;# 
  2583  0A19                     	;# 
  2584  0A1A                     	;# 
  2585  0A1A                     	;# 
  2586  0A1B                     	;# 
  2587  0A1B                     	;# 
  2588  0A1B                     	;# 
  2589  0A1C                     	;# 
  2590  0A1C                     	;# 
  2591  0A1D                     	;# 
  2592  0A1D                     	;# 
  2593  0A1E                     	;# 
  2594  0A1E                     	;# 
  2595  0A1F                     	;# 
  2596  0A1F                     	;# 
  2597  0A1F                     	;# 
  2598  1E0F                     	;# 
  2599  1E10                     	;# 
  2600  1E11                     	;# 
  2601  1E12                     	;# 
  2602  1E13                     	;# 
  2603  1E14                     	;# 
  2604  1E15                     	;# 
  2605  1E16                     	;# 
  2606  1E17                     	;# 
  2607  1E18                     	;# 
  2608  1E19                     	;# 
  2609  1E1A                     	;# 
  2610  1E1B                     	;# 
  2611  1E1C                     	;# 
  2612  1E1D                     	;# 
  2613  1E1E                     	;# 
  2614  1E1F                     	;# 
  2615  1E20                     	;# 
  2616  1E21                     	;# 
  2617  1E22                     	;# 
  2618  1E23                     	;# 
  2619  1E24                     	;# 
  2620  1E25                     	;# 
  2621  1E26                     	;# 
  2622  1E27                     	;# 
  2623  1E28                     	;# 
  2624  1E29                     	;# 
  2625  1E2A                     	;# 
  2626  1E2B                     	;# 
  2627  1E2C                     	;# 
  2628  1E2D                     	;# 
  2629  1E2E                     	;# 
  2630  1E2F                     	;# 
  2631  1E30                     	;# 
  2632  1E31                     	;# 
  2633  1E32                     	;# 
  2634  1E33                     	;# 
  2635  1E34                     	;# 
  2636  1E35                     	;# 
  2637  1E36                     	;# 
  2638  1E37                     	;# 
  2639  1E8F                     	;# 
  2640  1E90                     	;# 
  2641  1E91                     	;# 
  2642  1E92                     	;# 
  2643  1E93                     	;# 
  2644  1E9C                     	;# 
  2645  1EA1                     	;# 
  2646  1EA2                     	;# 
  2647  1EB1                     	;# 
  2648  1EBB                     	;# 
  2649  1EBC                     	;# 
  2650  1EBD                     	;# 
  2651  1EBE                     	;# 
  2652  1EC3                     	;# 
  2653  1EC5                     	;# 
  2654  1EC6                     	;# 
  2655  1EC7                     	;# 
  2656  1EC8                     	;# 
  2657  1EC9                     	;# 
  2658  1ECA                     	;# 
  2659  1ECB                     	;# 
  2660  1ECC                     	;# 
  2661  1ECD                     	;# 
  2662  1ECE                     	;# 
  2663  1F10                     	;# 
  2664  1F11                     	;# 
  2665  1F12                     	;# 
  2666  1F13                     	;# 
  2667  1F14                     	;# 
  2668  1F15                     	;# 
  2669  1F16                     	;# 
  2670  1F17                     	;# 
  2671  1F18                     	;# 
  2672  1F19                     	;# 
  2673  1F1A                     	;# 
  2674  1F1B                     	;# 
  2675  1F1C                     	;# 
  2676  1F1D                     	;# 
  2677  1F1E                     	;# 
  2678  1F1F                     	;# 
  2679  1F20                     	;# 
  2680  1F21                     	;# 
  2681  1F22                     	;# 
  2682  1F23                     	;# 
  2683  1F24                     	;# 
  2684  1F25                     	;# 
  2685  1F26                     	;# 
  2686  1F27                     	;# 
  2687  1F28                     	;# 
  2688  1F29                     	;# 
  2689  1F2A                     	;# 
  2690  1F2B                     	;# 
  2691  1F2C                     	;# 
  2692  1F2D                     	;# 
  2693  1F2E                     	;# 
  2694  1F2F                     	;# 
  2695  1F30                     	;# 
  2696  1F31                     	;# 
  2697  1F32                     	;# 
  2698  1F38                     	;# 
  2699  1F39                     	;# 
  2700  1F3A                     	;# 
  2701  1F3B                     	;# 
  2702  1F3C                     	;# 
  2703  1F3D                     	;# 
  2704  1F3E                     	;# 
  2705  1F3F                     	;# 
  2706  1F43                     	;# 
  2707  1F44                     	;# 
  2708  1F45                     	;# 
  2709  1F46                     	;# 
  2710  1F47                     	;# 
  2711  1F48                     	;# 
  2712  1F49                     	;# 
  2713  1F4A                     	;# 
  2714  1F4E                     	;# 
  2715  1F4F                     	;# 
  2716  1F50                     	;# 
  2717  1F51                     	;# 
  2718  1F52                     	;# 
  2719  1F53                     	;# 
  2720  1F54                     	;# 
  2721  1F55                     	;# 
  2722  1F59                     	;# 
  2723  1F5A                     	;# 
  2724  1F5B                     	;# 
  2725  1F5C                     	;# 
  2726  1F5D                     	;# 
  2727  1F64                     	;# 
  2728  1F65                     	;# 
  2729  1F66                     	;# 
  2730  1F67                     	;# 
  2731  1F68                     	;# 
  2732  1F69                     	;# 
  2733  1F6A                     	;# 
  2734  1F6B                     	;# 
  2735  1FE4                     	;# 
  2736  1FE5                     	;# 
  2737  1FE6                     	;# 
  2738  1FE7                     	;# 
  2739  1FE8                     	;# 
  2740  1FE8                     	;# 
  2741  1FE9                     	;# 
  2742  1FEA                     	;# 
  2743  1FEB                     	;# 
  2744  1FED                     	;# 
  2745  1FEE                     	;# 
  2746  1FEF                     	;# 
  2747                           
  2748                           	psect	idataBANK2
  2749  0AA5                     __pidataBANK2:
  2750                           
  2751                           ;initializer for _Sw_I2c_Cxt
  2752  0AA5  3400               	retlw	0
  2753  0AA6  3400               	retlw	0
  2754  0AA7  3400               	retlw	0
  2755  0AA8  3400               	retlw	0
  2756  0AA9  3400               	retlw	0
  2757  0AAA  3400               	retlw	0
  2758  0AAB  3400               	retlw	0
  2759  0AAC  3400               	retlw	0
  2760  0AAD  34FF               	retlw	-1
  2761                           
  2762                           	psect	stringtext1
  2763  1000                     __pstringtext1:
  2764  1000                     _i2c1_fsmStateTable:
  2765  1000  3400               	retlw	low _I2C1_DO_IDLE
  2766  1001  340A               	retlw	high _I2C1_DO_IDLE
  2767  1002  348A               	retlw	low _I2C1_DO_SEND_ADR_READ
  2768  1003  340A               	retlw	high _I2C1_DO_SEND_ADR_READ
  2769  1004  347A               	retlw	low _I2C1_DO_SEND_ADR_WRITE
  2770  1005  340A               	retlw	high _I2C1_DO_SEND_ADR_WRITE
  2771  1006  34F8               	retlw	low _I2C1_DO_TX
  2772  1007  3404               	retlw	high _I2C1_DO_TX
  2773  1008  3450               	retlw	low _I2C1_DO_RX
  2774  1009  3406               	retlw	high _I2C1_DO_RX
  2775  100A  3473               	retlw	low _I2C1_DO_RCEN
  2776  100B  340A               	retlw	high _I2C1_DO_RCEN
  2777  100C  342C               	retlw	low _I2C1_DO_TX_EMPTY
  2778  100D  340F               	retlw	high _I2C1_DO_TX_EMPTY
  2779  100E  3405               	retlw	low _I2C1_DO_SEND_RESTART_READ
  2780  100F  340A               	retlw	high _I2C1_DO_SEND_RESTART_READ
  2781  1010  340A               	retlw	low _I2C1_DO_SEND_RESTART_WRITE
  2782  1011  340A               	retlw	high _I2C1_DO_SEND_RESTART_WRITE
  2783  1012  340F               	retlw	low _I2C1_DO_SEND_RESTART
  2784  1013  340A               	retlw	high _I2C1_DO_SEND_RESTART
  2785  1014  3414               	retlw	low _I2C1_DO_SEND_STOP
  2786  1015  340A               	retlw	high _I2C1_DO_SEND_STOP
  2787  1016  3419               	retlw	low _I2C1_DO_RX_ACK
  2788  1017  340A               	retlw	high _I2C1_DO_RX_ACK
  2789  1018  341E               	retlw	low _I2C1_DO_RX_NACK_STOP
  2790  1019  340A               	retlw	high _I2C1_DO_RX_NACK_STOP
  2791  101A  3423               	retlw	low _I2C1_DO_RX_NACK_RESTART
  2792  101B  340A               	retlw	high _I2C1_DO_RX_NACK_RESTART
  2793  101C  3428               	retlw	low _I2C1_DO_RESET
  2794  101D  340A               	retlw	high _I2C1_DO_RESET
  2795  101E  34FB               	retlw	low _I2C1_DO_ADDRESS_NACK
  2796  101F  340E               	retlw	high _I2C1_DO_ADDRESS_NACK
  2797  1020                     __end_of_i2c1_fsmStateTable:
  2798                           
  2799                           	psect	nvBANK2
  2800  016E                     __pnvBANK2:
  2801  016E                     _eusart1TxBufferRemaining:
  2802  016E                     	ds	1
  2803                           
  2804                           	psect	nvBANK3
  2805  01EC                     __pnvBANK3:
  2806  01EC                     _EUSART1_RxDefaultInterruptHandler:
  2807  01EC                     	ds	2
  2808  01EE                     _EUSART1_TxDefaultInterruptHandler:
  2809  01EE                     	ds	2
  2810                           
  2811                           	psect	nvBANK4
  2812  0266                     __pnvBANK4:
  2813  0266                     _EUSART1_ErrorHandler:
  2814  0266                     	ds	2
  2815  0268                     _EUSART1_OverrunErrorHandler:
  2816  0268                     	ds	2
  2817  026A                     _EUSART1_FramingErrorHandler:
  2818  026A                     	ds	2
  2819  0019                     _LATBbits	set	25
  2820  000E                     _PORTCbits	set	14
  2821  0014                     _TRISCbits	set	20
  2822  001A                     _LATCbits	set	26
  2823  0015                     _TRISD	set	21
  2824  0014                     _TRISC	set	20
  2825  0013                     _TRISB	set	19
  2826  0012                     _TRISA	set	18
  2827  0016                     _TRISE	set	22
  2828  001A                     _LATC	set	26
  2829  0019                     _LATB	set	25
  2830  0018                     _LATA	set	24
  2831  001B                     _LATD	set	27
  2832  001C                     _LATE	set	28
  2833  000B                     _INTCONbits	set	11
  2834  0119                     _RC1REG	set	281
  2835  011D                     _RC1STAbits	set	285
  2836  011A                     _TX1REG	set	282
  2837  011E                     _TX1STAbits	set	286
  2838  011C                     _SP1BRGH	set	284
  2839  011B                     _SP1BRGL	set	283
  2840  011E                     _TX1STA	set	286
  2841  011D                     _RC1STA	set	285
  2842  011F                     _BAUD1CON	set	287
  2843  018F                     _SSP1STATbits	set	399
  2844  0191                     _SSP1CON2bits	set	401
  2845  018C                     _SSP1BUF	set	396
  2846  0190                     _SSP1CON1bits	set	400
  2847  018D                     _SSP1ADD	set	397
  2848  0191                     _SSP1CON2	set	401
  2849  0190                     _SSP1CON1	set	400
  2850  018F                     _SSP1STAT	set	399
  2851  0719                     _PIE3bits	set	1817
  2852  070F                     _PIR3bits	set	1807
  2853  079B                     _PMD5	set	1947
  2854  079A                     _PMD4	set	1946
  2855  0799                     _PMD3	set	1945
  2856  0798                     _PMD2	set	1944
  2857  0797                     _PMD1	set	1943
  2858  0796                     _PMD0	set	1942
  2859  0892                     _OSCTUNE	set	2194
  2860  0890                     _OSCSTAT	set	2192
  2861  0893                     _OSCFRQ	set	2195
  2862  0891                     _OSCEN	set	2193
  2863  088F                     _OSCCON3	set	2191
  2864  088D                     _OSCCON1	set	2189
  2865  1ECB                     _RX1DTPPS	set	7883
  2866  1EC6                     _SSP1DATPPS	set	7878
  2867  1EC5                     _SSP1CLKPPS	set	7877
  2868  1F50                     _ODCONCbits	set	8016
  2869  1F22                     _RC2PPS	set	7970
  2870  1F26                     _RC6PPS	set	7974
  2871  1F24                     _RC4PPS	set	7972
  2872  1F68                     _INLVLE	set	8040
  2873  1F5D                     _INLVLD	set	8029
  2874  1F52                     _INLVLC	set	8018
  2875  1F47                     _INLVLB	set	8007
  2876  1F3C                     _INLVLA	set	7996
  2877  1F67                     _SLRCONE	set	8039
  2878  1F5C                     _SLRCOND	set	8028
  2879  1F51                     _SLRCONC	set	8017
  2880  1F46                     _SLRCONB	set	8006
  2881  1F3B                     _SLRCONA	set	7995
  2882  1F5B                     _ODCOND	set	8027
  2883  1F50                     _ODCONC	set	8016
  2884  1F45                     _ODCONB	set	8005
  2885  1F3A                     _ODCONA	set	7994
  2886  1F66                     _ODCONE	set	8038
  2887  1F4F                     _WPUC	set	8015
  2888  1F39                     _WPUA	set	7993
  2889  1F44                     _WPUB	set	8004
  2890  1F65                     _WPUE	set	8037
  2891  1F5A                     _WPUD	set	8026
  2892  1F38                     _ANSELA	set	7992
  2893  1F64                     _ANSELE	set	8036
  2894  1F43                     _ANSELB	set	8003
  2895  1F4E                     _ANSELC	set	8014
  2896  1F59                     _ANSELD	set	8025
  2897                           
  2898                           	psect	stringtext2
  2899  1020                     __pstringtext2:
  2900  1020                     STR_5:
  2901  1020  3444               	retlw	68	;'D'
  2902  1021  346F               	retlw	111	;'o'
  2903  1022  346E               	retlw	110	;'n'
  2904  1023  3465               	retlw	101	;'e'
  2905  1024  340A               	retlw	10
  2906  1025  3450               	retlw	80	;'P'
  2907  1026  3472               	retlw	114	;'r'
  2908  1027  3465               	retlw	101	;'e'
  2909  1028  3473               	retlw	115	;'s'
  2910  1029  3473               	retlw	115	;'s'
  2911  102A  3420               	retlw	32	;' '
  2912  102B  3427               	retlw	39	;'''
  2913  102C  3454               	retlw	84	;'T'
  2914  102D  3427               	retlw	39	;'''
  2915  102E  3420               	retlw	32	;' '
  2916  102F  3474               	retlw	116	;'t'
  2917  1030  346F               	retlw	111	;'o'
  2918  1031  3420               	retlw	32	;' '
  2919  1032  3474               	retlw	116	;'t'
  2920  1033  3465               	retlw	101	;'e'
  2921  1034  3473               	retlw	115	;'s'
  2922  1035  3474               	retlw	116	;'t'
  2923  1036  3420               	retlw	32	;' '
  2924  1037  3461               	retlw	97	;'a'
  2925  1038  3467               	retlw	103	;'g'
  2926  1039  3461               	retlw	97	;'a'
  2927  103A  3469               	retlw	105	;'i'
  2928  103B  346E               	retlw	110	;'n'
  2929  103C  340A               	retlw	10
  2930  103D  3400               	retlw	0
  2931                           
  2932                           	psect	stringtext3
  2933  103E                     __pstringtext3:
  2934  103E                     STR_1:
  2935  103E  340A               	retlw	10
  2936  103F  3445               	retlw	69	;'E'
  2937  1040  3472               	retlw	114	;'r'
  2938  1041  3472               	retlw	114	;'r'
  2939  1042  346F               	retlw	111	;'o'
  2940  1043  3472               	retlw	114	;'r'
  2941  1044  3420               	retlw	32	;' '
  2942  1045  3440               	retlw	64	;'@'
  2943  1046  3425               	retlw	37	;'%'
  2944  1047  3430               	retlw	48	;'0'
  2945  1048  3434               	retlw	52	;'4'
  2946  1049  3458               	retlw	88	;'X'
  2947  104A  343A               	retlw	58	;':'
  2948  104B  3420               	retlw	32	;' '
  2949  104C  3425               	retlw	37	;'%'
  2950  104D  3430               	retlw	48	;'0'
  2951  104E  3432               	retlw	50	;'2'
  2952  104F  3458               	retlw	88	;'X'
  2953  1050  3420               	retlw	32	;' '
  2954  1051  3423               	retlw	35	;'#'
  2955  1052  3420               	retlw	32	;' '
  2956  1053  3425               	retlw	37	;'%'
  2957  1054  3430               	retlw	48	;'0'
  2958  1055  3432               	retlw	50	;'2'
  2959  1056  3458               	retlw	88	;'X'
  2960  1057  3400               	retlw	0
  2961                           
  2962                           	psect	stringtext4
  2963  1058                     __pstringtext4:
  2964  1058                     STR_2:
  2965  1058  340A               	retlw	10
  2966  1059  3445               	retlw	69	;'E'
  2967  105A  3445               	retlw	69	;'E'
  2968  105B  3450               	retlw	80	;'P'
  2969  105C  3452               	retlw	82	;'R'
  2970  105D  344F               	retlw	79	;'O'
  2971  105E  344D               	retlw	77	;'M'
  2972  105F  3420               	retlw	32	;' '
  2973  1060  3432               	retlw	50	;'2'
  2974  1061  3434               	retlw	52	;'4'
  2975  1062  3441               	retlw	65	;'A'
  2976  1063  3441               	retlw	65	;'A'
  2977  1064  3431               	retlw	49	;'1'
  2978  1065  3432               	retlw	50	;'2'
  2979  1066  3438               	retlw	56	;'8'
  2980  1067  3420               	retlw	32	;' '
  2981  1068  3454               	retlw	84	;'T'
  2982  1069  3445               	retlw	69	;'E'
  2983  106A  3453               	retlw	83	;'S'
  2984  106B  3454               	retlw	84	;'T'
  2985  106C  340A               	retlw	10
  2986  106D  3400               	retlw	0
  2987                           
  2988                           	psect	stringtext5
  2989  106E                     __pstringtext5:
  2990  106E                     STR_3:
  2991  106E  340A               	retlw	10
  2992  106F  3453               	retlw	83	;'S'
  2993  1070  3474               	retlw	116	;'t'
  2994  1071  3461               	retlw	97	;'a'
  2995  1072  3472               	retlw	114	;'r'
  2996  1073  3474               	retlw	116	;'t'
  2997  1074  3420               	retlw	32	;' '
  2998  1075  3454               	retlw	84	;'T'
  2999  1076  3465               	retlw	101	;'e'
  3000  1077  3473               	retlw	115	;'s'
  3001  1078  3474               	retlw	116	;'t'
  3002  1079  343A               	retlw	58	;':'
  3003  107A  3400               	retlw	0
  3004                           
  3005                           	psect	stringtext6
  3006  107B                     __pstringtext6:
  3007  107B                     STR_4:
  3008  107B  342E               	retlw	46	;'.'
  3009  107C  3400               	retlw	0
  3010                           
  3011                           	psect	stringtext7
  3012  0000                     __pstringtext7:
  3013                           
  3014                           	psect	cinit
  3015  002D                     start_initialization:	
  3016                           ; #config settings
  3017                           
  3018  002D                     __initialization:
  3019                           
  3020                           ; Initialize objects allocated to BANK2
  3021  002D  30A5               	movlw	low __pidataBANK2
  3022  002E  0084               	movwf	4
  3023  002F  308A               	movlw	(high __pidataBANK2)| (0+128)
  3024  0030  0085               	movwf	5
  3025  0031  3060               	movlw	low __pdataBANK2
  3026  0032  0086               	movwf	6
  3027  0033  3001               	movlw	high __pdataBANK2
  3028  0034  0087               	movwf	7
  3029  0035  3009               	movlw	9
  3030  0036  318A  226D  3180   	fcall	init_ram
  3031                           
  3032                           ; Clear objects allocated to COMMON
  3033  0039  01FC               	clrf	__pbssCOMMON& (0+127)
  3034                           
  3035                           ; Clear objects allocated to BANK1
  3036  003A  30E8               	movlw	low __pbssBANK1
  3037  003B  0084               	movwf	4
  3038  003C  3000               	movlw	high __pbssBANK1
  3039  003D  0085               	movwf	5
  3040  003E  3008               	movlw	8
  3041  003F  318A  2267  3180   	fcall	clear_ram0
  3042                           
  3043                           ; Clear objects allocated to BANK2
  3044  0042  0142               	movlb	2	; select bank2
  3045  0043  01E9               	clrf	__pbssBANK2& (0+127)
  3046  0044  01EA               	clrf	(__pbssBANK2+1)& (0+127)
  3047  0045  01EB               	clrf	(__pbssBANK2+2)& (0+127)
  3048  0046  01EC               	clrf	(__pbssBANK2+3)& (0+127)
  3049  0047  01ED               	clrf	(__pbssBANK2+4)& (0+127)
  3050                           
  3051                           ; Clear objects allocated to BANK3
  3052  0048  30E0               	movlw	low __pbssBANK3
  3053  0049  0084               	movwf	4
  3054  004A  3001               	movlw	high __pbssBANK3
  3055  004B  0085               	movwf	5
  3056  004C  300C               	movlw	12
  3057  004D  318A  2267  3180   	fcall	clear_ram0
  3058                           
  3059                           ; Clear objects allocated to BANK4
  3060  0050  3020               	movlw	low __pbssBANK4
  3061  0051  0084               	movwf	4
  3062  0052  3002               	movlw	high __pbssBANK4
  3063  0053  0085               	movwf	5
  3064  0054  3046               	movlw	70
  3065  0055  318A  2267  3180   	fcall	clear_ram0
  3066                           
  3067                           ; Clear objects allocated to BANK5
  3068  0058  30A0               	movlw	low __pbssBANK5
  3069  0059  0084               	movwf	4
  3070  005A  3002               	movlw	high __pbssBANK5
  3071  005B  0085               	movwf	5
  3072  005C  3040               	movlw	64
  3073  005D  318A  2267  3180   	fcall	clear_ram0
  3074  0060                     end_of_initialization:	
  3075                           ;End of C runtime variable initialization code
  3076                           
  3077  0060                     __end_of__initialization:
  3078  0060  107E               	bcf	int$flags,0	;clear compiler interrupt flag (level 1)
  3079  0061  0140               	movlb	0
  3080  0062  3183  2B8D         	ljmp	_main	;jump to C main() function
  3081                           
  3082                           	psect	bssCOMMON
  3083  007C                     __pbssCOMMON:
  3084  007C                     _eusart1RxHead:
  3085  007C                     	ds	1
  3086                           
  3087                           	psect	bssBANK1
  3088  00E8                     __pbssBANK1:
  3089  00E8                     _prec:
  3090  00E8                     	ds	2
  3091  00EA                     _flags:
  3092  00EA                     	ds	2
  3093  00EC                     _eusart1RxCount:
  3094  00EC                     	ds	1
  3095  00ED                     _eusart1RxTail:
  3096  00ED                     	ds	1
  3097  00EE                     _eusart1TxTail:
  3098  00EE                     	ds	1
  3099  00EF                     _eusart1TxHead:
  3100  00EF                     	ds	1
  3101                           
  3102                           	psect	bssBANK2
  3103  0169                     __pbssBANK2:
  3104  0169                     _nout:
  3105  0169                     	ds	2
  3106  016B                     _width:
  3107  016B                     	ds	2
  3108  016D                     _eusart1RxLastError:
  3109  016D                     	ds	1
  3110                           
  3111                           	psect	dataBANK2
  3112  0160                     __pdataBANK2:
  3113  0160                     _Sw_I2c_Cxt:
  3114  0160                     	ds	9
  3115                           
  3116                           	psect	bssBANK3
  3117  01E0                     __pbssBANK3:
  3118  01E0                     _eusart1RxStatusBuffer:
  3119  01E0                     	ds	8
  3120  01E8                     _seed:
  3121  01E8                     	ds	4
  3122                           
  3123                           	psect	bssBANK4
  3124  0220                     __pbssBANK4:
  3125  0220                     _I2C1_Status:
  3126  0220                     	ds	30
  3127  023E                     _eusart1RxBuffer:
  3128  023E                     	ds	8
  3129  0246                     _dbuf:
  3130  0246                     	ds	32
  3131                           
  3132                           	psect	bssBANK5
  3133  02A0                     __pbssBANK5:
  3134  02A0                     _eusart1TxBuffer:
  3135  02A0                     	ds	64
  3136                           
  3137                           	psect	inittext
  3138  0A6D                     init_ram:
  3139  0A6D  00FE               	movwf	btemp
  3140  0A6E                     initloop:
  3141  0A6E  0012               	moviw fsr0++
  3142  0A6F  001E               	movwi fsr1++
  3143  0A70  0BFE               	decfsz	btemp,f
  3144  0A71  2A6E               	goto	initloop
  3145  0A72  3400               	retlw	0
  3146                           
  3147                           	psect	clrtext
  3148  0A67                     clear_ram0:	
  3149                           ;	Called with FSR0 containing the base address, and
  3150                           ;	WREG with the size to clear
  3151                           
  3152  0A67  0064               	clrwdt	;clear the watchdog before getting into this loop
  3153  0A68                     clrloop0:
  3154  0A68  0180               	clrf	0	;clear RAM location pointed to by FSR
  3155  0A69  3101               	addfsr 0,1
  3156  0A6A  0B89               	decfsz	9,f	;Have we reached the end of clearing yet?
  3157  0A6B  2A68               	goto	clrloop0	;have we reached the end yet?
  3158  0A6C  3400               	retlw	0	;all done for this memory range, return
  3159                           
  3160                           	psect	cstackBANK3
  3161  01A0                     __pcstackBANK3:
  3162  01A0                     main@datain:
  3163                           
  3164                           ; 64 bytes @ 0x0
  3165  01A0                     	ds	64
  3166                           
  3167                           	psect	cstackBANK2
  3168  0120                     __pcstackBANK2:
  3169  0120                     main@dataout:
  3170                           
  3171                           ; 64 bytes @ 0x0
  3172  0120                     	ds	64
  3173                           
  3174                           	psect	cstackBANK1
  3175  00A0                     __pcstackBANK1:
  3176  00A0                     ??_vfprintf:
  3177  00A0                     EE_WritePage@frame:	
  3178                           ; 1 bytes @ 0x0
  3179                           
  3180                           
  3181                           ; 66 bytes @ 0x0
  3182  00A0                     	ds	2
  3183  00A2                     vfprintf@fp:
  3184                           
  3185                           ; 1 bytes @ 0x2
  3186  00A2                     	ds	1
  3187  00A3                     vfprintf@cfmt:
  3188                           
  3189                           ; 2 bytes @ 0x3
  3190  00A3                     	ds	2
  3191  00A5                     ?_printf:
  3192  00A5                     printf@fmt:	
  3193                           ; 2 bytes @ 0x5
  3194                           
  3195                           
  3196                           ; 2 bytes @ 0x5
  3197  00A5                     	ds	8
  3198  00AD                     ??_printf:
  3199                           
  3200                           ; 1 bytes @ 0xD
  3201  00AD                     	ds	1
  3202  00AE                     printf@ap:
  3203                           
  3204                           ; 1 bytes @ 0xE
  3205  00AE                     	ds	1
  3206  00AF                     ?_MemoryTest:
  3207  00AF                     MemoryTest@addr:	
  3208                           ; 1 bytes @ 0xF
  3209                           
  3210                           
  3211                           ; 2 bytes @ 0xF
  3212  00AF                     	ds	2
  3213  00B1                     MemoryTest@pdata1:
  3214                           
  3215                           ; 1 bytes @ 0x11
  3216  00B1                     	ds	1
  3217  00B2                     MemoryTest@pdata2:
  3218                           
  3219                           ; 1 bytes @ 0x12
  3220  00B2                     	ds	1
  3221  00B3                     MemoryTest@len:
  3222                           
  3223                           ; 1 bytes @ 0x13
  3224  00B3                     	ds	1
  3225  00B4                     ??_MemoryTest:
  3226                           
  3227                           ; 1 bytes @ 0x14
  3228  00B4                     	ds	6
  3229  00BA                     MemoryTest@rslt:
  3230                           
  3231                           ; 1 bytes @ 0x1A
  3232  00BA                     	ds	1
  3233  00BB                     MemoryTest@i:
  3234                           
  3235                           ; 1 bytes @ 0x1B
  3236  00BB                     	ds	39
  3237  00E2                     ??_main:
  3238                           
  3239                           ; 1 bytes @ 0x42
  3240  00E2                     	ds	3
  3241  00E5                     main@DoNext:
  3242                           
  3243                           ; 1 bytes @ 0x45
  3244  00E5                     	ds	1
  3245  00E6                     main@addr:
  3246                           
  3247                           ; 2 bytes @ 0x46
  3248  00E6                     	ds	2
  3249                           
  3250                           	psect	cstackCOMMON
  3251  0070                     __pcstackCOMMON:
  3252  0070                     ?_I2C1_Open:
  3253  0070                     ?_I2C1_MasterWrite:	
  3254                           ; 1 bytes @ 0x0
  3255                           
  3256  0070                     ?_I2C1_Close:	
  3257                           ; 1 bytes @ 0x0
  3258                           
  3259  0070                     ?_I2C1_MasterRead:	
  3260                           ; 1 bytes @ 0x0
  3261                           
  3262  0070                     ?_I2C1_DO_IDLE:	
  3263                           ; 1 bytes @ 0x0
  3264                           
  3265  0070                     ?_I2C1_DO_SEND_ADR_READ:	
  3266                           ; 1 bytes @ 0x0
  3267                           
  3268  0070                     ?_I2C1_DO_SEND_ADR_WRITE:	
  3269                           ; 1 bytes @ 0x0
  3270                           
  3271  0070                     ?_I2C1_DO_TX:	
  3272                           ; 1 bytes @ 0x0
  3273                           
  3274  0070                     ?_I2C1_DO_RX:	
  3275                           ; 1 bytes @ 0x0
  3276                           
  3277  0070                     ?_I2C1_DO_RCEN:	
  3278                           ; 1 bytes @ 0x0
  3279                           
  3280  0070                     ?_I2C1_DO_TX_EMPTY:	
  3281                           ; 1 bytes @ 0x0
  3282                           
  3283  0070                     ?_I2C1_DO_SEND_RESTART_READ:	
  3284                           ; 1 bytes @ 0x0
  3285                           
  3286  0070                     ?_I2C1_DO_SEND_RESTART_WRITE:	
  3287                           ; 1 bytes @ 0x0
  3288                           
  3289  0070                     ?_I2C1_DO_SEND_RESTART:	
  3290                           ; 1 bytes @ 0x0
  3291                           
  3292  0070                     ?_I2C1_DO_SEND_STOP:	
  3293                           ; 1 bytes @ 0x0
  3294                           
  3295  0070                     ?_I2C1_DO_RX_ACK:	
  3296                           ; 1 bytes @ 0x0
  3297                           
  3298  0070                     ?_I2C1_DO_RX_NACK_STOP:	
  3299                           ; 1 bytes @ 0x0
  3300                           
  3301  0070                     ?_I2C1_DO_RX_NACK_RESTART:	
  3302                           ; 1 bytes @ 0x0
  3303                           
  3304  0070                     ?_I2C1_DO_RESET:	
  3305                           ; 1 bytes @ 0x0
  3306                           
  3307  0070                     ?_I2C1_DO_ADDRESS_NACK:	
  3308                           ; 1 bytes @ 0x0
  3309                           
  3310  0070                     ?_I2C1_MasterClearIrq:	
  3311                           ; 1 bytes @ 0x0
  3312                           
  3313  0070                     ?_I2C1_MasterOpen:	
  3314                           ; 1 bytes @ 0x0
  3315                           
  3316  0070                     ?_I2C1_MasterDisableIrq:	
  3317                           ; 1 bytes @ 0x0
  3318                           
  3319  0070                     ?_I2C1_MasterClose:	
  3320                           ; 1 bytes @ 0x0
  3321                           
  3322  0070                     ?_I2C1_MasterStart:	
  3323                           ; 1 bytes @ 0x0
  3324                           
  3325  0070                     ?_I2C1_Poller:	
  3326                           ; 1 bytes @ 0x0
  3327                           
  3328  0070                     ?_I2C1_MasterWaitForEvent:	
  3329                           ; 1 bytes @ 0x0
  3330                           
  3331  0070                     ?_I2C1_MasterFsm:	
  3332                           ; 1 bytes @ 0x0
  3333                           
  3334  0070                     ?_I2C1_MasterIsNack:	
  3335                           ; 1 bytes @ 0x0
  3336                           
  3337  0070                     ?_I2C1_MasterSendTxData:	
  3338                           ; 1 bytes @ 0x0
  3339                           
  3340  0070                     ?_I2C1_MasterGetRxData:	
  3341                           ; 1 bytes @ 0x0
  3342                           
  3343  0070                     ?_I2C1_MasterSendAck:	
  3344                           ; 1 bytes @ 0x0
  3345                           
  3346  0070                     ?_I2C1_MasterStartRx:	
  3347                           ; 1 bytes @ 0x0
  3348                           
  3349  0070                     ?_I2C1_MasterSetIrq:	
  3350                           ; 1 bytes @ 0x0
  3351                           
  3352  0070                     ?_I2C1_MasterEnableRestart:	
  3353                           ; 1 bytes @ 0x0
  3354                           
  3355  0070                     ?_I2C1_MasterStop:	
  3356                           ; 1 bytes @ 0x0
  3357                           
  3358  0070                     ?_I2C1_MasterSendNack:	
  3359                           ; 1 bytes @ 0x0
  3360                           
  3361  0070                     ?_EUSART1_Receive_ISR:	
  3362                           ; 1 bytes @ 0x0
  3363                           
  3364  0070                     ?_EUSART1_Transmit_ISR:	
  3365                           ; 1 bytes @ 0x0
  3366                           
  3367  0070                     ??_EUSART1_Transmit_ISR:	
  3368                           ; 1 bytes @ 0x0
  3369                           
  3370  0070                     ?_EUSART1_DefaultFramingErrorHandler:	
  3371                           ; 1 bytes @ 0x0
  3372                           
  3373  0070                     ??_EUSART1_DefaultFramingErrorHandler:	
  3374                           ; 1 bytes @ 0x0
  3375                           
  3376  0070                     ?_EUSART1_DefaultOverrunErrorHandler:	
  3377                           ; 1 bytes @ 0x0
  3378                           
  3379  0070                     ??_EUSART1_DefaultOverrunErrorHandler:	
  3380                           ; 1 bytes @ 0x0
  3381                           
  3382  0070                     ?_EUSART1_DefaultErrorHandler:	
  3383                           ; 1 bytes @ 0x0
  3384                           
  3385  0070                     ?_EUSART1_RxDataHandler:	
  3386                           ; 1 bytes @ 0x0
  3387                           
  3388  0070                     ??_EUSART1_RxDataHandler:	
  3389                           ; 1 bytes @ 0x0
  3390                           
  3391  0070                     ?_PMD_Initialize:	
  3392                           ; 1 bytes @ 0x0
  3393                           
  3394  0070                     ?_OSCILLATOR_Initialize:	
  3395                           ; 1 bytes @ 0x0
  3396                           
  3397  0070                     ?_I2C1_Initialize:	
  3398                           ; 1 bytes @ 0x0
  3399                           
  3400  0070                     ?_I2C1_MasterOperation:	
  3401                           ; 1 bytes @ 0x0
  3402                           
  3403  0070                     ?_EUSART1_Initialize:	
  3404                           ; 1 bytes @ 0x0
  3405                           
  3406  0070                     ?_EUSART1_is_rx_ready:	
  3407                           ; 1 bytes @ 0x0
  3408                           
  3409  0070                     ?_EUSART1_Read:	
  3410                           ; 1 bytes @ 0x0
  3411                           
  3412  0070                     ?_EUSART1_Write:	
  3413                           ; 1 bytes @ 0x0
  3414                           
  3415  0070                     ?_putch:	
  3416                           ; 1 bytes @ 0x0
  3417                           
  3418  0070                     ?_INTERRUPT_InterruptManager:	
  3419                           ; 1 bytes @ 0x0
  3420                           
  3421  0070                     ?_PIN_MANAGER_Initialize:	
  3422                           ; 1 bytes @ 0x0
  3423                           
  3424  0070                     ?_SYSTEM_Initialize:	
  3425                           ; 1 bytes @ 0x0
  3426                           
  3427  0070                     ?_main:	
  3428                           ; 1 bytes @ 0x0
  3429                           
  3430                           
  3431                           ; 1 bytes @ 0x0
  3432  0070                     	ds	1
  3433  0071                     ?_I2C1_SetBuffer:
  3434  0071                     ??_I2C1_Open:	
  3435                           ; 1 bytes @ 0x1
  3436                           
  3437  0071                     ??_I2C1_Close:	
  3438                           ; 1 bytes @ 0x1
  3439                           
  3440  0071                     ??_I2C1_DO_IDLE:	
  3441                           ; 1 bytes @ 0x1
  3442                           
  3443  0071                     ??_I2C1_DO_SEND_ADR_READ:	
  3444                           ; 1 bytes @ 0x1
  3445                           
  3446  0071                     ??_I2C1_DO_RCEN:	
  3447                           ; 1 bytes @ 0x1
  3448                           
  3449  0071                     ??_I2C1_DO_SEND_RESTART_READ:	
  3450                           ; 1 bytes @ 0x1
  3451                           
  3452  0071                     ??_I2C1_DO_SEND_RESTART_WRITE:	
  3453                           ; 1 bytes @ 0x1
  3454                           
  3455  0071                     ??_I2C1_DO_SEND_RESTART:	
  3456                           ; 1 bytes @ 0x1
  3457                           
  3458  0071                     ??_I2C1_DO_SEND_STOP:	
  3459                           ; 1 bytes @ 0x1
  3460                           
  3461  0071                     ??_I2C1_DO_RX_ACK:	
  3462                           ; 1 bytes @ 0x1
  3463                           
  3464  0071                     ??_I2C1_DO_RX_NACK_STOP:	
  3465                           ; 1 bytes @ 0x1
  3466                           
  3467  0071                     ??_I2C1_DO_RX_NACK_RESTART:	
  3468                           ; 1 bytes @ 0x1
  3469                           
  3470  0071                     ??_I2C1_DO_RESET:	
  3471                           ; 1 bytes @ 0x1
  3472                           
  3473  0071                     ??_I2C1_MasterClearIrq:	
  3474                           ; 1 bytes @ 0x1
  3475                           
  3476  0071                     ??_I2C1_MasterOpen:	
  3477                           ; 1 bytes @ 0x1
  3478                           
  3479  0071                     ??_I2C1_MasterDisableIrq:	
  3480                           ; 1 bytes @ 0x1
  3481                           
  3482  0071                     ??_I2C1_MasterClose:	
  3483                           ; 1 bytes @ 0x1
  3484                           
  3485  0071                     ??_I2C1_MasterStart:	
  3486                           ; 1 bytes @ 0x1
  3487                           
  3488  0071                     ?_I2C1_SetCallback:	
  3489                           ; 1 bytes @ 0x1
  3490                           
  3491  0071                     ??_I2C1_MasterWaitForEvent:	
  3492                           ; 1 bytes @ 0x1
  3493                           
  3494  0071                     ??_I2C1_MasterIsNack:	
  3495                           ; 1 bytes @ 0x1
  3496                           
  3497  0071                     ??_I2C1_MasterSendTxData:	
  3498                           ; 1 bytes @ 0x1
  3499                           
  3500  0071                     ??_I2C1_MasterGetRxData:	
  3501                           ; 1 bytes @ 0x1
  3502                           
  3503  0071                     ??_I2C1_MasterSendAck:	
  3504                           ; 1 bytes @ 0x1
  3505                           
  3506  0071                     ??_I2C1_MasterStartRx:	
  3507                           ; 1 bytes @ 0x1
  3508                           
  3509  0071                     ??_I2C1_MasterSetIrq:	
  3510                           ; 1 bytes @ 0x1
  3511                           
  3512  0071                     ??_I2C1_MasterEnableRestart:	
  3513                           ; 1 bytes @ 0x1
  3514                           
  3515  0071                     ??_I2C1_MasterStop:	
  3516                           ; 1 bytes @ 0x1
  3517                           
  3518  0071                     ??_I2C1_MasterSendNack:	
  3519                           ; 1 bytes @ 0x1
  3520                           
  3521  0071                     ?_EUSART1_SetRxInterruptHandler:	
  3522                           ; 1 bytes @ 0x1
  3523                           
  3524  0071                     ??_EUSART1_Receive_ISR:	
  3525                           ; 1 bytes @ 0x1
  3526                           
  3527  0071                     ?_EUSART1_SetTxInterruptHandler:	
  3528                           ; 1 bytes @ 0x1
  3529                           
  3530  0071                     ?_EUSART1_SetFramingErrorHandler:	
  3531                           ; 1 bytes @ 0x1
  3532                           
  3533  0071                     ?_EUSART1_SetOverrunErrorHandler:	
  3534                           ; 1 bytes @ 0x1
  3535                           
  3536  0071                     ?_EUSART1_SetErrorHandler:	
  3537                           ; 1 bytes @ 0x1
  3538                           
  3539  0071                     ??_EUSART1_DefaultErrorHandler:	
  3540                           ; 1 bytes @ 0x1
  3541                           
  3542  0071                     ??_PMD_Initialize:	
  3543                           ; 1 bytes @ 0x1
  3544                           
  3545  0071                     ??_OSCILLATOR_Initialize:	
  3546                           ; 1 bytes @ 0x1
  3547                           
  3548  0071                     ?_memcpy:	
  3549                           ; 1 bytes @ 0x1
  3550                           
  3551  0071                     ??_I2C1_Initialize:	
  3552                           ; 1 bytes @ 0x1
  3553                           
  3554  0071                     ??_EUSART1_is_rx_ready:	
  3555                           ; 1 bytes @ 0x1
  3556                           
  3557  0071                     ??_EUSART1_Read:	
  3558                           ; 1 bytes @ 0x1
  3559                           
  3560  0071                     ??_EUSART1_Write:	
  3561                           ; 1 bytes @ 0x1
  3562                           
  3563  0071                     ??_INTERRUPT_InterruptManager:	
  3564                           ; 1 bytes @ 0x1
  3565                           
  3566  0071                     ??_PIN_MANAGER_Initialize:	
  3567                           ; 1 bytes @ 0x1
  3568                           
  3569  0071                     ?_strlen:	
  3570                           ; 1 bytes @ 0x1
  3571                           
  3572  0071                     ?_isupper:	
  3573                           ; 2 bytes @ 0x1
  3574                           
  3575  0071                     ?_isalpha:	
  3576                           ; 2 bytes @ 0x1
  3577                           
  3578  0071                     ?_isdigit:	
  3579                           ; 2 bytes @ 0x1
  3580                           
  3581  0071                     ?_isspace:	
  3582                           ; 2 bytes @ 0x1
  3583                           
  3584  0071                     ?_islower:	
  3585                           ; 2 bytes @ 0x1
  3586                           
  3587  0071                     ?___wmul:	
  3588                           ; 2 bytes @ 0x1
  3589                           
  3590  0071                     ?___lmul:	
  3591                           ; 2 bytes @ 0x1
  3592                           
  3593  0071                     I2C1_MasterSendTxData@data:	
  3594                           ; 4 bytes @ 0x1
  3595                           
  3596  0071                     memcpy@s1:	
  3597                           ; 1 bytes @ 0x1
  3598                           
  3599  0071                     I2C1_SetBuffer@buffer:	
  3600                           ; 1 bytes @ 0x1
  3601                           
  3602  0071                     I2C1_SetCallback@cb:	
  3603                           ; 2 bytes @ 0x1
  3604                           
  3605  0071                     EUSART1_SetFramingErrorHandler@interruptHandler:	
  3606                           ; 2 bytes @ 0x1
  3607                           
  3608  0071                     EUSART1_SetOverrunErrorHandler@interruptHandler:	
  3609                           ; 2 bytes @ 0x1
  3610                           
  3611  0071                     EUSART1_SetErrorHandler@interruptHandler:	
  3612                           ; 2 bytes @ 0x1
  3613                           
  3614  0071                     EUSART1_SetTxInterruptHandler@interruptHandler:	
  3615                           ; 2 bytes @ 0x1
  3616                           
  3617  0071                     EUSART1_SetRxInterruptHandler@interruptHandler:	
  3618                           ; 2 bytes @ 0x1
  3619                           
  3620  0071                     ___wmul@multiplier:	
  3621                           ; 2 bytes @ 0x1
  3622                           
  3623  0071                     isalpha@c:	
  3624                           ; 2 bytes @ 0x1
  3625                           
  3626  0071                     isdigit@c:	
  3627                           ; 2 bytes @ 0x1
  3628                           
  3629  0071                     isspace@c:	
  3630                           ; 2 bytes @ 0x1
  3631                           
  3632  0071                     isupper@c:	
  3633                           ; 2 bytes @ 0x1
  3634                           
  3635  0071                     islower@c:	
  3636                           ; 2 bytes @ 0x1
  3637                           
  3638  0071                     ___lmul@multiplier:	
  3639                           ; 2 bytes @ 0x1
  3640                           
  3641                           
  3642                           ; 4 bytes @ 0x1
  3643  0071                     	ds	1
  3644  0072                     ??_I2C1_DO_SEND_ADR_WRITE:
  3645  0072                     I2C1_Open@address:	
  3646                           ; 1 bytes @ 0x2
  3647                           
  3648  0072                     I2C1_Close@returnValue:	
  3649                           ; 1 bytes @ 0x2
  3650                           
  3651  0072                     EUSART1_Read@readValue:	
  3652                           ; 1 bytes @ 0x2
  3653                           
  3654  0072                     EUSART1_Write@txData:	
  3655                           ; 1 bytes @ 0x2
  3656                           
  3657  0072                     memcpy@n:	
  3658                           ; 1 bytes @ 0x2
  3659                           
  3660                           
  3661                           ; 2 bytes @ 0x2
  3662  0072                     	ds	1
  3663  0073                     ??_EUSART1_SetRxInterruptHandler:
  3664  0073                     ??_EUSART1_SetTxInterruptHandler:	
  3665                           ; 1 bytes @ 0x3
  3666                           
  3667  0073                     ??_EUSART1_SetFramingErrorHandler:	
  3668                           ; 1 bytes @ 0x3
  3669                           
  3670  0073                     ??_EUSART1_SetOverrunErrorHandler:	
  3671                           ; 1 bytes @ 0x3
  3672                           
  3673  0073                     ??_EUSART1_SetErrorHandler:	
  3674                           ; 1 bytes @ 0x3
  3675                           
  3676  0073                     ??_strlen:	
  3677                           ; 1 bytes @ 0x3
  3678                           
  3679  0073                     ??_isupper:	
  3680                           ; 1 bytes @ 0x3
  3681                           
  3682  0073                     ??_isalpha:	
  3683                           ; 1 bytes @ 0x3
  3684                           
  3685  0073                     ??_isdigit:	
  3686                           ; 1 bytes @ 0x3
  3687                           
  3688  0073                     ??_isspace:	
  3689                           ; 1 bytes @ 0x3
  3690                           
  3691  0073                     ??_islower:	
  3692                           ; 1 bytes @ 0x3
  3693                           
  3694  0073                     ??_EUSART1_Initialize:	
  3695                           ; 1 bytes @ 0x3
  3696                           
  3697  0073                     ??_putch:	
  3698                           ; 1 bytes @ 0x3
  3699                           
  3700  0073                     I2C1_Open@returnValue:	
  3701                           ; 1 bytes @ 0x3
  3702                           
  3703  0073                     I2C1_SetCallback@ptr:	
  3704                           ; 1 bytes @ 0x3
  3705                           
  3706  0073                     putch@txData:	
  3707                           ; 1 bytes @ 0x3
  3708                           
  3709  0073                     I2C1_SetBuffer@bufferSize:	
  3710                           ; 1 bytes @ 0x3
  3711                           
  3712  0073                     ___wmul@multiplicand:	
  3713                           ; 2 bytes @ 0x3
  3714                           
  3715                           
  3716                           ; 2 bytes @ 0x3
  3717  0073                     	ds	1
  3718  0074                     ??_I2C1_SetCallback:
  3719  0074                     ??_memcpy:	
  3720                           ; 1 bytes @ 0x4
  3721                           
  3722  0074                     ??_SYSTEM_Initialize:	
  3723                           ; 1 bytes @ 0x4
  3724                           
  3725  0074                     ?_fputc:	
  3726                           ; 1 bytes @ 0x4
  3727                           
  3728  0074                     strlen@a:	
  3729                           ; 2 bytes @ 0x4
  3730                           
  3731  0074                     fputc@c:	
  3732                           ; 1 bytes @ 0x4
  3733                           
  3734                           
  3735                           ; 2 bytes @ 0x4
  3736  0074                     	ds	1
  3737  0075                     ??_I2C1_SetBuffer:
  3738  0075                     ??___wmul:	
  3739                           ; 1 bytes @ 0x5
  3740                           
  3741  0075                     I2C1_SetCallback@idx:	
  3742                           ; 1 bytes @ 0x5
  3743                           
  3744  0075                     memcpy@tmp:	
  3745                           ; 1 bytes @ 0x5
  3746                           
  3747  0075                     _isspace$2157:	
  3748                           ; 1 bytes @ 0x5
  3749                           
  3750  0075                     strlen@s:	
  3751                           ; 1 bytes @ 0x5
  3752                           
  3753  0075                     ___wmul@product:	
  3754                           ; 1 bytes @ 0x5
  3755                           
  3756  0075                     ___lmul@multiplicand:	
  3757                           ; 2 bytes @ 0x5
  3758                           
  3759                           
  3760                           ; 4 bytes @ 0x5
  3761  0075                     	ds	1
  3762  0076                     ?_I2C1_SetDataCompleteCallback:
  3763  0076                     ?_I2C1_SetAddressNackCallback:	
  3764                           ; 1 bytes @ 0x6
  3765                           
  3766  0076                     memcpy@d1:	
  3767                           ; 1 bytes @ 0x6
  3768                           
  3769  0076                     fputc@fp:	
  3770                           ; 1 bytes @ 0x6
  3771                           
  3772  0076                     I2C1_SetDataCompleteCallback@cb:	
  3773                           ; 1 bytes @ 0x6
  3774                           
  3775  0076                     I2C1_SetAddressNackCallback@cb:	
  3776                           ; 2 bytes @ 0x6
  3777                           
  3778                           
  3779                           ; 2 bytes @ 0x6
  3780  0076                     	ds	1
  3781  0077                     ??_fputc:
  3782  0077                     ?_toupper:	
  3783                           ; 1 bytes @ 0x7
  3784                           
  3785  0077                     ?_atoi:	
  3786                           ; 2 bytes @ 0x7
  3787                           
  3788  0077                     memcpy@d:	
  3789                           ; 2 bytes @ 0x7
  3790                           
  3791  0077                     atoi@s:	
  3792                           ; 1 bytes @ 0x7
  3793                           
  3794  0077                     toupper@c:	
  3795                           ; 2 bytes @ 0x7
  3796                           
  3797                           
  3798                           ; 2 bytes @ 0x7
  3799  0077                     	ds	1
  3800  0078                     I2C1_SetDataCompleteCallback@ptr:
  3801  0078                     I2C1_SetAddressNackCallback@ptr:	
  3802                           ; 1 bytes @ 0x8
  3803                           
  3804  0078                     memcpy@s:	
  3805                           ; 1 bytes @ 0x8
  3806                           
  3807                           
  3808                           ; 1 bytes @ 0x8
  3809  0078                     	ds	1
  3810  0079                     ??_I2C1_SetDataCompleteCallback:
  3811  0079                     ??_I2C1_SetAddressNackCallback:	
  3812                           ; 1 bytes @ 0x9
  3813                           
  3814  0079                     ??_RandomArray:	
  3815                           ; 1 bytes @ 0x9
  3816                           
  3817  0079                     ??___lmul:	
  3818                           ; 1 bytes @ 0x9
  3819                           
  3820  0079                     _toupper$2210:	
  3821                           ; 1 bytes @ 0x9
  3822                           
  3823                           
  3824                           ; 2 bytes @ 0x9
  3825  0079                     	ds	1
  3826  007A                     ?_rd1RegCompleteHandler:
  3827  007A                     ?_rd2RegCompleteHandler:	
  3828                           ; 1 bytes @ 0xA
  3829                           
  3830  007A                     ?_wr1RegCompleteHandler:	
  3831                           ; 1 bytes @ 0xA
  3832                           
  3833  007A                     ?_wr2RegCompleteHandler:	
  3834                           ; 1 bytes @ 0xA
  3835                           
  3836  007A                     ?_rdBlkRegCompleteHandler:	
  3837                           ; 1 bytes @ 0xA
  3838                           
  3839  007A                     ?_I2C1_CallbackReturnStop:	
  3840                           ; 1 bytes @ 0xA
  3841                           
  3842  007A                     ?_I2C1_CallbackReturnReset:	
  3843                           ; 1 bytes @ 0xA
  3844                           
  3845  007A                     ?_wr1RegCompleteHandler@islower$F2223:	
  3846                           ; 1 bytes @ 0xA
  3847                           
  3848  007A                     ?_rd1RegCompleteHandler@islower$F2231:	
  3849                           ; 1 bytes @ 0xA
  3850                           
  3851  007A                     ?_rd2RegCompleteHandler@islower$F2237:	
  3852                           ; 1 bytes @ 0xA
  3853                           
  3854  007A                     ?_wr2RegCompleteHandler@islower$F2243:	
  3855                           ; 1 bytes @ 0xA
  3856                           
  3857  007A                     ?_rdBlkRegCompleteHandler@islower$F2249:	
  3858                           ; 1 bytes @ 0xA
  3859                           
  3860  007A                     wr1RegCompleteHandler@p:	
  3861                           ; 1 bytes @ 0xA
  3862                           
  3863  007A                     rd1RegCompleteHandler@p:	
  3864                           ; 1 bytes @ 0xA
  3865                           
  3866  007A                     rd2RegCompleteHandler@p:	
  3867                           ; 1 bytes @ 0xA
  3868                           
  3869  007A                     wr2RegCompleteHandler@p:	
  3870                           ; 1 bytes @ 0xA
  3871                           
  3872  007A                     rdBlkRegCompleteHandler@p:	
  3873                           ; 1 bytes @ 0xA
  3874                           
  3875  007A                     rd1RegCompleteHandler@i2c1_master_example$F143@ptr:	
  3876                           ; 1 bytes @ 0xA
  3877                           
  3878  007A                     rd2RegCompleteHandler@i2c1_master_example$F154@ptr:	
  3879                           ; 1 bytes @ 0xA
  3880                           
  3881  007A                     wr1RegCompleteHandler@i2c1_master_example$F160@ptr:	
  3882                           ; 1 bytes @ 0xA
  3883                           
  3884  007A                     wr2RegCompleteHandler@i2c1_master_example$F166@ptr:	
  3885                           ; 1 bytes @ 0xA
  3886                           
  3887  007A                     rdBlkRegCompleteHandler@i2c1_master_example$F177@ptr:	
  3888                           ; 1 bytes @ 0xA
  3889                           
  3890  007A                     I2C1_CallbackReturnStop@funPtr:	
  3891                           ; 1 bytes @ 0xA
  3892                           
  3893  007A                     I2C1_CallbackReturnReset@funPtr:	
  3894                           ; 1 bytes @ 0xA
  3895                           
  3896  007A                     RandomArray@pD:	
  3897                           ; 1 bytes @ 0xA
  3898                           
  3899                           
  3900                           ; 1 bytes @ 0xA
  3901  007A                     	ds	1
  3902  007B                     ??_rd1RegCompleteHandler:
  3903  007B                     ??_rd2RegCompleteHandler:	
  3904                           ; 1 bytes @ 0xB
  3905                           
  3906  007B                     ??_wr1RegCompleteHandler:	
  3907                           ; 1 bytes @ 0xB
  3908                           
  3909  007B                     ??_wr2RegCompleteHandler:	
  3910                           ; 1 bytes @ 0xB
  3911                           
  3912  007B                     ??_rdBlkRegCompleteHandler:	
  3913                           ; 1 bytes @ 0xB
  3914                           
  3915  007B                     ??_I2C1_CallbackReturnStop:	
  3916                           ; 1 bytes @ 0xB
  3917                           
  3918  007B                     ??_I2C1_CallbackReturnReset:	
  3919                           ; 1 bytes @ 0xB
  3920                           
  3921  007B                     ??_I2C1_Poller:	
  3922                           ; 1 bytes @ 0xB
  3923                           
  3924  007B                     ??_wr1RegCompleteHandler@islower$F2225:	
  3925                           ; 1 bytes @ 0xB
  3926                           
  3927  007B                     ??_rd1RegCompleteHandler@islower$F2233:	
  3928                           ; 1 bytes @ 0xB
  3929                           
  3930  007B                     ??_rd2RegCompleteHandler@islower$F2239:	
  3931                           ; 1 bytes @ 0xB
  3932                           
  3933  007B                     ??_wr2RegCompleteHandler@islower$F2245:	
  3934                           ; 1 bytes @ 0xB
  3935                           
  3936  007B                     ??_rdBlkRegCompleteHandler@islower$F2251:	
  3937                           ; 1 bytes @ 0xB
  3938                           
  3939  007B                     ??_I2C1_MasterOperation:	
  3940                           ; 1 bytes @ 0xB
  3941                           
  3942                           
  3943                           ; 1 bytes @ 0xB
  3944  007B                     	ds	1
  3945  007C                     ??_I2C1_MasterWrite:
  3946  007C                     ??_I2C1_MasterRead:	
  3947                           ; 1 bytes @ 0xC
  3948                           
  3949  007C                     ??_i2c_writeNBytes:	
  3950                           ; 1 bytes @ 0xC
  3951                           
  3952  007C                     ??_i2c_readNBytes:	
  3953                           ; 1 bytes @ 0xC
  3954                           
  3955                           
  3956                           	psect	cstackBANK0
  3957  0020                     __pcstackBANK0:	
  3958                           ; 1 bytes @ 0xC
  3959                           
  3960  0020                     ??_I2C1_DO_TX:
  3961  0020                     ??_I2C1_DO_RX:	
  3962                           ; 1 bytes @ 0x0
  3963                           
  3964  0020                     ??_I2C1_DO_TX_EMPTY:	
  3965                           ; 1 bytes @ 0x0
  3966                           
  3967  0020                     ??_I2C1_DO_ADDRESS_NACK:	
  3968                           ; 1 bytes @ 0x0
  3969                           
  3970  0020                     ??_toupper:	
  3971                           ; 1 bytes @ 0x0
  3972                           
  3973  0020                     ??_atoi:	
  3974                           ; 1 bytes @ 0x0
  3975                           
  3976  0020                     ?_fputs:	
  3977                           ; 1 bytes @ 0x0
  3978                           
  3979  0020                     fputs@fp:	
  3980                           ; 2 bytes @ 0x0
  3981                           
  3982  0020                     ___lmul@product:	
  3983                           ; 1 bytes @ 0x0
  3984                           
  3985                           
  3986                           ; 4 bytes @ 0x0
  3987  0020                     	ds	1
  3988  0021                     ??_fputs:
  3989                           
  3990                           ; 1 bytes @ 0x1
  3991  0021                     	ds	2
  3992  0023                     ??_I2C1_MasterFsm:
  3993                           
  3994                           ; 1 bytes @ 0x3
  3995  0023                     	ds	1
  3996  0024                     ?_rand:
  3997  0024                     fputs@c:	
  3998                           ; 2 bytes @ 0x4
  3999                           
  4000  0024                     atoi@neg:	
  4001                           ; 1 bytes @ 0x4
  4002                           
  4003                           
  4004                           ; 2 bytes @ 0x4
  4005  0024                     	ds	1
  4006  0025                     fputs@i:
  4007                           
  4008                           ; 2 bytes @ 0x5
  4009  0025                     	ds	1
  4010  0026                     ??_rand:
  4011  0026                     I2C1_MasterOperation@read:	
  4012                           ; 1 bytes @ 0x6
  4013                           
  4014  0026                     _atoi$2130:	
  4015                           ; 1 bytes @ 0x6
  4016                           
  4017                           
  4018                           ; 2 bytes @ 0x6
  4019  0026                     	ds	1
  4020  0027                     I2C1_MasterOperation@returnValue:
  4021  0027                     fputs@s:	
  4022                           ; 1 bytes @ 0x7
  4023                           
  4024                           
  4025                           ; 1 bytes @ 0x7
  4026  0027                     	ds	1
  4027  0028                     ?_i2c_writeNBytes:
  4028  0028                     ?_i2c_readNBytes:	
  4029                           ; 1 bytes @ 0x8
  4030                           
  4031  0028                     ?_pad:	
  4032                           ; 1 bytes @ 0x8
  4033                           
  4034  0028                     i2c_writeNBytes@data:	
  4035                           ; 2 bytes @ 0x8
  4036                           
  4037  0028                     pad@buf:	
  4038                           ; 1 bytes @ 0x8
  4039                           
  4040  0028                     i2c_readNBytes@data:	
  4041                           ; 1 bytes @ 0x8
  4042                           
  4043  0028                     _atoi$2132:	
  4044                           ; 2 bytes @ 0x8
  4045                           
  4046                           
  4047                           ; 2 bytes @ 0x8
  4048  0028                     	ds	1
  4049  0029                     i2c_writeNBytes@len:
  4050  0029                     pad@p:	
  4051                           ; 2 bytes @ 0x9
  4052                           
  4053                           
  4054                           ; 2 bytes @ 0x9
  4055  0029                     	ds	1
  4056  002A                     ?_RandomArray:
  4057  002A                     RandomArray@len:	
  4058                           ; 1 bytes @ 0xA
  4059                           
  4060  002A                     _atoi$2131:	
  4061                           ; 1 bytes @ 0xA
  4062                           
  4063  002A                     i2c_readNBytes@len:	
  4064                           ; 1 bytes @ 0xA
  4065                           
  4066                           
  4067                           ; 2 bytes @ 0xA
  4068  002A                     	ds	1
  4069  002B                     ??_pad:
  4070  002B                     i2c_writeNBytes@address:	
  4071                           ; 1 bytes @ 0xB
  4072                           
  4073  002B                     atoi@n:	
  4074                           ; 1 bytes @ 0xB
  4075                           
  4076                           
  4077                           ; 2 bytes @ 0xB
  4078  002B                     	ds	1
  4079  002C                     ?_EE_Write:
  4080  002C                     ?_EE_WritePage:	
  4081                           ; 1 bytes @ 0xC
  4082                           
  4083  002C                     i2c_readNBytes@address:	
  4084                           ; 1 bytes @ 0xC
  4085                           
  4086  002C                     EE_Write@addr:	
  4087                           ; 1 bytes @ 0xC
  4088                           
  4089  002C                     EE_WritePage@addr:	
  4090                           ; 2 bytes @ 0xC
  4091                           
  4092  002C                     pad@i:	
  4093                           ; 2 bytes @ 0xC
  4094                           
  4095                           
  4096                           ; 2 bytes @ 0xC
  4097  002C                     	ds	1
  4098  002D                     ?_EE_ReadPage:
  4099  002D                     EE_ReadPage@addr:	
  4100                           ; 1 bytes @ 0xD
  4101                           
  4102                           
  4103                           ; 2 bytes @ 0xD
  4104  002D                     	ds	1
  4105  002E                     EE_Write@data:
  4106  002E                     EE_WritePage@pdata:	
  4107                           ; 1 bytes @ 0xE
  4108                           
  4109  002E                     pad@w:	
  4110                           ; 1 bytes @ 0xE
  4111                           
  4112                           
  4113                           ; 2 bytes @ 0xE
  4114  002E                     	ds	1
  4115  002F                     ??_EE_Write:
  4116  002F                     ??_EE_WritePage:	
  4117                           ; 1 bytes @ 0xF
  4118                           
  4119  002F                     EE_ReadPage@pData:	
  4120                           ; 1 bytes @ 0xF
  4121                           
  4122                           
  4123                           ; 1 bytes @ 0xF
  4124  002F                     	ds	1
  4125  0030                     ??_EE_ReadPage:
  4126  0030                     pad@fp:	
  4127                           ; 1 bytes @ 0x10
  4128                           
  4129  0030                     EE_Write@frame:	
  4130                           ; 1 bytes @ 0x10
  4131                           
  4132                           
  4133                           ; 3 bytes @ 0x10
  4134  0030                     	ds	1
  4135  0031                     ?_xtoa:
  4136  0031                     EE_ReadPage@frame:	
  4137                           ; 2 bytes @ 0x11
  4138                           
  4139  0031                     xtoa@d:	
  4140                           ; 2 bytes @ 0x11
  4141                           
  4142                           
  4143                           ; 8 bytes @ 0x11
  4144  0031                     	ds	8
  4145  0039                     xtoa@x:
  4146                           
  4147                           ; 1 bytes @ 0x19
  4148  0039                     	ds	1
  4149  003A                     ??_xtoa:
  4150                           
  4151                           ; 1 bytes @ 0x1A
  4152  003A                     	ds	8
  4153  0042                     _xtoa$2096:
  4154                           
  4155                           ; 2 bytes @ 0x22
  4156  0042                     	ds	2
  4157  0044                     _xtoa$2097:
  4158                           
  4159                           ; 2 bytes @ 0x24
  4160  0044                     	ds	2
  4161  0046                     xtoa@fp:
  4162                           
  4163                           ; 1 bytes @ 0x26
  4164  0046                     	ds	1
  4165  0047                     xtoa@p:
  4166                           
  4167                           ; 2 bytes @ 0x27
  4168  0047                     	ds	2
  4169  0049                     xtoa@w:
  4170                           
  4171                           ; 2 bytes @ 0x29
  4172  0049                     	ds	2
  4173  004B                     xtoa@n:
  4174                           
  4175                           ; 8 bytes @ 0x2B
  4176  004B                     	ds	8
  4177  0053                     xtoa@i:
  4178                           
  4179                           ; 2 bytes @ 0x33
  4180  0053                     	ds	2
  4181  0055                     xtoa@c:
  4182                           
  4183                           ; 2 bytes @ 0x35
  4184  0055                     	ds	2
  4185  0057                     ?_vfpfcnvrt:
  4186  0057                     vfpfcnvrt@fmt:	
  4187                           ; 2 bytes @ 0x37
  4188                           
  4189                           
  4190                           ; 1 bytes @ 0x37
  4191  0057                     	ds	1
  4192  0058                     vfpfcnvrt@ap:
  4193                           
  4194                           ; 1 bytes @ 0x38
  4195  0058                     	ds	1
  4196  0059                     ??_vfpfcnvrt:
  4197                           
  4198                           ; 1 bytes @ 0x39
  4199  0059                     	ds	6
  4200  005F                     vfpfcnvrt@llu:
  4201                           
  4202                           ; 8 bytes @ 0x3F
  4203  005F                     	ds	8
  4204  0067                     vfpfcnvrt@c:
  4205                           
  4206                           ; 1 bytes @ 0x47
  4207  0067                     	ds	1
  4208  0068                     vfpfcnvrt@done:
  4209                           
  4210                           ; 2 bytes @ 0x48
  4211  0068                     	ds	2
  4212  006A                     _vfpfcnvrt$2112:
  4213                           
  4214                           ; 2 bytes @ 0x4A
  4215  006A                     	ds	2
  4216  006C                     vfpfcnvrt@fp:
  4217                           
  4218                           ; 1 bytes @ 0x4C
  4219  006C                     	ds	1
  4220  006D                     ?_vfprintf:
  4221  006D                     vfprintf@fmt:	
  4222                           ; 2 bytes @ 0x4D
  4223                           
  4224                           
  4225                           ; 2 bytes @ 0x4D
  4226  006D                     	ds	2
  4227  006F                     vfprintf@ap:
  4228                           
  4229                           ; 1 bytes @ 0x4F
  4230  006F                     	ds	1
  4231                           
  4232                           	psect	maintext
  4233  038D                     __pmaintext:	
  4234 ;;
  4235 ;;Main: autosize = 0, tempsize = 3, incstack = 0, save=0
  4236 ;;
  4237 ;; *************** function _main *****************
  4238 ;; Defined at:
  4239 ;;		line 85 in file "main.c"
  4240 ;; Parameters:    Size  Location     Type
  4241 ;;		None
  4242 ;; Auto vars:     Size  Location     Type
  4243 ;;  datain         64    0[BANK3 ] unsigned char [64]
  4244 ;;  dataout        64    0[BANK2 ] unsigned char [64]
  4245 ;;  addr            2   70[BANK1 ] unsigned short 
  4246 ;;  DoNext          1   69[BANK1 ] unsigned char 
  4247 ;;  a               1    0        unsigned char 
  4248 ;; Return value:  Size  Location     Type
  4249 ;;                  1    wreg      void 
  4250 ;; Registers used:
  4251 ;;		wreg, fsr0l, fsr0h, fsr1l, fsr1h, status,2, status,0, pclath, cstack
  4252 ;; Tracked objects:
  4253 ;;		On entry : B3F/0
  4254 ;;		On exit  : 0/0
  4255 ;;		Unchanged: 0/0
  4256 ;; Data sizes:     COMMON   BANK0   BANK1   BANK2   BANK3   BANK4   BANK5   BANK6   BANK7   BANK8   BANK9  BANK10  BANK1
      +1  BANK12  BANK13  BANK14  BANK15  BANK16  BANK17  BANK18  BANK19  BANK20  BANK21  BANK22  BANK23  BANK24  BANK25
  4257 ;;      Params:         0       0       0       0       0       0       0       0       0       0       0       0       
      +0       0       0       0       0       0       0       0       0       0       0       0       0       0       0
  4258 ;;      Locals:         0       0       3      64      64       0       0       0       0       0       0       0       
      +0       0       0       0       0       0       0       0       0       0       0       0       0       0       0
  4259 ;;      Temps:          0       0       3       0       0       0       0       0       0       0       0       0       
      +0       0       0       0       0       0       0       0       0       0       0       0       0       0       0
  4260 ;;      Totals:         0       0       6      64      64       0       0       0       0       0       0       0       
      +0       0       0       0       0       0       0       0       0       0       0       0       0       0       0
  4261 ;;Total ram usage:      134 bytes
  4262 ;; Hardware stack levels required when called: 14
  4263 ;; This function calls:
  4264 ;;		_EE_ReadPage
  4265 ;;		_EE_Write
  4266 ;;		_EE_WritePage
  4267 ;;		_EUSART1_Read
  4268 ;;		_EUSART1_is_rx_ready
  4269 ;;		_I2C1_Initialize
  4270 ;;		_MemoryTest
  4271 ;;		_RandomArray
  4272 ;;		_SYSTEM_Initialize
  4273 ;;		_printf
  4274 ;; This function is called by:
  4275 ;;		Startup code after reset
  4276 ;; This function uses a non-reentrant model
  4277 ;;
  4278                           
  4279                           
  4280                           ;psect for function _main
  4281  038D                     _main:
  4282  038D                     l6528:	
  4283                           ;incstack = 0
  4284                           ; Regs used in _main: [wreg-fsr1h+status,2+status,0+pclath+cstack]
  4285                           
  4286                           
  4287                           ;main.c: 90:     uint8_t DoNext = 0;
  4288  038D  0141               	movlb	1	; select bank1
  4289  038E  01E5               	clrf	main@DoNext^(0+128)
  4290  038F                     l6530:
  4291                           
  4292                           ;main.c: 92:     SYSTEM_Initialize();
  4293  038F  318A  22FB  3183   	fcall	_SYSTEM_Initialize
  4294  0392                     l6532:
  4295                           
  4296                           ;main.c: 97:     I2C1_Initialize();
  4297  0392  318A  229C  3183   	fcall	_I2C1_Initialize
  4298  0395                     l6534:
  4299                           
  4300                           ;main.c: 99:     (INTCONbits.GIE = 1);
  4301  0395  178B               	bsf	11,7	;volatile
  4302  0396                     l6536:
  4303                           
  4304                           ;main.c: 100:     (INTCONbits.PEIE = 1);
  4305  0396  170B               	bsf	11,6	;volatile
  4306  0397                     l6538:
  4307                           
  4308                           ;main.c: 101:     printf("\nEEPROM 24AA128 TEST\n");
  4309  0397  3058               	movlw	low (STR_2| (0+32768))
  4310  0398  0141               	movlb	1	; select bank1
  4311  0399  00A5               	movwf	printf@fmt^(0+128)
  4312  039A  3090               	movlw	high (STR_2| (0+32768))
  4313  039B  00A6               	movwf	(printf@fmt^(0+128)+1)
  4314  039C  318B  23BB  3183   	fcall	_printf
  4315  039F                     l6540:
  4316                           
  4317                           ;main.c: 102:     EE_Write(0x00, 0xAA);
  4318  039F  3000               	movlw	0
  4319  03A0  0140               	movlb	0	; select bank0
  4320  03A1  00AC               	movwf	EE_Write@addr
  4321  03A2  00AD               	movwf	EE_Write@addr+1
  4322  03A3  30AA               	movlw	170
  4323  03A4  0141               	movlb	1	; select bank1
  4324  03A5  00E2               	movwf	??_main^(0+128)
  4325  03A6  0862               	movf	??_main^(0+128),w
  4326  03A7  0140               	movlb	0	; select bank0
  4327  03A8  00AE               	movwf	EE_Write@data
  4328  03A9  318D  25A9  3183   	fcall	_EE_Write
  4329  03AC                     l6542:
  4330                           
  4331                           ;main.c: 103:     _delay((unsigned long)((5)*(32000000/4000.0)));
  4332  03AC  3034               	movlw	52
  4333  03AD  0141               	movlb	1	; select bank1
  4334  03AE  00E2               	movwf	??_main^(0+128)
  4335  03AF  30F1               	movlw	241
  4336  03B0                     u4367:
  4337  03B0  0B89               	decfsz	9,f
  4338  03B1  2BB0               	goto	u4367
  4339  03B2  0BE2               	decfsz	??_main^(0+128),f
  4340  03B3  2BB0               	goto	u4367
  4341  03B4  3200               	nop2
  4342  03B5  2C39               	goto	l6578
  4343  03B6                     l6544:
  4344                           
  4345                           ;main.c: 110:                 printf("\nStart Test:");
  4346  03B6  306E               	movlw	low (STR_3| (0+32768))
  4347  03B7  00A5               	movwf	printf@fmt^(0+128)
  4348  03B8  3090               	movlw	high (STR_3| (0+32768))
  4349  03B9  00A6               	movwf	(printf@fmt^(0+128)+1)
  4350  03BA  318B  23BB  3183   	fcall	_printf
  4351  03BD                     l6546:
  4352                           
  4353                           ;main.c: 112:                 for (addr = 0; addr < 0x4000; addr += 64) {
  4354  03BD  0141               	movlb	1	; select bank1
  4355  03BE  01E6               	clrf	main@addr^(0+128)
  4356  03BF  01E7               	clrf	(main@addr+1)^(0+128)
  4357  03C0                     l6552:
  4358                           
  4359                           ;main.c: 113:                     RandomArray(datain, 64);
  4360  03C0  3040               	movlw	64
  4361  03C1  00E2               	movwf	??_main^(0+128)
  4362  03C2  0862               	movf	??_main^(0+128),w
  4363  03C3  0140               	movlb	0	; select bank0
  4364  03C4  00AA               	movwf	RandomArray@len
  4365  03C5  30A0               	movlw	(low (main@datain| (0+256)))& (0+255)
  4366  03C6  318C  2485  3183   	fcall	_RandomArray
  4367  03C9                     l6554:
  4368                           
  4369                           ;main.c: 114:                     EE_WritePage(addr, datain);
  4370  03C9  0141               	movlb	1	; select bank1
  4371  03CA  0867               	movf	(main@addr+1)^(0+128),w
  4372  03CB  0140               	movlb	0	; select bank0
  4373  03CC  00AD               	movwf	EE_WritePage@addr+1
  4374  03CD  0141               	movlb	1	; select bank1
  4375  03CE  0866               	movf	main@addr^(0+128),w
  4376  03CF  0140               	movlb	0	; select bank0
  4377  03D0  00AC               	movwf	EE_WritePage@addr
  4378  03D1  30A0               	movlw	(low (main@datain| (0+256)))& (0+255)
  4379  03D2  0141               	movlb	1	; select bank1
  4380  03D3  00E2               	movwf	??_main^(0+128)
  4381  03D4  0862               	movf	??_main^(0+128),w
  4382  03D5  0140               	movlb	0	; select bank0
  4383  03D6  00AE               	movwf	EE_WritePage@pdata
  4384  03D7  318F  275E  3183   	fcall	_EE_WritePage
  4385  03DA                     l6556:
  4386                           
  4387                           ;main.c: 115:                     EE_ReadPage(addr, dataout);
  4388  03DA  0141               	movlb	1	; select bank1
  4389  03DB  0867               	movf	(main@addr+1)^(0+128),w
  4390  03DC  0140               	movlb	0	; select bank0
  4391  03DD  00AE               	movwf	EE_ReadPage@addr+1
  4392  03DE  0141               	movlb	1	; select bank1
  4393  03DF  0866               	movf	main@addr^(0+128),w
  4394  03E0  0140               	movlb	0	; select bank0
  4395  03E1  00AD               	movwf	EE_ReadPage@addr
  4396  03E2  3020               	movlw	(low (main@dataout| (0+256)))& (0+255)
  4397  03E3  0141               	movlb	1	; select bank1
  4398  03E4  00E2               	movwf	??_main^(0+128)
  4399  03E5  0862               	movf	??_main^(0+128),w
  4400  03E6  0140               	movlb	0	; select bank0
  4401  03E7  00AF               	movwf	EE_ReadPage@pData
  4402  03E8  318D  253D  3183   	fcall	_EE_ReadPage
  4403  03EB                     l6558:
  4404                           
  4405                           ;main.c: 117:                     if (MemoryTest(addr, datain, dataout, 64))
  4406  03EB  0141               	movlb	1	; select bank1
  4407  03EC  0867               	movf	(main@addr+1)^(0+128),w
  4408  03ED  00B0               	movwf	(MemoryTest@addr+1)^(0+128)
  4409  03EE  0866               	movf	main@addr^(0+128),w
  4410  03EF  00AF               	movwf	MemoryTest@addr^(0+128)
  4411  03F0  30A0               	movlw	(low (main@datain| (0+256)))& (0+255)
  4412  03F1  00E2               	movwf	??_main^(0+128)
  4413  03F2  0862               	movf	??_main^(0+128),w
  4414  03F3  00B1               	movwf	MemoryTest@pdata1^(0+128)
  4415  03F4  3020               	movlw	(low (main@dataout| (0+256)))& (0+255)
  4416  03F5  00E3               	movwf	(??_main+1)^(0+128)
  4417  03F6  0863               	movf	(??_main+1)^(0+128),w
  4418  03F7  00B2               	movwf	MemoryTest@pdata2^(0+128)
  4419  03F8  3040               	movlw	64
  4420  03F9  00E4               	movwf	(??_main+2)^(0+128)
  4421  03FA  0864               	movf	(??_main+2)^(0+128),w
  4422  03FB  00B3               	movwf	MemoryTest@len^(0+128)
  4423  03FC  3185  25B1  3183   	fcall	_MemoryTest
  4424  03FF  3A00               	xorlw	0
  4425  0400  1903               	skipnz
  4426  0401  2C03               	goto	u4321
  4427  0402  2C04               	goto	u4320
  4428  0403                     u4321:
  4429  0403  2C0C               	goto	l6562
  4430  0404                     u4320:
  4431  0404                     l6560:
  4432                           
  4433                           ;main.c: 118:                         printf(".");
  4434  0404  307B               	movlw	low (STR_4| (0+32768))
  4435  0405  0141               	movlb	1	; select bank1
  4436  0406  00A5               	movwf	printf@fmt^(0+128)
  4437  0407  3090               	movlw	high (STR_4| (0+32768))
  4438  0408  00A6               	movwf	(printf@fmt^(0+128)+1)
  4439  0409  318B  23BB  3183   	fcall	_printf
  4440  040C                     l6562:
  4441                           
  4442                           ;main.c: 119:                 }
  4443  040C  3040               	movlw	64
  4444  040D  0141               	movlb	1	; select bank1
  4445  040E  07E6               	addwf	main@addr^(0+128),f
  4446  040F  3000               	movlw	0
  4447  0410  3DE7               	addwfc	(main@addr+1)^(0+128),f
  4448  0411                     l6564:
  4449  0411  3040               	movlw	64
  4450  0412  0267               	subwf	(main@addr+1)^(0+128),w
  4451  0413  3000               	movlw	0
  4452  0414  1903               	skipnz
  4453  0415  0266               	subwf	main@addr^(0+128),w
  4454  0416  1C03               	skipc
  4455  0417  2C19               	goto	u4331
  4456  0418  2C1A               	goto	u4330
  4457  0419                     u4331:
  4458  0419  2BC0               	goto	l6552
  4459  041A                     u4330:
  4460  041A                     l6566:
  4461                           
  4462                           ;main.c: 121:                 DoNext++;
  4463  041A  3001               	movlw	1
  4464  041B  00E2               	movwf	??_main^(0+128)
  4465  041C  0862               	movf	??_main^(0+128),w
  4466  041D  07E5               	addwf	main@DoNext^(0+128),f
  4467  041E                     l6568:
  4468                           
  4469                           ;main.c: 122:                 printf("Done\nPress 'T' to test again\n");
  4470  041E  3020               	movlw	low (STR_5| (0+32768))
  4471  041F  00A5               	movwf	printf@fmt^(0+128)
  4472  0420  3090               	movlw	high (STR_5| (0+32768))
  4473  0421  00A6               	movwf	(printf@fmt^(0+128)+1)
  4474  0422  318B  23BB  3183   	fcall	_printf
  4475                           
  4476                           ;main.c: 123:                 break;
  4477  0425  2C39               	goto	l6578
  4478  0426                     l6570:
  4479                           
  4480                           ;main.c: 126:                 if (EUSART1_is_rx_ready()) {
  4481  0426  318A  2293  3183   	fcall	_EUSART1_is_rx_ready
  4482  0429  3A00               	xorlw	0
  4483  042A  1903               	skipnz
  4484  042B  2C2D               	goto	u4341
  4485  042C  2C2E               	goto	u4340
  4486  042D                     u4341:
  4487  042D  2C39               	goto	l6578
  4488  042E                     u4340:
  4489  042E                     l6572:
  4490                           
  4491                           ;main.c: 127:                     if (EUSART1_Read() == 'T')
  4492  042E  3187  27D2  3183   	fcall	_EUSART1_Read
  4493  0431  3A54               	xorlw	84
  4494  0432  1D03               	skipz
  4495  0433  2C35               	goto	u4351
  4496  0434  2C36               	goto	u4350
  4497  0435                     u4351:
  4498  0435  2C39               	goto	l1068
  4499  0436                     u4350:
  4500  0436                     l6574:
  4501                           
  4502                           ;main.c: 128:                         DoNext = 0;
  4503  0436  0141               	movlb	1	; select bank1
  4504  0437  01E5               	clrf	main@DoNext^(0+128)
  4505  0438  2C39               	goto	l6578
  4506  0439                     l1068:
  4507  0439                     l6578:
  4508  0439  0141               	movlb	1	; select bank1
  4509  043A  0865               	movf	main@DoNext^(0+128),w
  4510  043B  00E2               	movwf	??_main^(0+128)
  4511  043C  01E3               	clrf	(??_main^(0+128)+1)
  4512                           
  4513                           ; Switch on 2 bytes has been partitioned into a top level switch of size 1, and 1 sub-sw
      +                          itches
  4514                           ; Switch size 1, requested type "simple"
  4515                           ; Number of cases is 1, Range of values is 0 to 0
  4516                           ; switch strategies available:
  4517                           ; Name         Instructions Cycles
  4518                           ; simple_byte            4     3 (average)
  4519                           ; direct_byte            8     6 (fixed)
  4520                           ; jumptable            260     6 (fixed)
  4521                           ;	Chosen strategy is simple_byte
  4522  043D  0863               	movf	(??_main+1)^(0+128),w
  4523  043E  3A00               	xorlw	0	; case 0
  4524  043F  1903               	skipnz
  4525  0440  2C42               	goto	l6746
  4526  0441  2C26               	goto	l6570
  4527  0442                     l6746:
  4528                           
  4529                           ; Switch size 1, requested type "simple"
  4530                           ; Number of cases is 1, Range of values is 0 to 0
  4531                           ; switch strategies available:
  4532                           ; Name         Instructions Cycles
  4533                           ; simple_byte            4     3 (average)
  4534                           ; direct_byte            8     6 (fixed)
  4535                           ; jumptable            260     6 (fixed)
  4536                           ;	Chosen strategy is simple_byte
  4537  0442  0862               	movf	??_main^(0+128),w
  4538  0443  3A00               	xorlw	0	; case 0
  4539  0444  1903               	skipnz
  4540  0445  2BB6               	goto	l6544
  4541  0446  2C26               	goto	l6570
  4542  0447  3180  282B         	ljmp	start
  4543  0449                     __end_of_main:
  4544                           
  4545                           	psect	text1
  4546  0AFB                     __ptext1:	
  4547 ;; *************** function _SYSTEM_Initialize *****************
  4548 ;; Defined at:
  4549 ;;		line 49 in file "mcc_generated_files/mcc.c"
  4550 ;; Parameters:    Size  Location     Type
  4551 ;;		None
  4552 ;; Auto vars:     Size  Location     Type
  4553 ;;		None
  4554 ;; Return value:  Size  Location     Type
  4555 ;;                  1    wreg      void 
  4556 ;; Registers used:
  4557 ;;		wreg, status,2, status,0, pclath, cstack
  4558 ;; Tracked objects:
  4559 ;;		On entry : 0/0
  4560 ;;		On exit  : 0/0
  4561 ;;		Unchanged: 0/0
  4562 ;; Data sizes:     COMMON   BANK0   BANK1   BANK2   BANK3   BANK4   BANK5   BANK6   BANK7   BANK8   BANK9  BANK10  BANK1
      +1  BANK12  BANK13  BANK14  BANK15  BANK16  BANK17  BANK18  BANK19  BANK20  BANK21  BANK22  BANK23  BANK24  BANK25
  4563 ;;      Params:         0       0       0       0       0       0       0       0       0       0       0       0       
      +0       0       0       0       0       0       0       0       0       0       0       0       0       0       0
  4564 ;;      Locals:         0       0       0       0       0       0       0       0       0       0       0       0       
      +0       0       0       0       0       0       0       0       0       0       0       0       0       0       0
  4565 ;;      Temps:          0       0       0       0       0       0       0       0       0       0       0       0       
      +0       0       0       0       0       0       0       0       0       0       0       0       0       0       0
  4566 ;;      Totals:         0       0       0       0       0       0       0       0       0       0       0       0       
      +0       0       0       0       0       0       0       0       0       0       0       0       0       0       0
  4567 ;;Total ram usage:        0 bytes
  4568 ;; Hardware stack levels used: 1
  4569 ;; Hardware stack levels required when called: 6
  4570 ;; This function calls:
  4571 ;;		_EUSART1_Initialize
  4572 ;;		_I2C1_Initialize
  4573 ;;		_OSCILLATOR_Initialize
  4574 ;;		_PIN_MANAGER_Initialize
  4575 ;;		_PMD_Initialize
  4576 ;; This function is called by:
  4577 ;;		_main
  4578 ;; This function uses a non-reentrant model
  4579 ;;
  4580                           
  4581                           
  4582                           ;psect for function _SYSTEM_Initialize
  4583  0AFB                     _SYSTEM_Initialize:
  4584  0AFB                     l4788:	
  4585                           ;incstack = 0
  4586                           ; Regs used in _SYSTEM_Initialize: [wreg+status,2+status,0+pclath+cstack]
  4587                           
  4588                           
  4589                           ;mcc_generated_files/mcc.c: 50:     PMD_Initialize();
  4590  0AFB  318A  2282  318A   	fcall	_PMD_Initialize
  4591  0AFE                     l4790:
  4592                           
  4593                           ;mcc_generated_files/mcc.c: 52:     I2C1_Initialize();
  4594  0AFE  318A  229C  318A   	fcall	_I2C1_Initialize
  4595  0B01                     l4792:
  4596                           
  4597                           ;mcc_generated_files/mcc.c: 54:     PIN_MANAGER_Initialize();
  4598  0B01  3186  2602  318A   	fcall	_PIN_MANAGER_Initialize
  4599  0B04                     l4794:
  4600                           
  4601                           ;mcc_generated_files/mcc.c: 55:     OSCILLATOR_Initialize();
  4602  0B04  318A  22AE  318A   	fcall	_OSCILLATOR_Initialize
  4603  0B07                     l4796:
  4604                           
  4605                           ;mcc_generated_files/mcc.c: 56:     EUSART1_Initialize();
  4606  0B07  3186  269D  318A   	fcall	_EUSART1_Initialize
  4607  0B0A                     l828:
  4608  0B0A  0008               	return
  4609  0B0B                     __end_of_SYSTEM_Initialize:
  4610                           
  4611                           	psect	text2
  4612  0A82                     __ptext2:	
  4613 ;; *************** function _PMD_Initialize *****************
  4614 ;; Defined at:
  4615 ;;		line 74 in file "mcc_generated_files/mcc.c"
  4616 ;; Parameters:    Size  Location     Type
  4617 ;;		None
  4618 ;; Auto vars:     Size  Location     Type
  4619 ;;		None
  4620 ;; Return value:  Size  Location     Type
  4621 ;;                  1    wreg      void 
  4622 ;; Registers used:
  4623 ;;		status,2
  4624 ;; Tracked objects:
  4625 ;;		On entry : 0/0
  4626 ;;		On exit  : 0/0
  4627 ;;		Unchanged: 0/0
  4628 ;; Data sizes:     COMMON   BANK0   BANK1   BANK2   BANK3   BANK4   BANK5   BANK6   BANK7   BANK8   BANK9  BANK10  BANK1
      +1  BANK12  BANK13  BANK14  BANK15  BANK16  BANK17  BANK18  BANK19  BANK20  BANK21  BANK22  BANK23  BANK24  BANK25
  4629 ;;      Params:         0       0       0       0       0       0       0       0       0       0       0       0       
      +0       0       0       0       0       0       0       0       0       0       0       0       0       0       0
  4630 ;;      Locals:         0       0       0       0       0       0       0       0       0       0       0       0       
      +0       0       0       0       0       0       0       0       0       0       0       0       0       0       0
  4631 ;;      Temps:          0       0       0       0       0       0       0       0       0       0       0       0       
      +0       0       0       0       0       0       0       0       0       0       0       0       0       0       0
  4632 ;;      Totals:         0       0       0       0       0       0       0       0       0       0       0       0       
      +0       0       0       0       0       0       0       0       0       0       0       0       0       0       0
  4633 ;;Total ram usage:        0 bytes
  4634 ;; Hardware stack levels used: 1
  4635 ;; Hardware stack levels required when called: 4
  4636 ;; This function calls:
  4637 ;;		Nothing
  4638 ;; This function is called by:
  4639 ;;		_SYSTEM_Initialize
  4640 ;; This function uses a non-reentrant model
  4641 ;;
  4642                           
  4643                           
  4644                           ;psect for function _PMD_Initialize
  4645  0A82                     _PMD_Initialize:
  4646  0A82                     l4628:	
  4647                           ;incstack = 0
  4648                           ; Regs used in _PMD_Initialize: [status,2]
  4649                           
  4650                           
  4651                           ;mcc_generated_files/mcc.c: 76:     PMD0 = 0x00;
  4652  0A82  014F               	movlb	15	; select bank15
  4653  0A83  0196               	clrf	22	;volatile
  4654                           
  4655                           ;mcc_generated_files/mcc.c: 78:     PMD1 = 0x00;
  4656  0A84  0197               	clrf	23	;volatile
  4657                           
  4658                           ;mcc_generated_files/mcc.c: 80:     PMD2 = 0x00;
  4659  0A85  0198               	clrf	24	;volatile
  4660                           
  4661                           ;mcc_generated_files/mcc.c: 82:     PMD3 = 0x00;
  4662  0A86  0199               	clrf	25	;volatile
  4663                           
  4664                           ;mcc_generated_files/mcc.c: 84:     PMD4 = 0x00;
  4665  0A87  019A               	clrf	26	;volatile
  4666                           
  4667                           ;mcc_generated_files/mcc.c: 86:     PMD5 = 0x00;
  4668  0A88  019B               	clrf	27	;volatile
  4669  0A89                     l834:
  4670  0A89  0008               	return
  4671  0A8A                     __end_of_PMD_Initialize:
  4672                           
  4673                           	psect	text3
  4674  0602                     __ptext3:	
  4675 ;; *************** function _PIN_MANAGER_Initialize *****************
  4676 ;; Defined at:
  4677 ;;		line 51 in file "mcc_generated_files/pin_manager.c"
  4678 ;; Parameters:    Size  Location     Type
  4679 ;;		None
  4680 ;; Auto vars:     Size  Location     Type
  4681 ;;		None
  4682 ;; Return value:  Size  Location     Type
  4683 ;;                  1    wreg      void 
  4684 ;; Registers used:
  4685 ;;		wreg, status,2
  4686 ;; Tracked objects:
  4687 ;;		On entry : 0/0
  4688 ;;		On exit  : 0/0
  4689 ;;		Unchanged: 0/0
  4690 ;; Data sizes:     COMMON   BANK0   BANK1   BANK2   BANK3   BANK4   BANK5   BANK6   BANK7   BANK8   BANK9  BANK10  BANK1
      +1  BANK12  BANK13  BANK14  BANK15  BANK16  BANK17  BANK18  BANK19  BANK20  BANK21  BANK22  BANK23  BANK24  BANK25
  4691 ;;      Params:         0       0       0       0       0       0       0       0       0       0       0       0       
      +0       0       0       0       0       0       0       0       0       0       0       0       0       0       0
  4692 ;;      Locals:         0       0       0       0       0       0       0       0       0       0       0       0       
      +0       0       0       0       0       0       0       0       0       0       0       0       0       0       0
  4693 ;;      Temps:          0       0       0       0       0       0       0       0       0       0       0       0       
      +0       0       0       0       0       0       0       0       0       0       0       0       0       0       0
  4694 ;;      Totals:         0       0       0       0       0       0       0       0       0       0       0       0       
      +0       0       0       0       0       0       0       0       0       0       0       0       0       0       0
  4695 ;;Total ram usage:        0 bytes
  4696 ;; Hardware stack levels used: 1
  4697 ;; Hardware stack levels required when called: 4
  4698 ;; This function calls:
  4699 ;;		Nothing
  4700 ;; This function is called by:
  4701 ;;		_SYSTEM_Initialize
  4702 ;; This function uses a non-reentrant model
  4703 ;;
  4704                           
  4705                           
  4706                           ;psect for function _PIN_MANAGER_Initialize
  4707  0602                     _PIN_MANAGER_Initialize:
  4708  0602                     l4590:	
  4709                           ;incstack = 0
  4710                           ; Regs used in _PIN_MANAGER_Initialize: [wreg+status,2]
  4711                           
  4712                           
  4713                           ;mcc_generated_files/pin_manager.c: 55:     LATE = 0x00;
  4714  0602  0140               	movlb	0	; select bank0
  4715  0603  019C               	clrf	28	;volatile
  4716                           
  4717                           ;mcc_generated_files/pin_manager.c: 56:     LATD = 0x00;
  4718  0604  019B               	clrf	27	;volatile
  4719                           
  4720                           ;mcc_generated_files/pin_manager.c: 57:     LATA = 0x00;
  4721  0605  0198               	clrf	24	;volatile
  4722  0606                     l4592:
  4723                           
  4724                           ;mcc_generated_files/pin_manager.c: 58:     LATB = 0x01;
  4725  0606  3001               	movlw	1
  4726  0607  0099               	movwf	25	;volatile
  4727  0608                     l4594:
  4728                           
  4729                           ;mcc_generated_files/pin_manager.c: 59:     LATC = 0x54;
  4730  0608  3054               	movlw	84
  4731  0609  009A               	movwf	26	;volatile
  4732  060A                     l4596:
  4733                           
  4734                           ;mcc_generated_files/pin_manager.c: 64:     TRISE = 0x0F;
  4735  060A  300F               	movlw	15
  4736  060B  0096               	movwf	22	;volatile
  4737  060C                     l4598:
  4738                           
  4739                           ;mcc_generated_files/pin_manager.c: 65:     TRISA = 0xFF;
  4740  060C  30FF               	movlw	255
  4741  060D  0092               	movwf	18	;volatile
  4742  060E                     l4600:
  4743                           
  4744                           ;mcc_generated_files/pin_manager.c: 66:     TRISB = 0xF8;
  4745  060E  30F8               	movlw	248
  4746  060F  0093               	movwf	19	;volatile
  4747  0610                     l4602:
  4748                           
  4749                           ;mcc_generated_files/pin_manager.c: 67:     TRISC = 0xFB;
  4750  0610  30FB               	movlw	251
  4751  0611  0094               	movwf	20	;volatile
  4752  0612                     l4604:
  4753                           
  4754                           ;mcc_generated_files/pin_manager.c: 68:     TRISD = 0x7F;
  4755  0612  307F               	movlw	127
  4756  0613  0095               	movwf	21	;volatile
  4757  0614                     l4606:
  4758                           
  4759                           ;mcc_generated_files/pin_manager.c: 73:     ANSELD = 0x7F;
  4760  0614  307F               	movlw	127
  4761  0615  017E               	movlb	62	; select bank62
  4762  0616  00D9               	movwf	89	;volatile
  4763  0617                     l4608:
  4764                           
  4765                           ;mcc_generated_files/pin_manager.c: 74:     ANSELC = 0xA9;
  4766  0617  30A9               	movlw	169
  4767  0618  00CE               	movwf	78	;volatile
  4768  0619                     l4610:
  4769                           
  4770                           ;mcc_generated_files/pin_manager.c: 75:     ANSELB = 0xF8;
  4771  0619  30F8               	movlw	248
  4772  061A  00C3               	movwf	67	;volatile
  4773  061B                     l4612:
  4774                           
  4775                           ;mcc_generated_files/pin_manager.c: 76:     ANSELE = 0x07;
  4776  061B  3007               	movlw	7
  4777  061C  00E4               	movwf	100	;volatile
  4778  061D                     l4614:
  4779                           
  4780                           ;mcc_generated_files/pin_manager.c: 77:     ANSELA = 0xFF;
  4781  061D  30FF               	movlw	255
  4782  061E  00B8               	movwf	56	;volatile
  4783                           
  4784                           ;mcc_generated_files/pin_manager.c: 82:     WPUD = 0x00;
  4785  061F  01DA               	clrf	90	;volatile
  4786                           
  4787                           ;mcc_generated_files/pin_manager.c: 83:     WPUE = 0x00;
  4788  0620  01E5               	clrf	101	;volatile
  4789                           
  4790                           ;mcc_generated_files/pin_manager.c: 84:     WPUB = 0x00;
  4791  0621  01C4               	clrf	68	;volatile
  4792                           
  4793                           ;mcc_generated_files/pin_manager.c: 85:     WPUA = 0x00;
  4794  0622  01B9               	clrf	57	;volatile
  4795  0623                     l4616:
  4796                           
  4797                           ;mcc_generated_files/pin_manager.c: 86:     WPUC = 0x50;
  4798  0623  3050               	movlw	80
  4799  0624  00CF               	movwf	79	;volatile
  4800  0625                     l4618:
  4801                           
  4802                           ;mcc_generated_files/pin_manager.c: 91:     ODCONE = 0x00;
  4803  0625  01E6               	clrf	102	;volatile
  4804  0626                     l4620:
  4805                           
  4806                           ;mcc_generated_files/pin_manager.c: 92:     ODCONA = 0x00;
  4807  0626  01BA               	clrf	58	;volatile
  4808  0627                     l4622:
  4809                           
  4810                           ;mcc_generated_files/pin_manager.c: 93:     ODCONB = 0x00;
  4811  0627  01C5               	clrf	69	;volatile
  4812  0628                     l4624:
  4813                           
  4814                           ;mcc_generated_files/pin_manager.c: 94:     ODCONC = 0x00;
  4815  0628  01D0               	clrf	80	;volatile
  4816  0629                     l4626:
  4817                           
  4818                           ;mcc_generated_files/pin_manager.c: 95:     ODCOND = 0x00;
  4819  0629  01DB               	clrf	91	;volatile
  4820                           
  4821                           ;mcc_generated_files/pin_manager.c: 100:     SLRCONA = 0xFF;
  4822  062A  30FF               	movlw	255
  4823  062B  00BB               	movwf	59	;volatile
  4824                           
  4825                           ;mcc_generated_files/pin_manager.c: 101:     SLRCONB = 0xFF;
  4826  062C  30FF               	movlw	255
  4827  062D  00C6               	movwf	70	;volatile
  4828                           
  4829                           ;mcc_generated_files/pin_manager.c: 102:     SLRCONC = 0xFF;
  4830  062E  30FF               	movlw	255
  4831  062F  00D1               	movwf	81	;volatile
  4832                           
  4833                           ;mcc_generated_files/pin_manager.c: 103:     SLRCOND = 0xFF;
  4834  0630  30FF               	movlw	255
  4835  0631  00DC               	movwf	92	;volatile
  4836                           
  4837                           ;mcc_generated_files/pin_manager.c: 104:     SLRCONE = 0x07;
  4838  0632  3007               	movlw	7
  4839  0633  00E7               	movwf	103	;volatile
  4840                           
  4841                           ;mcc_generated_files/pin_manager.c: 109:     INLVLA = 0xFF;
  4842  0634  30FF               	movlw	255
  4843  0635  00BC               	movwf	60	;volatile
  4844                           
  4845                           ;mcc_generated_files/pin_manager.c: 110:     INLVLB = 0xFF;
  4846  0636  30FF               	movlw	255
  4847  0637  00C7               	movwf	71	;volatile
  4848                           
  4849                           ;mcc_generated_files/pin_manager.c: 111:     INLVLC = 0xFF;
  4850  0638  30FF               	movlw	255
  4851  0639  00D2               	movwf	82	;volatile
  4852                           
  4853                           ;mcc_generated_files/pin_manager.c: 112:     INLVLD = 0xFF;
  4854  063A  30FF               	movlw	255
  4855  063B  00DD               	movwf	93	;volatile
  4856                           
  4857                           ;mcc_generated_files/pin_manager.c: 113:     INLVLE = 0x0F;
  4858  063C  300F               	movlw	15
  4859  063D  00E8               	movwf	104	;volatile
  4860                           
  4861                           ;mcc_generated_files/pin_manager.c: 122:     SSP1CLKPPS = 0x14;
  4862  063E  3014               	movlw	20
  4863  063F  017D               	movlb	61	; select bank61
  4864  0640  00C5               	movwf	69	;volatile
  4865                           
  4866                           ;mcc_generated_files/pin_manager.c: 123:     RC4PPS = 0x15;
  4867  0641  3015               	movlw	21
  4868  0642  017E               	movlb	62	; select bank62
  4869  0643  00A4               	movwf	36	;volatile
  4870                           
  4871                           ;mcc_generated_files/pin_manager.c: 124:     RC6PPS = 0x16;
  4872  0644  3016               	movlw	22
  4873  0645  00A6               	movwf	38	;volatile
  4874                           
  4875                           ;mcc_generated_files/pin_manager.c: 125:     SSP1DATPPS = 0x16;
  4876  0646  3016               	movlw	22
  4877  0647  017D               	movlb	61	; select bank61
  4878  0648  00C6               	movwf	70	;volatile
  4879                           
  4880                           ;mcc_generated_files/pin_manager.c: 127:     RC2PPS = 0x0F;
  4881  0649  300F               	movlw	15
  4882  064A  017E               	movlb	62	; select bank62
  4883  064B  00A2               	movwf	34	;volatile
  4884                           
  4885                           ;mcc_generated_files/pin_manager.c: 129:     RX1DTPPS = 0x11;
  4886  064C  3011               	movlw	17
  4887  064D  017D               	movlb	61	; select bank61
  4888  064E  00CB               	movwf	75	;volatile
  4889  064F                     l788:
  4890  064F  0008               	return
  4891  0650                     __end_of_PIN_MANAGER_Initialize:
  4892                           
  4893                           	psect	text4
  4894  0AAE                     __ptext4:	
  4895 ;; *************** function _OSCILLATOR_Initialize *****************
  4896 ;; Defined at:
  4897 ;;		line 59 in file "mcc_generated_files/mcc.c"
  4898 ;; Parameters:    Size  Location     Type
  4899 ;;		None
  4900 ;; Auto vars:     Size  Location     Type
  4901 ;;		None
  4902 ;; Return value:  Size  Location     Type
  4903 ;;                  1    wreg      void 
  4904 ;; Registers used:
  4905 ;;		wreg, status,2
  4906 ;; Tracked objects:
  4907 ;;		On entry : 0/0
  4908 ;;		On exit  : 0/0
  4909 ;;		Unchanged: 0/0
  4910 ;; Data sizes:     COMMON   BANK0   BANK1   BANK2   BANK3   BANK4   BANK5   BANK6   BANK7   BANK8   BANK9  BANK10  BANK1
      +1  BANK12  BANK13  BANK14  BANK15  BANK16  BANK17  BANK18  BANK19  BANK20  BANK21  BANK22  BANK23  BANK24  BANK25
  4911 ;;      Params:         0       0       0       0       0       0       0       0       0       0       0       0       
      +0       0       0       0       0       0       0       0       0       0       0       0       0       0       0
  4912 ;;      Locals:         0       0       0       0       0       0       0       0       0       0       0       0       
      +0       0       0       0       0       0       0       0       0       0       0       0       0       0       0
  4913 ;;      Temps:          0       0       0       0       0       0       0       0       0       0       0       0       
      +0       0       0       0       0       0       0       0       0       0       0       0       0       0       0
  4914 ;;      Totals:         0       0       0       0       0       0       0       0       0       0       0       0       
      +0       0       0       0       0       0       0       0       0       0       0       0       0       0       0
  4915 ;;Total ram usage:        0 bytes
  4916 ;; Hardware stack levels used: 1
  4917 ;; Hardware stack levels required when called: 4
  4918 ;; This function calls:
  4919 ;;		Nothing
  4920 ;; This function is called by:
  4921 ;;		_SYSTEM_Initialize
  4922 ;; This function uses a non-reentrant model
  4923 ;;
  4924                           
  4925                           
  4926                           ;psect for function _OSCILLATOR_Initialize
  4927  0AAE                     _OSCILLATOR_Initialize:
  4928  0AAE                     l4630:	
  4929                           ;incstack = 0
  4930                           ; Regs used in _OSCILLATOR_Initialize: [wreg+status,2]
  4931                           
  4932                           
  4933                           ;mcc_generated_files/mcc.c: 61:     OSCCON1 = 0x60;
  4934  0AAE  3060               	movlw	96
  4935  0AAF  0151               	movlb	17	; select bank17
  4936  0AB0  008D               	movwf	13	;volatile
  4937  0AB1                     l4632:
  4938                           
  4939                           ;mcc_generated_files/mcc.c: 63:     OSCCON3 = 0x00;
  4940  0AB1  018F               	clrf	15	;volatile
  4941  0AB2                     l4634:
  4942                           
  4943                           ;mcc_generated_files/mcc.c: 65:     OSCEN = 0x00;
  4944  0AB2  0191               	clrf	17	;volatile
  4945                           
  4946                           ;mcc_generated_files/mcc.c: 67:     OSCFRQ = 0x06;
  4947  0AB3  3006               	movlw	6
  4948  0AB4  0093               	movwf	19	;volatile
  4949  0AB5                     l4636:
  4950                           
  4951                           ;mcc_generated_files/mcc.c: 69:     OSCSTAT = 0x00;
  4952  0AB5  0190               	clrf	16	;volatile
  4953  0AB6                     l4638:
  4954                           
  4955                           ;mcc_generated_files/mcc.c: 71:     OSCTUNE = 0x00;
  4956  0AB6  0192               	clrf	18	;volatile
  4957  0AB7                     l831:
  4958  0AB7  0008               	return
  4959  0AB8                     __end_of_OSCILLATOR_Initialize:
  4960                           
  4961                           	psect	text5
  4962  0A9C                     __ptext5:	
  4963 ;; *************** function _I2C1_Initialize *****************
  4964 ;; Defined at:
  4965 ;;		line 167 in file "mcc_generated_files/i2c1_master.c"
  4966 ;; Parameters:    Size  Location     Type
  4967 ;;		None
  4968 ;; Auto vars:     Size  Location     Type
  4969 ;;		None
  4970 ;; Return value:  Size  Location     Type
  4971 ;;                  1    wreg      void 
  4972 ;; Registers used:
  4973 ;;		wreg, status,2
  4974 ;; Tracked objects:
  4975 ;;		On entry : 0/0
  4976 ;;		On exit  : 0/0
  4977 ;;		Unchanged: 0/0
  4978 ;; Data sizes:     COMMON   BANK0   BANK1   BANK2   BANK3   BANK4   BANK5   BANK6   BANK7   BANK8   BANK9  BANK10  BANK1
      +1  BANK12  BANK13  BANK14  BANK15  BANK16  BANK17  BANK18  BANK19  BANK20  BANK21  BANK22  BANK23  BANK24  BANK25
  4979 ;;      Params:         0       0       0       0       0       0       0       0       0       0       0       0       
      +0       0       0       0       0       0       0       0       0       0       0       0       0       0       0
  4980 ;;      Locals:         0       0       0       0       0       0       0       0       0       0       0       0       
      +0       0       0       0       0       0       0       0       0       0       0       0       0       0       0
  4981 ;;      Temps:          0       0       0       0       0       0       0       0       0       0       0       0       
      +0       0       0       0       0       0       0       0       0       0       0       0       0       0       0
  4982 ;;      Totals:         0       0       0       0       0       0       0       0       0       0       0       0       
      +0       0       0       0       0       0       0       0       0       0       0       0       0       0       0
  4983 ;;Total ram usage:        0 bytes
  4984 ;; Hardware stack levels used: 1
  4985 ;; Hardware stack levels required when called: 4
  4986 ;; This function calls:
  4987 ;;		Nothing
  4988 ;; This function is called by:
  4989 ;;		_SYSTEM_Initialize
  4990 ;;		_main
  4991 ;; This function uses a non-reentrant model
  4992 ;;
  4993                           
  4994                           
  4995                           ;psect for function _I2C1_Initialize
  4996  0A9C                     _I2C1_Initialize:
  4997  0A9C                     l4546:	
  4998                           ;incstack = 0
  4999                           ; Regs used in _I2C1_Initialize: [wreg+status,2]
  5000                           
  5001                           
  5002                           ;mcc_generated_files/i2c1_master.c: 169:     SSP1STAT = 0x00;
  5003  0A9C  0143               	movlb	3	; select bank3
  5004  0A9D  018F               	clrf	15	;volatile
  5005  0A9E                     l4548:
  5006                           
  5007                           ;mcc_generated_files/i2c1_master.c: 170:     SSP1CON1 = 0x08;
  5008  0A9E  3008               	movlw	8
  5009  0A9F  0090               	movwf	16	;volatile
  5010  0AA0                     l4550:
  5011                           
  5012                           ;mcc_generated_files/i2c1_master.c: 171:     SSP1CON2 = 0x00;
  5013  0AA0  0191               	clrf	17	;volatile
  5014                           
  5015                           ;mcc_generated_files/i2c1_master.c: 172:     SSP1ADD = 0x7F;
  5016  0AA1  307F               	movlw	127
  5017  0AA2  008D               	movwf	13	;volatile
  5018  0AA3                     l4552:
  5019                           
  5020                           ;mcc_generated_files/i2c1_master.c: 173:     SSP1CON1bits.SSPEN = 0;
  5021  0AA3  1290               	bcf	16,5	;volatile
  5022  0AA4                     l302:
  5023  0AA4  0008               	return
  5024  0AA5                     __end_of_I2C1_Initialize:
  5025                           
  5026                           	psect	text6
  5027  069D                     __ptext6:	
  5028 ;; *************** function _EUSART1_Initialize *****************
  5029 ;; Defined at:
  5030 ;;		line 88 in file "mcc_generated_files/eusart1.c"
  5031 ;; Parameters:    Size  Location     Type
  5032 ;;		None
  5033 ;; Auto vars:     Size  Location     Type
  5034 ;;		None
  5035 ;; Return value:  Size  Location     Type
  5036 ;;                  1    wreg      void 
  5037 ;; Registers used:
  5038 ;;		wreg, status,2, status,0, pclath, cstack
  5039 ;; Tracked objects:
  5040 ;;		On entry : 0/0
  5041 ;;		On exit  : 0/0
  5042 ;;		Unchanged: 0/0
  5043 ;; Data sizes:     COMMON   BANK0   BANK1   BANK2   BANK3   BANK4   BANK5   BANK6   BANK7   BANK8   BANK9  BANK10  BANK1
      +1  BANK12  BANK13  BANK14  BANK15  BANK16  BANK17  BANK18  BANK19  BANK20  BANK21  BANK22  BANK23  BANK24  BANK25
  5044 ;;      Params:         0       0       0       0       0       0       0       0       0       0       0       0       
      +0       0       0       0       0       0       0       0       0       0       0       0       0       0       0
  5045 ;;      Locals:         0       0       0       0       0       0       0       0       0       0       0       0       
      +0       0       0       0       0       0       0       0       0       0       0       0       0       0       0
  5046 ;;      Temps:          1       0       0       0       0       0       0       0       0       0       0       0       
      +0       0       0       0       0       0       0       0       0       0       0       0       0       0       0
  5047 ;;      Totals:         1       0       0       0       0       0       0       0       0       0       0       0       
      +0       0       0       0       0       0       0       0       0       0       0       0       0       0       0
  5048 ;;Total ram usage:        1 bytes
  5049 ;; Hardware stack levels used: 1
  5050 ;; Hardware stack levels required when called: 5
  5051 ;; This function calls:
  5052 ;;		_EUSART1_SetErrorHandler
  5053 ;;		_EUSART1_SetFramingErrorHandler
  5054 ;;		_EUSART1_SetOverrunErrorHandler
  5055 ;;		_EUSART1_SetRxInterruptHandler
  5056 ;;		_EUSART1_SetTxInterruptHandler
  5057 ;; This function is called by:
  5058 ;;		_SYSTEM_Initialize
  5059 ;; This function uses a non-reentrant model
  5060 ;;
  5061                           
  5062                           
  5063                           ;psect for function _EUSART1_Initialize
  5064  069D                     _EUSART1_Initialize:
  5065  069D                     l4554:	
  5066                           ;incstack = 0
  5067                           ; Regs used in _EUSART1_Initialize: [wreg+status,2+status,0+pclath+cstack]
  5068                           
  5069                           
  5070                           ;mcc_generated_files/eusart1.c: 91:     PIE3bits.RC1IE = 0;
  5071  069D  014E               	movlb	14	; select bank14
  5072  069E  1299               	bcf	25,5	;volatile
  5073  069F                     l4556:
  5074                           
  5075                           ;mcc_generated_files/eusart1.c: 92:     EUSART1_SetRxInterruptHandler(EUSART1_Receive_IS
      +                          R);
  5076  069F  301F               	movlw	low _EUSART1_Receive_ISR
  5077  06A0  00F1               	movwf	EUSART1_SetRxInterruptHandler@interruptHandler
  5078  06A1  3007               	movlw	high _EUSART1_Receive_ISR
  5079  06A2  00F2               	movwf	EUSART1_SetRxInterruptHandler@interruptHandler+1
  5080  06A3  318A  225B  3186   	fcall	_EUSART1_SetRxInterruptHandler
  5081  06A6                     l4558:
  5082                           
  5083                           ;mcc_generated_files/eusart1.c: 93:     PIE3bits.TX1IE = 0;
  5084  06A6  014E               	movlb	14	; select bank14
  5085  06A7  1219               	bcf	25,4	;volatile
  5086                           
  5087                           ;mcc_generated_files/eusart1.c: 94:     EUSART1_SetTxInterruptHandler(EUSART1_Transmit_I
      +                          SR);
  5088  06A8  3084               	movlw	low _EUSART1_Transmit_ISR
  5089  06A9  00F1               	movwf	EUSART1_SetTxInterruptHandler@interruptHandler
  5090  06AA  300D               	movlw	high _EUSART1_Transmit_ISR
  5091  06AB  00F2               	movwf	EUSART1_SetTxInterruptHandler@interruptHandler+1
  5092  06AC  318A  2261  3186   	fcall	_EUSART1_SetTxInterruptHandler
  5093  06AF                     l4560:
  5094                           
  5095                           ;mcc_generated_files/eusart1.c: 98:     BAUD1CON = 0x08;
  5096  06AF  3008               	movlw	8
  5097  06B0  0142               	movlb	2	; select bank2
  5098  06B1  009F               	movwf	31	;volatile
  5099  06B2                     l4562:
  5100                           
  5101                           ;mcc_generated_files/eusart1.c: 101:     RC1STA = 0x90;
  5102  06B2  3090               	movlw	144
  5103  06B3  009D               	movwf	29	;volatile
  5104  06B4                     l4564:
  5105                           
  5106                           ;mcc_generated_files/eusart1.c: 104:     TX1STA = 0x24;
  5107  06B4  3024               	movlw	36
  5108  06B5  009E               	movwf	30	;volatile
  5109  06B6                     l4566:
  5110                           
  5111                           ;mcc_generated_files/eusart1.c: 107:     SP1BRGL = 0x40;
  5112  06B6  3040               	movlw	64
  5113  06B7  009B               	movwf	27	;volatile
  5114  06B8                     l4568:
  5115                           
  5116                           ;mcc_generated_files/eusart1.c: 110:     SP1BRGH = 0x03;
  5117  06B8  3003               	movlw	3
  5118  06B9  009C               	movwf	28	;volatile
  5119  06BA                     l4570:
  5120                           
  5121                           ;mcc_generated_files/eusart1.c: 113:     EUSART1_SetFramingErrorHandler(EUSART1_DefaultF
      +                          ramingErrorHandler);
  5122  06BA  30CD               	movlw	low _EUSART1_DefaultFramingErrorHandler
  5123  06BB  00F1               	movwf	EUSART1_SetFramingErrorHandler@interruptHandler
  5124  06BC  3009               	movlw	high _EUSART1_DefaultFramingErrorHandler
  5125  06BD  00F2               	movwf	EUSART1_SetFramingErrorHandler@interruptHandler+1
  5126  06BE  318A  224F  3186   	fcall	_EUSART1_SetFramingErrorHandler
  5127  06C1                     l4572:
  5128                           
  5129                           ;mcc_generated_files/eusart1.c: 114:     EUSART1_SetOverrunErrorHandler(EUSART1_DefaultO
      +                          verrunErrorHandler);
  5130  06C1  30EF               	movlw	low _EUSART1_DefaultOverrunErrorHandler
  5131  06C2  00F1               	movwf	EUSART1_SetOverrunErrorHandler@interruptHandler
  5132  06C3  3009               	movlw	high _EUSART1_DefaultOverrunErrorHandler
  5133  06C4  00F2               	movwf	EUSART1_SetOverrunErrorHandler@interruptHandler+1
  5134  06C5  318A  2255  3186   	fcall	_EUSART1_SetOverrunErrorHandler
  5135  06C8                     l4574:
  5136                           
  5137                           ;mcc_generated_files/eusart1.c: 115:     EUSART1_SetErrorHandler(EUSART1_DefaultErrorHan
      +                          dler);
  5138  06C8  30EB               	movlw	low _EUSART1_DefaultErrorHandler
  5139  06C9  00F1               	movwf	EUSART1_SetErrorHandler@interruptHandler
  5140  06CA  3009               	movlw	high _EUSART1_DefaultErrorHandler
  5141  06CB  00F2               	movwf	EUSART1_SetErrorHandler@interruptHandler+1
  5142  06CC  318A  2249  3186   	fcall	_EUSART1_SetErrorHandler
  5143  06CF                     l4576:
  5144                           
  5145                           ;mcc_generated_files/eusart1.c: 117:     eusart1RxLastError.status = 0;
  5146  06CF  0142               	movlb	2	; select bank2
  5147  06D0  01ED               	clrf	_eusart1RxLastError^(0+256)	;volatile
  5148  06D1                     l4578:
  5149                           
  5150                           ;mcc_generated_files/eusart1.c: 120:     eusart1TxHead = 0;
  5151  06D1  0141               	movlb	1	; select bank1
  5152  06D2  01EF               	clrf	_eusart1TxHead^(0+128)	;volatile
  5153  06D3                     l4580:
  5154                           
  5155                           ;mcc_generated_files/eusart1.c: 121:     eusart1TxTail = 0;
  5156  06D3  01EE               	clrf	_eusart1TxTail^(0+128)	;volatile
  5157  06D4                     l4582:
  5158                           
  5159                           ;mcc_generated_files/eusart1.c: 122:     eusart1TxBufferRemaining = sizeof(eusart1TxBuff
      +                          er);
  5160  06D4  3040               	movlw	64
  5161  06D5  00F3               	movwf	??_EUSART1_Initialize
  5162  06D6  0873               	movf	??_EUSART1_Initialize,w
  5163  06D7  0142               	movlb	2	; select bank2
  5164  06D8  00EE               	movwf	_eusart1TxBufferRemaining^(0+256)	;volatile
  5165                           
  5166                           ;mcc_generated_files/eusart1.c: 124:     eusart1RxHead = 0;
  5167  06D9  01FC               	clrf	_eusart1RxHead	;volatile
  5168                           
  5169                           ;mcc_generated_files/eusart1.c: 125:     eusart1RxTail = 0;
  5170  06DA  0141               	movlb	1	; select bank1
  5171  06DB  01ED               	clrf	_eusart1RxTail^(0+128)	;volatile
  5172                           
  5173                           ;mcc_generated_files/eusart1.c: 126:     eusart1RxCount = 0;
  5174  06DC  01EC               	clrf	_eusart1RxCount^(0+128)	;volatile
  5175  06DD                     l4584:
  5176                           
  5177                           ;mcc_generated_files/eusart1.c: 129:     PIE3bits.RC1IE = 1;
  5178  06DD  014E               	movlb	14	; select bank14
  5179  06DE  1699               	bsf	25,5	;volatile
  5180  06DF                     l607:
  5181  06DF  0008               	return
  5182  06E0                     __end_of_EUSART1_Initialize:
  5183                           
  5184                           	psect	text7
  5185  0A61                     __ptext7:	
  5186 ;; *************** function _EUSART1_SetTxInterruptHandler *****************
  5187 ;; Defined at:
  5188 ;;		line 285 in file "mcc_generated_files/eusart1.c"
  5189 ;; Parameters:    Size  Location     Type
  5190 ;;  interruptHan    2    1[COMMON] PTR FTN()void 
  5191 ;;		 -> EUSART1_Transmit_ISR(1), 
  5192 ;; Auto vars:     Size  Location     Type
  5193 ;;		None
  5194 ;; Return value:  Size  Location     Type
  5195 ;;                  1    wreg      void 
  5196 ;; Registers used:
  5197 ;;		wreg
  5198 ;; Tracked objects:
  5199 ;;		On entry : 0/0
  5200 ;;		On exit  : 0/0
  5201 ;;		Unchanged: 0/0
  5202 ;; Data sizes:     COMMON   BANK0   BANK1   BANK2   BANK3   BANK4   BANK5   BANK6   BANK7   BANK8   BANK9  BANK10  BANK1
      +1  BANK12  BANK13  BANK14  BANK15  BANK16  BANK17  BANK18  BANK19  BANK20  BANK21  BANK22  BANK23  BANK24  BANK25
  5203 ;;      Params:         2       0       0       0       0       0       0       0       0       0       0       0       
      +0       0       0       0       0       0       0       0       0       0       0       0       0       0       0
  5204 ;;      Locals:         0       0       0       0       0       0       0       0       0       0       0       0       
      +0       0       0       0       0       0       0       0       0       0       0       0       0       0       0
  5205 ;;      Temps:          0       0       0       0       0       0       0       0       0       0       0       0       
      +0       0       0       0       0       0       0       0       0       0       0       0       0       0       0
  5206 ;;      Totals:         2       0       0       0       0       0       0       0       0       0       0       0       
      +0       0       0       0       0       0       0       0       0       0       0       0       0       0       0
  5207 ;;Total ram usage:        2 bytes
  5208 ;; Hardware stack levels used: 1
  5209 ;; Hardware stack levels required when called: 4
  5210 ;; This function calls:
  5211 ;;		Nothing
  5212 ;; This function is called by:
  5213 ;;		_EUSART1_Initialize
  5214 ;; This function uses a non-reentrant model
  5215 ;;
  5216                           
  5217                           
  5218                           ;psect for function _EUSART1_SetTxInterruptHandler
  5219  0A61                     _EUSART1_SetTxInterruptHandler:
  5220  0A61                     l4458:	
  5221                           ;incstack = 0
  5222                           ; Regs used in _EUSART1_SetTxInterruptHandler: [wreg]
  5223                           
  5224                           
  5225                           ;mcc_generated_files/eusart1.c: 286:     EUSART1_TxDefaultInterruptHandler = interruptHa
      +                          ndler;
  5226  0A61  0872               	movf	EUSART1_SetTxInterruptHandler@interruptHandler+1,w
  5227  0A62  0143               	movlb	3	; select bank3
  5228  0A63  00EF               	movwf	(_EUSART1_TxDefaultInterruptHandler+1)^(0+384)
  5229  0A64  0871               	movf	EUSART1_SetTxInterruptHandler@interruptHandler,w
  5230  0A65  00EE               	movwf	_EUSART1_TxDefaultInterruptHandler^(0+384)
  5231  0A66                     l679:
  5232  0A66  0008               	return
  5233  0A67                     __end_of_EUSART1_SetTxInterruptHandler:
  5234                           
  5235                           	psect	text8
  5236  0A5B                     __ptext8:	
  5237 ;; *************** function _EUSART1_SetRxInterruptHandler *****************
  5238 ;; Defined at:
  5239 ;;		line 289 in file "mcc_generated_files/eusart1.c"
  5240 ;; Parameters:    Size  Location     Type
  5241 ;;  interruptHan    2    1[COMMON] PTR FTN()void 
  5242 ;;		 -> EUSART1_Receive_ISR(1), 
  5243 ;; Auto vars:     Size  Location     Type
  5244 ;;		None
  5245 ;; Return value:  Size  Location     Type
  5246 ;;                  1    wreg      void 
  5247 ;; Registers used:
  5248 ;;		wreg
  5249 ;; Tracked objects:
  5250 ;;		On entry : 0/0
  5251 ;;		On exit  : 0/0
  5252 ;;		Unchanged: 0/0
  5253 ;; Data sizes:     COMMON   BANK0   BANK1   BANK2   BANK3   BANK4   BANK5   BANK6   BANK7   BANK8   BANK9  BANK10  BANK1
      +1  BANK12  BANK13  BANK14  BANK15  BANK16  BANK17  BANK18  BANK19  BANK20  BANK21  BANK22  BANK23  BANK24  BANK25
  5254 ;;      Params:         2       0       0       0       0       0       0       0       0       0       0       0       
      +0       0       0       0       0       0       0       0       0       0       0       0       0       0       0
  5255 ;;      Locals:         0       0       0       0       0       0       0       0       0       0       0       0       
      +0       0       0       0       0       0       0       0       0       0       0       0       0       0       0
  5256 ;;      Temps:          0       0       0       0       0       0       0       0       0       0       0       0       
      +0       0       0       0       0       0       0       0       0       0       0       0       0       0       0
  5257 ;;      Totals:         2       0       0       0       0       0       0       0       0       0       0       0       
      +0       0       0       0       0       0       0       0       0       0       0       0       0       0       0
  5258 ;;Total ram usage:        2 bytes
  5259 ;; Hardware stack levels used: 1
  5260 ;; Hardware stack levels required when called: 4
  5261 ;; This function calls:
  5262 ;;		Nothing
  5263 ;; This function is called by:
  5264 ;;		_EUSART1_Initialize
  5265 ;; This function uses a non-reentrant model
  5266 ;;
  5267                           
  5268                           
  5269                           ;psect for function _EUSART1_SetRxInterruptHandler
  5270  0A5B                     _EUSART1_SetRxInterruptHandler:
  5271  0A5B                     l4456:	
  5272                           ;incstack = 0
  5273                           ; Regs used in _EUSART1_SetRxInterruptHandler: [wreg]
  5274                           
  5275                           
  5276                           ;mcc_generated_files/eusart1.c: 290:     EUSART1_RxDefaultInterruptHandler = interruptHa
      +                          ndler;
  5277  0A5B  0872               	movf	EUSART1_SetRxInterruptHandler@interruptHandler+1,w
  5278  0A5C  0143               	movlb	3	; select bank3
  5279  0A5D  00ED               	movwf	(_EUSART1_RxDefaultInterruptHandler+1)^(0+384)
  5280  0A5E  0871               	movf	EUSART1_SetRxInterruptHandler@interruptHandler,w
  5281  0A5F  00EC               	movwf	_EUSART1_RxDefaultInterruptHandler^(0+384)
  5282  0A60                     l682:
  5283  0A60  0008               	return
  5284  0A61                     __end_of_EUSART1_SetRxInterruptHandler:
  5285                           
  5286                           	psect	text9
  5287  0A55                     __ptext9:	
  5288 ;; *************** function _EUSART1_SetOverrunErrorHandler *****************
  5289 ;; Defined at:
  5290 ;;		line 277 in file "mcc_generated_files/eusart1.c"
  5291 ;; Parameters:    Size  Location     Type
  5292 ;;  interruptHan    2    1[COMMON] PTR FTN()void 
  5293 ;;		 -> EUSART1_DefaultOverrunErrorHandler(1), 
  5294 ;; Auto vars:     Size  Location     Type
  5295 ;;		None
  5296 ;; Return value:  Size  Location     Type
  5297 ;;                  1    wreg      void 
  5298 ;; Registers used:
  5299 ;;		wreg
  5300 ;; Tracked objects:
  5301 ;;		On entry : 0/0
  5302 ;;		On exit  : 0/0
  5303 ;;		Unchanged: 0/0
  5304 ;; Data sizes:     COMMON   BANK0   BANK1   BANK2   BANK3   BANK4   BANK5   BANK6   BANK7   BANK8   BANK9  BANK10  BANK1
      +1  BANK12  BANK13  BANK14  BANK15  BANK16  BANK17  BANK18  BANK19  BANK20  BANK21  BANK22  BANK23  BANK24  BANK25
  5305 ;;      Params:         2       0       0       0       0       0       0       0       0       0       0       0       
      +0       0       0       0       0       0       0       0       0       0       0       0       0       0       0
  5306 ;;      Locals:         0       0       0       0       0       0       0       0       0       0       0       0       
      +0       0       0       0       0       0       0       0       0       0       0       0       0       0       0
  5307 ;;      Temps:          0       0       0       0       0       0       0       0       0       0       0       0       
      +0       0       0       0       0       0       0       0       0       0       0       0       0       0       0
  5308 ;;      Totals:         2       0       0       0       0       0       0       0       0       0       0       0       
      +0       0       0       0       0       0       0       0       0       0       0       0       0       0       0
  5309 ;;Total ram usage:        2 bytes
  5310 ;; Hardware stack levels used: 1
  5311 ;; Hardware stack levels required when called: 4
  5312 ;; This function calls:
  5313 ;;		Nothing
  5314 ;; This function is called by:
  5315 ;;		_EUSART1_Initialize
  5316 ;; This function uses a non-reentrant model
  5317 ;;
  5318                           
  5319                           
  5320                           ;psect for function _EUSART1_SetOverrunErrorHandler
  5321  0A55                     _EUSART1_SetOverrunErrorHandler:
  5322  0A55                     l4462:	
  5323                           ;incstack = 0
  5324                           ; Regs used in _EUSART1_SetOverrunErrorHandler: [wreg]
  5325                           
  5326                           
  5327                           ;mcc_generated_files/eusart1.c: 278:     EUSART1_OverrunErrorHandler = interruptHandler;
  5328  0A55  0872               	movf	EUSART1_SetOverrunErrorHandler@interruptHandler+1,w
  5329  0A56  0144               	movlb	4	; select bank4
  5330  0A57  00E9               	movwf	(_EUSART1_OverrunErrorHandler+1)^(0+512)
  5331  0A58  0871               	movf	EUSART1_SetOverrunErrorHandler@interruptHandler,w
  5332  0A59  00E8               	movwf	_EUSART1_OverrunErrorHandler^(0+512)
  5333  0A5A                     l673:
  5334  0A5A  0008               	return
  5335  0A5B                     __end_of_EUSART1_SetOverrunErrorHandler:
  5336                           
  5337                           	psect	text10
  5338  0A4F                     __ptext10:	
  5339 ;; *************** function _EUSART1_SetFramingErrorHandler *****************
  5340 ;; Defined at:
  5341 ;;		line 273 in file "mcc_generated_files/eusart1.c"
  5342 ;; Parameters:    Size  Location     Type
  5343 ;;  interruptHan    2    1[COMMON] PTR FTN()void 
  5344 ;;		 -> EUSART1_DefaultFramingErrorHandler(1), 
  5345 ;; Auto vars:     Size  Location     Type
  5346 ;;		None
  5347 ;; Return value:  Size  Location     Type
  5348 ;;                  1    wreg      void 
  5349 ;; Registers used:
  5350 ;;		wreg
  5351 ;; Tracked objects:
  5352 ;;		On entry : 0/0
  5353 ;;		On exit  : 0/0
  5354 ;;		Unchanged: 0/0
  5355 ;; Data sizes:     COMMON   BANK0   BANK1   BANK2   BANK3   BANK4   BANK5   BANK6   BANK7   BANK8   BANK9  BANK10  BANK1
      +1  BANK12  BANK13  BANK14  BANK15  BANK16  BANK17  BANK18  BANK19  BANK20  BANK21  BANK22  BANK23  BANK24  BANK25
  5356 ;;      Params:         2       0       0       0       0       0       0       0       0       0       0       0       
      +0       0       0       0       0       0       0       0       0       0       0       0       0       0       0
  5357 ;;      Locals:         0       0       0       0       0       0       0       0       0       0       0       0       
      +0       0       0       0       0       0       0       0       0       0       0       0       0       0       0
  5358 ;;      Temps:          0       0       0       0       0       0       0       0       0       0       0       0       
      +0       0       0       0       0       0       0       0       0       0       0       0       0       0       0
  5359 ;;      Totals:         2       0       0       0       0       0       0       0       0       0       0       0       
      +0       0       0       0       0       0       0       0       0       0       0       0       0       0       0
  5360 ;;Total ram usage:        2 bytes
  5361 ;; Hardware stack levels used: 1
  5362 ;; Hardware stack levels required when called: 4
  5363 ;; This function calls:
  5364 ;;		Nothing
  5365 ;; This function is called by:
  5366 ;;		_EUSART1_Initialize
  5367 ;; This function uses a non-reentrant model
  5368 ;;
  5369                           
  5370                           
  5371                           ;psect for function _EUSART1_SetFramingErrorHandler
  5372  0A4F                     _EUSART1_SetFramingErrorHandler:
  5373  0A4F                     l4460:	
  5374                           ;incstack = 0
  5375                           ; Regs used in _EUSART1_SetFramingErrorHandler: [wreg]
  5376                           
  5377                           
  5378                           ;mcc_generated_files/eusart1.c: 274:     EUSART1_FramingErrorHandler = interruptHandler;
  5379  0A4F  0872               	movf	EUSART1_SetFramingErrorHandler@interruptHandler+1,w
  5380  0A50  0144               	movlb	4	; select bank4
  5381  0A51  00EB               	movwf	(_EUSART1_FramingErrorHandler+1)^(0+512)
  5382  0A52  0871               	movf	EUSART1_SetFramingErrorHandler@interruptHandler,w
  5383  0A53  00EA               	movwf	_EUSART1_FramingErrorHandler^(0+512)
  5384  0A54                     l670:
  5385  0A54  0008               	return
  5386  0A55                     __end_of_EUSART1_SetFramingErrorHandler:
  5387                           
  5388                           	psect	text11
  5389  0A49                     __ptext11:	
  5390 ;; *************** function _EUSART1_SetErrorHandler *****************
  5391 ;; Defined at:
  5392 ;;		line 281 in file "mcc_generated_files/eusart1.c"
  5393 ;; Parameters:    Size  Location     Type
  5394 ;;  interruptHan    2    1[COMMON] PTR FTN()void 
  5395 ;;		 -> EUSART1_DefaultErrorHandler(1), 
  5396 ;; Auto vars:     Size  Location     Type
  5397 ;;		None
  5398 ;; Return value:  Size  Location     Type
  5399 ;;                  1    wreg      void 
  5400 ;; Registers used:
  5401 ;;		wreg
  5402 ;; Tracked objects:
  5403 ;;		On entry : 0/0
  5404 ;;		On exit  : 0/0
  5405 ;;		Unchanged: 0/0
  5406 ;; Data sizes:     COMMON   BANK0   BANK1   BANK2   BANK3   BANK4   BANK5   BANK6   BANK7   BANK8   BANK9  BANK10  BANK1
      +1  BANK12  BANK13  BANK14  BANK15  BANK16  BANK17  BANK18  BANK19  BANK20  BANK21  BANK22  BANK23  BANK24  BANK25
  5407 ;;      Params:         2       0       0       0       0       0       0       0       0       0       0       0       
      +0       0       0       0       0       0       0       0       0       0       0       0       0       0       0
  5408 ;;      Locals:         0       0       0       0       0       0       0       0       0       0       0       0       
      +0       0       0       0       0       0       0       0       0       0       0       0       0       0       0
  5409 ;;      Temps:          0       0       0       0       0       0       0       0       0       0       0       0       
      +0       0       0       0       0       0       0       0       0       0       0       0       0       0       0
  5410 ;;      Totals:         2       0       0       0       0       0       0       0       0       0       0       0       
      +0       0       0       0       0       0       0       0       0       0       0       0       0       0       0
  5411 ;;Total ram usage:        2 bytes
  5412 ;; Hardware stack levels used: 1
  5413 ;; Hardware stack levels required when called: 4
  5414 ;; This function calls:
  5415 ;;		Nothing
  5416 ;; This function is called by:
  5417 ;;		_EUSART1_Initialize
  5418 ;; This function uses a non-reentrant model
  5419 ;;
  5420                           
  5421                           
  5422                           ;psect for function _EUSART1_SetErrorHandler
  5423  0A49                     _EUSART1_SetErrorHandler:
  5424  0A49                     l4464:	
  5425                           ;incstack = 0
  5426                           ; Regs used in _EUSART1_SetErrorHandler: [wreg]
  5427                           
  5428                           
  5429                           ;mcc_generated_files/eusart1.c: 282:     EUSART1_ErrorHandler = interruptHandler;
  5430  0A49  0872               	movf	EUSART1_SetErrorHandler@interruptHandler+1,w
  5431  0A4A  0144               	movlb	4	; select bank4
  5432  0A4B  00E7               	movwf	(_EUSART1_ErrorHandler+1)^(0+512)
  5433  0A4C  0871               	movf	EUSART1_SetErrorHandler@interruptHandler,w
  5434  0A4D  00E6               	movwf	_EUSART1_ErrorHandler^(0+512)
  5435  0A4E                     l676:
  5436  0A4E  0008               	return
  5437  0A4F                     __end_of_EUSART1_SetErrorHandler:
  5438                           
  5439                           	psect	text12
  5440  0C85                     __ptext12:	
  5441 ;; *************** function _RandomArray *****************
  5442 ;; Defined at:
  5443 ;;		line 61 in file "main.c"
  5444 ;; Parameters:    Size  Location     Type
  5445 ;;  pD              1    wreg     PTR unsigned char 
  5446 ;;		 -> main@datain(64), 
  5447 ;;  len             1   10[BANK0 ] unsigned char 
  5448 ;; Auto vars:     Size  Location     Type
  5449 ;;  pD              1   10[COMMON] PTR unsigned char 
  5450 ;;		 -> main@datain(64), 
  5451 ;; Return value:  Size  Location     Type
  5452 ;;                  1    wreg      void 
  5453 ;; Registers used:
  5454 ;;		wreg, fsr1l, fsr1h, status,2, status,0, pclath, cstack
  5455 ;; Tracked objects:
  5456 ;;		On entry : 0/0
  5457 ;;		On exit  : 0/0
  5458 ;;		Unchanged: 0/0
  5459 ;; Data sizes:     COMMON   BANK0   BANK1   BANK2   BANK3   BANK4   BANK5   BANK6   BANK7   BANK8   BANK9  BANK10  BANK1
      +1  BANK12  BANK13  BANK14  BANK15  BANK16  BANK17  BANK18  BANK19  BANK20  BANK21  BANK22  BANK23  BANK24  BANK25
  5460 ;;      Params:         0       1       0       0       0       0       0       0       0       0       0       0       
      +0       0       0       0       0       0       0       0       0       0       0       0       0       0       0
  5461 ;;      Locals:         1       0       0       0       0       0       0       0       0       0       0       0       
      +0       0       0       0       0       0       0       0       0       0       0       0       0       0       0
  5462 ;;      Temps:          1       0       0       0       0       0       0       0       0       0       0       0       
      +0       0       0       0       0       0       0       0       0       0       0       0       0       0       0
  5463 ;;      Totals:         2       1       0       0       0       0       0       0       0       0       0       0       
      +0       0       0       0       0       0       0       0       0       0       0       0       0       0       0
  5464 ;;Total ram usage:        3 bytes
  5465 ;; Hardware stack levels used: 1
  5466 ;; Hardware stack levels required when called: 6
  5467 ;; This function calls:
  5468 ;;		_rand
  5469 ;; This function is called by:
  5470 ;;		_main
  5471 ;; This function uses a non-reentrant model
  5472 ;;
  5473                           
  5474                           
  5475                           ;psect for function _RandomArray
  5476  0C85                     _RandomArray:
  5477                           
  5478                           ;incstack = 0
  5479                           ; Regs used in _RandomArray: [wreg+fsr1l+fsr1h+status,2+status,0+pclath+cstack]
  5480                           ;RandomArray@pD stored from wreg
  5481  0C85  00FA               	movwf	RandomArray@pD
  5482  0C86                     l6278:
  5483                           
  5484                           ;main.c: 61: void RandomArray(uint8_t *pD, uint8_t len);main.c: 62: {;main.c: 63:     wh
      +                          ile (len > 0) {
  5485  0C86  2C99               	goto	l6286
  5486  0C87                     l6280:
  5487                           
  5488                           ;main.c: 64:         *pD = (uint8_t) rand();
  5489  0C87  3187  275C  318C   	fcall	_rand
  5490  0C8A  0140               	movlb	0	; select bank0
  5491  0C8B  0824               	movf	?_rand,w
  5492  0C8C  00F9               	movwf	??_RandomArray
  5493  0C8D  087A               	movf	RandomArray@pD,w
  5494  0C8E  0086               	movwf	6
  5495  0C8F  3001               	movlw	1	; select bank2/3
  5496  0C90  0087               	movwf	7
  5497  0C91  0879               	movf	??_RandomArray,w
  5498  0C92  0081               	movwf	1
  5499  0C93                     l6282:
  5500                           
  5501                           ;main.c: 65:         pD++;
  5502  0C93  3001               	movlw	1
  5503  0C94  00F9               	movwf	??_RandomArray
  5504  0C95  0879               	movf	??_RandomArray,w
  5505  0C96  07FA               	addwf	RandomArray@pD,f
  5506  0C97                     l6284:
  5507                           
  5508                           ;main.c: 66:         len--;
  5509  0C97  3001               	movlw	1
  5510  0C98  02AA               	subwf	RandomArray@len,f
  5511  0C99                     l6286:
  5512                           
  5513                           ;main.c: 63:     while (len > 0) {
  5514  0C99  0140               	movlb	0	; select bank0
  5515  0C9A  082A               	movf	RandomArray@len,w
  5516  0C9B  1D03               	btfss	3,2
  5517  0C9C  2C9E               	goto	u4021
  5518  0C9D  2C9F               	goto	u4020
  5519  0C9E                     u4021:
  5520  0C9E  2C87               	goto	l6280
  5521  0C9F                     u4020:
  5522  0C9F                     l1055:
  5523  0C9F  0008               	return
  5524  0CA0                     __end_of_RandomArray:
  5525                           
  5526                           	psect	text13
  5527  075C                     __ptext13:	
  5528 ;; *************** function _rand *****************
  5529 ;; Defined at:
  5530 ;;		line 11 in file "C:\Program Files\Microchip\xc8\v2.32\pic\sources\c99\common\rand.c"
  5531 ;; Parameters:    Size  Location     Type
  5532 ;;		None
  5533 ;; Auto vars:     Size  Location     Type
  5534 ;;		None
  5535 ;; Return value:  Size  Location     Type
  5536 ;;                  2    4[BANK0 ] int 
  5537 ;; Registers used:
  5538 ;;		wreg, status,2, status,0, pclath, cstack
  5539 ;; Tracked objects:
  5540 ;;		On entry : 0/0
  5541 ;;		On exit  : 0/0
  5542 ;;		Unchanged: 0/0
  5543 ;; Data sizes:     COMMON   BANK0   BANK1   BANK2   BANK3   BANK4   BANK5   BANK6   BANK7   BANK8   BANK9  BANK10  BANK1
      +1  BANK12  BANK13  BANK14  BANK15  BANK16  BANK17  BANK18  BANK19  BANK20  BANK21  BANK22  BANK23  BANK24  BANK25
  5544 ;;      Params:         0       2       0       0       0       0       0       0       0       0       0       0       
      +0       0       0       0       0       0       0       0       0       0       0       0       0       0       0
  5545 ;;      Locals:         0       0       0       0       0       0       0       0       0       0       0       0       
      +0       0       0       0       0       0       0       0       0       0       0       0       0       0       0
  5546 ;;      Temps:          0       4       0       0       0       0       0       0       0       0       0       0       
      +0       0       0       0       0       0       0       0       0       0       0       0       0       0       0
  5547 ;;      Totals:         0       6       0       0       0       0       0       0       0       0       0       0       
      +0       0       0       0       0       0       0       0       0       0       0       0       0       0       0
  5548 ;;Total ram usage:        6 bytes
  5549 ;; Hardware stack levels used: 1
  5550 ;; Hardware stack levels required when called: 5
  5551 ;; This function calls:
  5552 ;;		___lmul
  5553 ;; This function is called by:
  5554 ;;		_RandomArray
  5555 ;; This function uses a non-reentrant model
  5556 ;;
  5557                           
  5558                           
  5559                           ;psect for function _rand
  5560  075C                     _rand:
  5561  075C                     l6230:	
  5562                           ;incstack = 0
  5563                           ; Regs used in _rand: [wreg+status,2+status,0+pclath+cstack]
  5564                           
  5565  075C  0143               	movlb	3	; select bank3
  5566  075D  086B               	movf	(_seed+3)^(0+384),w
  5567  075E  00F4               	movwf	___lmul@multiplier+3
  5568  075F  086A               	movf	(_seed+2)^(0+384),w
  5569  0760  00F3               	movwf	___lmul@multiplier+2
  5570  0761  0869               	movf	(_seed+1)^(0+384),w
  5571  0762  00F2               	movwf	___lmul@multiplier+1
  5572  0763  0868               	movf	_seed^(0+384),w
  5573  0764  00F1               	movwf	___lmul@multiplier
  5574  0765  304C               	movlw	76
  5575  0766  00F8               	movwf	___lmul@multiplicand+3
  5576  0767  3095               	movlw	149
  5577  0768  00F7               	movwf	___lmul@multiplicand+2
  5578  0769  307F               	movlw	127
  5579  076A  00F6               	movwf	___lmul@multiplicand+1
  5580  076B  302D               	movlw	45
  5581  076C  00F5               	movwf	___lmul@multiplicand
  5582  076D  318F  2791  3187   	fcall	___lmul
  5583  0770  3001               	movlw	1
  5584  0771  0771               	addwf	?___lmul,w
  5585  0772  0143               	movlb	3	; select bank3
  5586  0773  00E8               	movwf	_seed^(0+384)
  5587  0774  3000               	movlw	0
  5588  0775  3D72               	addwfc	?___lmul+1,w
  5589  0776  00E9               	movwf	(_seed+1)^(0+384)
  5590  0777  3000               	movlw	0
  5591  0778  3D73               	addwfc	?___lmul+2,w
  5592  0779  00EA               	movwf	(_seed+2)^(0+384)
  5593  077A  3000               	movlw	0
  5594  077B  3D74               	addwfc	?___lmul+3,w
  5595  077C  00EB               	movwf	(_seed+3)^(0+384)
  5596  077D                     l6232:
  5597  077D  0868               	movf	_seed^(0+384),w
  5598  077E  0140               	movlb	0	; select bank0
  5599  077F  00A6               	movwf	??_rand
  5600  0780  0143               	movlb	3	; select bank3
  5601  0781  0869               	movf	(_seed+1)^(0+384),w
  5602  0782  0140               	movlb	0	; select bank0
  5603  0783  00A7               	movwf	??_rand+1
  5604  0784  0143               	movlb	3	; select bank3
  5605  0785  086A               	movf	(_seed+2)^(0+384),w
  5606  0786  0140               	movlb	0	; select bank0
  5607  0787  00A8               	movwf	??_rand+2
  5608  0788  0143               	movlb	3	; select bank3
  5609  0789  086B               	movf	(_seed+3)^(0+384),w
  5610  078A  0140               	movlb	0	; select bank0
  5611  078B  00A9               	movwf	??_rand+3
  5612  078C  3011               	movlw	17
  5613  078D                     u4015:
  5614  078D  36A9               	lsrf	??_rand+3,f
  5615  078E  0CA8               	rrf	??_rand+2,f
  5616  078F  0CA7               	rrf	??_rand+1,f
  5617  0790  0CA6               	rrf	??_rand,f
  5618  0791                     u4010:
  5619  0791  0B89               	decfsz	9,f
  5620  0792  2F8D               	goto	u4015
  5621  0793  0827               	movf	??_rand+1,w
  5622  0794  00A5               	movwf	?_rand+1
  5623  0795  0826               	movf	??_rand,w
  5624  0796  00A4               	movwf	?_rand
  5625  0797                     l1807:
  5626  0797  0008               	return
  5627  0798                     __end_of_rand:
  5628                           
  5629                           	psect	text14
  5630  0F91                     __ptext14:	
  5631 ;; *************** function ___lmul *****************
  5632 ;; Defined at:
  5633 ;;		line 15 in file "C:\Program Files\Microchip\xc8\v2.32\pic\sources\c99\common\Umul32.c"
  5634 ;; Parameters:    Size  Location     Type
  5635 ;;  multiplier      4    1[COMMON] unsigned long 
  5636 ;;  multiplicand    4    5[COMMON] unsigned long 
  5637 ;; Auto vars:     Size  Location     Type
  5638 ;;  product         4    0[BANK0 ] unsigned long 
  5639 ;; Return value:  Size  Location     Type
  5640 ;;                  4    1[COMMON] unsigned long 
  5641 ;; Registers used:
  5642 ;;		wreg, status,2, status,0
  5643 ;; Tracked objects:
  5644 ;;		On entry : 0/0
  5645 ;;		On exit  : 0/0
  5646 ;;		Unchanged: 0/0
  5647 ;; Data sizes:     COMMON   BANK0   BANK1   BANK2   BANK3   BANK4   BANK5   BANK6   BANK7   BANK8   BANK9  BANK10  BANK1
      +1  BANK12  BANK13  BANK14  BANK15  BANK16  BANK17  BANK18  BANK19  BANK20  BANK21  BANK22  BANK23  BANK24  BANK25
  5648 ;;      Params:         8       0       0       0       0       0       0       0       0       0       0       0       
      +0       0       0       0       0       0       0       0       0       0       0       0       0       0       0
  5649 ;;      Locals:         0       4       0       0       0       0       0       0       0       0       0       0       
      +0       0       0       0       0       0       0       0       0       0       0       0       0       0       0
  5650 ;;      Temps:          0       0       0       0       0       0       0       0       0       0       0       0       
      +0       0       0       0       0       0       0       0       0       0       0       0       0       0       0
  5651 ;;      Totals:         8       4       0       0       0       0       0       0       0       0       0       0       
      +0       0       0       0       0       0       0       0       0       0       0       0       0       0       0
  5652 ;;Total ram usage:       12 bytes
  5653 ;; Hardware stack levels used: 1
  5654 ;; Hardware stack levels required when called: 4
  5655 ;; This function calls:
  5656 ;;		Nothing
  5657 ;; This function is called by:
  5658 ;;		_rand
  5659 ;; This function uses a non-reentrant model
  5660 ;;
  5661                           
  5662                           
  5663                           ;psect for function ___lmul
  5664  0F91                     ___lmul:
  5665  0F91                     l6182:	
  5666                           ;incstack = 0
  5667                           ; Regs used in ___lmul: [wreg+status,2+status,0]
  5668                           
  5669  0F91  3000               	movlw	0
  5670  0F92  0140               	movlb	0	; select bank0
  5671  0F93  00A3               	movwf	___lmul@product+3
  5672  0F94  3000               	movlw	0
  5673  0F95  00A2               	movwf	___lmul@product+2
  5674  0F96  3000               	movlw	0
  5675  0F97  00A1               	movwf	___lmul@product+1
  5676  0F98  3000               	movlw	0
  5677  0F99  00A0               	movwf	___lmul@product
  5678  0F9A                     l6184:
  5679  0F9A  1C71               	btfss	___lmul@multiplier,0
  5680  0F9B  2F9D               	goto	u3921
  5681  0F9C  2F9E               	goto	u3920
  5682  0F9D                     u3921:
  5683  0F9D  2FA7               	goto	l6188
  5684  0F9E                     u3920:
  5685  0F9E                     l6186:
  5686  0F9E  0875               	movf	___lmul@multiplicand,w
  5687  0F9F  0140               	movlb	0	; select bank0
  5688  0FA0  07A0               	addwf	___lmul@product,f
  5689  0FA1  0876               	movf	___lmul@multiplicand+1,w
  5690  0FA2  3DA1               	addwfc	___lmul@product+1,f
  5691  0FA3  0877               	movf	___lmul@multiplicand+2,w
  5692  0FA4  3DA2               	addwfc	___lmul@product+2,f
  5693  0FA5  0878               	movf	___lmul@multiplicand+3,w
  5694  0FA6  3DA3               	addwfc	___lmul@product+3,f
  5695  0FA7                     l6188:
  5696  0FA7  3001               	movlw	1
  5697  0FA8                     u3935:
  5698  0FA8  35F5               	lslf	___lmul@multiplicand,f
  5699  0FA9  0DF6               	rlf	___lmul@multiplicand+1,f
  5700  0FAA  0DF7               	rlf	___lmul@multiplicand+2,f
  5701  0FAB  0DF8               	rlf	___lmul@multiplicand+3,f
  5702  0FAC  0B89               	decfsz	9,f
  5703  0FAD  2FA8               	goto	u3935
  5704  0FAE                     l6190:
  5705  0FAE  3001               	movlw	1
  5706  0FAF                     u3945:
  5707  0FAF  36F4               	lsrf	___lmul@multiplier+3,f
  5708  0FB0  0CF3               	rrf	___lmul@multiplier+2,f
  5709  0FB1  0CF2               	rrf	___lmul@multiplier+1,f
  5710  0FB2  0CF1               	rrf	___lmul@multiplier,f
  5711  0FB3  0B89               	decfsz	9,f
  5712  0FB4  2FAF               	goto	u3945
  5713  0FB5  0874               	movf	___lmul@multiplier+3,w
  5714  0FB6  0473               	iorwf	___lmul@multiplier+2,w
  5715  0FB7  0472               	iorwf	___lmul@multiplier+1,w
  5716  0FB8  0471               	iorwf	___lmul@multiplier,w
  5717  0FB9  1D03               	skipz
  5718  0FBA  2FBC               	goto	u3951
  5719  0FBB  2FBD               	goto	u3950
  5720  0FBC                     u3951:
  5721  0FBC  2F9A               	goto	l6184
  5722  0FBD                     u3950:
  5723  0FBD                     l6192:
  5724  0FBD  0140               	movlb	0	; select bank0
  5725  0FBE  0823               	movf	___lmul@product+3,w
  5726  0FBF  00F4               	movwf	?___lmul+3
  5727  0FC0  0822               	movf	___lmul@product+2,w
  5728  0FC1  00F3               	movwf	?___lmul+2
  5729  0FC2  0821               	movf	___lmul@product+1,w
  5730  0FC3  00F2               	movwf	?___lmul+1
  5731  0FC4  0820               	movf	___lmul@product,w
  5732  0FC5  00F1               	movwf	?___lmul
  5733  0FC6                     l1161:
  5734  0FC6  0008               	return
  5735  0FC7                     __end_of___lmul:
  5736                           
  5737                           	psect	text15
  5738  05B1                     __ptext15:	
  5739 ;; *************** function _MemoryTest *****************
  5740 ;; Defined at:
  5741 ;;		line 70 in file "main.c"
  5742 ;; Parameters:    Size  Location     Type
  5743 ;;  addr            2   15[BANK1 ] unsigned short 
  5744 ;;  pdata1          1   17[BANK1 ] PTR const unsigned char 
  5745 ;;		 -> main@datain(64), 
  5746 ;;  pdata2          1   18[BANK1 ] PTR const unsigned char 
  5747 ;;		 -> main@dataout(64), 
  5748 ;;  len             1   19[BANK1 ] unsigned char 
  5749 ;; Auto vars:     Size  Location     Type
  5750 ;;  i               1   27[BANK1 ] unsigned char 
  5751 ;;  rslt            1   26[BANK1 ] _Bool 
  5752 ;; Return value:  Size  Location     Type
  5753 ;;                  1    wreg      _Bool 
  5754 ;; Registers used:
  5755 ;;		wreg, fsr0l, fsr0h, fsr1l, fsr1h, status,2, status,0, pclath, cstack
  5756 ;; Tracked objects:
  5757 ;;		On entry : 0/0
  5758 ;;		On exit  : 0/0
  5759 ;;		Unchanged: 0/0
  5760 ;; Data sizes:     COMMON   BANK0   BANK1   BANK2   BANK3   BANK4   BANK5   BANK6   BANK7   BANK8   BANK9  BANK10  BANK1
      +1  BANK12  BANK13  BANK14  BANK15  BANK16  BANK17  BANK18  BANK19  BANK20  BANK21  BANK22  BANK23  BANK24  BANK25
  5761 ;;      Params:         0       0       5       0       0       0       0       0       0       0       0       0       
      +0       0       0       0       0       0       0       0       0       0       0       0       0       0       0
  5762 ;;      Locals:         0       0       2       0       0       0       0       0       0       0       0       0       
      +0       0       0       0       0       0       0       0       0       0       0       0       0       0       0
  5763 ;;      Temps:          0       0       6       0       0       0       0       0       0       0       0       0       
      +0       0       0       0       0       0       0       0       0       0       0       0       0       0       0
  5764 ;;      Totals:         0       0      13       0       0       0       0       0       0       0       0       0       
      +0       0       0       0       0       0       0       0       0       0       0       0       0       0       0
  5765 ;;Total ram usage:       13 bytes
  5766 ;; Hardware stack levels used: 1
  5767 ;; Hardware stack levels required when called: 13
  5768 ;; This function calls:
  5769 ;;		_printf
  5770 ;; This function is called by:
  5771 ;;		_main
  5772 ;; This function uses a non-reentrant model
  5773 ;;
  5774                           
  5775                           
  5776                           ;psect for function _MemoryTest
  5777  05B1                     _MemoryTest:
  5778  05B1                     l6288:	
  5779                           ;incstack = 0
  5780                           ; Regs used in _MemoryTest: [wreg-fsr1h+status,2+status,0+pclath+cstack]
  5781                           
  5782                           
  5783                           ;main.c: 70: _Bool MemoryTest(uint16_t addr, const uint8_t *pdata1, const uint8_t *pdata
      +                          2, uint8_t len);main.c: 71: {;main.c: 72:     uint8_t i;;main.c: 73:     _Bool rslt = 1;
  5784  05B1  0141               	movlb	1	; select bank1
  5785  05B2  01BA               	clrf	MemoryTest@rslt^(0+128)
  5786  05B3  0ABA               	incf	MemoryTest@rslt^(0+128),f
  5787  05B4                     l6290:
  5788                           
  5789                           ;main.c: 75:     for (i = 0; i < len; i++) {
  5790  05B4  01BB               	clrf	MemoryTest@i^(0+128)
  5791  05B5  2DFA               	goto	l6300
  5792  05B6                     l6292:
  5793                           
  5794                           ;main.c: 76:         if (pdata1[i] != pdata2[i]) {
  5795  05B6  083B               	movf	MemoryTest@i^(0+128),w
  5796  05B7  0732               	addwf	MemoryTest@pdata2^(0+128),w
  5797  05B8  00B4               	movwf	??_MemoryTest^(0+128)
  5798  05B9  0834               	movf	??_MemoryTest^(0+128),w
  5799  05BA  0086               	movwf	6
  5800  05BB  3001               	movlw	1	; select bank2/3
  5801  05BC  0087               	movwf	7
  5802  05BD  083B               	movf	MemoryTest@i^(0+128),w
  5803  05BE  0731               	addwf	MemoryTest@pdata1^(0+128),w
  5804  05BF  00B5               	movwf	(??_MemoryTest+1)^(0+128)
  5805  05C0  0835               	movf	(??_MemoryTest+1)^(0+128),w
  5806  05C1  0084               	movwf	4
  5807  05C2  3001               	movlw	1	; select bank2/3
  5808  05C3  0085               	movwf	5
  5809  05C4  0800               	movf	0,w
  5810  05C5  0601               	xorwf	1,w
  5811  05C6  1903               	skipnz
  5812  05C7  2DC9               	goto	u4031
  5813  05C8  2DCA               	goto	u4030
  5814  05C9                     u4031:
  5815  05C9  2DF5               	goto	l6298
  5816  05CA                     u4030:
  5817  05CA                     l6294:
  5818                           
  5819                           ;main.c: 77:             rslt = 0;
  5820  05CA  01BA               	clrf	MemoryTest@rslt^(0+128)
  5821  05CB                     l6296:
  5822                           
  5823                           ;main.c: 78:             printf("\nError @%04X: %02X # %02X", addr + i, pdata1[i], pdata
      +                          2[i]);
  5824  05CB  303E               	movlw	low (STR_1| (0+32768))
  5825  05CC  00A5               	movwf	printf@fmt^(0+128)
  5826  05CD  3090               	movlw	high (STR_1| (0+32768))
  5827  05CE  00A6               	movwf	(printf@fmt^(0+128)+1)
  5828  05CF  083B               	movf	MemoryTest@i^(0+128),w
  5829  05D0  072F               	addwf	MemoryTest@addr^(0+128),w
  5830  05D1  00A7               	movwf	(?_printf^(0+128)+2)
  5831  05D2  0830               	movf	(MemoryTest@addr+1)^(0+128),w
  5832  05D3  1803               	skipnc
  5833  05D4  0A30               	incf	(MemoryTest@addr+1)^(0+128),w
  5834  05D5  00A8               	movwf	(?_printf^(0+128)+3)
  5835  05D6  083B               	movf	MemoryTest@i^(0+128),w
  5836  05D7  0731               	addwf	MemoryTest@pdata1^(0+128),w
  5837  05D8  00B4               	movwf	??_MemoryTest^(0+128)
  5838  05D9  0834               	movf	??_MemoryTest^(0+128),w
  5839  05DA  0086               	movwf	6
  5840  05DB  3001               	movlw	1	; select bank2/3
  5841  05DC  0087               	movwf	7
  5842  05DD  0801               	movf	1,w
  5843  05DE  00B5               	movwf	(??_MemoryTest+1)^(0+128)
  5844  05DF  01B6               	clrf	((??_MemoryTest+1)^(0+128)+1)
  5845  05E0  0835               	movf	(??_MemoryTest+1)^(0+128),w
  5846  05E1  00A9               	movwf	(?_printf^(0+128)+4)
  5847  05E2  0836               	movf	(??_MemoryTest+2)^(0+128),w
  5848  05E3  00AA               	movwf	((?_printf+1)^(0+128)+4)
  5849  05E4  083B               	movf	MemoryTest@i^(0+128),w
  5850  05E5  0732               	addwf	MemoryTest@pdata2^(0+128),w
  5851  05E6  00B7               	movwf	(??_MemoryTest+3)^(0+128)
  5852  05E7  0837               	movf	(??_MemoryTest+3)^(0+128),w
  5853  05E8  0086               	movwf	6
  5854  05E9  3001               	movlw	1	; select bank2/3
  5855  05EA  0087               	movwf	7
  5856  05EB  0801               	movf	1,w
  5857  05EC  00B8               	movwf	(??_MemoryTest+4)^(0+128)
  5858  05ED  01B9               	clrf	((??_MemoryTest+4)^(0+128)+1)
  5859  05EE  0838               	movf	(??_MemoryTest+4)^(0+128),w
  5860  05EF  00AB               	movwf	(?_printf^(0+128)+6)
  5861  05F0  0839               	movf	(??_MemoryTest+5)^(0+128),w
  5862  05F1  00AC               	movwf	((?_printf+1)^(0+128)+6)
  5863  05F2  318B  23BB  3185   	fcall	_printf
  5864  05F5                     l6298:
  5865                           
  5866                           ;main.c: 80:     }
  5867  05F5  3001               	movlw	1
  5868  05F6  0141               	movlb	1	; select bank1
  5869  05F7  00B4               	movwf	??_MemoryTest^(0+128)
  5870  05F8  0834               	movf	??_MemoryTest^(0+128),w
  5871  05F9  07BB               	addwf	MemoryTest@i^(0+128),f
  5872  05FA                     l6300:
  5873  05FA  0833               	movf	MemoryTest@len^(0+128),w
  5874  05FB  023B               	subwf	MemoryTest@i^(0+128),w
  5875  05FC  1C03               	skipc
  5876  05FD  2DFF               	goto	u4041
  5877  05FE  2E00               	goto	u4040
  5878  05FF                     u4041:
  5879  05FF  2DB6               	goto	l6292
  5880  0600                     u4040:
  5881  0600                     l6302:
  5882                           
  5883                           ;main.c: 82:     return rslt;
  5884  0600  083A               	movf	MemoryTest@rslt^(0+128),w
  5885  0601                     l1062:
  5886  0601  0008               	return
  5887  0602                     __end_of_MemoryTest:
  5888                           
  5889                           	psect	text16
  5890  0BBB                     __ptext16:	
  5891 ;; *************** function _printf *****************
  5892 ;; Defined at:
  5893 ;;		line 5 in file "C:\Program Files\Microchip\xc8\v2.32\pic\sources\c99\common\printf.c"
  5894 ;; Parameters:    Size  Location     Type
  5895 ;;  fmt             2    5[BANK1 ] PTR const unsigned char 
  5896 ;;		 -> STR_5(30), STR_4(2), STR_3(13), STR_2(22), 
  5897 ;;		 -> STR_1(26), 
  5898 ;; Auto vars:     Size  Location     Type
  5899 ;;  ret             2    0        int 
  5900 ;;  ap              1   14[BANK1 ] PTR void [1]
  5901 ;;		 -> ?_printf(2), 
  5902 ;; Return value:  Size  Location     Type
  5903 ;;                  2    5[BANK1 ] int 
  5904 ;; Registers used:
  5905 ;;		wreg, fsr0l, fsr0h, fsr1l, fsr1h, status,2, status,0, pclath, cstack
  5906 ;; Tracked objects:
  5907 ;;		On entry : 0/0
  5908 ;;		On exit  : 0/0
  5909 ;;		Unchanged: 0/0
  5910 ;; Data sizes:     COMMON   BANK0   BANK1   BANK2   BANK3   BANK4   BANK5   BANK6   BANK7   BANK8   BANK9  BANK10  BANK1
      +1  BANK12  BANK13  BANK14  BANK15  BANK16  BANK17  BANK18  BANK19  BANK20  BANK21  BANK22  BANK23  BANK24  BANK25
  5911 ;;      Params:         0       0       8       0       0       0       0       0       0       0       0       0       
      +0       0       0       0       0       0       0       0       0       0       0       0       0       0       0
  5912 ;;      Locals:         0       0       1       0       0       0       0       0       0       0       0       0       
      +0       0       0       0       0       0       0       0       0       0       0       0       0       0       0
  5913 ;;      Temps:          0       0       1       0       0       0       0       0       0       0       0       0       
      +0       0       0       0       0       0       0       0       0       0       0       0       0       0       0
  5914 ;;      Totals:         0       0      10       0       0       0       0       0       0       0       0       0       
      +0       0       0       0       0       0       0       0       0       0       0       0       0       0       0
  5915 ;;Total ram usage:       10 bytes
  5916 ;; Hardware stack levels used: 1
  5917 ;; Hardware stack levels required when called: 12
  5918 ;; This function calls:
  5919 ;;		_vfprintf
  5920 ;; This function is called by:
  5921 ;;		_MemoryTest
  5922 ;;		_main
  5923 ;; This function uses a non-reentrant model
  5924 ;;
  5925                           
  5926                           
  5927                           ;psect for function _printf
  5928  0BBB                     _printf:
  5929  0BBB                     l6236:	
  5930                           ;incstack = 0
  5931                           ; Regs used in _printf: [wreg-fsr1h+status,2+status,0+pclath+cstack]
  5932                           
  5933  0BBB  30A7               	movlw	(low ((?_printf| 0+2)))& (0+255)
  5934  0BBC  0141               	movlb	1	; select bank1
  5935  0BBD  00AD               	movwf	??_printf^(0+128)
  5936  0BBE  082D               	movf	??_printf^(0+128),w
  5937  0BBF  00AE               	movwf	printf@ap^(0+128)
  5938  0BC0                     l6238:
  5939  0BC0  0826               	movf	(printf@fmt+1)^(0+128),w
  5940  0BC1  0140               	movlb	0	; select bank0
  5941  0BC2  00EE               	movwf	vfprintf@fmt+1
  5942  0BC3  0141               	movlb	1	; select bank1
  5943  0BC4  0825               	movf	printf@fmt^(0+128),w
  5944  0BC5  0140               	movlb	0	; select bank0
  5945  0BC6  00ED               	movwf	vfprintf@fmt
  5946  0BC7  30AE               	movlw	(low (printf@ap| 0))& (0+255)
  5947  0BC8  0141               	movlb	1	; select bank1
  5948  0BC9  00AD               	movwf	??_printf^(0+128)
  5949  0BCA  082D               	movf	??_printf^(0+128),w
  5950  0BCB  0140               	movlb	0	; select bank0
  5951  0BCC  00EF               	movwf	vfprintf@ap
  5952  0BCD  3000               	movlw	0
  5953  0BCE  318F  27C7  318B   	fcall	_vfprintf
  5954  0BD1                     l1616:
  5955  0BD1  0008               	return
  5956  0BD2                     __end_of_printf:
  5957                           
  5958                           	psect	text17
  5959  0FC7                     __ptext17:	
  5960 ;; *************** function _vfprintf *****************
  5961 ;; Defined at:
  5962 ;;		line 1390 in file "C:\Program Files\Microchip\xc8\v2.32\pic\sources\c99\common\doprnt.c"
  5963 ;; Parameters:    Size  Location     Type
  5964 ;;  fp              1    wreg     PTR struct _IO_FILE
  5965 ;;		 -> NULL(0), 
  5966 ;;  fmt             2   77[BANK0 ] PTR const unsigned char 
  5967 ;;		 -> STR_5(30), STR_4(2), STR_3(13), STR_2(22), 
  5968 ;;		 -> STR_1(26), 
  5969 ;;  ap              1   79[BANK0 ] PTR PTR void 
  5970 ;;		 -> printf@ap(1), 
  5971 ;; Auto vars:     Size  Location     Type
  5972 ;;  fp              1    2[BANK1 ] PTR struct _IO_FILE
  5973 ;;		 -> NULL(0), 
  5974 ;;  cfmt            2    3[BANK1 ] PTR unsigned char 
  5975 ;;		 -> STR_5(30), STR_4(2), STR_3(13), STR_2(22), 
  5976 ;;		 -> STR_1(26), 
  5977 ;; Return value:  Size  Location     Type
  5978 ;;                  2   77[BANK0 ] int 
  5979 ;; Registers used:
  5980 ;;		wreg, fsr0l, fsr0h, fsr1l, fsr1h, status,2, status,0, pclath, cstack
  5981 ;; Tracked objects:
  5982 ;;		On entry : 0/0
  5983 ;;		On exit  : 0/0
  5984 ;;		Unchanged: 0/0
  5985 ;; Data sizes:     COMMON   BANK0   BANK1   BANK2   BANK3   BANK4   BANK5   BANK6   BANK7   BANK8   BANK9  BANK10  BANK1
      +1  BANK12  BANK13  BANK14  BANK15  BANK16  BANK17  BANK18  BANK19  BANK20  BANK21  BANK22  BANK23  BANK24  BANK25
  5986 ;;      Params:         0       3       0       0       0       0       0       0       0       0       0       0       
      +0       0       0       0       0       0       0       0       0       0       0       0       0       0       0
  5987 ;;      Locals:         0       0       3       0       0       0       0       0       0       0       0       0       
      +0       0       0       0       0       0       0       0       0       0       0       0       0       0       0
  5988 ;;      Temps:          0       0       2       0       0       0       0       0       0       0       0       0       
      +0       0       0       0       0       0       0       0       0       0       0       0       0       0       0
  5989 ;;      Totals:         0       3       5       0       0       0       0       0       0       0       0       0       
      +0       0       0       0       0       0       0       0       0       0       0       0       0       0       0
  5990 ;;Total ram usage:        8 bytes
  5991 ;; Hardware stack levels used: 1
  5992 ;; Hardware stack levels required when called: 11
  5993 ;; This function calls:
  5994 ;;		_vfpfcnvrt
  5995 ;; This function is called by:
  5996 ;;		_printf
  5997 ;; This function uses a non-reentrant model
  5998 ;;
  5999                           
  6000                           
  6001                           ;psect for function _vfprintf
  6002  0FC7                     _vfprintf:
  6003                           
  6004                           ;incstack = 0
  6005                           ; Regs used in _vfprintf: [wreg-fsr1h+status,2+status,0+pclath+cstack]
  6006                           ;vfprintf@fp stored from wreg
  6007  0FC7  0141               	movlb	1	; select bank1
  6008  0FC8  00A2               	movwf	vfprintf@fp^(0+128)
  6009  0FC9                     l6196:
  6010                           
  6011                           ;C:\Program Files\Microchip\xc8\v2.32\pic\sources\c99\common\doprnt.c: 1390: int vfprint
      +                          f(FILE *fp, const char *fmt, va_list ap);C:\Program Files\Microchip\xc8\v2.32\pic\source
      +                          s\c99\common\doprnt.c: 1391: {;C:\Program Files\Microchip\xc8\v2.32\pic\sources\c99\comm
      +                          on\doprnt.c: 1393:     char *cfmt;;C:\Program Files\Microchip\xc8\v2.32\pic\sources\c99\
      +                          common\doprnt.c: 1395:     cfmt = (char *)fmt;
  6012  0FC9  0140               	movlb	0	; select bank0
  6013  0FCA  086E               	movf	vfprintf@fmt+1,w
  6014  0FCB  0141               	movlb	1	; select bank1
  6015  0FCC  00A4               	movwf	(vfprintf@cfmt+1)^(0+128)
  6016  0FCD  0140               	movlb	0	; select bank0
  6017  0FCE  086D               	movf	vfprintf@fmt,w
  6018  0FCF  0141               	movlb	1	; select bank1
  6019  0FD0  00A3               	movwf	vfprintf@cfmt^(0+128)
  6020  0FD1                     l6198:
  6021                           
  6022                           ;C:\Program Files\Microchip\xc8\v2.32\pic\sources\c99\common\doprnt.c: 1396:     nout = 
      +                          0;
  6023  0FD1  0142               	movlb	2	; select bank2
  6024  0FD2  01E9               	clrf	_nout^(0+256)
  6025  0FD3  01EA               	clrf	(_nout+1)^(0+256)
  6026                           
  6027                           ;C:\Program Files\Microchip\xc8\v2.32\pic\sources\c99\common\doprnt.c: 1397:     while (
      +                          *cfmt) {
  6028  0FD4  2FED               	goto	l6202
  6029  0FD5                     l6200:
  6030                           
  6031                           ;C:\Program Files\Microchip\xc8\v2.32\pic\sources\c99\common\doprnt.c: 1398:         nou
      +                          t += vfpfcnvrt(fp, &cfmt, ap);
  6032  0FD5  30A3               	movlw	(low (vfprintf@cfmt| 0))& (0+255)
  6033  0FD6  00A0               	movwf	??_vfprintf^(0+128)
  6034  0FD7  0820               	movf	??_vfprintf^(0+128),w
  6035  0FD8  0140               	movlb	0	; select bank0
  6036  0FD9  00D7               	movwf	vfpfcnvrt@fmt
  6037  0FDA  086F               	movf	vfprintf@ap,w
  6038  0FDB  0141               	movlb	1	; select bank1
  6039  0FDC  00A1               	movwf	(??_vfprintf+1)^(0+128)
  6040  0FDD  0821               	movf	(??_vfprintf+1)^(0+128),w
  6041  0FDE  0140               	movlb	0	; select bank0
  6042  0FDF  00D8               	movwf	vfpfcnvrt@ap
  6043  0FE0  0141               	movlb	1	; select bank1
  6044  0FE1  0822               	movf	vfprintf@fp^(0+128),w
  6045  0FE2  3180  2064  318F   	fcall	_vfpfcnvrt
  6046  0FE5  0140               	movlb	0	; select bank0
  6047  0FE6  0857               	movf	?_vfpfcnvrt,w
  6048  0FE7  0142               	movlb	2	; select bank2
  6049  0FE8  07E9               	addwf	_nout^(0+256),f
  6050  0FE9  0140               	movlb	0	; select bank0
  6051  0FEA  0858               	movf	?_vfpfcnvrt+1,w
  6052  0FEB  0142               	movlb	2	; select bank2
  6053  0FEC  3DEA               	addwfc	(_nout+1)^(0+256),f
  6054  0FED                     l6202:
  6055                           
  6056                           ;C:\Program Files\Microchip\xc8\v2.32\pic\sources\c99\common\doprnt.c: 1397:     while (
      +                          *cfmt) {
  6057  0FED  0141               	movlb	1	; select bank1
  6058  0FEE  0823               	movf	vfprintf@cfmt^(0+128),w
  6059  0FEF  0084               	movwf	4
  6060  0FF0  0824               	movf	(vfprintf@cfmt+1)^(0+128),w
  6061  0FF1  0085               	movwf	5
  6062  0FF2  0012               	moviw fsr0++
  6063  0FF3  1D03               	btfss	3,2
  6064  0FF4  2FF6               	goto	u3961
  6065  0FF5  2FF7               	goto	u3960
  6066  0FF6                     u3961:
  6067  0FF6  2FD5               	goto	l6200
  6068  0FF7                     u3960:
  6069  0FF7                     l6204:
  6070                           
  6071                           ;C:\Program Files\Microchip\xc8\v2.32\pic\sources\c99\common\doprnt.c: 1400:     return 
      +                          nout;
  6072  0FF7  0142               	movlb	2	; select bank2
  6073  0FF8  086A               	movf	(_nout+1)^(0+256),w
  6074  0FF9  0140               	movlb	0	; select bank0
  6075  0FFA  00EE               	movwf	?_vfprintf+1
  6076  0FFB  0142               	movlb	2	; select bank2
  6077  0FFC  0869               	movf	_nout^(0+256),w
  6078  0FFD  0140               	movlb	0	; select bank0
  6079  0FFE  00ED               	movwf	?_vfprintf
  6080  0FFF                     l1722:
  6081  0FFF  0008               	return
  6082  1000                     __end_of_vfprintf:
  6083                           
  6084                           	psect	text18
  6085  0064                     __ptext18:	
  6086 ;; *************** function _vfpfcnvrt *****************
  6087 ;; Defined at:
  6088 ;;		line 692 in file "C:\Program Files\Microchip\xc8\v2.32\pic\sources\c99\common\doprnt.c"
  6089 ;; Parameters:    Size  Location     Type
  6090 ;;  fp              1    wreg     PTR struct _IO_FILE
  6091 ;;		 -> NULL(0), 
  6092 ;;  fmt             1   55[BANK0 ] PTR PTR unsigned char 
  6093 ;;		 -> vfprintf@cfmt(2), 
  6094 ;;  ap              1   56[BANK0 ] PTR PTR void 
  6095 ;;		 -> printf@ap(1), 
  6096 ;; Auto vars:     Size  Location     Type
  6097 ;;  fp              1   76[BANK0 ] PTR struct _IO_FILE
  6098 ;;		 -> NULL(0), 
  6099 ;;  llu             8   63[BANK0 ] unsigned long long 
  6100 ;;  ll              8    0        long long 
  6101 ;;  f               4    0        long long 
  6102 ;;  ct              3    0        unsigned char [3]
  6103 ;;  done            2   72[BANK0 ] int 
  6104 ;;  vp              2    0        PTR void 
  6105 ;;  i               2    0        int 
  6106 ;;  cp              2    0        PTR unsigned char 
  6107 ;;  c               1   71[BANK0 ] unsigned char 
  6108 ;; Return value:  Size  Location     Type
  6109 ;;                  2   55[BANK0 ] int 
  6110 ;; Registers used:
  6111 ;;		wreg, fsr0l, fsr0h, fsr1l, fsr1h, status,2, status,0, pclath, cstack
  6112 ;; Tracked objects:
  6113 ;;		On entry : 0/0
  6114 ;;		On exit  : 0/0
  6115 ;;		Unchanged: 0/0
  6116 ;; Data sizes:     COMMON   BANK0   BANK1   BANK2   BANK3   BANK4   BANK5   BANK6   BANK7   BANK8   BANK9  BANK10  BANK1
      +1  BANK12  BANK13  BANK14  BANK15  BANK16  BANK17  BANK18  BANK19  BANK20  BANK21  BANK22  BANK23  BANK24  BANK25
  6117 ;;      Params:         0       2       0       0       0       0       0       0       0       0       0       0       
      +0       0       0       0       0       0       0       0       0       0       0       0       0       0       0
  6118 ;;      Locals:         0      14       0       0       0       0       0       0       0       0       0       0       
      +0       0       0       0       0       0       0       0       0       0       0       0       0       0       0
  6119 ;;      Temps:          0       6       0       0       0       0       0       0       0       0       0       0       
      +0       0       0       0       0       0       0       0       0       0       0       0       0       0       0
  6120 ;;      Totals:         0      22       0       0       0       0       0       0       0       0       0       0       
      +0       0       0       0       0       0       0       0       0       0       0       0       0       0       0
  6121 ;;Total ram usage:       22 bytes
  6122 ;; Hardware stack levels used: 1
  6123 ;; Hardware stack levels required when called: 10
  6124 ;; This function calls:
  6125 ;;		_atoi
  6126 ;;		_fputc
  6127 ;;		_isdigit
  6128 ;;		_xtoa
  6129 ;; This function is called by:
  6130 ;;		_vfprintf
  6131 ;; This function uses a non-reentrant model
  6132 ;;
  6133                           
  6134                           
  6135                           ;psect for function _vfpfcnvrt
  6136  0064                     _vfpfcnvrt:
  6137                           
  6138                           ;incstack = 0
  6139                           ; Regs used in _vfpfcnvrt: [wreg-fsr1h+status,2+status,0+pclath+cstack]
  6140                           ;vfpfcnvrt@fp stored from wreg
  6141  0064  0140               	movlb	0	; select bank0
  6142  0065  00EC               	movwf	vfpfcnvrt@fp
  6143  0066                     l6028:
  6144                           
  6145                           ;C:\Program Files\Microchip\xc8\v2.32\pic\sources\c99\common\doprnt.c: 692: static int v
      +                          fpfcnvrt(FILE *fp, char *fmt[], va_list ap);C:\Program Files\Microchip\xc8\v2.32\pic\sou
      +                          rces\c99\common\doprnt.c: 693: {;C:\Program Files\Microchip\xc8\v2.32\pic\sources\c99\co
      +                          mmon\doprnt.c: 694:     char c, *cp, ct[3];;C:\Program Files\Microchip\xc8\v2.32\pic\sou
      +                          rces\c99\common\doprnt.c: 695:     int done, i;;C:\Program Files\Microchip\xc8\v2.32\pic
      +                          \sources\c99\common\doprnt.c: 696:     long long ll;;C:\Program Files\Microchip\xc8\v2.3
      +                          2\pic\sources\c99\common\doprnt.c: 697:     unsigned long long llu;
  6146  0066  0857               	movf	vfpfcnvrt@fmt,w
  6147  0067  0086               	movwf	6
  6148  0068  0187               	clrf	7
  6149  0069  3F40               	moviw [0]fsr1
  6150  006A  00D9               	movwf	??_vfpfcnvrt
  6151  006B  3F41               	moviw [1]fsr1
  6152  006C  00DA               	movwf	??_vfpfcnvrt+1
  6153  006D  0859               	movf	??_vfpfcnvrt,w
  6154  006E  0084               	movwf	4
  6155  006F  085A               	movf	??_vfpfcnvrt+1,w
  6156  0070  0085               	movwf	5
  6157  0071  0012               	moviw fsr0++
  6158  0072  3A25               	xorlw	37
  6159  0073  1D03               	btfss	3,2
  6160  0074  2876               	goto	u3791
  6161  0075  2877               	goto	u3790
  6162  0076                     u3791:
  6163  0076  29F2               	goto	l6110
  6164  0077                     u3790:
  6165  0077                     l6030:
  6166                           
  6167                           ;C:\Program Files\Microchip\xc8\v2.32\pic\sources\c99\common\doprnt.c: 703:         ++*f
      +                          mt;
  6168  0077  0857               	movf	vfpfcnvrt@fmt,w
  6169  0078  0086               	movwf	6
  6170  0079  0187               	clrf	7
  6171  007A  3001               	movlw	1
  6172  007B  0781               	addwf	1,f
  6173  007C  3141               	addfsr 1,1
  6174  007D  1803               	skipnc
  6175  007E  0A81               	incf	1,f
  6176  007F                     l6032:
  6177                           
  6178                           ;C:\Program Files\Microchip\xc8\v2.32\pic\sources\c99\common\doprnt.c: 705:         flag
      +                          s = width = 0;
  6179  007F  0142               	movlb	2	; select bank2
  6180  0080  01EB               	clrf	_width^(0+256)
  6181  0081  01EC               	clrf	(_width+1)^(0+256)
  6182  0082  0141               	movlb	1	; select bank1
  6183  0083  01EA               	clrf	_flags^(0+128)
  6184  0084  01EB               	clrf	(_flags+1)^(0+128)
  6185  0085                     l6034:
  6186                           
  6187                           ;C:\Program Files\Microchip\xc8\v2.32\pic\sources\c99\common\doprnt.c: 706:         prec
      +                           = -1;
  6188  0085  30FF               	movlw	255
  6189  0086  00E8               	movwf	_prec^(0+128)
  6190  0087  30FF               	movlw	255
  6191  0088  00E9               	movwf	(_prec^(0+128)+1)
  6192  0089                     l6036:
  6193                           
  6194                           ;C:\Program Files\Microchip\xc8\v2.32\pic\sources\c99\common\doprnt.c: 710:         done
      +                           = 0;
  6195  0089  0140               	movlb	0	; select bank0
  6196  008A  01E8               	clrf	vfpfcnvrt@done
  6197  008B  01E9               	clrf	vfpfcnvrt@done+1
  6198                           
  6199                           ;C:\Program Files\Microchip\xc8\v2.32\pic\sources\c99\common\doprnt.c: 711:         whil
      +                          e (!done) {
  6200  008C  28CE               	goto	l6054
  6201  008D                     l1693:	
  6202                           ;C:\Program Files\Microchip\xc8\v2.32\pic\sources\c99\common\doprnt.c: 713:             
      +                              case '-' :
  6203                           
  6204                           
  6205                           ;C:\Program Files\Microchip\xc8\v2.32\pic\sources\c99\common\doprnt.c: 714:             
      +                                  flags |= (1 << 0);
  6206  008D  0141               	movlb	1	; select bank1
  6207  008E  146A               	bsf	_flags^(0+128),0
  6208  008F                     l6038:
  6209                           
  6210                           ;C:\Program Files\Microchip\xc8\v2.32\pic\sources\c99\common\doprnt.c: 715:             
      +                                  ++*fmt;
  6211  008F  0140               	movlb	0	; select bank0
  6212  0090  0857               	movf	vfpfcnvrt@fmt,w
  6213  0091  0086               	movwf	6
  6214  0092  0187               	clrf	7
  6215  0093  3001               	movlw	1
  6216  0094  0781               	addwf	1,f
  6217  0095  3141               	addfsr 1,1
  6218  0096  1803               	skipnc
  6219  0097  0A81               	incf	1,f
  6220                           
  6221                           ;C:\Program Files\Microchip\xc8\v2.32\pic\sources\c99\common\doprnt.c: 716:             
      +                                  break;
  6222  0098  28CE               	goto	l6054
  6223  0099                     l1695:	
  6224                           ;C:\Program Files\Microchip\xc8\v2.32\pic\sources\c99\common\doprnt.c: 717:             
      +                              case '0' :
  6225                           
  6226                           
  6227                           ;C:\Program Files\Microchip\xc8\v2.32\pic\sources\c99\common\doprnt.c: 718:             
      +                                  flags |= (1 << 1);
  6228  0099  0141               	movlb	1	; select bank1
  6229  009A  14EA               	bsf	_flags^(0+128),1
  6230  009B  288F               	goto	l6038
  6231  009C                     l1696:	
  6232                           ;C:\Program Files\Microchip\xc8\v2.32\pic\sources\c99\common\doprnt.c: 721:             
      +                              case '+' :
  6233                           
  6234                           
  6235                           ;C:\Program Files\Microchip\xc8\v2.32\pic\sources\c99\common\doprnt.c: 722:             
      +                                  flags |= (1 << 2);
  6236  009C  0141               	movlb	1	; select bank1
  6237  009D  156A               	bsf	_flags^(0+128),2
  6238  009E  288F               	goto	l6038
  6239  009F                     l1697:	
  6240                           ;C:\Program Files\Microchip\xc8\v2.32\pic\sources\c99\common\doprnt.c: 725:             
      +                              case ' ' :
  6241                           
  6242                           
  6243                           ;C:\Program Files\Microchip\xc8\v2.32\pic\sources\c99\common\doprnt.c: 726:             
      +                                  flags |= (1 << 3);
  6244  009F  0141               	movlb	1	; select bank1
  6245  00A0  15EA               	bsf	_flags^(0+128),3
  6246  00A1  288F               	goto	l6038
  6247  00A2                     l1698:	
  6248                           ;C:\Program Files\Microchip\xc8\v2.32\pic\sources\c99\common\doprnt.c: 729:             
      +                              case '#' :
  6249                           
  6250                           
  6251                           ;C:\Program Files\Microchip\xc8\v2.32\pic\sources\c99\common\doprnt.c: 730:             
      +                                  flags |= (1 << 4);
  6252  00A2  0141               	movlb	1	; select bank1
  6253  00A3  166A               	bsf	_flags^(0+128),4
  6254  00A4  288F               	goto	l6038
  6255  00A5                     l6048:
  6256                           
  6257                           ;C:\Program Files\Microchip\xc8\v2.32\pic\sources\c99\common\doprnt.c: 734:             
      +                                  done = 1;
  6258  00A5  3001               	movlw	1
  6259  00A6  00E8               	movwf	vfpfcnvrt@done
  6260  00A7  3000               	movlw	0
  6261  00A8  00E9               	movwf	vfpfcnvrt@done+1
  6262                           
  6263                           ;C:\Program Files\Microchip\xc8\v2.32\pic\sources\c99\common\doprnt.c: 735:             
      +                                  break;
  6264  00A9  28CE               	goto	l6054
  6265  00AA                     l6052:
  6266  00AA  0857               	movf	vfpfcnvrt@fmt,w
  6267  00AB  0086               	movwf	6
  6268  00AC  0187               	clrf	7
  6269  00AD  3F40               	moviw [0]fsr1
  6270  00AE  00D9               	movwf	??_vfpfcnvrt
  6271  00AF  3F41               	moviw [1]fsr1
  6272  00B0  00DA               	movwf	??_vfpfcnvrt+1
  6273  00B1  0859               	movf	??_vfpfcnvrt,w
  6274  00B2  0084               	movwf	4
  6275  00B3  085A               	movf	??_vfpfcnvrt+1,w
  6276  00B4  0085               	movwf	5
  6277  00B5  0800               	movf	0,w	;code access
  6278  00B6  00DB               	movwf	??_vfpfcnvrt+2
  6279  00B7  01DC               	clrf	??_vfpfcnvrt+3
  6280                           
  6281                           ; Switch on 2 bytes has been partitioned into a top level switch of size 1, and 1 sub-sw
      +                          itches
  6282                           ; Switch size 1, requested type "simple"
  6283                           ; Number of cases is 1, Range of values is 0 to 0
  6284                           ; switch strategies available:
  6285                           ; Name         Instructions Cycles
  6286                           ; simple_byte            4     3 (average)
  6287                           ; direct_byte            8     6 (fixed)
  6288                           ; jumptable            260     6 (fixed)
  6289                           ;	Chosen strategy is simple_byte
  6290  00B8  085C               	movf	??_vfpfcnvrt+3,w
  6291  00B9  3A00               	xorlw	0	; case 0
  6292  00BA  1903               	skipnz
  6293  00BB  28BD               	goto	l6748
  6294  00BC  28A5               	goto	l6048
  6295  00BD                     l6748:
  6296                           
  6297                           ; Switch size 1, requested type "simple"
  6298                           ; Number of cases is 5, Range of values is 32 to 48
  6299                           ; switch strategies available:
  6300                           ; Name         Instructions Cycles
  6301                           ; simple_byte           16     9 (average)
  6302                           ; direct_byte           43     9 (fixed)
  6303                           ; jumptable            263     9 (fixed)
  6304                           ;	Chosen strategy is simple_byte
  6305  00BD  085B               	movf	??_vfpfcnvrt+2,w
  6306  00BE  3A20               	xorlw	32	; case 32
  6307  00BF  1903               	skipnz
  6308  00C0  289F               	goto	l1697
  6309  00C1  3A03               	xorlw	3	; case 35
  6310  00C2  1903               	skipnz
  6311  00C3  28A2               	goto	l1698
  6312  00C4  3A08               	xorlw	8	; case 43
  6313  00C5  1903               	skipnz
  6314  00C6  289C               	goto	l1696
  6315  00C7  3A06               	xorlw	6	; case 45
  6316  00C8  1903               	skipnz
  6317  00C9  288D               	goto	l1693
  6318  00CA  3A1D               	xorlw	29	; case 48
  6319  00CB  1903               	skipnz
  6320  00CC  2899               	goto	l1695
  6321  00CD  28A5               	goto	l6048
  6322  00CE                     l6054:
  6323                           
  6324                           ;C:\Program Files\Microchip\xc8\v2.32\pic\sources\c99\common\doprnt.c: 711:         whil
      +                          e (!done) {
  6325  00CE  0868               	movf	vfpfcnvrt@done,w
  6326  00CF  0469               	iorwf	vfpfcnvrt@done+1,w
  6327  00D0  1903               	btfsc	3,2
  6328  00D1  28D3               	goto	u3801
  6329  00D2  28D4               	goto	u3800
  6330  00D3                     u3801:
  6331  00D3  28AA               	goto	l6052
  6332  00D4                     u3800:
  6333  00D4                     l1700:
  6334                           
  6335                           ;C:\Program Files\Microchip\xc8\v2.32\pic\sources\c99\common\doprnt.c: 738:         if (
      +                          flags & (1 << 0)) {
  6336  00D4  0141               	movlb	1	; select bank1
  6337  00D5  1C6A               	btfss	_flags^(0+128),0
  6338  00D6  28D8               	goto	u3811
  6339  00D7  28D9               	goto	u3810
  6340  00D8                     u3811:
  6341  00D8  28DD               	goto	l6058
  6342  00D9                     u3810:
  6343  00D9                     l6056:
  6344                           
  6345                           ;C:\Program Files\Microchip\xc8\v2.32\pic\sources\c99\common\doprnt.c: 739:             
      +                          flags &= ~(1 << 1);
  6346  00D9  30FD               	movlw	253
  6347  00DA  05EA               	andwf	_flags^(0+128),f
  6348  00DB  30FF               	movlw	255
  6349  00DC  05EB               	andwf	(_flags+1)^(0+128),f
  6350  00DD                     l6058:
  6351                           
  6352                           ;C:\Program Files\Microchip\xc8\v2.32\pic\sources\c99\common\doprnt.c: 745:         if (
      +                          (*fmt)[0] == '*') {
  6353  00DD  0140               	movlb	0	; select bank0
  6354  00DE  0857               	movf	vfpfcnvrt@fmt,w
  6355  00DF  0086               	movwf	6
  6356  00E0  0187               	clrf	7
  6357  00E1  3F40               	moviw [0]fsr1
  6358  00E2  00D9               	movwf	??_vfpfcnvrt
  6359  00E3  3F41               	moviw [1]fsr1
  6360  00E4  00DA               	movwf	??_vfpfcnvrt+1
  6361  00E5  0859               	movf	??_vfpfcnvrt,w
  6362  00E6  0084               	movwf	4
  6363  00E7  085A               	movf	??_vfpfcnvrt+1,w
  6364  00E8  0085               	movwf	5
  6365  00E9  0012               	moviw fsr0++
  6366  00EA  3A2A               	xorlw	42
  6367  00EB  1D03               	btfss	3,2
  6368  00EC  28EE               	goto	u3821
  6369  00ED  28EF               	goto	u3820
  6370  00EE                     u3821:
  6371  00EE  2911               	goto	l6070
  6372  00EF                     u3820:
  6373  00EF                     l6060:
  6374                           
  6375                           ;C:\Program Files\Microchip\xc8\v2.32\pic\sources\c99\common\doprnt.c: 746:             
      +                          ++*fmt;
  6376  00EF  0857               	movf	vfpfcnvrt@fmt,w
  6377  00F0  0086               	movwf	6
  6378  00F1  0187               	clrf	7
  6379  00F2  3001               	movlw	1
  6380  00F3  0781               	addwf	1,f
  6381  00F4  3141               	addfsr 1,1
  6382  00F5  1803               	skipnc
  6383  00F6  0A81               	incf	1,f
  6384  00F7                     l6062:
  6385                           
  6386                           ;C:\Program Files\Microchip\xc8\v2.32\pic\sources\c99\common\doprnt.c: 747:             
      +                          width = (*(int *)__va_arg(*(int **)ap, (int)0));
  6387  00F7  0858               	movf	vfpfcnvrt@ap,w
  6388  00F8  0086               	movwf	6
  6389  00F9  0187               	clrf	7
  6390  00FA  0801               	movf	1,w
  6391  00FB  0084               	movwf	4
  6392  00FC  0185               	clrf	5
  6393  00FD  3002               	movlw	2
  6394  00FE  0781               	addwf	1,f
  6395  00FF  3F00               	moviw [0]fsr0
  6396  0100  0142               	movlb	2	; select bank2
  6397  0101  00EB               	movwf	_width^(0+256)
  6398  0102  3F01               	moviw [1]fsr0
  6399  0103  00EC               	movwf	(_width+1)^(0+256)
  6400  0104                     l6064:
  6401                           
  6402                           ;C:\Program Files\Microchip\xc8\v2.32\pic\sources\c99\common\doprnt.c: 748:             
      +                          if (width < 0) {
  6403  0104  1FEC               	btfss	(_width+1)^(0+256),7
  6404  0105  2907               	goto	u3831
  6405  0106  2908               	goto	u3830
  6406  0107                     u3831:
  6407  0107  2953               	goto	l6080
  6408  0108                     u3830:
  6409  0108                     l6066:
  6410                           
  6411                           ;C:\Program Files\Microchip\xc8\v2.32\pic\sources\c99\common\doprnt.c: 749:             
      +                              flags |= (1 << 0);
  6412  0108  0141               	movlb	1	; select bank1
  6413  0109  146A               	bsf	_flags^(0+128),0
  6414  010A                     l6068:
  6415                           
  6416                           ;C:\Program Files\Microchip\xc8\v2.32\pic\sources\c99\common\doprnt.c: 750:             
      +                              width = -width;
  6417  010A  0142               	movlb	2	; select bank2
  6418  010B  09EB               	comf	_width^(0+256),f
  6419  010C  09EC               	comf	(_width+1)^(0+256),f
  6420  010D  0AEB               	incf	_width^(0+256),f
  6421  010E  1903               	skipnz
  6422  010F  0AEC               	incf	(_width+1)^(0+256),f
  6423  0110  2953               	goto	l6080
  6424  0111                     l6070:
  6425                           
  6426                           ;C:\Program Files\Microchip\xc8\v2.32\pic\sources\c99\common\doprnt.c: 753:             
      +                          width = atoi(*fmt);
  6427  0111  0857               	movf	vfpfcnvrt@fmt,w
  6428  0112  0086               	movwf	6
  6429  0113  0187               	clrf	7
  6430  0114  3F40               	moviw [0]fsr1
  6431  0115  00F7               	movwf	atoi@s
  6432  0116  3F41               	moviw [1]fsr1
  6433  0117  00F8               	movwf	atoi@s+1
  6434  0118  3184  2449  3180   	fcall	_atoi
  6435  011B  0878               	movf	?_atoi+1,w
  6436  011C  0142               	movlb	2	; select bank2
  6437  011D  00EC               	movwf	(_width+1)^(0+256)
  6438  011E  0877               	movf	?_atoi,w
  6439  011F  00EB               	movwf	_width^(0+256)
  6440                           
  6441                           ;C:\Program Files\Microchip\xc8\v2.32\pic\sources\c99\common\doprnt.c: 754:             
      +                          while ((0 ? isdigit((*fmt)[0]) : ((unsigned)((*fmt)[0])-'0') < 10)) {
  6442  0120  2929               	goto	l6074
  6443  0121                     l6072:
  6444                           
  6445                           ;C:\Program Files\Microchip\xc8\v2.32\pic\sources\c99\common\doprnt.c: 755:             
      +                              ++*fmt;
  6446  0121  0857               	movf	vfpfcnvrt@fmt,w
  6447  0122  0086               	movwf	6
  6448  0123  0187               	clrf	7
  6449  0124  3001               	movlw	1
  6450  0125  0781               	addwf	1,f
  6451  0126  3141               	addfsr 1,1
  6452  0127  1803               	skipnc
  6453  0128  0A81               	incf	1,f
  6454  0129                     l6074:
  6455  0129  0140               	movlb	0	; select bank0
  6456  012A  0857               	movf	vfpfcnvrt@fmt,w
  6457  012B  0086               	movwf	6
  6458  012C  0187               	clrf	7
  6459  012D  3F40               	moviw [0]fsr1
  6460  012E  00D9               	movwf	??_vfpfcnvrt
  6461  012F  3F41               	moviw [1]fsr1
  6462  0130  00DA               	movwf	??_vfpfcnvrt+1
  6463  0131  0859               	movf	??_vfpfcnvrt,w
  6464  0132  0084               	movwf	4
  6465  0133  085A               	movf	??_vfpfcnvrt+1,w
  6466  0134  0085               	movwf	5
  6467  0135  0800               	movf	0,w	;code access
  6468  0136  3ED0               	addlw	208
  6469  0137  00DB               	movwf	??_vfpfcnvrt+2
  6470  0138  30FF               	movlw	255
  6471  0139  1803               	skipnc
  6472  013A  3000               	movlw	0
  6473  013B  00DC               	movwf	??_vfpfcnvrt+3
  6474  013C  3000               	movlw	0
  6475  013D  025C               	subwf	??_vfpfcnvrt+3,w
  6476  013E  300A               	movlw	10
  6477  013F  1903               	skipnz
  6478  0140  025B               	subwf	??_vfpfcnvrt+2,w
  6479  0141  1C03               	skipc
  6480  0142  2944               	goto	u3841
  6481  0143  2946               	goto	u3840
  6482  0144                     u3841:
  6483  0144  3001               	movlw	1
  6484  0145  2947               	goto	u3850
  6485  0146                     u3840:
  6486  0146  3000               	movlw	0
  6487  0147                     u3850:
  6488  0147  00DD               	movwf	??_vfpfcnvrt+4
  6489  0148  01DE               	clrf	??_vfpfcnvrt+5
  6490  0149  085D               	movf	??_vfpfcnvrt+4,w
  6491  014A  00EA               	movwf	_vfpfcnvrt$2112
  6492  014B  085E               	movf	??_vfpfcnvrt+5,w
  6493  014C  00EB               	movwf	_vfpfcnvrt$2112+1
  6494  014D                     l6078:
  6495  014D  086A               	movf	_vfpfcnvrt$2112,w
  6496  014E  046B               	iorwf	_vfpfcnvrt$2112+1,w
  6497  014F  1D03               	btfss	3,2
  6498  0150  2952               	goto	u3861
  6499  0151  2953               	goto	u3860
  6500  0152                     u3861:
  6501  0152  2921               	goto	l6072
  6502  0153                     u3860:
  6503  0153                     l6080:
  6504                           
  6505                           ;C:\Program Files\Microchip\xc8\v2.32\pic\sources\c99\common\doprnt.c: 1296:         if 
      +                          ((*fmt[0] == 'x') || (*fmt[0] == 'X')) {
  6506  0153  0140               	movlb	0	; select bank0
  6507  0154  0857               	movf	vfpfcnvrt@fmt,w
  6508  0155  0086               	movwf	6
  6509  0156  0187               	clrf	7
  6510  0157  3F40               	moviw [0]fsr1
  6511  0158  00D9               	movwf	??_vfpfcnvrt
  6512  0159  3F41               	moviw [1]fsr1
  6513  015A  00DA               	movwf	??_vfpfcnvrt+1
  6514  015B  0859               	movf	??_vfpfcnvrt,w
  6515  015C  0084               	movwf	4
  6516  015D  085A               	movf	??_vfpfcnvrt+1,w
  6517  015E  0085               	movwf	5
  6518  015F  0012               	moviw fsr0++
  6519  0160  3A78               	xorlw	120
  6520  0161  1903               	btfsc	3,2
  6521  0162  2964               	goto	u3871
  6522  0163  2965               	goto	u3870
  6523  0164                     u3871:
  6524  0164  2976               	goto	l6084
  6525  0165                     u3870:
  6526  0165                     l6082:
  6527  0165  0857               	movf	vfpfcnvrt@fmt,w
  6528  0166  0086               	movwf	6
  6529  0167  0187               	clrf	7
  6530  0168  3F40               	moviw [0]fsr1
  6531  0169  00D9               	movwf	??_vfpfcnvrt
  6532  016A  3F41               	moviw [1]fsr1
  6533  016B  00DA               	movwf	??_vfpfcnvrt+1
  6534  016C  0859               	movf	??_vfpfcnvrt,w
  6535  016D  0084               	movwf	4
  6536  016E  085A               	movf	??_vfpfcnvrt+1,w
  6537  016F  0085               	movwf	5
  6538  0170  0012               	moviw fsr0++
  6539  0171  3A58               	xorlw	88
  6540  0172  1D03               	btfss	3,2
  6541  0173  2975               	goto	u3881
  6542  0174  2976               	goto	u3880
  6543  0175                     u3881:
  6544  0175  29BD               	goto	l6094
  6545  0176                     u3880:
  6546  0176                     l6084:
  6547                           
  6548                           ;C:\Program Files\Microchip\xc8\v2.32\pic\sources\c99\common\doprnt.c: 1298:            
      +                           c = (*fmt)[0];
  6549  0176  0857               	movf	vfpfcnvrt@fmt,w
  6550  0177  0086               	movwf	6
  6551  0178  0187               	clrf	7
  6552  0179  3F40               	moviw [0]fsr1
  6553  017A  00D9               	movwf	??_vfpfcnvrt
  6554  017B  3F41               	moviw [1]fsr1
  6555  017C  00DA               	movwf	??_vfpfcnvrt+1
  6556  017D  0859               	movf	??_vfpfcnvrt,w
  6557  017E  0084               	movwf	4
  6558  017F  085A               	movf	??_vfpfcnvrt+1,w
  6559  0180  0085               	movwf	5
  6560  0181  0800               	movf	0,w	;code access
  6561  0182  00DB               	movwf	??_vfpfcnvrt+2
  6562  0183  085B               	movf	??_vfpfcnvrt+2,w
  6563  0184  00E7               	movwf	vfpfcnvrt@c
  6564  0185                     l6086:
  6565                           
  6566                           ;C:\Program Files\Microchip\xc8\v2.32\pic\sources\c99\common\doprnt.c: 1299:            
      +                           ++*fmt;
  6567  0185  0857               	movf	vfpfcnvrt@fmt,w
  6568  0186  0086               	movwf	6
  6569  0187  0187               	clrf	7
  6570  0188  3001               	movlw	1
  6571  0189  0781               	addwf	1,f
  6572  018A  3141               	addfsr 1,1
  6573  018B  1803               	skipnc
  6574  018C  0A81               	incf	1,f
  6575  018D                     l6088:
  6576                           
  6577                           ;C:\Program Files\Microchip\xc8\v2.32\pic\sources\c99\common\doprnt.c: 1300:            
      +                           llu = (unsigned long long)(*(unsigned int *)__va_arg(*(unsigned int **)ap, (unsigned in
      +                          t)0));
  6578  018D  0858               	movf	vfpfcnvrt@ap,w
  6579  018E  0086               	movwf	6
  6580  018F  0187               	clrf	7
  6581  0190  0801               	movf	1,w
  6582  0191  0084               	movwf	4
  6583  0192  0185               	clrf	5
  6584  0193  3002               	movlw	2
  6585  0194  0781               	addwf	1,f
  6586  0195  3F00               	moviw [0]fsr0
  6587  0196  00DF               	movwf	vfpfcnvrt@llu
  6588  0197  3F01               	moviw [1]fsr0
  6589  0198  00E0               	movwf	vfpfcnvrt@llu+1
  6590  0199  01E1               	clrf	vfpfcnvrt@llu+2
  6591  019A  01E2               	clrf	vfpfcnvrt@llu+3
  6592  019B  01E3               	clrf	vfpfcnvrt@llu+4
  6593  019C  01E4               	clrf	vfpfcnvrt@llu+5
  6594  019D  01E5               	clrf	vfpfcnvrt@llu+6
  6595  019E  01E6               	clrf	vfpfcnvrt@llu+7
  6596  019F                     l6090:
  6597                           
  6598                           ;C:\Program Files\Microchip\xc8\v2.32\pic\sources\c99\common\doprnt.c: 1302:            
      +                           return xtoa(fp, llu, c);
  6599  019F  085F               	movf	vfpfcnvrt@llu,w
  6600  01A0  00B1               	movwf	xtoa@d
  6601  01A1  0860               	movf	vfpfcnvrt@llu+1,w
  6602  01A2  00B2               	movwf	xtoa@d+1
  6603  01A3  0861               	movf	vfpfcnvrt@llu+2,w
  6604  01A4  00B3               	movwf	xtoa@d+2
  6605  01A5  0862               	movf	vfpfcnvrt@llu+3,w
  6606  01A6  00B4               	movwf	xtoa@d+3
  6607  01A7  0863               	movf	vfpfcnvrt@llu+4,w
  6608  01A8  00B5               	movwf	xtoa@d+4
  6609  01A9  0864               	movf	vfpfcnvrt@llu+5,w
  6610  01AA  00B6               	movwf	xtoa@d+5
  6611  01AB  0865               	movf	vfpfcnvrt@llu+6,w
  6612  01AC  00B7               	movwf	xtoa@d+6
  6613  01AD  0866               	movf	vfpfcnvrt@llu+7,w
  6614  01AE  00B8               	movwf	xtoa@d+7
  6615  01AF  0867               	movf	vfpfcnvrt@c,w
  6616  01B0  00D9               	movwf	??_vfpfcnvrt
  6617  01B1  0859               	movf	??_vfpfcnvrt,w
  6618  01B2  00B9               	movwf	xtoa@x
  6619  01B3  086C               	movf	vfpfcnvrt@fp,w
  6620  01B4  3182  2216  3180   	fcall	_xtoa
  6621  01B7  0140               	movlb	0	; select bank0
  6622  01B8  0832               	movf	?_xtoa+1,w
  6623  01B9  00D8               	movwf	?_vfpfcnvrt+1
  6624  01BA  0831               	movf	?_xtoa,w
  6625  01BB  00D7               	movwf	?_vfpfcnvrt
  6626  01BC  2A15               	goto	l1715
  6627  01BD                     l6094:
  6628                           
  6629                           ;C:\Program Files\Microchip\xc8\v2.32\pic\sources\c99\common\doprnt.c: 1372:         if 
      +                          ((*fmt)[0] == '%') {
  6630  01BD  0857               	movf	vfpfcnvrt@fmt,w
  6631  01BE  0086               	movwf	6
  6632  01BF  0187               	clrf	7
  6633  01C0  3F40               	moviw [0]fsr1
  6634  01C1  00D9               	movwf	??_vfpfcnvrt
  6635  01C2  3F41               	moviw [1]fsr1
  6636  01C3  00DA               	movwf	??_vfpfcnvrt+1
  6637  01C4  0859               	movf	??_vfpfcnvrt,w
  6638  01C5  0084               	movwf	4
  6639  01C6  085A               	movf	??_vfpfcnvrt+1,w
  6640  01C7  0085               	movwf	5
  6641  01C8  0012               	moviw fsr0++
  6642  01C9  3A25               	xorlw	37
  6643  01CA  1D03               	btfss	3,2
  6644  01CB  29CD               	goto	u3891
  6645  01CC  29CE               	goto	u3890
  6646  01CD                     u3891:
  6647  01CD  29E7               	goto	l6104
  6648  01CE                     u3890:
  6649  01CE                     l6096:
  6650                           
  6651                           ;C:\Program Files\Microchip\xc8\v2.32\pic\sources\c99\common\doprnt.c: 1373:            
      +                           ++*fmt;
  6652  01CE  0857               	movf	vfpfcnvrt@fmt,w
  6653  01CF  0086               	movwf	6
  6654  01D0  0187               	clrf	7
  6655  01D1  3001               	movlw	1
  6656  01D2  0781               	addwf	1,f
  6657  01D3  3141               	addfsr 1,1
  6658  01D4  1803               	skipnc
  6659  01D5  0A81               	incf	1,f
  6660  01D6                     l6098:
  6661                           
  6662                           ;C:\Program Files\Microchip\xc8\v2.32\pic\sources\c99\common\doprnt.c: 1374:            
      +                           fputc((int)'%', fp);
  6663  01D6  3025               	movlw	37
  6664  01D7  00F4               	movwf	fputc@c
  6665  01D8  3000               	movlw	0
  6666  01D9  00F5               	movwf	fputc@c+1
  6667  01DA  086C               	movf	vfpfcnvrt@fp,w
  6668  01DB  00D9               	movwf	??_vfpfcnvrt
  6669  01DC  0859               	movf	??_vfpfcnvrt,w
  6670  01DD  00F6               	movwf	fputc@fp
  6671  01DE  3186  26E0  3180   	fcall	_fputc
  6672  01E1                     l6100:
  6673                           
  6674                           ;C:\Program Files\Microchip\xc8\v2.32\pic\sources\c99\common\doprnt.c: 1375:            
      +                           return 1;
  6675  01E1  3001               	movlw	1
  6676  01E2  0140               	movlb	0	; select bank0
  6677  01E3  00D7               	movwf	?_vfpfcnvrt
  6678  01E4  3000               	movlw	0
  6679  01E5  00D8               	movwf	?_vfpfcnvrt+1
  6680  01E6  2A15               	goto	l1715
  6681  01E7                     l6104:
  6682                           
  6683                           ;C:\Program Files\Microchip\xc8\v2.32\pic\sources\c99\common\doprnt.c: 1379:         ++*
      +                          fmt;
  6684  01E7  0857               	movf	vfpfcnvrt@fmt,w
  6685  01E8  0086               	movwf	6
  6686  01E9  0187               	clrf	7
  6687  01EA  3001               	movlw	1
  6688  01EB  0781               	addwf	1,f
  6689  01EC  3141               	addfsr 1,1
  6690  01ED  1803               	skipnc
  6691  01EE  0A81               	incf	1,f
  6692  01EF                     l6106:
  6693                           
  6694                           ;C:\Program Files\Microchip\xc8\v2.32\pic\sources\c99\common\doprnt.c: 1380:         ret
      +                          urn 0;
  6695  01EF  01D7               	clrf	?_vfpfcnvrt
  6696  01F0  01D8               	clrf	?_vfpfcnvrt+1
  6697  01F1  2A15               	goto	l1715
  6698  01F2                     l6110:
  6699                           
  6700                           ;C:\Program Files\Microchip\xc8\v2.32\pic\sources\c99\common\doprnt.c: 1384:     fputc((
      +                          int)(*fmt)[0], fp);
  6701  01F2  0857               	movf	vfpfcnvrt@fmt,w
  6702  01F3  0086               	movwf	6
  6703  01F4  0187               	clrf	7
  6704  01F5  3F40               	moviw [0]fsr1
  6705  01F6  00D9               	movwf	??_vfpfcnvrt
  6706  01F7  3F41               	moviw [1]fsr1
  6707  01F8  00DA               	movwf	??_vfpfcnvrt+1
  6708  01F9  0859               	movf	??_vfpfcnvrt,w
  6709  01FA  0084               	movwf	4
  6710  01FB  085A               	movf	??_vfpfcnvrt+1,w
  6711  01FC  0085               	movwf	5
  6712  01FD  0800               	movf	0,w	;code access
  6713  01FE  00DB               	movwf	??_vfpfcnvrt+2
  6714  01FF  01DC               	clrf	??_vfpfcnvrt+3
  6715  0200  085B               	movf	??_vfpfcnvrt+2,w
  6716  0201  00F4               	movwf	fputc@c
  6717  0202  085C               	movf	??_vfpfcnvrt+3,w
  6718  0203  00F5               	movwf	fputc@c+1
  6719  0204  086C               	movf	vfpfcnvrt@fp,w
  6720  0205  00DD               	movwf	??_vfpfcnvrt+4
  6721  0206  085D               	movf	??_vfpfcnvrt+4,w
  6722  0207  00F6               	movwf	fputc@fp
  6723  0208  3186  26E0  3180   	fcall	_fputc
  6724  020B                     l6112:
  6725                           
  6726                           ;C:\Program Files\Microchip\xc8\v2.32\pic\sources\c99\common\doprnt.c: 1385:     ++*fmt;
  6727  020B  0140               	movlb	0	; select bank0
  6728  020C  0857               	movf	vfpfcnvrt@fmt,w
  6729  020D  0086               	movwf	6
  6730  020E  0187               	clrf	7
  6731  020F  3001               	movlw	1
  6732  0210  0781               	addwf	1,f
  6733  0211  3141               	addfsr 1,1
  6734  0212  1803               	skipnc
  6735  0213  0A81               	incf	1,f
  6736  0214  29E1               	goto	l6100
  6737  0215                     l1715:
  6738  0215  0008               	return
  6739  0216                     __end_of_vfpfcnvrt:
  6740                           
  6741                           	psect	text19
  6742  0216                     __ptext19:	
  6743 ;; *************** function _xtoa *****************
  6744 ;; Defined at:
  6745 ;;		line 645 in file "C:\Program Files\Microchip\xc8\v2.32\pic\sources\c99\common\doprnt.c"
  6746 ;; Parameters:    Size  Location     Type
  6747 ;;  fp              1    wreg     PTR struct _IO_FILE
  6748 ;;		 -> NULL(0), 
  6749 ;;  d               8   17[BANK0 ] unsigned long long 
  6750 ;;  x               1   25[BANK0 ] unsigned char 
  6751 ;; Auto vars:     Size  Location     Type
  6752 ;;  fp              1   38[BANK0 ] PTR struct _IO_FILE
  6753 ;;		 -> NULL(0), 
  6754 ;;  n               8   43[BANK0 ] unsigned long long 
  6755 ;;  c               2   53[BANK0 ] int 
  6756 ;;  i               2   51[BANK0 ] int 
  6757 ;;  w               2   41[BANK0 ] int 
  6758 ;;  p               2   39[BANK0 ] int 
  6759 ;; Return value:  Size  Location     Type
  6760 ;;                  2   17[BANK0 ] int 
  6761 ;; Registers used:
  6762 ;;		wreg, fsr1l, fsr1h, status,2, status,0, pclath, cstack
  6763 ;; Tracked objects:
  6764 ;;		On entry : 0/0
  6765 ;;		On exit  : 0/0
  6766 ;;		Unchanged: 0/0
  6767 ;; Data sizes:     COMMON   BANK0   BANK1   BANK2   BANK3   BANK4   BANK5   BANK6   BANK7   BANK8   BANK9  BANK10  BANK1
      +1  BANK12  BANK13  BANK14  BANK15  BANK16  BANK17  BANK18  BANK19  BANK20  BANK21  BANK22  BANK23  BANK24  BANK25
  6768 ;;      Params:         0       9       0       0       0       0       0       0       0       0       0       0       
      +0       0       0       0       0       0       0       0       0       0       0       0       0       0       0
  6769 ;;      Locals:         0      21       0       0       0       0       0       0       0       0       0       0       
      +0       0       0       0       0       0       0       0       0       0       0       0       0       0       0
  6770 ;;      Temps:          0       8       0       0       0       0       0       0       0       0       0       0       
      +0       0       0       0       0       0       0       0       0       0       0       0       0       0       0
  6771 ;;      Totals:         0      38       0       0       0       0       0       0       0       0       0       0       
      +0       0       0       0       0       0       0       0       0       0       0       0       0       0       0
  6772 ;;Total ram usage:       38 bytes
  6773 ;; Hardware stack levels used: 1
  6774 ;; Hardware stack levels required when called: 9
  6775 ;; This function calls:
  6776 ;;		_isalpha
  6777 ;;		_isupper
  6778 ;;		_pad
  6779 ;;		_toupper
  6780 ;; This function is called by:
  6781 ;;		_vfpfcnvrt
  6782 ;; This function uses a non-reentrant model
  6783 ;;
  6784                           
  6785                           
  6786                           ;psect for function _xtoa
  6787  0216                     _xtoa:
  6788                           
  6789                           ;incstack = 0
  6790                           ; Regs used in _xtoa: [wreg+fsr1l+fsr1h+status,2+status,0+pclath+cstack]
  6791                           ;xtoa@fp stored from wreg
  6792  0216  0140               	movlb	0	; select bank0
  6793  0217  00C6               	movwf	xtoa@fp
  6794  0218                     l5882:
  6795                           
  6796                           ;C:\Program Files\Microchip\xc8\v2.32\pic\sources\c99\common\doprnt.c: 645: static int x
      +                          toa(FILE *fp, unsigned long long d, char x);C:\Program Files\Microchip\xc8\v2.32\pic\sou
      +                          rces\c99\common\doprnt.c: 646: {;C:\Program Files\Microchip\xc8\v2.32\pic\sources\c99\co
      +                          mmon\doprnt.c: 647:     int c, i, p, w;;C:\Program Files\Microchip\xc8\v2.32\pic\sources
      +                          \c99\common\doprnt.c: 648:     unsigned long long n;;C:\Program Files\Microchip\xc8\v2.3
      +                          2\pic\sources\c99\common\doprnt.c: 651:     if (!(prec < 0)) {
  6797  0218  0141               	movlb	1	; select bank1
  6798  0219  1BE9               	btfsc	(_prec+1)^(0+128),7
  6799  021A  2A1C               	goto	u3521
  6800  021B  2A1D               	goto	u3520
  6801  021C                     u3521:
  6802  021C  2A21               	goto	l1659
  6803  021D                     u3520:
  6804  021D                     l5884:
  6805                           
  6806                           ;C:\Program Files\Microchip\xc8\v2.32\pic\sources\c99\common\doprnt.c: 652:         flag
      +                          s &= ~(1 << 1);
  6807  021D  30FD               	movlw	253
  6808  021E  05EA               	andwf	_flags^(0+128),f
  6809  021F  30FF               	movlw	255
  6810  0220  05EB               	andwf	(_flags+1)^(0+128),f
  6811  0221                     l1659:	
  6812                           ;C:\Program Files\Microchip\xc8\v2.32\pic\sources\c99\common\doprnt.c: 653:     }
  6813                           
  6814                           
  6815                           ;C:\Program Files\Microchip\xc8\v2.32\pic\sources\c99\common\doprnt.c: 654:     p = (0 <
      +                           prec) ? prec : 1;
  6816  0221  0869               	movf	(_prec+1)^(0+128),w
  6817  0222  3A80               	xorlw	128
  6818  0223  0140               	movlb	0	; select bank0
  6819  0224  00BA               	movwf	??_xtoa
  6820  0225  3080               	movlw	128
  6821  0226  023A               	subwf	??_xtoa,w
  6822  0227  1D03               	skipz
  6823  0228  2A2C               	goto	u3535
  6824  0229  3001               	movlw	1
  6825  022A  0141               	movlb	1	; select bank1
  6826  022B  0268               	subwf	_prec^(0+128),w
  6827  022C                     u3535:
  6828  022C  1803               	skipnc
  6829  022D  2A2F               	goto	u3531
  6830  022E  2A30               	goto	u3530
  6831  022F                     u3531:
  6832  022F  2A36               	goto	l5888
  6833  0230                     u3530:
  6834  0230                     l5886:
  6835  0230  3001               	movlw	1
  6836  0231  0140               	movlb	0	; select bank0
  6837  0232  00C7               	movwf	xtoa@p
  6838  0233  3000               	movlw	0
  6839  0234  00C8               	movwf	xtoa@p+1
  6840  0235  2A3E               	goto	l1663
  6841  0236                     l5888:
  6842  0236  0141               	movlb	1	; select bank1
  6843  0237  0869               	movf	(_prec+1)^(0+128),w
  6844  0238  0140               	movlb	0	; select bank0
  6845  0239  00C8               	movwf	xtoa@p+1
  6846  023A  0141               	movlb	1	; select bank1
  6847  023B  0868               	movf	_prec^(0+128),w
  6848  023C  0140               	movlb	0	; select bank0
  6849  023D  00C7               	movwf	xtoa@p
  6850  023E                     l1663:
  6851                           
  6852                           ;C:\Program Files\Microchip\xc8\v2.32\pic\sources\c99\common\doprnt.c: 655:     w = widt
      +                          h;
  6853  023E  0142               	movlb	2	; select bank2
  6854  023F  086C               	movf	(_width+1)^(0+256),w
  6855  0240  0140               	movlb	0	; select bank0
  6856  0241  00CA               	movwf	xtoa@w+1
  6857  0242  0142               	movlb	2	; select bank2
  6858  0243  086B               	movf	_width^(0+256),w
  6859  0244  0140               	movlb	0	; select bank0
  6860  0245  00C9               	movwf	xtoa@w
  6861  0246                     l5890:
  6862                           
  6863                           ;C:\Program Files\Microchip\xc8\v2.32\pic\sources\c99\common\doprnt.c: 656:     if (flag
      +                          s & (1 << 4)) {
  6864  0246  0141               	movlb	1	; select bank1
  6865  0247  1E6A               	btfss	_flags^(0+128),4
  6866  0248  2A4A               	goto	u3541
  6867  0249  2A4B               	goto	u3540
  6868  024A                     u3541:
  6869  024A  2A50               	goto	l5894
  6870  024B                     u3540:
  6871  024B                     l5892:
  6872                           
  6873                           ;C:\Program Files\Microchip\xc8\v2.32\pic\sources\c99\common\doprnt.c: 657:         w -=
      +                           2;
  6874  024B  30FE               	movlw	254
  6875  024C  0140               	movlb	0	; select bank0
  6876  024D  07C9               	addwf	xtoa@w,f
  6877  024E  30FF               	movlw	255
  6878  024F  3DCA               	addwfc	xtoa@w+1,f
  6879  0250                     l5894:
  6880                           
  6881                           ;C:\Program Files\Microchip\xc8\v2.32\pic\sources\c99\common\doprnt.c: 661:     n = d;
  6882  0250  0140               	movlb	0	; select bank0
  6883  0251  0831               	movf	xtoa@d,w
  6884  0252  00CB               	movwf	xtoa@n
  6885  0253  0832               	movf	xtoa@d+1,w
  6886  0254  00CC               	movwf	xtoa@n+1
  6887  0255  0833               	movf	xtoa@d+2,w
  6888  0256  00CD               	movwf	xtoa@n+2
  6889  0257  0834               	movf	xtoa@d+3,w
  6890  0258  00CE               	movwf	xtoa@n+3
  6891  0259  0835               	movf	xtoa@d+4,w
  6892  025A  00CF               	movwf	xtoa@n+4
  6893  025B  0836               	movf	xtoa@d+5,w
  6894  025C  00D0               	movwf	xtoa@n+5
  6895  025D  0837               	movf	xtoa@d+6,w
  6896  025E  00D1               	movwf	xtoa@n+6
  6897  025F  0838               	movf	xtoa@d+7,w
  6898  0260  00D2               	movwf	xtoa@n+7
  6899                           
  6900                           ;C:\Program Files\Microchip\xc8\v2.32\pic\sources\c99\common\doprnt.c: 662:     i = size
      +                          of(dbuf) - 1;
  6901  0261  301F               	movlw	31
  6902  0262  00D3               	movwf	xtoa@i
  6903  0263  3000               	movlw	0
  6904  0264  00D4               	movwf	xtoa@i+1
  6905  0265                     l5896:
  6906                           
  6907                           ;C:\Program Files\Microchip\xc8\v2.32\pic\sources\c99\common\doprnt.c: 663:     dbuf[i] 
      +                          = '\0';
  6908  0265  0144               	movlb	4	; select bank4
  6909  0266  01E5               	clrf	(_dbuf^(0+512)+31)
  6910                           
  6911                           ;C:\Program Files\Microchip\xc8\v2.32\pic\sources\c99\common\doprnt.c: 664:     while (!
      +                          (i < 2) && (n || (0 < p) || ((0 < w) && (flags & (1 << 1))))) {
  6912  0267  2B1E               	goto	l5926
  6913  0268                     l5898:
  6914                           
  6915                           ;C:\Program Files\Microchip\xc8\v2.32\pic\sources\c99\common\doprnt.c: 665:         --i;
  6916  0268  30FF               	movlw	255
  6917  0269  0140               	movlb	0	; select bank0
  6918  026A  07D3               	addwf	xtoa@i,f
  6919  026B  30FF               	movlw	255
  6920  026C  3DD4               	addwfc	xtoa@i+1,f
  6921                           
  6922                           ;C:\Program Files\Microchip\xc8\v2.32\pic\sources\c99\common\doprnt.c: 666:         c = 
      +                          n & 0x0f;
  6923  026D  300F               	movlw	15
  6924  026E  054B               	andwf	xtoa@n,w
  6925  026F  00D5               	movwf	xtoa@c
  6926  0270  3000               	movlw	0
  6927  0271  054C               	andwf	xtoa@n+1,w
  6928  0272  00D6               	movwf	xtoa@c+1
  6929                           
  6930                           ;C:\Program Files\Microchip\xc8\v2.32\pic\sources\c99\common\doprnt.c: 667:         c = 
      +                          (c < 10) ? (int)'0' + c : (int)'a' + (c - 10);
  6931  0273  0856               	movf	xtoa@c+1,w
  6932  0274  3A80               	xorlw	128
  6933  0275  00BA               	movwf	??_xtoa
  6934  0276  3080               	movlw	128
  6935  0277  023A               	subwf	??_xtoa,w
  6936  0278  1D03               	skipz
  6937  0279  2A7C               	goto	u3555
  6938  027A  300A               	movlw	10
  6939  027B  0255               	subwf	xtoa@c,w
  6940  027C                     u3555:
  6941  027C  1C03               	skipc
  6942  027D  2A7F               	goto	u3551
  6943  027E  2A80               	goto	u3550
  6944  027F                     u3551:
  6945  027F  2A88               	goto	l5902
  6946  0280                     u3550:
  6947  0280                     l5900:
  6948  0280  0140               	movlb	0	; select bank0
  6949  0281  0855               	movf	xtoa@c,w
  6950  0282  3E57               	addlw	87
  6951  0283  00D5               	movwf	xtoa@c
  6952  0284  3000               	movlw	0
  6953  0285  3D56               	addwfc	xtoa@c+1,w
  6954  0286  00D6               	movwf	xtoa@c+1
  6955  0287  2A8F               	goto	l5904
  6956  0288                     l5902:
  6957  0288  0140               	movlb	0	; select bank0
  6958  0289  0855               	movf	xtoa@c,w
  6959  028A  3E30               	addlw	48
  6960  028B  00D5               	movwf	xtoa@c
  6961  028C  3000               	movlw	0
  6962  028D  3D56               	addwfc	xtoa@c+1,w
  6963  028E  00D6               	movwf	xtoa@c+1
  6964  028F                     l5904:
  6965  028F  0839               	movf	xtoa@x,w
  6966  0290  3EBF               	addlw	191
  6967  0291  00BA               	movwf	??_xtoa
  6968  0292  30FF               	movlw	255
  6969  0293  1803               	skipnc
  6970  0294  3000               	movlw	0
  6971  0295  00BB               	movwf	??_xtoa+1
  6972  0296  3000               	movlw	0
  6973  0297  023B               	subwf	??_xtoa+1,w
  6974  0298  301A               	movlw	26
  6975  0299  1903               	skipnz
  6976  029A  023A               	subwf	??_xtoa,w
  6977  029B  1C03               	skipc
  6978  029C  2A9E               	goto	u3561
  6979  029D  2AA0               	goto	u3560
  6980  029E                     u3561:
  6981  029E  3001               	movlw	1
  6982  029F  2AA1               	goto	u3570
  6983  02A0                     u3560:
  6984  02A0  3000               	movlw	0
  6985  02A1                     u3570:
  6986  02A1  00BC               	movwf	??_xtoa+2
  6987  02A2  01BD               	clrf	??_xtoa+3
  6988  02A3  083C               	movf	??_xtoa+2,w
  6989  02A4  00C2               	movwf	_xtoa$2096
  6990  02A5  083D               	movf	??_xtoa+3,w
  6991  02A6  00C3               	movwf	_xtoa$2096+1
  6992  02A7                     l5908:
  6993  02A7  0842               	movf	_xtoa$2096,w
  6994  02A8  0443               	iorwf	_xtoa$2096+1,w
  6995  02A9  1903               	btfsc	3,2
  6996  02AA  2AAC               	goto	u3581
  6997  02AB  2AAD               	goto	u3580
  6998  02AC                     u3581:
  6999  02AC  2ADC               	goto	l5918
  7000  02AD                     u3580:
  7001  02AD                     l5910:
  7002  02AD  3020               	movlw	32
  7003  02AE  0455               	iorwf	xtoa@c,w
  7004  02AF  00BA               	movwf	??_xtoa
  7005  02B0  3000               	movlw	0
  7006  02B1  0456               	iorwf	xtoa@c+1,w
  7007  02B2  00BB               	movwf	??_xtoa+1
  7008  02B3  083A               	movf	??_xtoa,w
  7009  02B4  3E9F               	addlw	159
  7010  02B5  00BC               	movwf	??_xtoa+2
  7011  02B6  30FF               	movlw	255
  7012  02B7  3D3B               	addwfc	??_xtoa+1,w
  7013  02B8  00BD               	movwf	??_xtoa+3
  7014  02B9  3000               	movlw	0
  7015  02BA  023D               	subwf	??_xtoa+3,w
  7016  02BB  301A               	movlw	26
  7017  02BC  1903               	skipnz
  7018  02BD  023C               	subwf	??_xtoa+2,w
  7019  02BE  1C03               	skipc
  7020  02BF  2AC1               	goto	u3591
  7021  02C0  2AC3               	goto	u3590
  7022  02C1                     u3591:
  7023  02C1  3001               	movlw	1
  7024  02C2  2AC4               	goto	u3600
  7025  02C3                     u3590:
  7026  02C3  3000               	movlw	0
  7027  02C4                     u3600:
  7028  02C4  00BE               	movwf	??_xtoa+4
  7029  02C5  01BF               	clrf	??_xtoa+5
  7030  02C6  083E               	movf	??_xtoa+4,w
  7031  02C7  00C4               	movwf	_xtoa$2097
  7032  02C8  083F               	movf	??_xtoa+5,w
  7033  02C9  00C5               	movwf	_xtoa$2097+1
  7034  02CA                     l5914:
  7035  02CA  0844               	movf	_xtoa$2097,w
  7036  02CB  0445               	iorwf	_xtoa$2097+1,w
  7037  02CC  1903               	btfsc	3,2
  7038  02CD  2ACF               	goto	u3611
  7039  02CE  2AD0               	goto	u3610
  7040  02CF                     u3611:
  7041  02CF  2ADC               	goto	l5918
  7042  02D0                     u3610:
  7043  02D0                     l5916:
  7044                           
  7045                           ;C:\Program Files\Microchip\xc8\v2.32\pic\sources\c99\common\doprnt.c: 669:             
      +                          c = toupper(c);
  7046  02D0  0856               	movf	xtoa@c+1,w
  7047  02D1  00F8               	movwf	toupper@c+1
  7048  02D2  0855               	movf	xtoa@c,w
  7049  02D3  00F7               	movwf	toupper@c
  7050  02D4  318D  25CF  3182   	fcall	_toupper
  7051  02D7  0878               	movf	?_toupper+1,w
  7052  02D8  0140               	movlb	0	; select bank0
  7053  02D9  00D6               	movwf	xtoa@c+1
  7054  02DA  0877               	movf	?_toupper,w
  7055  02DB  00D5               	movwf	xtoa@c
  7056  02DC                     l5918:
  7057                           
  7058                           ;C:\Program Files\Microchip\xc8\v2.32\pic\sources\c99\common\doprnt.c: 671:         dbuf
      +                          [i] = (char)c;
  7059  02DC  0855               	movf	xtoa@c,w
  7060  02DD  00BA               	movwf	??_xtoa
  7061  02DE  0853               	movf	xtoa@i,w
  7062  02DF  3E46               	addlw	(low (_dbuf| (0+512)))& (0+255)
  7063  02E0  0086               	movwf	6
  7064  02E1  3002               	movlw	2	; select bank4/5
  7065  02E2  0087               	movwf	7
  7066  02E3  083A               	movf	??_xtoa,w
  7067  02E4  0081               	movwf	1
  7068  02E5                     l5920:
  7069                           
  7070                           ;C:\Program Files\Microchip\xc8\v2.32\pic\sources\c99\common\doprnt.c: 672:         --p;
  7071  02E5  30FF               	movlw	255
  7072  02E6  07C7               	addwf	xtoa@p,f
  7073  02E7  30FF               	movlw	255
  7074  02E8  3DC8               	addwfc	xtoa@p+1,f
  7075  02E9                     l5922:
  7076                           
  7077                           ;C:\Program Files\Microchip\xc8\v2.32\pic\sources\c99\common\doprnt.c: 673:         --w;
  7078  02E9  30FF               	movlw	255
  7079  02EA  07C9               	addwf	xtoa@w,f
  7080  02EB  30FF               	movlw	255
  7081  02EC  3DCA               	addwfc	xtoa@w+1,f
  7082  02ED                     l5924:
  7083                           
  7084                           ;C:\Program Files\Microchip\xc8\v2.32\pic\sources\c99\common\doprnt.c: 674:         n = 
      +                          n >> 4;
  7085  02ED  304B               	movlw	low xtoa@n
  7086  02EE  0086               	movwf	6
  7087  02EF  3000               	movlw	high xtoa@n
  7088  02F0  0087               	movwf	7
  7089  02F1  3F40               	moviw [0]fsr1
  7090  02F2  00BA               	movwf	??_xtoa
  7091  02F3  3F41               	moviw [1]fsr1
  7092  02F4  00BB               	movwf	??_xtoa+1
  7093  02F5  3F42               	moviw [2]fsr1
  7094  02F6  00BC               	movwf	??_xtoa+2
  7095  02F7  3F43               	moviw [3]fsr1
  7096  02F8  00BD               	movwf	??_xtoa+3
  7097  02F9  3F44               	moviw [4]fsr1
  7098  02FA  00BE               	movwf	??_xtoa+4
  7099  02FB  3F45               	moviw [5]fsr1
  7100  02FC  00BF               	movwf	??_xtoa+5
  7101  02FD  3F46               	moviw [6]fsr1
  7102  02FE  00C0               	movwf	??_xtoa+6
  7103  02FF  3F47               	moviw [7]fsr1
  7104  0300  00C1               	movwf	??_xtoa+7
  7105  0301  3004               	movlw	4
  7106  0302                     u3625:
  7107  0302  0140               	movlb	0	; select bank0
  7108  0303  36C1               	lsrf	??_xtoa+7,f
  7109  0304  0CC0               	rrf	??_xtoa+6,f
  7110  0305  0CBF               	rrf	??_xtoa+5,f
  7111  0306  0CBE               	rrf	??_xtoa+4,f
  7112  0307  0CBD               	rrf	??_xtoa+3,f
  7113  0308  0CBC               	rrf	??_xtoa+2,f
  7114  0309  0CBB               	rrf	??_xtoa+1,f
  7115  030A  0CBA               	rrf	??_xtoa,f
  7116  030B                     u3620:
  7117  030B  0B89               	decfsz	9,f
  7118  030C  2B02               	goto	u3625
  7119  030D  0140               	movlb	0	; select bank0
  7120  030E  0841               	movf	??_xtoa+7,w
  7121  030F  00D2               	movwf	xtoa@n+7
  7122  0310  0840               	movf	??_xtoa+6,w
  7123  0311  00D1               	movwf	xtoa@n+6
  7124  0312  083F               	movf	??_xtoa+5,w
  7125  0313  00D0               	movwf	xtoa@n+5
  7126  0314  083E               	movf	??_xtoa+4,w
  7127  0315  00CF               	movwf	xtoa@n+4
  7128  0316  083D               	movf	??_xtoa+3,w
  7129  0317  00CE               	movwf	xtoa@n+3
  7130  0318  083C               	movf	??_xtoa+2,w
  7131  0319  00CD               	movwf	xtoa@n+2
  7132  031A  083B               	movf	??_xtoa+1,w
  7133  031B  00CC               	movwf	xtoa@n+1
  7134  031C  083A               	movf	??_xtoa,w
  7135  031D  00CB               	movwf	xtoa@n
  7136  031E                     l5926:
  7137                           
  7138                           ;C:\Program Files\Microchip\xc8\v2.32\pic\sources\c99\common\doprnt.c: 664:     while (!
      +                          (i < 2) && (n || (0 < p) || ((0 < w) && (flags & (1 << 1))))) {
  7139  031E  0140               	movlb	0	; select bank0
  7140  031F  0854               	movf	xtoa@i+1,w
  7141  0320  3A80               	xorlw	128
  7142  0321  00BA               	movwf	??_xtoa
  7143  0322  3080               	movlw	128
  7144  0323  023A               	subwf	??_xtoa,w
  7145  0324  1D03               	skipz
  7146  0325  2B28               	goto	u3635
  7147  0326  3002               	movlw	2
  7148  0327  0253               	subwf	xtoa@i,w
  7149  0328                     u3635:
  7150  0328  1C03               	skipc
  7151  0329  2B2B               	goto	u3631
  7152  032A  2B2C               	goto	u3630
  7153  032B                     u3631:
  7154  032B  2B59               	goto	l1684
  7155  032C                     u3630:
  7156  032C                     l5928:
  7157  032C  0140               	movlb	0	; select bank0
  7158  032D  084B               	movf	xtoa@n,w
  7159  032E  044C               	iorwf	xtoa@n+1,w
  7160  032F  044D               	iorwf	xtoa@n+2,w
  7161  0330  044E               	iorwf	xtoa@n+3,w
  7162  0331  044F               	iorwf	xtoa@n+4,w
  7163  0332  0450               	iorwf	xtoa@n+5,w
  7164  0333  0451               	iorwf	xtoa@n+6,w
  7165  0334  0452               	iorwf	xtoa@n+7,w
  7166  0335  1D03               	skipz
  7167  0336  2B38               	goto	u3641
  7168  0337  2B39               	goto	u3640
  7169  0338                     u3641:
  7170  0338  2A68               	goto	l5898
  7171  0339                     u3640:
  7172  0339                     l5930:
  7173  0339  0848               	movf	xtoa@p+1,w
  7174  033A  3A80               	xorlw	128
  7175  033B  00BA               	movwf	??_xtoa
  7176  033C  3080               	movlw	128
  7177  033D  023A               	subwf	??_xtoa,w
  7178  033E  1D03               	skipz
  7179  033F  2B42               	goto	u3655
  7180  0340  3001               	movlw	1
  7181  0341  0247               	subwf	xtoa@p,w
  7182  0342                     u3655:
  7183  0342  1803               	skipnc
  7184  0343  2B45               	goto	u3651
  7185  0344  2B46               	goto	u3650
  7186  0345                     u3651:
  7187  0345  2A68               	goto	l5898
  7188  0346                     u3650:
  7189  0346                     l5932:
  7190  0346  0140               	movlb	0	; select bank0
  7191  0347  084A               	movf	xtoa@w+1,w
  7192  0348  3A80               	xorlw	128
  7193  0349  00BA               	movwf	??_xtoa
  7194  034A  3080               	movlw	128
  7195  034B  023A               	subwf	??_xtoa,w
  7196  034C  1D03               	skipz
  7197  034D  2B50               	goto	u3665
  7198  034E  3001               	movlw	1
  7199  034F  0249               	subwf	xtoa@w,w
  7200  0350                     u3665:
  7201  0350  1C03               	skipc
  7202  0351  2B53               	goto	u3661
  7203  0352  2B54               	goto	u3660
  7204  0353                     u3661:
  7205  0353  2B59               	goto	l1684
  7206  0354                     u3660:
  7207  0354                     l5934:
  7208  0354  0141               	movlb	1	; select bank1
  7209  0355  18EA               	btfsc	_flags^(0+128),1
  7210  0356  2B58               	goto	u3671
  7211  0357  2B59               	goto	u3670
  7212  0358                     u3671:
  7213  0358  2A68               	goto	l5898
  7214  0359                     u3670:
  7215  0359                     l1684:
  7216                           
  7217                           ;C:\Program Files\Microchip\xc8\v2.32\pic\sources\c99\common\doprnt.c: 678:     if (flag
      +                          s & (1 << 4)) {
  7218  0359  0141               	movlb	1	; select bank1
  7219  035A  1E6A               	btfss	_flags^(0+128),4
  7220  035B  2B5D               	goto	u3681
  7221  035C  2B5E               	goto	u3680
  7222  035D                     u3681:
  7223  035D  2B79               	goto	l5942
  7224  035E                     u3680:
  7225  035E                     l5936:
  7226                           
  7227                           ;C:\Program Files\Microchip\xc8\v2.32\pic\sources\c99\common\doprnt.c: 679:         --i;
  7228  035E  30FF               	movlw	255
  7229  035F  0140               	movlb	0	; select bank0
  7230  0360  07D3               	addwf	xtoa@i,f
  7231  0361  30FF               	movlw	255
  7232  0362  3DD4               	addwfc	xtoa@i+1,f
  7233  0363                     l5938:
  7234                           
  7235                           ;C:\Program Files\Microchip\xc8\v2.32\pic\sources\c99\common\doprnt.c: 680:         dbuf
      +                          [i] = x;
  7236  0363  0839               	movf	xtoa@x,w
  7237  0364  00BA               	movwf	??_xtoa
  7238  0365  0853               	movf	xtoa@i,w
  7239  0366  3E46               	addlw	(low (_dbuf| (0+512)))& (0+255)
  7240  0367  0086               	movwf	6
  7241  0368  3002               	movlw	2	; select bank4/5
  7242  0369  0087               	movwf	7
  7243  036A  083A               	movf	??_xtoa,w
  7244  036B  0081               	movwf	1
  7245  036C                     l5940:
  7246                           
  7247                           ;C:\Program Files\Microchip\xc8\v2.32\pic\sources\c99\common\doprnt.c: 681:         --i;
  7248  036C  30FF               	movlw	255
  7249  036D  07D3               	addwf	xtoa@i,f
  7250  036E  30FF               	movlw	255
  7251  036F  3DD4               	addwfc	xtoa@i+1,f
  7252                           
  7253                           ;C:\Program Files\Microchip\xc8\v2.32\pic\sources\c99\common\doprnt.c: 682:         dbuf
      +                          [i] = '0';
  7254  0370  3030               	movlw	48
  7255  0371  00BA               	movwf	??_xtoa
  7256  0372  0853               	movf	xtoa@i,w
  7257  0373  3E46               	addlw	(low (_dbuf| (0+512)))& (0+255)
  7258  0374  0086               	movwf	6
  7259  0375  3002               	movlw	2	; select bank4/5
  7260  0376  0087               	movwf	7
  7261  0377  083A               	movf	??_xtoa,w
  7262  0378  0081               	movwf	1
  7263  0379                     l5942:
  7264                           
  7265                           ;C:\Program Files\Microchip\xc8\v2.32\pic\sources\c99\common\doprnt.c: 686:     return p
      +                          ad(fp, &dbuf[i], w);
  7266  0379  0140               	movlb	0	; select bank0
  7267  037A  0853               	movf	xtoa@i,w
  7268  037B  3E46               	addlw	(low (_dbuf| (0+512)))& (0+255)
  7269  037C  00BA               	movwf	??_xtoa
  7270  037D  083A               	movf	??_xtoa,w
  7271  037E  00A8               	movwf	pad@buf
  7272  037F  084A               	movf	xtoa@w+1,w
  7273  0380  00AA               	movwf	pad@p+1
  7274  0381  0849               	movf	xtoa@w,w
  7275  0382  00A9               	movwf	pad@p
  7276  0383  0846               	movf	xtoa@fp,w
  7277  0384  3185  2558  3182   	fcall	_pad
  7278  0387  0140               	movlb	0	; select bank0
  7279  0388  0829               	movf	?_pad+1,w
  7280  0389  00B2               	movwf	?_xtoa+1
  7281  038A  0828               	movf	?_pad,w
  7282  038B  00B1               	movwf	?_xtoa
  7283  038C                     l1686:
  7284  038C  0008               	return
  7285  038D                     __end_of_xtoa:
  7286                           
  7287                           	psect	text20
  7288  0DCF                     __ptext20:	
  7289 ;; *************** function _toupper *****************
  7290 ;; Defined at:
  7291 ;;		line 4 in file "C:\Program Files\Microchip\xc8\v2.32\pic\sources\c99\common\toupper.c"
  7292 ;; Parameters:    Size  Location     Type
  7293 ;;  c               2    7[COMMON] int 
  7294 ;; Auto vars:     Size  Location     Type
  7295 ;;		None
  7296 ;; Return value:  Size  Location     Type
  7297 ;;                  2    7[COMMON] int 
  7298 ;; Registers used:
  7299 ;;		wreg, status,2, status,0
  7300 ;; Tracked objects:
  7301 ;;		On entry : 0/0
  7302 ;;		On exit  : 0/0
  7303 ;;		Unchanged: 0/0
  7304 ;; Data sizes:     COMMON   BANK0   BANK1   BANK2   BANK3   BANK4   BANK5   BANK6   BANK7   BANK8   BANK9  BANK10  BANK1
      +1  BANK12  BANK13  BANK14  BANK15  BANK16  BANK17  BANK18  BANK19  BANK20  BANK21  BANK22  BANK23  BANK24  BANK25
  7305 ;;      Params:         2       0       0       0       0       0       0       0       0       0       0       0       
      +0       0       0       0       0       0       0       0       0       0       0       0       0       0       0
  7306 ;;      Locals:         2       0       0       0       0       0       0       0       0       0       0       0       
      +0       0       0       0       0       0       0       0       0       0       0       0       0       0       0
  7307 ;;      Temps:          0       4       0       0       0       0       0       0       0       0       0       0       
      +0       0       0       0       0       0       0       0       0       0       0       0       0       0       0
  7308 ;;      Totals:         4       4       0       0       0       0       0       0       0       0       0       0       
      +0       0       0       0       0       0       0       0       0       0       0       0       0       0       0
  7309 ;;Total ram usage:        8 bytes
  7310 ;; Hardware stack levels used: 1
  7311 ;; Hardware stack levels required when called: 5
  7312 ;; This function calls:
  7313 ;;		_islower
  7314 ;; This function is called by:
  7315 ;;		_xtoa
  7316 ;; This function uses a non-reentrant model
  7317 ;;
  7318                           
  7319                           
  7320                           ;psect for function _toupper
  7321  0DCF                     _toupper:
  7322  0DCF                     l5862:	
  7323                           ;incstack = 0
  7324                           ; Regs used in _toupper: [wreg+status,2+status,0]
  7325                           
  7326  0DCF  0877               	movf	toupper@c,w
  7327  0DD0  3E9F               	addlw	159
  7328  0DD1  0140               	movlb	0	; select bank0
  7329  0DD2  00A0               	movwf	??_toupper
  7330  0DD3  30FF               	movlw	255
  7331  0DD4  3D78               	addwfc	toupper@c+1,w
  7332  0DD5  00A1               	movwf	??_toupper+1
  7333  0DD6  3000               	movlw	0
  7334  0DD7  0221               	subwf	??_toupper+1,w
  7335  0DD8  301A               	movlw	26
  7336  0DD9  1903               	skipnz
  7337  0DDA  0220               	subwf	??_toupper,w
  7338  0DDB  1C03               	skipc
  7339  0DDC  2DDE               	goto	u3481
  7340  0DDD  2DE0               	goto	u3480
  7341  0DDE                     u3481:
  7342  0DDE  3001               	movlw	1
  7343  0DDF  2DE1               	goto	u3490
  7344  0DE0                     u3480:
  7345  0DE0  3000               	movlw	0
  7346  0DE1                     u3490:
  7347  0DE1  00A2               	movwf	??_toupper+2
  7348  0DE2  01A3               	clrf	??_toupper+3
  7349  0DE3  0822               	movf	??_toupper+2,w
  7350  0DE4  00F9               	movwf	_toupper$2210
  7351  0DE5  0823               	movf	??_toupper+3,w
  7352  0DE6  00FA               	movwf	_toupper$2210+1
  7353  0DE7                     l5866:
  7354  0DE7  0879               	movf	_toupper$2210,w
  7355  0DE8  047A               	iorwf	_toupper$2210+1,w
  7356  0DE9  1903               	btfsc	3,2
  7357  0DEA  2DEC               	goto	u3501
  7358  0DEB  2DED               	goto	u3500
  7359  0DEC                     u3501:
  7360  0DEC  2DF4               	goto	l1818
  7361  0DED                     u3500:
  7362  0DED                     l5868:
  7363  0DED  305F               	movlw	95
  7364  0DEE  0577               	andwf	toupper@c,w
  7365  0DEF  00F7               	movwf	?_toupper
  7366  0DF0  3000               	movlw	0
  7367  0DF1  0578               	andwf	toupper@c+1,w
  7368  0DF2  00F8               	movwf	?_toupper+1
  7369  0DF3  2DF4               	goto	l1823
  7370  0DF4                     l1818:
  7371  0DF4                     l1823:
  7372  0DF4  0008               	return
  7373  0DF5                     __end_of_toupper:
  7374                           
  7375                           	psect	text21
  7376  0C02                     __ptext21:	
  7377 ;; *************** function _islower *****************
  7378 ;; Defined at:
  7379 ;;		line 5 in file "C:\Program Files\Microchip\xc8\v2.32\pic\sources\c99\common\islower.c"
  7380 ;; Parameters:    Size  Location     Type
  7381 ;;  c               2    1[COMMON] int 
  7382 ;; Auto vars:     Size  Location     Type
  7383 ;;		None
  7384 ;; Return value:  Size  Location     Type
  7385 ;;                  2    1[COMMON] int 
  7386 ;; Registers used:
  7387 ;;		wreg, status,2, status,0
  7388 ;; Tracked objects:
  7389 ;;		On entry : 0/0
  7390 ;;		On exit  : 0/0
  7391 ;;		Unchanged: 0/0
  7392 ;; Data sizes:     COMMON   BANK0   BANK1   BANK2   BANK3   BANK4   BANK5   BANK6   BANK7   BANK8   BANK9  BANK10  BANK1
      +1  BANK12  BANK13  BANK14  BANK15  BANK16  BANK17  BANK18  BANK19  BANK20  BANK21  BANK22  BANK23  BANK24  BANK25
  7393 ;;      Params:         2       0       0       0       0       0       0       0       0       0       0       0       
      +0       0       0       0       0       0       0       0       0       0       0       0       0       0       0
  7394 ;;      Locals:         0       0       0       0       0       0       0       0       0       0       0       0       
      +0       0       0       0       0       0       0       0       0       0       0       0       0       0       0
  7395 ;;      Temps:          4       0       0       0       0       0       0       0       0       0       0       0       
      +0       0       0       0       0       0       0       0       0       0       0       0       0       0       0
  7396 ;;      Totals:         6       0       0       0       0       0       0       0       0       0       0       0       
      +0       0       0       0       0       0       0       0       0       0       0       0       0       0       0
  7397 ;;Total ram usage:        6 bytes
  7398 ;; Hardware stack levels used: 1
  7399 ;; Hardware stack levels required when called: 4
  7400 ;; This function calls:
  7401 ;;		Nothing
  7402 ;; This function is called by:
  7403 ;;		_toupper
  7404 ;; This function uses a non-reentrant model
  7405 ;;
  7406                           
  7407                           
  7408                           ;psect for function _islower
  7409  0C02                     _islower:
  7410  0C02                     l5826:	
  7411                           ;incstack = 0
  7412                           ; Regs used in _islower: [wreg+status,2+status,0]
  7413                           
  7414  0C02  0871               	movf	islower@c,w
  7415  0C03  3E9F               	addlw	159
  7416  0C04  00F3               	movwf	??_islower
  7417  0C05  30FF               	movlw	255
  7418  0C06  3D72               	addwfc	islower@c+1,w
  7419  0C07  00F4               	movwf	??_islower+1
  7420  0C08  3000               	movlw	0
  7421  0C09  0274               	subwf	??_islower+1,w
  7422  0C0A  301A               	movlw	26
  7423  0C0B  1903               	skipnz
  7424  0C0C  0273               	subwf	??_islower,w
  7425  0C0D  1C03               	skipc
  7426  0C0E  2C10               	goto	u3391
  7427  0C0F  2C12               	goto	u3390
  7428  0C10                     u3391:
  7429  0C10  3001               	movlw	1
  7430  0C11  2C13               	goto	u3400
  7431  0C12                     u3390:
  7432  0C12  3000               	movlw	0
  7433  0C13                     u3400:
  7434  0C13  00F5               	movwf	??_islower+2
  7435  0C14  01F6               	clrf	??_islower+3
  7436  0C15  0875               	movf	??_islower+2,w
  7437  0C16  00F1               	movwf	?_islower
  7438  0C17  0876               	movf	??_islower+3,w
  7439  0C18  00F2               	movwf	?_islower+1
  7440  0C19                     l1829:
  7441  0C19  0008               	return
  7442  0C1A                     __end_of_islower:
  7443                           
  7444                           	psect	text22
  7445  0558                     __ptext22:	
  7446 ;; *************** function _pad *****************
  7447 ;; Defined at:
  7448 ;;		line 72 in file "C:\Program Files\Microchip\xc8\v2.32\pic\sources\c99\common\doprnt.c"
  7449 ;; Parameters:    Size  Location     Type
  7450 ;;  fp              1    wreg     PTR struct _IO_FILE
  7451 ;;		 -> NULL(0), 
  7452 ;;  buf             1    8[BANK0 ] PTR unsigned char 
  7453 ;;		 -> dbuf(32), 
  7454 ;;  p               2    9[BANK0 ] int 
  7455 ;; Auto vars:     Size  Location     Type
  7456 ;;  fp              1   16[BANK0 ] PTR struct _IO_FILE
  7457 ;;		 -> NULL(0), 
  7458 ;;  w               2   14[BANK0 ] int 
  7459 ;;  i               2   12[BANK0 ] int 
  7460 ;; Return value:  Size  Location     Type
  7461 ;;                  2    8[BANK0 ] int 
  7462 ;; Registers used:
  7463 ;;		wreg, fsr1l, fsr1h, status,2, status,0, pclath, cstack
  7464 ;; Tracked objects:
  7465 ;;		On entry : 0/0
  7466 ;;		On exit  : 0/0
  7467 ;;		Unchanged: 0/0
  7468 ;; Data sizes:     COMMON   BANK0   BANK1   BANK2   BANK3   BANK4   BANK5   BANK6   BANK7   BANK8   BANK9  BANK10  BANK1
      +1  BANK12  BANK13  BANK14  BANK15  BANK16  BANK17  BANK18  BANK19  BANK20  BANK21  BANK22  BANK23  BANK24  BANK25
  7469 ;;      Params:         0       3       0       0       0       0       0       0       0       0       0       0       
      +0       0       0       0       0       0       0       0       0       0       0       0       0       0       0
  7470 ;;      Locals:         0       5       0       0       0       0       0       0       0       0       0       0       
      +0       0       0       0       0       0       0       0       0       0       0       0       0       0       0
  7471 ;;      Temps:          0       1       0       0       0       0       0       0       0       0       0       0       
      +0       0       0       0       0       0       0       0       0       0       0       0       0       0       0
  7472 ;;      Totals:         0       9       0       0       0       0       0       0       0       0       0       0       
      +0       0       0       0       0       0       0       0       0       0       0       0       0       0       0
  7473 ;;Total ram usage:        9 bytes
  7474 ;; Hardware stack levels used: 1
  7475 ;; Hardware stack levels required when called: 8
  7476 ;; This function calls:
  7477 ;;		_fputc
  7478 ;;		_fputs
  7479 ;;		_strlen
  7480 ;; This function is called by:
  7481 ;;		_xtoa
  7482 ;; This function uses a non-reentrant model
  7483 ;;
  7484                           
  7485                           
  7486                           ;psect for function _pad
  7487  0558                     _pad:
  7488                           
  7489                           ;incstack = 0
  7490                           ; Regs used in _pad: [wreg+fsr1l+fsr1h+status,2+status,0+pclath+cstack]
  7491                           ;pad@fp stored from wreg
  7492  0558  0140               	movlb	0	; select bank0
  7493  0559  00B0               	movwf	pad@fp
  7494  055A                     l5842:
  7495                           
  7496                           ;C:\Program Files\Microchip\xc8\v2.32\pic\sources\c99\common\doprnt.c: 72: static int pa
      +                          d(FILE *fp, char *buf, int p);C:\Program Files\Microchip\xc8\v2.32\pic\sources\c99\commo
      +                          n\doprnt.c: 73: {;C:\Program Files\Microchip\xc8\v2.32\pic\sources\c99\common\doprnt.c: 
      +                          74:     int i, w;;C:\Program Files\Microchip\xc8\v2.32\pic\sources\c99\common\doprnt.c: 
      +                          77:     if (flags & (1 << 0)) {
  7497  055A  0141               	movlb	1	; select bank1
  7498  055B  1C6A               	btfss	_flags^(0+128),0
  7499  055C  2D5E               	goto	u3441
  7500  055D  2D5F               	goto	u3440
  7501  055E                     u3441:
  7502  055E  2D68               	goto	l5846
  7503  055F                     u3440:
  7504  055F                     l5844:
  7505                           
  7506                           ;C:\Program Files\Microchip\xc8\v2.32\pic\sources\c99\common\doprnt.c: 78:         fputs
      +                          ((const char *)buf, fp);
  7507  055F  0140               	movlb	0	; select bank0
  7508  0560  0830               	movf	pad@fp,w
  7509  0561  00AB               	movwf	??_pad
  7510  0562  082B               	movf	??_pad,w
  7511  0563  00A0               	movwf	fputs@fp
  7512  0564  0828               	movf	pad@buf,w
  7513  0565  318D  25F5  3185   	fcall	_fputs
  7514  0568                     l5846:
  7515                           
  7516                           ;C:\Program Files\Microchip\xc8\v2.32\pic\sources\c99\common\doprnt.c: 82:     w = (p < 
      +                          0) ? 0 : p;
  7517  0568  0140               	movlb	0	; select bank0
  7518  0569  1BAA               	btfsc	pad@p+1,7
  7519  056A  2D6C               	goto	u3451
  7520  056B  2D6D               	goto	u3450
  7521  056C                     u3451:
  7522  056C  2D72               	goto	l5850
  7523  056D                     u3450:
  7524  056D                     l5848:
  7525  056D  082A               	movf	pad@p+1,w
  7526  056E  00AF               	movwf	pad@w+1
  7527  056F  0829               	movf	pad@p,w
  7528  0570  00AE               	movwf	pad@w
  7529  0571  2D74               	goto	l1651
  7530  0572                     l5850:
  7531  0572  01AE               	clrf	pad@w
  7532  0573  01AF               	clrf	pad@w+1
  7533  0574                     l1651:
  7534                           
  7535                           ;C:\Program Files\Microchip\xc8\v2.32\pic\sources\c99\common\doprnt.c: 83:     i = 0;
  7536  0574  01AC               	clrf	pad@i
  7537  0575  01AD               	clrf	pad@i+1
  7538                           
  7539                           ;C:\Program Files\Microchip\xc8\v2.32\pic\sources\c99\common\doprnt.c: 84:     while (i 
      +                          < w) {
  7540  0576  2D88               	goto	l5856
  7541  0577                     l5852:
  7542                           
  7543                           ;C:\Program Files\Microchip\xc8\v2.32\pic\sources\c99\common\doprnt.c: 85:         fputc
      +                          (' ', fp);
  7544  0577  3020               	movlw	32
  7545  0578  00F4               	movwf	fputc@c
  7546  0579  3000               	movlw	0
  7547  057A  00F5               	movwf	fputc@c+1
  7548  057B  0140               	movlb	0	; select bank0
  7549  057C  0830               	movf	pad@fp,w
  7550  057D  00AB               	movwf	??_pad
  7551  057E  082B               	movf	??_pad,w
  7552  057F  00F6               	movwf	fputc@fp
  7553  0580  3186  26E0  3185   	fcall	_fputc
  7554  0583                     l5854:
  7555                           
  7556                           ;C:\Program Files\Microchip\xc8\v2.32\pic\sources\c99\common\doprnt.c: 86:         ++i;
  7557  0583  3001               	movlw	1
  7558  0584  0140               	movlb	0	; select bank0
  7559  0585  07AC               	addwf	pad@i,f
  7560  0586  3000               	movlw	0
  7561  0587  3DAD               	addwfc	pad@i+1,f
  7562  0588                     l5856:
  7563                           
  7564                           ;C:\Program Files\Microchip\xc8\v2.32\pic\sources\c99\common\doprnt.c: 84:     while (i 
      +                          < w) {
  7565  0588  082D               	movf	pad@i+1,w
  7566  0589  3A80               	xorlw	128
  7567  058A  00AB               	movwf	??_pad
  7568  058B  082F               	movf	pad@w+1,w
  7569  058C  3A80               	xorlw	128
  7570  058D  022B               	subwf	??_pad,w
  7571  058E  1D03               	skipz
  7572  058F  2D92               	goto	u3465
  7573  0590  082E               	movf	pad@w,w
  7574  0591  022C               	subwf	pad@i,w
  7575  0592                     u3465:
  7576  0592  1C03               	skipc
  7577  0593  2D95               	goto	u3461
  7578  0594  2D96               	goto	u3460
  7579  0595                     u3461:
  7580  0595  2D77               	goto	l5852
  7581  0596                     u3460:
  7582  0596                     l1654:
  7583                           
  7584                           ;C:\Program Files\Microchip\xc8\v2.32\pic\sources\c99\common\doprnt.c: 90:     if (!(fla
      +                          gs & (1 << 0))) {
  7585  0596  0141               	movlb	1	; select bank1
  7586  0597  186A               	btfsc	_flags^(0+128),0
  7587  0598  2D9A               	goto	u3471
  7588  0599  2D9B               	goto	u3470
  7589  059A                     u3471:
  7590  059A  2DA4               	goto	l1655
  7591  059B                     u3470:
  7592  059B                     l5858:
  7593                           
  7594                           ;C:\Program Files\Microchip\xc8\v2.32\pic\sources\c99\common\doprnt.c: 91:         fputs
      +                          ((const char *)buf, fp);
  7595  059B  0140               	movlb	0	; select bank0
  7596  059C  0830               	movf	pad@fp,w
  7597  059D  00AB               	movwf	??_pad
  7598  059E  082B               	movf	??_pad,w
  7599  059F  00A0               	movwf	fputs@fp
  7600  05A0  0828               	movf	pad@buf,w
  7601  05A1  318D  25F5  3185   	fcall	_fputs
  7602  05A4                     l1655:	
  7603                           ;C:\Program Files\Microchip\xc8\v2.32\pic\sources\c99\common\doprnt.c: 92:     }
  7604                           
  7605                           
  7606                           ;C:\Program Files\Microchip\xc8\v2.32\pic\sources\c99\common\doprnt.c: 94:     return (i
      +                          nt)(strlen(buf) + (size_t)w);
  7607  05A4  0140               	movlb	0	; select bank0
  7608  05A5  0828               	movf	pad@buf,w
  7609  05A6  318C  241A  3185   	fcall	_strlen
  7610  05A9  0140               	movlb	0	; select bank0
  7611  05AA  082E               	movf	pad@w,w
  7612  05AB  0771               	addwf	?_strlen,w
  7613  05AC  00A8               	movwf	?_pad
  7614  05AD  082F               	movf	pad@w+1,w
  7615  05AE  3D72               	addwfc	?_strlen+1,w
  7616  05AF  00A9               	movwf	?_pad+1
  7617  05B0                     l1656:
  7618  05B0  0008               	return
  7619  05B1                     __end_of_pad:
  7620                           
  7621                           	psect	text23
  7622  0C1A                     __ptext23:	
  7623 ;; *************** function _strlen *****************
  7624 ;; Defined at:
  7625 ;;		line 5 in file "C:\Program Files\Microchip\xc8\v2.32\pic\sources\c99\common\strlen.c"
  7626 ;; Parameters:    Size  Location     Type
  7627 ;;  s               1    wreg     PTR const unsigned char 
  7628 ;;		 -> dbuf(32), 
  7629 ;; Auto vars:     Size  Location     Type
  7630 ;;  s               1    5[COMMON] PTR const unsigned char 
  7631 ;;		 -> dbuf(32), 
  7632 ;;  a               1    4[COMMON] PTR const unsigned char 
  7633 ;;		 -> dbuf(32), 
  7634 ;; Return value:  Size  Location     Type
  7635 ;;                  2    1[COMMON] unsigned int 
  7636 ;; Registers used:
  7637 ;;		wreg, fsr1l, fsr1h, status,2, status,0
  7638 ;; Tracked objects:
  7639 ;;		On entry : 0/0
  7640 ;;		On exit  : 0/0
  7641 ;;		Unchanged: 0/0
  7642 ;; Data sizes:     COMMON   BANK0   BANK1   BANK2   BANK3   BANK4   BANK5   BANK6   BANK7   BANK8   BANK9  BANK10  BANK1
      +1  BANK12  BANK13  BANK14  BANK15  BANK16  BANK17  BANK18  BANK19  BANK20  BANK21  BANK22  BANK23  BANK24  BANK25
  7643 ;;      Params:         2       0       0       0       0       0       0       0       0       0       0       0       
      +0       0       0       0       0       0       0       0       0       0       0       0       0       0       0
  7644 ;;      Locals:         2       0       0       0       0       0       0       0       0       0       0       0       
      +0       0       0       0       0       0       0       0       0       0       0       0       0       0       0
  7645 ;;      Temps:          1       0       0       0       0       0       0       0       0       0       0       0       
      +0       0       0       0       0       0       0       0       0       0       0       0       0       0       0
  7646 ;;      Totals:         5       0       0       0       0       0       0       0       0       0       0       0       
      +0       0       0       0       0       0       0       0       0       0       0       0       0       0       0
  7647 ;;Total ram usage:        5 bytes
  7648 ;; Hardware stack levels used: 1
  7649 ;; Hardware stack levels required when called: 4
  7650 ;; This function calls:
  7651 ;;		Nothing
  7652 ;; This function is called by:
  7653 ;;		_pad
  7654 ;; This function uses a non-reentrant model
  7655 ;;
  7656                           
  7657                           
  7658                           ;psect for function _strlen
  7659  0C1A                     _strlen:
  7660                           
  7661                           ;incstack = 0
  7662                           ; Regs used in _strlen: [wreg+fsr1l+fsr1h+status,2+status,0]
  7663                           ;strlen@s stored from wreg
  7664  0C1A  00F5               	movwf	strlen@s
  7665  0C1B                     l4032:
  7666  0C1B  0875               	movf	strlen@s,w
  7667  0C1C  00F3               	movwf	??_strlen
  7668  0C1D  0873               	movf	??_strlen,w
  7669  0C1E  00F4               	movwf	strlen@a
  7670  0C1F  2C24               	goto	l4036
  7671  0C20                     l4034:
  7672  0C20  3001               	movlw	1
  7673  0C21  00F3               	movwf	??_strlen
  7674  0C22  0873               	movf	??_strlen,w
  7675  0C23  07F5               	addwf	strlen@s,f
  7676  0C24                     l4036:
  7677  0C24  0875               	movf	strlen@s,w
  7678  0C25  0086               	movwf	6
  7679  0C26  3002               	movlw	2	; select bank4/5
  7680  0C27  0087               	movwf	7
  7681  0C28  0801               	movf	1,w
  7682  0C29  1D03               	btfss	3,2
  7683  0C2A  2C2C               	goto	u1801
  7684  0C2B  2C2D               	goto	u1800
  7685  0C2C                     u1801:
  7686  0C2C  2C20               	goto	l4034
  7687  0C2D                     u1800:
  7688  0C2D                     l4038:
  7689  0C2D  0874               	movf	strlen@a,w
  7690  0C2E  0275               	subwf	strlen@s,w
  7691  0C2F  00F1               	movwf	?_strlen
  7692  0C30  01F2               	clrf	?_strlen+1
  7693  0C31  1BF1               	btfsc	?_strlen,7
  7694  0C32  03F2               	decf	?_strlen+1,f
  7695  0C33                     l1813:
  7696  0C33  0008               	return
  7697  0C34                     __end_of_strlen:
  7698                           
  7699                           	psect	text24
  7700  0DF5                     __ptext24:	
  7701 ;; *************** function _fputs *****************
  7702 ;; Defined at:
  7703 ;;		line 8 in file "C:\Program Files\Microchip\xc8\v2.32\pic\sources\c99\common\nf_fputs.c"
  7704 ;; Parameters:    Size  Location     Type
  7705 ;;  s               1    wreg     PTR const unsigned char 
  7706 ;;		 -> dbuf(32), 
  7707 ;;  fp              1    0[BANK0 ] PTR struct _IO_FILE
  7708 ;;		 -> NULL(0), 
  7709 ;; Auto vars:     Size  Location     Type
  7710 ;;  s               1    7[BANK0 ] PTR const unsigned char 
  7711 ;;		 -> dbuf(32), 
  7712 ;;  i               2    5[BANK0 ] int 
  7713 ;;  c               1    4[BANK0 ] unsigned char 
  7714 ;; Return value:  Size  Location     Type
  7715 ;;                  2    0[BANK0 ] int 
  7716 ;; Registers used:
  7717 ;;		wreg, fsr1l, fsr1h, status,2, status,0, pclath, cstack
  7718 ;; Tracked objects:
  7719 ;;		On entry : 0/0
  7720 ;;		On exit  : 0/0
  7721 ;;		Unchanged: 0/0
  7722 ;; Data sizes:     COMMON   BANK0   BANK1   BANK2   BANK3   BANK4   BANK5   BANK6   BANK7   BANK8   BANK9  BANK10  BANK1
      +1  BANK12  BANK13  BANK14  BANK15  BANK16  BANK17  BANK18  BANK19  BANK20  BANK21  BANK22  BANK23  BANK24  BANK25
  7723 ;;      Params:         0       1       0       0       0       0       0       0       0       0       0       0       
      +0       0       0       0       0       0       0       0       0       0       0       0       0       0       0
  7724 ;;      Locals:         0       4       0       0       0       0       0       0       0       0       0       0       
      +0       0       0       0       0       0       0       0       0       0       0       0       0       0       0
  7725 ;;      Temps:          0       3       0       0       0       0       0       0       0       0       0       0       
      +0       0       0       0       0       0       0       0       0       0       0       0       0       0       0
  7726 ;;      Totals:         0       8       0       0       0       0       0       0       0       0       0       0       
      +0       0       0       0       0       0       0       0       0       0       0       0       0       0       0
  7727 ;;Total ram usage:        8 bytes
  7728 ;; Hardware stack levels used: 1
  7729 ;; Hardware stack levels required when called: 7
  7730 ;; This function calls:
  7731 ;;		_fputc
  7732 ;; This function is called by:
  7733 ;;		_pad
  7734 ;; This function uses a non-reentrant model
  7735 ;;
  7736                           
  7737                           
  7738                           ;psect for function _fputs
  7739  0DF5                     _fputs:
  7740                           
  7741                           ;incstack = 0
  7742                           ; Regs used in _fputs: [wreg+fsr1l+fsr1h+status,2+status,0+pclath+cstack]
  7743                           ;fputs@s stored from wreg
  7744  0DF5  0140               	movlb	0	; select bank0
  7745  0DF6  00A7               	movwf	fputs@s
  7746  0DF7                     l5818:
  7747  0DF7  01A5               	clrf	fputs@i
  7748  0DF8  01A6               	clrf	fputs@i+1
  7749  0DF9  2E0D               	goto	l5824
  7750  0DFA                     l5820:
  7751  0DFA  0824               	movf	fputs@c,w
  7752  0DFB  00A1               	movwf	??_fputs
  7753  0DFC  01A2               	clrf	??_fputs+1
  7754  0DFD  0821               	movf	??_fputs,w
  7755  0DFE  00F4               	movwf	fputc@c
  7756  0DFF  0822               	movf	??_fputs+1,w
  7757  0E00  00F5               	movwf	fputc@c+1
  7758  0E01  0820               	movf	fputs@fp,w
  7759  0E02  00A3               	movwf	??_fputs+2
  7760  0E03  0823               	movf	??_fputs+2,w
  7761  0E04  00F6               	movwf	fputc@fp
  7762  0E05  3186  26E0  318D   	fcall	_fputc
  7763  0E08                     l5822:
  7764  0E08  3001               	movlw	1
  7765  0E09  0140               	movlb	0	; select bank0
  7766  0E0A  07A5               	addwf	fputs@i,f
  7767  0E0B  3000               	movlw	0
  7768  0E0C  3DA6               	addwfc	fputs@i+1,f
  7769  0E0D                     l5824:
  7770  0E0D  0825               	movf	fputs@i,w
  7771  0E0E  0727               	addwf	fputs@s,w
  7772  0E0F  00A1               	movwf	??_fputs
  7773  0E10  0821               	movf	??_fputs,w
  7774  0E11  0086               	movwf	6
  7775  0E12  3002               	movlw	2	; select bank4/5
  7776  0E13  0087               	movwf	7
  7777  0E14  0801               	movf	1,w
  7778  0E15  00A2               	movwf	??_fputs+1
  7779  0E16  0822               	movf	??_fputs+1,w
  7780  0E17  00A4               	movwf	fputs@c
  7781  0E18  0824               	movf	fputs@c,w
  7782  0E19  1D03               	btfss	3,2
  7783  0E1A  2E1C               	goto	u3381
  7784  0E1B  2E1D               	goto	u3380
  7785  0E1C                     u3381:
  7786  0E1C  2DFA               	goto	l5820
  7787  0E1D                     u3380:
  7788  0E1D                     l1799:
  7789  0E1D  0008               	return
  7790  0E1E                     __end_of_fputs:
  7791                           
  7792                           	psect	text25
  7793  06E0                     __ptext25:	
  7794 ;; *************** function _fputc *****************
  7795 ;; Defined at:
  7796 ;;		line 8 in file "C:\Program Files\Microchip\xc8\v2.32\pic\sources\c99\common\nf_fputc.c"
  7797 ;; Parameters:    Size  Location     Type
  7798 ;;  c               2    4[COMMON] int 
  7799 ;;  fp              1    6[COMMON] PTR struct _IO_FILE
  7800 ;;		 -> NULL(0), 
  7801 ;; Auto vars:     Size  Location     Type
  7802 ;;		None
  7803 ;; Return value:  Size  Location     Type
  7804 ;;                  2    4[COMMON] int 
  7805 ;; Registers used:
  7806 ;;		wreg, fsr1l, fsr1h, status,2, status,0, pclath, cstack
  7807 ;; Tracked objects:
  7808 ;;		On entry : 0/0
  7809 ;;		On exit  : 0/0
  7810 ;;		Unchanged: 0/0
  7811 ;; Data sizes:     COMMON   BANK0   BANK1   BANK2   BANK3   BANK4   BANK5   BANK6   BANK7   BANK8   BANK9  BANK10  BANK1
      +1  BANK12  BANK13  BANK14  BANK15  BANK16  BANK17  BANK18  BANK19  BANK20  BANK21  BANK22  BANK23  BANK24  BANK25
  7812 ;;      Params:         3       0       0       0       0       0       0       0       0       0       0       0       
      +0       0       0       0       0       0       0       0       0       0       0       0       0       0       0
  7813 ;;      Locals:         0       0       0       0       0       0       0       0       0       0       0       0       
      +0       0       0       0       0       0       0       0       0       0       0       0       0       0       0
  7814 ;;      Temps:          5       0       0       0       0       0       0       0       0       0       0       0       
      +0       0       0       0       0       0       0       0       0       0       0       0       0       0       0
  7815 ;;      Totals:         8       0       0       0       0       0       0       0       0       0       0       0       
      +0       0       0       0       0       0       0       0       0       0       0       0       0       0       0
  7816 ;;Total ram usage:        8 bytes
  7817 ;; Hardware stack levels used: 1
  7818 ;; Hardware stack levels required when called: 6
  7819 ;; This function calls:
  7820 ;;		_putch
  7821 ;; This function is called by:
  7822 ;;		_pad
  7823 ;;		_vfpfcnvrt
  7824 ;;		_fputs
  7825 ;; This function uses a non-reentrant model
  7826 ;;
  7827                           
  7828                           
  7829                           ;psect for function _fputc
  7830  06E0                     _fputc:
  7831  06E0                     l3854:	
  7832                           ;incstack = 0
  7833                           ; Regs used in _fputc: [wreg+fsr1l+fsr1h+status,2+status,0+pclath+cstack]
  7834                           
  7835  06E0  0876               	movf	fputc@fp,w
  7836  06E1  1903               	btfsc	3,2
  7837  06E2  2EE4               	goto	u1721
  7838  06E3  2EE5               	goto	u1720
  7839  06E4                     u1721:
  7840  06E4  2EEA               	goto	l3858
  7841  06E5                     u1720:
  7842  06E5                     l3856:
  7843  06E5  0876               	movf	fputc@fp,w
  7844  06E6  1D03               	btfss	3,2
  7845  06E7  2EE9               	goto	u1731
  7846  06E8  2EEA               	goto	u1730
  7847  06E9                     u1731:
  7848  06E9  2EEF               	goto	l3860
  7849  06EA                     u1730:
  7850  06EA                     l3858:
  7851  06EA  0874               	movf	fputc@c,w
  7852  06EB  318A  2243  3186   	fcall	_putch
  7853  06EE  2F1E               	goto	l1791
  7854  06EF                     l3860:
  7855  06EF  0876               	movf	fputc@fp,w
  7856  06F0  3E03               	addlw	3
  7857  06F1  0086               	movwf	6
  7858  06F2  0187               	clrf	7
  7859  06F3  0016               	moviw fsr1++
  7860  06F4  0401               	iorwf	1,w
  7861  06F5  1903               	btfsc	3,2
  7862  06F6  2EF8               	goto	u1741
  7863  06F7  2EF9               	goto	u1740
  7864  06F8                     u1741:
  7865  06F8  2F16               	goto	l3864
  7866  06F9                     u1740:
  7867  06F9                     l3862:
  7868  06F9  0876               	movf	fputc@fp,w
  7869  06FA  3E03               	addlw	3
  7870  06FB  0086               	movwf	6
  7871  06FC  0187               	clrf	7
  7872  06FD  3F40               	moviw [0]fsr1
  7873  06FE  00F7               	movwf	??_fputc
  7874  06FF  3F41               	moviw [1]fsr1
  7875  0700  00F8               	movwf	??_fputc+1
  7876  0701  0A76               	incf	fputc@fp,w
  7877  0702  0086               	movwf	6
  7878  0703  0187               	clrf	7
  7879  0704  3F40               	moviw [0]fsr1
  7880  0705  00F9               	movwf	??_fputc+2
  7881  0706  3F41               	moviw [1]fsr1
  7882  0707  00FA               	movwf	??_fputc+3
  7883  0708  087A               	movf	??_fputc+3,w
  7884  0709  3A80               	xorlw	128
  7885  070A  00FB               	movwf	??_fputc+4
  7886  070B  0878               	movf	??_fputc+1,w
  7887  070C  3A80               	xorlw	128
  7888  070D  027B               	subwf	??_fputc+4,w
  7889  070E  1D03               	skipz
  7890  070F  2F12               	goto	u1755
  7891  0710  0877               	movf	??_fputc,w
  7892  0711  0279               	subwf	??_fputc+2,w
  7893  0712                     u1755:
  7894  0712  1803               	skipnc
  7895  0713  2F15               	goto	u1751
  7896  0714  2F16               	goto	u1750
  7897  0715                     u1751:
  7898  0715  2F1E               	goto	l1791
  7899  0716                     u1750:
  7900  0716                     l3864:
  7901  0716  0A76               	incf	fputc@fp,w
  7902  0717  0086               	movwf	6
  7903  0718  0187               	clrf	7
  7904  0719  3001               	movlw	1
  7905  071A  0781               	addwf	1,f
  7906  071B  3141               	addfsr 1,1
  7907  071C  1803               	skipnc
  7908  071D  0A81               	incf	1,f
  7909  071E                     l1791:
  7910  071E  0008               	return
  7911  071F                     __end_of_fputc:
  7912                           
  7913                           	psect	text26
  7914  0A43                     __ptext26:	
  7915 ;; *************** function _putch *****************
  7916 ;; Defined at:
  7917 ;;		line 201 in file "mcc_generated_files/eusart1.c"
  7918 ;; Parameters:    Size  Location     Type
  7919 ;;  txData          1    wreg     unsigned char 
  7920 ;; Auto vars:     Size  Location     Type
  7921 ;;  txData          1    3[COMMON] unsigned char 
  7922 ;; Return value:  Size  Location     Type
  7923 ;;                  1    wreg      void 
  7924 ;; Registers used:
  7925 ;;		wreg, fsr1l, fsr1h, status,2, status,0, pclath, cstack
  7926 ;; Tracked objects:
  7927 ;;		On entry : 0/0
  7928 ;;		On exit  : 0/0
  7929 ;;		Unchanged: 0/0
  7930 ;; Data sizes:     COMMON   BANK0   BANK1   BANK2   BANK3   BANK4   BANK5   BANK6   BANK7   BANK8   BANK9  BANK10  BANK1
      +1  BANK12  BANK13  BANK14  BANK15  BANK16  BANK17  BANK18  BANK19  BANK20  BANK21  BANK22  BANK23  BANK24  BANK25
  7931 ;;      Params:         0       0       0       0       0       0       0       0       0       0       0       0       
      +0       0       0       0       0       0       0       0       0       0       0       0       0       0       0
  7932 ;;      Locals:         1       0       0       0       0       0       0       0       0       0       0       0       
      +0       0       0       0       0       0       0       0       0       0       0       0       0       0       0
  7933 ;;      Temps:          0       0       0       0       0       0       0       0       0       0       0       0       
      +0       0       0       0       0       0       0       0       0       0       0       0       0       0       0
  7934 ;;      Totals:         1       0       0       0       0       0       0       0       0       0       0       0       
      +0       0       0       0       0       0       0       0       0       0       0       0       0       0       0
  7935 ;;Total ram usage:        1 bytes
  7936 ;; Hardware stack levels used: 1
  7937 ;; Hardware stack levels required when called: 5
  7938 ;; This function calls:
  7939 ;;		_EUSART1_Write
  7940 ;; This function is called by:
  7941 ;;		_fputc
  7942 ;; This function uses a non-reentrant model
  7943 ;;
  7944                           
  7945                           
  7946                           ;psect for function _putch
  7947  0A43                     _putch:
  7948                           
  7949                           ;incstack = 0
  7950                           ; Regs used in _putch: [wreg+fsr1l+fsr1h+status,2+status,0+pclath+cstack]
  7951                           ;putch@txData stored from wreg
  7952  0A43  00F3               	movwf	putch@txData
  7953  0A44                     l3716:
  7954                           
  7955                           ;mcc_generated_files/eusart1.c: 201: void putch(char txData);mcc_generated_files/eusart1
      +                          .c: 202: {;mcc_generated_files/eusart1.c: 203:     EUSART1_Write(txData);
  7956  0A44  0873               	movf	putch@txData,w
  7957  0A45  318E  2673  318A   	fcall	_EUSART1_Write
  7958  0A48                     l641:
  7959  0A48  0008               	return
  7960  0A49                     __end_of_putch:
  7961                           
  7962                           	psect	text27
  7963  0E73                     __ptext27:	
  7964 ;; *************** function _EUSART1_Write *****************
  7965 ;; Defined at:
  7966 ;;		line 173 in file "mcc_generated_files/eusart1.c"
  7967 ;; Parameters:    Size  Location     Type
  7968 ;;  txData          1    wreg     unsigned char 
  7969 ;; Auto vars:     Size  Location     Type
  7970 ;;  txData          1    2[COMMON] unsigned char 
  7971 ;; Return value:  Size  Location     Type
  7972 ;;                  1    wreg      void 
  7973 ;; Registers used:
  7974 ;;		wreg, fsr1l, fsr1h, status,2, status,0
  7975 ;; Tracked objects:
  7976 ;;		On entry : 0/0
  7977 ;;		On exit  : 0/0
  7978 ;;		Unchanged: 0/0
  7979 ;; Data sizes:     COMMON   BANK0   BANK1   BANK2   BANK3   BANK4   BANK5   BANK6   BANK7   BANK8   BANK9  BANK10  BANK1
      +1  BANK12  BANK13  BANK14  BANK15  BANK16  BANK17  BANK18  BANK19  BANK20  BANK21  BANK22  BANK23  BANK24  BANK25
  7980 ;;      Params:         0       0       0       0       0       0       0       0       0       0       0       0       
      +0       0       0       0       0       0       0       0       0       0       0       0       0       0       0
  7981 ;;      Locals:         1       0       0       0       0       0       0       0       0       0       0       0       
      +0       0       0       0       0       0       0       0       0       0       0       0       0       0       0
  7982 ;;      Temps:          1       0       0       0       0       0       0       0       0       0       0       0       
      +0       0       0       0       0       0       0       0       0       0       0       0       0       0       0
  7983 ;;      Totals:         2       0       0       0       0       0       0       0       0       0       0       0       
      +0       0       0       0       0       0       0       0       0       0       0       0       0       0       0
  7984 ;;Total ram usage:        2 bytes
  7985 ;; Hardware stack levels used: 1
  7986 ;; Hardware stack levels required when called: 4
  7987 ;; This function calls:
  7988 ;;		Nothing
  7989 ;; This function is called by:
  7990 ;;		_putch
  7991 ;; This function uses a non-reentrant model
  7992 ;;
  7993                           
  7994                           
  7995                           ;psect for function _EUSART1_Write
  7996  0E73                     _EUSART1_Write:
  7997                           
  7998                           ;incstack = 0
  7999                           ; Regs used in _EUSART1_Write: [wreg+fsr1l+fsr1h+status,2+status,0]
  8000                           ;EUSART1_Write@txData stored from wreg
  8001  0E73  00F2               	movwf	EUSART1_Write@txData
  8002  0E74                     l3684:
  8003  0E74                     l3686:	
  8004                           ;mcc_generated_files/eusart1.c: 173: void EUSART1_Write(uint8_t txData);mcc_generated_fi
      +                          les/eusart1.c: 174: {;mcc_generated_files/eusart1.c: 175:     while(0 == eusart1TxBuffer
      +                          Remaining)
  8005                           
  8006                           
  8007                           ;mcc_generated_files/eusart1.c: 175:     while(0 == eusart1TxBufferRemaining)
  8008  0E74  0142               	movlb	2	; select bank2
  8009  0E75  086E               	movf	_eusart1TxBufferRemaining^(0+256),w	;volatile
  8010  0E76  1903               	btfsc	3,2
  8011  0E77  2E79               	goto	u1681
  8012  0E78  2E7A               	goto	u1680
  8013  0E79                     u1681:
  8014  0E79  2E74               	goto	l3686
  8015  0E7A                     u1680:
  8016  0E7A                     l631:
  8017                           
  8018                           ;mcc_generated_files/eusart1.c: 179:     if(0 == PIE3bits.TX1IE)
  8019  0E7A  014E               	movlb	14	; select bank14
  8020  0E7B  1A19               	btfsc	25,4	;volatile
  8021  0E7C  2E7E               	goto	u1691
  8022  0E7D  2E7F               	goto	u1690
  8023  0E7E                     u1691:
  8024  0E7E  2E83               	goto	l632
  8025  0E7F                     u1690:
  8026  0E7F                     l3688:
  8027                           
  8028                           ;mcc_generated_files/eusart1.c: 180:     {;mcc_generated_files/eusart1.c: 181:         T
      +                          X1REG = txData;
  8029  0E7F  0872               	movf	EUSART1_Write@txData,w
  8030  0E80  0142               	movlb	2	; select bank2
  8031  0E81  009A               	movwf	26	;volatile
  8032                           
  8033                           ;mcc_generated_files/eusart1.c: 182:     }
  8034  0E82  2E9C               	goto	l3700
  8035  0E83                     l632:	
  8036                           ;mcc_generated_files/eusart1.c: 183:     else
  8037                           
  8038                           
  8039                           ;mcc_generated_files/eusart1.c: 184:     {;mcc_generated_files/eusart1.c: 185:         P
      +                          IE3bits.TX1IE = 0;
  8040  0E83  1219               	bcf	25,4	;volatile
  8041  0E84                     l3690:
  8042                           
  8043                           ;mcc_generated_files/eusart1.c: 186:         eusart1TxBuffer[eusart1TxHead++] = txData;
  8044  0E84  0872               	movf	EUSART1_Write@txData,w
  8045  0E85  00F1               	movwf	??_EUSART1_Write
  8046  0E86  0141               	movlb	1	; select bank1
  8047  0E87  086F               	movf	_eusart1TxHead^(0+128),w
  8048  0E88  3EA0               	addlw	(low (_eusart1TxBuffer| (0+512)))& (0+255)
  8049  0E89  0086               	movwf	6
  8050  0E8A  3002               	movlw	2	; select bank5/6
  8051  0E8B  0087               	movwf	7
  8052  0E8C  0871               	movf	??_EUSART1_Write,w
  8053  0E8D  0081               	movwf	1
  8054  0E8E                     l3692:
  8055  0E8E  3001               	movlw	1
  8056  0E8F  00F1               	movwf	??_EUSART1_Write
  8057  0E90  0871               	movf	??_EUSART1_Write,w
  8058  0E91  07EF               	addwf	_eusart1TxHead^(0+128),f	;volatile
  8059  0E92                     l3694:
  8060                           
  8061                           ;mcc_generated_files/eusart1.c: 187:         if(sizeof(eusart1TxBuffer) <= eusart1TxHead
      +                          )
  8062  0E92  3040               	movlw	64
  8063  0E93  026F               	subwf	_eusart1TxHead^(0+128),w	;volatile
  8064  0E94  1C03               	skipc
  8065  0E95  2E97               	goto	u1701
  8066  0E96  2E98               	goto	u1700
  8067  0E97                     u1701:
  8068  0E97  2E99               	goto	l3698
  8069  0E98                     u1700:
  8070  0E98                     l3696:
  8071                           
  8072                           ;mcc_generated_files/eusart1.c: 188:         {;mcc_generated_files/eusart1.c: 189:      
      +                                 eusart1TxHead = 0;
  8073  0E98  01EF               	clrf	_eusart1TxHead^(0+128)	;volatile
  8074  0E99                     l3698:
  8075                           
  8076                           ;mcc_generated_files/eusart1.c: 191:         eusart1TxBufferRemaining--;
  8077  0E99  3001               	movlw	1
  8078  0E9A  0142               	movlb	2	; select bank2
  8079  0E9B  02EE               	subwf	_eusart1TxBufferRemaining^(0+256),f	;volatile
  8080  0E9C                     l3700:
  8081                           
  8082                           ;mcc_generated_files/eusart1.c: 193:     PIE3bits.TX1IE = 1;
  8083  0E9C  014E               	movlb	14	; select bank14
  8084  0E9D  1619               	bsf	25,4	;volatile
  8085  0E9E                     l635:
  8086  0E9E  0008               	return
  8087  0E9F                     __end_of_EUSART1_Write:
  8088                           
  8089                           	psect	text28
  8090  0BEA                     __ptext28:	
  8091 ;; *************** function _isupper *****************
  8092 ;; Defined at:
  8093 ;;		line 5 in file "C:\Program Files\Microchip\xc8\v2.32\pic\sources\c99\common\isupper.c"
  8094 ;; Parameters:    Size  Location     Type
  8095 ;;  c               2    1[COMMON] int 
  8096 ;; Auto vars:     Size  Location     Type
  8097 ;;		None
  8098 ;; Return value:  Size  Location     Type
  8099 ;;                  2    1[COMMON] int 
  8100 ;; Registers used:
  8101 ;;		wreg, status,2, status,0
  8102 ;; Tracked objects:
  8103 ;;		On entry : 0/0
  8104 ;;		On exit  : 0/0
  8105 ;;		Unchanged: 0/0
  8106 ;; Data sizes:     COMMON   BANK0   BANK1   BANK2   BANK3   BANK4   BANK5   BANK6   BANK7   BANK8   BANK9  BANK10  BANK1
      +1  BANK12  BANK13  BANK14  BANK15  BANK16  BANK17  BANK18  BANK19  BANK20  BANK21  BANK22  BANK23  BANK24  BANK25
  8107 ;;      Params:         2       0       0       0       0       0       0       0       0       0       0       0       
      +0       0       0       0       0       0       0       0       0       0       0       0       0       0       0
  8108 ;;      Locals:         0       0       0       0       0       0       0       0       0       0       0       0       
      +0       0       0       0       0       0       0       0       0       0       0       0       0       0       0
  8109 ;;      Temps:          4       0       0       0       0       0       0       0       0       0       0       0       
      +0       0       0       0       0       0       0       0       0       0       0       0       0       0       0
  8110 ;;      Totals:         6       0       0       0       0       0       0       0       0       0       0       0       
      +0       0       0       0       0       0       0       0       0       0       0       0       0       0       0
  8111 ;;Total ram usage:        6 bytes
  8112 ;; Hardware stack levels used: 1
  8113 ;; Hardware stack levels required when called: 4
  8114 ;; This function calls:
  8115 ;;		Nothing
  8116 ;; This function is called by:
  8117 ;;		_xtoa
  8118 ;; This function uses a non-reentrant model
  8119 ;;
  8120                           
  8121                           
  8122                           ;psect for function _isupper
  8123  0BEA                     _isupper:
  8124  0BEA                     l4092:	
  8125                           ;incstack = 0
  8126                           ; Regs used in _isupper: [wreg+status,2+status,0]
  8127                           
  8128  0BEA  0871               	movf	isupper@c,w
  8129  0BEB  3EBF               	addlw	191
  8130  0BEC  00F3               	movwf	??_isupper
  8131  0BED  30FF               	movlw	255
  8132  0BEE  3D72               	addwfc	isupper@c+1,w
  8133  0BEF  00F4               	movwf	??_isupper+1
  8134  0BF0  3000               	movlw	0
  8135  0BF1  0274               	subwf	??_isupper+1,w
  8136  0BF2  301A               	movlw	26
  8137  0BF3  1903               	skipnz
  8138  0BF4  0273               	subwf	??_isupper,w
  8139  0BF5  1C03               	skipc
  8140  0BF6  2BF8               	goto	u1941
  8141  0BF7  2BFA               	goto	u1940
  8142  0BF8                     u1941:
  8143  0BF8  3001               	movlw	1
  8144  0BF9  2BFB               	goto	u1950
  8145  0BFA                     u1940:
  8146  0BFA  3000               	movlw	0
  8147  0BFB                     u1950:
  8148  0BFB  00F5               	movwf	??_isupper+2
  8149  0BFC  01F6               	clrf	??_isupper+3
  8150  0BFD  0875               	movf	??_isupper+2,w
  8151  0BFE  00F1               	movwf	?_isupper
  8152  0BFF  0876               	movf	??_isupper+3,w
  8153  0C00  00F2               	movwf	?_isupper+1
  8154  0C01                     l1776:
  8155  0C01  0008               	return
  8156  0C02                     __end_of_isupper:
  8157                           
  8158                           	psect	text29
  8159  0CBC                     __ptext29:	
  8160 ;; *************** function _isalpha *****************
  8161 ;; Defined at:
  8162 ;;		line 5 in file "C:\Program Files\Microchip\xc8\v2.32\pic\sources\c99\common\isalpha.c"
  8163 ;; Parameters:    Size  Location     Type
  8164 ;;  c               2    1[COMMON] int 
  8165 ;; Auto vars:     Size  Location     Type
  8166 ;;		None
  8167 ;; Return value:  Size  Location     Type
  8168 ;;                  2    1[COMMON] int 
  8169 ;; Registers used:
  8170 ;;		wreg, status,2, status,0
  8171 ;; Tracked objects:
  8172 ;;		On entry : 0/0
  8173 ;;		On exit  : 0/0
  8174 ;;		Unchanged: 0/0
  8175 ;; Data sizes:     COMMON   BANK0   BANK1   BANK2   BANK3   BANK4   BANK5   BANK6   BANK7   BANK8   BANK9  BANK10  BANK1
      +1  BANK12  BANK13  BANK14  BANK15  BANK16  BANK17  BANK18  BANK19  BANK20  BANK21  BANK22  BANK23  BANK24  BANK25
  8176 ;;      Params:         2       0       0       0       0       0       0       0       0       0       0       0       
      +0       0       0       0       0       0       0       0       0       0       0       0       0       0       0
  8177 ;;      Locals:         0       0       0       0       0       0       0       0       0       0       0       0       
      +0       0       0       0       0       0       0       0       0       0       0       0       0       0       0
  8178 ;;      Temps:          6       0       0       0       0       0       0       0       0       0       0       0       
      +0       0       0       0       0       0       0       0       0       0       0       0       0       0       0
  8179 ;;      Totals:         8       0       0       0       0       0       0       0       0       0       0       0       
      +0       0       0       0       0       0       0       0       0       0       0       0       0       0       0
  8180 ;;Total ram usage:        8 bytes
  8181 ;; Hardware stack levels used: 1
  8182 ;; Hardware stack levels required when called: 4
  8183 ;; This function calls:
  8184 ;;		Nothing
  8185 ;; This function is called by:
  8186 ;;		_xtoa
  8187 ;; This function uses a non-reentrant model
  8188 ;;
  8189                           
  8190                           
  8191                           ;psect for function _isalpha
  8192  0CBC                     _isalpha:
  8193  0CBC                     l4096:	
  8194                           ;incstack = 0
  8195                           ; Regs used in _isalpha: [wreg+status,2+status,0]
  8196                           
  8197  0CBC  3020               	movlw	32
  8198  0CBD  0471               	iorwf	isalpha@c,w
  8199  0CBE  00F3               	movwf	??_isalpha
  8200  0CBF  3000               	movlw	0
  8201  0CC0  0472               	iorwf	isalpha@c+1,w
  8202  0CC1  00F4               	movwf	??_isalpha+1
  8203  0CC2  0873               	movf	??_isalpha,w
  8204  0CC3  3E9F               	addlw	159
  8205  0CC4  00F5               	movwf	??_isalpha+2
  8206  0CC5  30FF               	movlw	255
  8207  0CC6  3D74               	addwfc	??_isalpha+1,w
  8208  0CC7  00F6               	movwf	??_isalpha+3
  8209  0CC8  3000               	movlw	0
  8210  0CC9  0276               	subwf	??_isalpha+3,w
  8211  0CCA  301A               	movlw	26
  8212  0CCB  1903               	skipnz
  8213  0CCC  0275               	subwf	??_isalpha+2,w
  8214  0CCD  1C03               	skipc
  8215  0CCE  2CD0               	goto	u1961
  8216  0CCF  2CD2               	goto	u1960
  8217  0CD0                     u1961:
  8218  0CD0  3001               	movlw	1
  8219  0CD1  2CD3               	goto	u1970
  8220  0CD2                     u1960:
  8221  0CD2  3000               	movlw	0
  8222  0CD3                     u1970:
  8223  0CD3  00F7               	movwf	??_isalpha+4
  8224  0CD4  01F8               	clrf	??_isalpha+5
  8225  0CD5  0877               	movf	??_isalpha+4,w
  8226  0CD6  00F1               	movwf	?_isalpha
  8227  0CD7  0878               	movf	??_isalpha+5,w
  8228  0CD8  00F2               	movwf	?_isalpha+1
  8229  0CD9                     l1756:
  8230  0CD9  0008               	return
  8231  0CDA                     __end_of_isalpha:
  8232                           
  8233                           	psect	text30
  8234  0449                     __ptext30:	
  8235 ;; *************** function _atoi *****************
  8236 ;; Defined at:
  8237 ;;		line 4 in file "C:\Program Files\Microchip\xc8\v2.32\pic\sources\c99\common\atoi.c"
  8238 ;; Parameters:    Size  Location     Type
  8239 ;;  s               2    7[COMMON] PTR const unsigned char 
  8240 ;;		 -> STR_5(30), STR_4(2), STR_3(13), STR_2(22), 
  8241 ;;		 -> STR_1(26), 
  8242 ;; Auto vars:     Size  Location     Type
  8243 ;;  n               2   11[BANK0 ] int 
  8244 ;;  neg             2    4[BANK0 ] int 
  8245 ;; Return value:  Size  Location     Type
  8246 ;;                  2    7[COMMON] int 
  8247 ;; Registers used:
  8248 ;;		wreg, fsr0l, fsr0h, status,2, status,0, pclath, cstack
  8249 ;; Tracked objects:
  8250 ;;		On entry : 0/0
  8251 ;;		On exit  : 0/0
  8252 ;;		Unchanged: 0/0
  8253 ;; Data sizes:     COMMON   BANK0   BANK1   BANK2   BANK3   BANK4   BANK5   BANK6   BANK7   BANK8   BANK9  BANK10  BANK1
      +1  BANK12  BANK13  BANK14  BANK15  BANK16  BANK17  BANK18  BANK19  BANK20  BANK21  BANK22  BANK23  BANK24  BANK25
  8254 ;;      Params:         2       0       0       0       0       0       0       0       0       0       0       0       
      +0       0       0       0       0       0       0       0       0       0       0       0       0       0       0
  8255 ;;      Locals:         0       9       0       0       0       0       0       0       0       0       0       0       
      +0       0       0       0       0       0       0       0       0       0       0       0       0       0       0
  8256 ;;      Temps:          0       4       0       0       0       0       0       0       0       0       0       0       
      +0       0       0       0       0       0       0       0       0       0       0       0       0       0       0
  8257 ;;      Totals:         2      13       0       0       0       0       0       0       0       0       0       0       
      +0       0       0       0       0       0       0       0       0       0       0       0       0       0       0
  8258 ;;Total ram usage:       15 bytes
  8259 ;; Hardware stack levels used: 1
  8260 ;; Hardware stack levels required when called: 5
  8261 ;; This function calls:
  8262 ;;		___wmul
  8263 ;;		_isdigit
  8264 ;;		_isspace
  8265 ;; This function is called by:
  8266 ;;		_vfpfcnvrt
  8267 ;; This function uses a non-reentrant model
  8268 ;;
  8269                           
  8270                           
  8271                           ;psect for function _atoi
  8272  0449                     _atoi:
  8273  0449                     l5946:	
  8274                           ;incstack = 0
  8275                           ; Regs used in _atoi: [wreg-fsr0h+status,2+status,0+pclath+cstack]
  8276                           
  8277  0449  0140               	movlb	0	; select bank0
  8278  044A  01AB               	clrf	atoi@n
  8279  044B  01AC               	clrf	atoi@n+1
  8280  044C  01A4               	clrf	atoi@neg
  8281  044D  01A5               	clrf	atoi@neg+1
  8282  044E  2C53               	goto	l5950
  8283  044F                     l5948:
  8284  044F  3001               	movlw	1
  8285  0450  07F7               	addwf	atoi@s,f
  8286  0451  3000               	movlw	0
  8287  0452  3DF8               	addwfc	atoi@s+1,f
  8288  0453                     l5950:
  8289  0453  01AA               	clrf	_atoi$2131
  8290  0454  0AAA               	incf	_atoi$2131,f
  8291  0455                     l5952:
  8292  0455  0877               	movf	atoi@s,w
  8293  0456  0084               	movwf	4
  8294  0457  0878               	movf	atoi@s+1,w
  8295  0458  0085               	movwf	5
  8296  0459  0012               	moviw fsr0++
  8297  045A  3A20               	xorlw	32
  8298  045B  1903               	btfsc	3,2
  8299  045C  2C5E               	goto	u3691
  8300  045D  2C5F               	goto	u3690
  8301  045E                     u3691:
  8302  045E  2C74               	goto	l5958
  8303  045F                     u3690:
  8304  045F                     l5954:
  8305  045F  0877               	movf	atoi@s,w
  8306  0460  0084               	movwf	4
  8307  0461  0878               	movf	atoi@s+1,w
  8308  0462  0085               	movwf	5
  8309  0463  0800               	movf	0,w	;code access
  8310  0464  3EF7               	addlw	247
  8311  0465  00A0               	movwf	??_atoi
  8312  0466  30FF               	movlw	255
  8313  0467  1803               	skipnc
  8314  0468  3000               	movlw	0
  8315  0469  00A1               	movwf	??_atoi+1
  8316  046A  3000               	movlw	0
  8317  046B  0221               	subwf	??_atoi+1,w
  8318  046C  3005               	movlw	5
  8319  046D  1903               	skipnz
  8320  046E  0220               	subwf	??_atoi,w
  8321  046F  1C03               	skipc
  8322  0470  2C72               	goto	u3701
  8323  0471  2C73               	goto	u3700
  8324  0472                     u3701:
  8325  0472  2C74               	goto	l5958
  8326  0473                     u3700:
  8327  0473                     l5956:
  8328  0473  01AA               	clrf	_atoi$2131
  8329  0474                     l5958:
  8330  0474  082A               	movf	_atoi$2131,w
  8331  0475  00A0               	movwf	??_atoi
  8332  0476  01A1               	clrf	??_atoi+1
  8333  0477  0820               	movf	??_atoi,w
  8334  0478  00A6               	movwf	_atoi$2130
  8335  0479  0821               	movf	??_atoi+1,w
  8336  047A  00A7               	movwf	_atoi$2130+1
  8337  047B                     l5962:
  8338  047B  0826               	movf	_atoi$2130,w
  8339  047C  0427               	iorwf	_atoi$2130+1,w
  8340  047D  1D03               	btfss	3,2
  8341  047E  2C80               	goto	u3711
  8342  047F  2C81               	goto	u3710
  8343  0480                     u3711:
  8344  0480  2C4F               	goto	l5948
  8345  0481                     u3710:
  8346  0481  2C8B               	goto	l5966
  8347  0482                     l5964:
  8348  0482  3001               	movlw	1
  8349  0483  00A4               	movwf	atoi@neg
  8350  0484  3000               	movlw	0
  8351  0485  00A5               	movwf	atoi@neg+1
  8352  0486                     l1740:
  8353  0486  3001               	movlw	1
  8354  0487  07F7               	addwf	atoi@s,f
  8355  0488  3000               	movlw	0
  8356  0489  3DF8               	addwfc	atoi@s+1,f
  8357  048A  2CBF               	goto	l5972
  8358  048B                     l5966:
  8359  048B  0877               	movf	atoi@s,w
  8360  048C  0084               	movwf	4
  8361  048D  0878               	movf	atoi@s+1,w
  8362  048E  0085               	movwf	5
  8363  048F  0800               	movf	0,w	;code access
  8364  0490  00A0               	movwf	??_atoi
  8365  0491  01A1               	clrf	??_atoi+1
  8366                           
  8367                           ; Switch on 2 bytes has been partitioned into a top level switch of size 1, and 1 sub-sw
      +                          itches
  8368                           ; Switch size 1, requested type "simple"
  8369                           ; Number of cases is 1, Range of values is 0 to 0
  8370                           ; switch strategies available:
  8371                           ; Name         Instructions Cycles
  8372                           ; simple_byte            4     3 (average)
  8373                           ; direct_byte            8     6 (fixed)
  8374                           ; jumptable            260     6 (fixed)
  8375                           ;	Chosen strategy is simple_byte
  8376  0492  0821               	movf	??_atoi+1,w
  8377  0493  3A00               	xorlw	0	; case 0
  8378  0494  1903               	skipnz
  8379  0495  2C97               	goto	l6750
  8380  0496  2CBF               	goto	l5972
  8381  0497                     l6750:
  8382                           
  8383                           ; Switch size 1, requested type "simple"
  8384                           ; Number of cases is 2, Range of values is 43 to 45
  8385                           ; switch strategies available:
  8386                           ; Name         Instructions Cycles
  8387                           ; simple_byte            7     4 (average)
  8388                           ; direct_byte           15     9 (fixed)
  8389                           ; jumptable            263     9 (fixed)
  8390                           ;	Chosen strategy is simple_byte
  8391  0497  0820               	movf	??_atoi,w
  8392  0498  3A2B               	xorlw	43	; case 43
  8393  0499  1903               	skipnz
  8394  049A  2C86               	goto	l1740
  8395  049B  3A06               	xorlw	6	; case 45
  8396  049C  1903               	skipnz
  8397  049D  2C82               	goto	l5964
  8398  049E  2CBF               	goto	l5972
  8399  049F                     l5968:
  8400  049F  0877               	movf	atoi@s,w
  8401  04A0  0084               	movwf	4
  8402  04A1  0878               	movf	atoi@s+1,w
  8403  04A2  0085               	movwf	5
  8404  04A3  0800               	movf	0,w	;code access
  8405  04A4  00A0               	movwf	??_atoi
  8406  04A5  082C               	movf	atoi@n+1,w
  8407  04A6  00F2               	movwf	___wmul@multiplier+1
  8408  04A7  082B               	movf	atoi@n,w
  8409  04A8  00F1               	movwf	___wmul@multiplier
  8410  04A9  300A               	movlw	10
  8411  04AA  00F3               	movwf	___wmul@multiplicand
  8412  04AB  3000               	movlw	0
  8413  04AC  00F4               	movwf	___wmul@multiplicand+1
  8414  04AD  318C  24DA  3184   	fcall	___wmul
  8415  04B0  0872               	movf	?___wmul+1,w
  8416  04B1  0140               	movlb	0	; select bank0
  8417  04B2  00A2               	movwf	??_atoi+2
  8418  04B3  0820               	movf	??_atoi,w
  8419  04B4  0271               	subwf	?___wmul,w
  8420  04B5  00A1               	movwf	??_atoi+1
  8421  04B6  1C03               	skipc
  8422  04B7  03A2               	decf	??_atoi+2,f
  8423  04B8  0821               	movf	??_atoi+1,w
  8424  04B9  3E30               	addlw	48
  8425  04BA  00AB               	movwf	atoi@n
  8426  04BB  3000               	movlw	0
  8427  04BC  3D22               	addwfc	??_atoi+2,w
  8428  04BD  00AC               	movwf	atoi@n+1
  8429  04BE  2C86               	goto	l1740
  8430  04BF                     l5972:
  8431  04BF  0877               	movf	atoi@s,w
  8432  04C0  0084               	movwf	4
  8433  04C1  0878               	movf	atoi@s+1,w
  8434  04C2  0085               	movwf	5
  8435  04C3  0800               	movf	0,w	;code access
  8436  04C4  3ED0               	addlw	208
  8437  04C5  00A0               	movwf	??_atoi
  8438  04C6  30FF               	movlw	255
  8439  04C7  1803               	skipnc
  8440  04C8  3000               	movlw	0
  8441  04C9  00A1               	movwf	??_atoi+1
  8442  04CA  3000               	movlw	0
  8443  04CB  0221               	subwf	??_atoi+1,w
  8444  04CC  300A               	movlw	10
  8445  04CD  1903               	skipnz
  8446  04CE  0220               	subwf	??_atoi,w
  8447  04CF  1C03               	skipc
  8448  04D0  2CD2               	goto	u3721
  8449  04D1  2CD4               	goto	u3720
  8450  04D2                     u3721:
  8451  04D2  3001               	movlw	1
  8452  04D3  2CD5               	goto	u3730
  8453  04D4                     u3720:
  8454  04D4  3000               	movlw	0
  8455  04D5                     u3730:
  8456  04D5  00A2               	movwf	??_atoi+2
  8457  04D6  01A3               	clrf	??_atoi+3
  8458  04D7  0822               	movf	??_atoi+2,w
  8459  04D8  00A8               	movwf	_atoi$2132
  8460  04D9  0823               	movf	??_atoi+3,w
  8461  04DA  00A9               	movwf	_atoi$2132+1
  8462  04DB                     l5976:
  8463  04DB  0828               	movf	_atoi$2132,w
  8464  04DC  0429               	iorwf	_atoi$2132+1,w
  8465  04DD  1D03               	btfss	3,2
  8466  04DE  2CE0               	goto	u3741
  8467  04DF  2CE1               	goto	u3740
  8468  04E0                     u3741:
  8469  04E0  2C9F               	goto	l5968
  8470  04E1                     u3740:
  8471  04E1                     l5978:
  8472  04E1  0824               	movf	atoi@neg,w
  8473  04E2  0425               	iorwf	atoi@neg+1,w
  8474  04E3  1D03               	btfss	3,2
  8475  04E4  2CE6               	goto	u3751
  8476  04E5  2CE7               	goto	u3750
  8477  04E6                     u3751:
  8478  04E6  2CF3               	goto	l5982
  8479  04E7                     u3750:
  8480  04E7                     l5980:
  8481  04E7  092B               	comf	atoi@n,w
  8482  04E8  00A0               	movwf	??_atoi
  8483  04E9  092C               	comf	atoi@n+1,w
  8484  04EA  00A1               	movwf	??_atoi+1
  8485  04EB  0AA0               	incf	??_atoi,f
  8486  04EC  1903               	skipnz
  8487  04ED  0AA1               	incf	??_atoi+1,f
  8488  04EE  0820               	movf	??_atoi,w
  8489  04EF  00F7               	movwf	?_atoi
  8490  04F0  0821               	movf	??_atoi+1,w
  8491  04F1  00F8               	movwf	?_atoi+1
  8492  04F2  2CF7               	goto	l1753
  8493  04F3                     l5982:
  8494  04F3  082C               	movf	atoi@n+1,w
  8495  04F4  00F8               	movwf	?_atoi+1
  8496  04F5  082B               	movf	atoi@n,w
  8497  04F6  00F7               	movwf	?_atoi
  8498  04F7                     l1753:
  8499  04F7  0008               	return
  8500  04F8                     __end_of_atoi:
  8501                           
  8502                           	psect	text31
  8503  0CF9                     __ptext31:	
  8504 ;; *************** function _isspace *****************
  8505 ;; Defined at:
  8506 ;;		line 5 in file "C:\Program Files\Microchip\xc8\v2.32\pic\sources\c99\common\isspace.c"
  8507 ;; Parameters:    Size  Location     Type
  8508 ;;  c               2    1[COMMON] int 
  8509 ;; Auto vars:     Size  Location     Type
  8510 ;;		None
  8511 ;; Return value:  Size  Location     Type
  8512 ;;                  2    1[COMMON] int 
  8513 ;; Registers used:
  8514 ;;		wreg, status,2, status,0
  8515 ;; Tracked objects:
  8516 ;;		On entry : 0/0
  8517 ;;		On exit  : 0/0
  8518 ;;		Unchanged: 0/0
  8519 ;; Data sizes:     COMMON   BANK0   BANK1   BANK2   BANK3   BANK4   BANK5   BANK6   BANK7   BANK8   BANK9  BANK10  BANK1
      +1  BANK12  BANK13  BANK14  BANK15  BANK16  BANK17  BANK18  BANK19  BANK20  BANK21  BANK22  BANK23  BANK24  BANK25
  8520 ;;      Params:         2       0       0       0       0       0       0       0       0       0       0       0       
      +0       0       0       0       0       0       0       0       0       0       0       0       0       0       0
  8521 ;;      Locals:         1       0       0       0       0       0       0       0       0       0       0       0       
      +0       0       0       0       0       0       0       0       0       0       0       0       0       0       0
  8522 ;;      Temps:          2       0       0       0       0       0       0       0       0       0       0       0       
      +0       0       0       0       0       0       0       0       0       0       0       0       0       0       0
  8523 ;;      Totals:         5       0       0       0       0       0       0       0       0       0       0       0       
      +0       0       0       0       0       0       0       0       0       0       0       0       0       0       0
  8524 ;;Total ram usage:        5 bytes
  8525 ;; Hardware stack levels used: 1
  8526 ;; Hardware stack levels required when called: 4
  8527 ;; This function calls:
  8528 ;;		Nothing
  8529 ;; This function is called by:
  8530 ;;		_atoi
  8531 ;; This function uses a non-reentrant model
  8532 ;;
  8533                           
  8534                           
  8535                           ;psect for function _isspace
  8536  0CF9                     _isspace:
  8537  0CF9                     l4114:	
  8538                           ;incstack = 0
  8539                           ; Regs used in _isspace: [wreg+status,2+status,0]
  8540                           
  8541  0CF9  01F5               	clrf	_isspace$2157
  8542  0CFA  0AF5               	incf	_isspace$2157,f
  8543  0CFB                     l4116:
  8544  0CFB  3020               	movlw	32
  8545  0CFC  0671               	xorwf	isspace@c,w
  8546  0CFD  0472               	iorwf	isspace@c+1,w
  8547  0CFE  1903               	btfsc	3,2
  8548  0CFF  2D01               	goto	u2031
  8549  0D00  2D02               	goto	u2030
  8550  0D01                     u2031:
  8551  0D01  2D12               	goto	l4122
  8552  0D02                     u2030:
  8553  0D02                     l4118:
  8554  0D02  0871               	movf	isspace@c,w
  8555  0D03  3EF7               	addlw	247
  8556  0D04  00F3               	movwf	??_isspace
  8557  0D05  30FF               	movlw	255
  8558  0D06  3D72               	addwfc	isspace@c+1,w
  8559  0D07  00F4               	movwf	??_isspace+1
  8560  0D08  3000               	movlw	0
  8561  0D09  0274               	subwf	??_isspace+1,w
  8562  0D0A  3005               	movlw	5
  8563  0D0B  1903               	skipnz
  8564  0D0C  0273               	subwf	??_isspace,w
  8565  0D0D  1C03               	skipc
  8566  0D0E  2D10               	goto	u2041
  8567  0D0F  2D11               	goto	u2040
  8568  0D10                     u2041:
  8569  0D10  2D12               	goto	l4122
  8570  0D11                     u2040:
  8571  0D11                     l4120:
  8572  0D11  01F5               	clrf	_isspace$2157
  8573  0D12                     l4122:
  8574  0D12  0875               	movf	_isspace$2157,w
  8575  0D13  00F3               	movwf	??_isspace
  8576  0D14  01F4               	clrf	??_isspace+1
  8577  0D15  0873               	movf	??_isspace,w
  8578  0D16  00F1               	movwf	?_isspace
  8579  0D17  0874               	movf	??_isspace+1,w
  8580  0D18  00F2               	movwf	?_isspace+1
  8581  0D19                     l1770:
  8582  0D19  0008               	return
  8583  0D1A                     __end_of_isspace:
  8584                           
  8585                           	psect	text32
  8586  0BD2                     __ptext32:	
  8587 ;; *************** function _isdigit *****************
  8588 ;; Defined at:
  8589 ;;		line 5 in file "C:\Program Files\Microchip\xc8\v2.32\pic\sources\c99\common\isdigit.c"
  8590 ;; Parameters:    Size  Location     Type
  8591 ;;  c               2    1[COMMON] int 
  8592 ;; Auto vars:     Size  Location     Type
  8593 ;;		None
  8594 ;; Return value:  Size  Location     Type
  8595 ;;                  2    1[COMMON] int 
  8596 ;; Registers used:
  8597 ;;		wreg, status,2, status,0
  8598 ;; Tracked objects:
  8599 ;;		On entry : 0/0
  8600 ;;		On exit  : 0/0
  8601 ;;		Unchanged: 0/0
  8602 ;; Data sizes:     COMMON   BANK0   BANK1   BANK2   BANK3   BANK4   BANK5   BANK6   BANK7   BANK8   BANK9  BANK10  BANK1
      +1  BANK12  BANK13  BANK14  BANK15  BANK16  BANK17  BANK18  BANK19  BANK20  BANK21  BANK22  BANK23  BANK24  BANK25
  8603 ;;      Params:         2       0       0       0       0       0       0       0       0       0       0       0       
      +0       0       0       0       0       0       0       0       0       0       0       0       0       0       0
  8604 ;;      Locals:         0       0       0       0       0       0       0       0       0       0       0       0       
      +0       0       0       0       0       0       0       0       0       0       0       0       0       0       0
  8605 ;;      Temps:          4       0       0       0       0       0       0       0       0       0       0       0       
      +0       0       0       0       0       0       0       0       0       0       0       0       0       0       0
  8606 ;;      Totals:         6       0       0       0       0       0       0       0       0       0       0       0       
      +0       0       0       0       0       0       0       0       0       0       0       0       0       0       0
  8607 ;;Total ram usage:        6 bytes
  8608 ;; Hardware stack levels used: 1
  8609 ;; Hardware stack levels required when called: 4
  8610 ;; This function calls:
  8611 ;;		Nothing
  8612 ;; This function is called by:
  8613 ;;		_vfpfcnvrt
  8614 ;;		_atoi
  8615 ;; This function uses a non-reentrant model
  8616 ;;
  8617                           
  8618                           
  8619                           ;psect for function _isdigit
  8620  0BD2                     _isdigit:
  8621  0BD2                     l4110:	
  8622                           ;incstack = 0
  8623                           ; Regs used in _isdigit: [wreg+status,2+status,0]
  8624                           
  8625  0BD2  0871               	movf	isdigit@c,w
  8626  0BD3  3ED0               	addlw	208
  8627  0BD4  00F3               	movwf	??_isdigit
  8628  0BD5  30FF               	movlw	255
  8629  0BD6  3D72               	addwfc	isdigit@c+1,w
  8630  0BD7  00F4               	movwf	??_isdigit+1
  8631  0BD8  3000               	movlw	0
  8632  0BD9  0274               	subwf	??_isdigit+1,w
  8633  0BDA  300A               	movlw	10
  8634  0BDB  1903               	skipnz
  8635  0BDC  0273               	subwf	??_isdigit,w
  8636  0BDD  1C03               	skipc
  8637  0BDE  2BE0               	goto	u2011
  8638  0BDF  2BE2               	goto	u2010
  8639  0BE0                     u2011:
  8640  0BE0  3001               	movlw	1
  8641  0BE1  2BE3               	goto	u2020
  8642  0BE2                     u2010:
  8643  0BE2  3000               	movlw	0
  8644  0BE3                     u2020:
  8645  0BE3  00F5               	movwf	??_isdigit+2
  8646  0BE4  01F6               	clrf	??_isdigit+3
  8647  0BE5  0875               	movf	??_isdigit+2,w
  8648  0BE6  00F1               	movwf	?_isdigit
  8649  0BE7  0876               	movf	??_isdigit+3,w
  8650  0BE8  00F2               	movwf	?_isdigit+1
  8651  0BE9                     l1762:
  8652  0BE9  0008               	return
  8653  0BEA                     __end_of_isdigit:
  8654                           
  8655                           	psect	text33
  8656  0CDA                     __ptext33:	
  8657 ;; *************** function ___wmul *****************
  8658 ;; Defined at:
  8659 ;;		line 15 in file "C:\Program Files\Microchip\xc8\v2.32\pic\sources\c99\common\Umul16.c"
  8660 ;; Parameters:    Size  Location     Type
  8661 ;;  multiplier      2    1[COMMON] unsigned int 
  8662 ;;  multiplicand    2    3[COMMON] unsigned int 
  8663 ;; Auto vars:     Size  Location     Type
  8664 ;;  product         2    5[COMMON] unsigned int 
  8665 ;; Return value:  Size  Location     Type
  8666 ;;                  2    1[COMMON] unsigned int 
  8667 ;; Registers used:
  8668 ;;		wreg, status,2, status,0
  8669 ;; Tracked objects:
  8670 ;;		On entry : 0/0
  8671 ;;		On exit  : 0/0
  8672 ;;		Unchanged: 0/0
  8673 ;; Data sizes:     COMMON   BANK0   BANK1   BANK2   BANK3   BANK4   BANK5   BANK6   BANK7   BANK8   BANK9  BANK10  BANK1
      +1  BANK12  BANK13  BANK14  BANK15  BANK16  BANK17  BANK18  BANK19  BANK20  BANK21  BANK22  BANK23  BANK24  BANK25
  8674 ;;      Params:         4       0       0       0       0       0       0       0       0       0       0       0       
      +0       0       0       0       0       0       0       0       0       0       0       0       0       0       0
  8675 ;;      Locals:         2       0       0       0       0       0       0       0       0       0       0       0       
      +0       0       0       0       0       0       0       0       0       0       0       0       0       0       0
  8676 ;;      Temps:          0       0       0       0       0       0       0       0       0       0       0       0       
      +0       0       0       0       0       0       0       0       0       0       0       0       0       0       0
  8677 ;;      Totals:         6       0       0       0       0       0       0       0       0       0       0       0       
      +0       0       0       0       0       0       0       0       0       0       0       0       0       0       0
  8678 ;;Total ram usage:        6 bytes
  8679 ;; Hardware stack levels used: 1
  8680 ;; Hardware stack levels required when called: 4
  8681 ;; This function calls:
  8682 ;;		Nothing
  8683 ;; This function is called by:
  8684 ;;		_atoi
  8685 ;; This function uses a non-reentrant model
  8686 ;;
  8687                           
  8688                           
  8689                           ;psect for function ___wmul
  8690  0CDA                     ___wmul:
  8691  0CDA                     l4058:	
  8692                           ;incstack = 0
  8693                           ; Regs used in ___wmul: [wreg+status,2+status,0]
  8694                           
  8695  0CDA  01F5               	clrf	___wmul@product
  8696  0CDB  01F6               	clrf	___wmul@product+1
  8697  0CDC                     l4060:
  8698  0CDC  1C71               	btfss	___wmul@multiplier,0
  8699  0CDD  2CDF               	goto	u1861
  8700  0CDE  2CE0               	goto	u1860
  8701  0CDF                     u1861:
  8702  0CDF  2CE4               	goto	l1147
  8703  0CE0                     u1860:
  8704  0CE0                     l4062:
  8705  0CE0  0873               	movf	___wmul@multiplicand,w
  8706  0CE1  07F5               	addwf	___wmul@product,f
  8707  0CE2  0874               	movf	___wmul@multiplicand+1,w
  8708  0CE3  3DF6               	addwfc	___wmul@product+1,f
  8709  0CE4                     l1147:
  8710  0CE4  3001               	movlw	1
  8711  0CE5                     u1875:
  8712  0CE5  35F3               	lslf	___wmul@multiplicand,f
  8713  0CE6  0DF4               	rlf	___wmul@multiplicand+1,f
  8714  0CE7  0B89               	decfsz	9,f
  8715  0CE8  2CE5               	goto	u1875
  8716  0CE9                     l4064:
  8717  0CE9  3001               	movlw	1
  8718  0CEA                     u1885:
  8719  0CEA  36F2               	lsrf	___wmul@multiplier+1,f
  8720  0CEB  0CF1               	rrf	___wmul@multiplier,f
  8721  0CEC  0B89               	decfsz	9,f
  8722  0CED  2CEA               	goto	u1885
  8723  0CEE                     l4066:
  8724  0CEE  0871               	movf	___wmul@multiplier,w
  8725  0CEF  0472               	iorwf	___wmul@multiplier+1,w
  8726  0CF0  1D03               	btfss	3,2
  8727  0CF1  2CF3               	goto	u1891
  8728  0CF2  2CF4               	goto	u1890
  8729  0CF3                     u1891:
  8730  0CF3  2CDC               	goto	l4060
  8731  0CF4                     u1890:
  8732  0CF4                     l4068:
  8733  0CF4  0876               	movf	___wmul@product+1,w
  8734  0CF5  00F2               	movwf	?___wmul+1
  8735  0CF6  0875               	movf	___wmul@product,w
  8736  0CF7  00F1               	movwf	?___wmul
  8737  0CF8                     l1149:
  8738  0CF8  0008               	return
  8739  0CF9                     __end_of___wmul:
  8740                           
  8741                           	psect	text34
  8742  0A93                     __ptext34:	
  8743 ;; *************** function _EUSART1_is_rx_ready *****************
  8744 ;; Defined at:
  8745 ;;		line 137 in file "mcc_generated_files/eusart1.c"
  8746 ;; Parameters:    Size  Location     Type
  8747 ;;		None
  8748 ;; Auto vars:     Size  Location     Type
  8749 ;;		None
  8750 ;; Return value:  Size  Location     Type
  8751 ;;                  1    wreg      _Bool 
  8752 ;; Registers used:
  8753 ;;		wreg, status,2, status,0
  8754 ;; Tracked objects:
  8755 ;;		On entry : 0/0
  8756 ;;		On exit  : 0/0
  8757 ;;		Unchanged: 0/0
  8758 ;; Data sizes:     COMMON   BANK0   BANK1   BANK2   BANK3   BANK4   BANK5   BANK6   BANK7   BANK8   BANK9  BANK10  BANK1
      +1  BANK12  BANK13  BANK14  BANK15  BANK16  BANK17  BANK18  BANK19  BANK20  BANK21  BANK22  BANK23  BANK24  BANK25
  8759 ;;      Params:         0       0       0       0       0       0       0       0       0       0       0       0       
      +0       0       0       0       0       0       0       0       0       0       0       0       0       0       0
  8760 ;;      Locals:         0       0       0       0       0       0       0       0       0       0       0       0       
      +0       0       0       0       0       0       0       0       0       0       0       0       0       0       0
  8761 ;;      Temps:          0       0       0       0       0       0       0       0       0       0       0       0       
      +0       0       0       0       0       0       0       0       0       0       0       0       0       0       0
  8762 ;;      Totals:         0       0       0       0       0       0       0       0       0       0       0       0       
      +0       0       0       0       0       0       0       0       0       0       0       0       0       0       0
  8763 ;;Total ram usage:        0 bytes
  8764 ;; Hardware stack levels used: 1
  8765 ;; Hardware stack levels required when called: 4
  8766 ;; This function calls:
  8767 ;;		Nothing
  8768 ;; This function is called by:
  8769 ;;		_main
  8770 ;; This function uses a non-reentrant model
  8771 ;;
  8772                           
  8773                           
  8774                           ;psect for function _EUSART1_is_rx_ready
  8775  0A93                     _EUSART1_is_rx_ready:
  8776  0A93                     l4730:	
  8777                           ;incstack = 0
  8778                           ; Regs used in _EUSART1_is_rx_ready: [wreg+status,2+status,0]
  8779                           
  8780                           
  8781                           ;mcc_generated_files/eusart1.c: 139:     return (eusart1RxCount ? 1 : 0);
  8782  0A93  0141               	movlb	1	; select bank1
  8783  0A94  086C               	movf	_eusart1RxCount^(0+128),w	;volatile
  8784  0A95  1D03               	btfss	3,2
  8785  0A96  2A98               	goto	u2711
  8786  0A97  2A9A               	goto	u2710
  8787  0A98                     u2711:
  8788  0A98  3001               	movlw	1
  8789  0A99  2A9B               	goto	u2720
  8790  0A9A                     u2710:
  8791  0A9A  3000               	movlw	0
  8792  0A9B                     u2720:
  8793  0A9B                     l613:
  8794  0A9B  0008               	return
  8795  0A9C                     __end_of_EUSART1_is_rx_ready:
  8796                           
  8797                           	psect	text35
  8798  07D2                     __ptext35:	
  8799 ;; *************** function _EUSART1_Read *****************
  8800 ;; Defined at:
  8801 ;;		line 151 in file "mcc_generated_files/eusart1.c"
  8802 ;; Parameters:    Size  Location     Type
  8803 ;;		None
  8804 ;; Auto vars:     Size  Location     Type
  8805 ;;  readValue       1    2[COMMON] unsigned char 
  8806 ;; Return value:  Size  Location     Type
  8807 ;;                  1    wreg      unsigned char 
  8808 ;; Registers used:
  8809 ;;		wreg, fsr1l, fsr1h, status,2, status,0
  8810 ;; Tracked objects:
  8811 ;;		On entry : 0/0
  8812 ;;		On exit  : 0/0
  8813 ;;		Unchanged: 0/0
  8814 ;; Data sizes:     COMMON   BANK0   BANK1   BANK2   BANK3   BANK4   BANK5   BANK6   BANK7   BANK8   BANK9  BANK10  BANK1
      +1  BANK12  BANK13  BANK14  BANK15  BANK16  BANK17  BANK18  BANK19  BANK20  BANK21  BANK22  BANK23  BANK24  BANK25
  8815 ;;      Params:         0       0       0       0       0       0       0       0       0       0       0       0       
      +0       0       0       0       0       0       0       0       0       0       0       0       0       0       0
  8816 ;;      Locals:         1       0       0       0       0       0       0       0       0       0       0       0       
      +0       0       0       0       0       0       0       0       0       0       0       0       0       0       0
  8817 ;;      Temps:          1       0       0       0       0       0       0       0       0       0       0       0       
      +0       0       0       0       0       0       0       0       0       0       0       0       0       0       0
  8818 ;;      Totals:         2       0       0       0       0       0       0       0       0       0       0       0       
      +0       0       0       0       0       0       0       0       0       0       0       0       0       0       0
  8819 ;;Total ram usage:        2 bytes
  8820 ;; Hardware stack levels used: 1
  8821 ;; Hardware stack levels required when called: 4
  8822 ;; This function calls:
  8823 ;;		Nothing
  8824 ;; This function is called by:
  8825 ;;		_main
  8826 ;;		_getch
  8827 ;; This function uses a non-reentrant model
  8828 ;;
  8829                           
  8830                           
  8831                           ;psect for function _EUSART1_Read
  8832  07D2                     _EUSART1_Read:
  8833  07D2                     l4734:	
  8834                           ;incstack = 0
  8835                           ; Regs used in _EUSART1_Read: [wreg+fsr1l+fsr1h+status,2+status,0]
  8836                           
  8837  07D2                     l4736:	
  8838                           ;mcc_generated_files/eusart1.c: 155:     while(0 == eusart1RxCount)
  8839                           
  8840                           
  8841                           ;mcc_generated_files/eusart1.c: 155:     while(0 == eusart1RxCount)
  8842  07D2  0141               	movlb	1	; select bank1
  8843  07D3  086C               	movf	_eusart1RxCount^(0+128),w	;volatile
  8844  07D4  1903               	btfsc	3,2
  8845  07D5  2FD7               	goto	u2731
  8846  07D6  2FD8               	goto	u2730
  8847  07D7                     u2731:
  8848  07D7  2FD2               	goto	l4736
  8849  07D8                     u2730:
  8850  07D8                     l4738:
  8851                           
  8852                           ;mcc_generated_files/eusart1.c: 159:     eusart1RxLastError = eusart1RxStatusBuffer[eusa
      +                          rt1RxTail];
  8853  07D8  086D               	movf	_eusart1RxTail^(0+128),w	;volatile
  8854  07D9  3EE0               	addlw	(low (_eusart1RxStatusBuffer| (0+256)))& (0+255)
  8855  07DA  0086               	movwf	6
  8856  07DB  3001               	movlw	1	; select bank3/4
  8857  07DC  0087               	movwf	7
  8858  07DD  0801               	movf	1,w
  8859  07DE  00F1               	movwf	??_EUSART1_Read
  8860  07DF  0871               	movf	??_EUSART1_Read,w
  8861  07E0  0142               	movlb	2	; select bank2
  8862  07E1  00ED               	movwf	_eusart1RxLastError^(0+256)	;volatile
  8863                           
  8864                           ;mcc_generated_files/eusart1.c: 161:     readValue = eusart1RxBuffer[eusart1RxTail++];
  8865  07E2  0141               	movlb	1	; select bank1
  8866  07E3  086D               	movf	_eusart1RxTail^(0+128),w
  8867  07E4  3E3E               	addlw	(low (_eusart1RxBuffer| (0+512)))& (0+255)
  8868  07E5  0086               	movwf	6
  8869  07E6  3002               	movlw	2	; select bank4/5
  8870  07E7  0087               	movwf	7
  8871  07E8  0801               	movf	1,w
  8872  07E9  00F1               	movwf	??_EUSART1_Read
  8873  07EA  0871               	movf	??_EUSART1_Read,w
  8874  07EB  00F2               	movwf	EUSART1_Read@readValue
  8875  07EC                     l4740:
  8876  07EC  3001               	movlw	1
  8877  07ED  00F1               	movwf	??_EUSART1_Read
  8878  07EE  0871               	movf	??_EUSART1_Read,w
  8879  07EF  07ED               	addwf	_eusart1RxTail^(0+128),f	;volatile
  8880  07F0                     l4742:
  8881                           
  8882                           ;mcc_generated_files/eusart1.c: 162:     if(sizeof(eusart1RxBuffer) <= eusart1RxTail)
  8883  07F0  3008               	movlw	8
  8884  07F1  026D               	subwf	_eusart1RxTail^(0+128),w	;volatile
  8885  07F2  1C03               	skipc
  8886  07F3  2FF5               	goto	u2741
  8887  07F4  2FF6               	goto	u2740
  8888  07F5                     u2741:
  8889  07F5  2FF7               	goto	l4746
  8890  07F6                     u2740:
  8891  07F6                     l4744:
  8892                           
  8893                           ;mcc_generated_files/eusart1.c: 163:     {;mcc_generated_files/eusart1.c: 164:         e
      +                          usart1RxTail = 0;
  8894  07F6  01ED               	clrf	_eusart1RxTail^(0+128)	;volatile
  8895  07F7                     l4746:
  8896                           
  8897                           ;mcc_generated_files/eusart1.c: 166:     PIE3bits.RC1IE = 0;
  8898  07F7  014E               	movlb	14	; select bank14
  8899  07F8  1299               	bcf	25,5	;volatile
  8900  07F9                     l4748:
  8901                           
  8902                           ;mcc_generated_files/eusart1.c: 167:     eusart1RxCount--;
  8903  07F9  3001               	movlw	1
  8904  07FA  0141               	movlb	1	; select bank1
  8905  07FB  02EC               	subwf	_eusart1RxCount^(0+128),f	;volatile
  8906  07FC                     l4750:
  8907                           
  8908                           ;mcc_generated_files/eusart1.c: 168:     PIE3bits.RC1IE = 1;
  8909  07FC  014E               	movlb	14	; select bank14
  8910  07FD  1699               	bsf	25,5	;volatile
  8911  07FE                     l4752:
  8912                           
  8913                           ;mcc_generated_files/eusart1.c: 170:     return readValue;
  8914  07FE  0872               	movf	EUSART1_Read@readValue,w
  8915  07FF                     l626:
  8916  07FF  0008               	return
  8917  0800                     __end_of_EUSART1_Read:
  8918                           
  8919                           	psect	text36
  8920  0F5E                     __ptext36:	
  8921 ;; *************** function _EE_WritePage *****************
  8922 ;; Defined at:
  8923 ;;		line 37 in file "main.c"
  8924 ;; Parameters:    Size  Location     Type
  8925 ;;  addr            2   12[BANK0 ] unsigned short 
  8926 ;;  pdata           1   14[BANK0 ] PTR const unsigned char 
  8927 ;;		 -> main@datain(64), 
  8928 ;; Auto vars:     Size  Location     Type
  8929 ;;  frame          66    0[BANK1 ] unsigned char [66]
  8930 ;; Return value:  Size  Location     Type
  8931 ;;                  1    wreg      void 
  8932 ;; Registers used:
  8933 ;;		wreg, fsr0l, fsr0h, fsr1l, fsr1h, status,2, status,0, pclath, cstack
  8934 ;; Tracked objects:
  8935 ;;		On entry : 0/0
  8936 ;;		On exit  : 0/0
  8937 ;;		Unchanged: 0/0
  8938 ;; Data sizes:     COMMON   BANK0   BANK1   BANK2   BANK3   BANK4   BANK5   BANK6   BANK7   BANK8   BANK9  BANK10  BANK1
      +1  BANK12  BANK13  BANK14  BANK15  BANK16  BANK17  BANK18  BANK19  BANK20  BANK21  BANK22  BANK23  BANK24  BANK25
  8939 ;;      Params:         0       3       0       0       0       0       0       0       0       0       0       0       
      +0       0       0       0       0       0       0       0       0       0       0       0       0       0       0
  8940 ;;      Locals:         0       0      66       0       0       0       0       0       0       0       0       0       
      +0       0       0       0       0       0       0       0       0       0       0       0       0       0       0
  8941 ;;      Temps:          0       1       0       0       0       0       0       0       0       0       0       0       
      +0       0       0       0       0       0       0       0       0       0       0       0       0       0       0
  8942 ;;      Totals:         0       4      66       0       0       0       0       0       0       0       0       0       
      +0       0       0       0       0       0       0       0       0       0       0       0       0       0       0
  8943 ;;Total ram usage:       70 bytes
  8944 ;; Hardware stack levels used: 1
  8945 ;; Hardware stack levels required when called: 13
  8946 ;; This function calls:
  8947 ;;		_i2c_writeNBytes
  8948 ;;		_memcpy
  8949 ;; This function is called by:
  8950 ;;		_main
  8951 ;; This function uses a non-reentrant model
  8952 ;;
  8953                           
  8954                           
  8955                           ;psect for function _EE_WritePage
  8956  0F5E                     _EE_WritePage:
  8957  0F5E                     l6256:	
  8958                           ;incstack = 0
  8959                           ; Regs used in _EE_WritePage: [wreg-fsr1h+status,2+status,0+pclath+cstack]
  8960                           
  8961                           
  8962                           ;main.c: 37: void EE_WritePage(uint16_t addr, const uint8_t *pdata);main.c: 38: {;main.c
      +                          : 39:     uint8_t frame[66];;main.c: 41:     frame[0] = (uint8_t) (addr >> 8);
  8963  0F5E  0140               	movlb	0	; select bank0
  8964  0F5F  082D               	movf	EE_WritePage@addr+1,w
  8965  0F60  00AF               	movwf	??_EE_WritePage
  8966  0F61  082F               	movf	??_EE_WritePage,w
  8967  0F62  0141               	movlb	1	; select bank1
  8968  0F63  00A0               	movwf	EE_WritePage@frame^(0+128)
  8969  0F64                     l6258:
  8970                           
  8971                           ;main.c: 42:     frame[1] = (uint8_t) addr;
  8972  0F64  0140               	movlb	0	; select bank0
  8973  0F65  082C               	movf	EE_WritePage@addr,w
  8974  0F66  00AF               	movwf	??_EE_WritePage
  8975  0F67  082F               	movf	??_EE_WritePage,w
  8976  0F68  0141               	movlb	1	; select bank1
  8977  0F69  00A1               	movwf	(EE_WritePage@frame^(0+128)+1)
  8978  0F6A                     l6260:
  8979                           
  8980                           ;main.c: 43:     memcpy((void*) &frame[2], pdata, 64);
  8981  0F6A  0140               	movlb	0	; select bank0
  8982  0F6B  082E               	movf	EE_WritePage@pdata,w
  8983  0F6C  00AF               	movwf	??_EE_WritePage
  8984  0F6D  082F               	movf	??_EE_WritePage,w
  8985  0F6E  00F1               	movwf	memcpy@s1
  8986  0F6F  3040               	movlw	64
  8987  0F70  00F2               	movwf	memcpy@n
  8988  0F71  3000               	movlw	0
  8989  0F72  00F3               	movwf	memcpy@n+1
  8990  0F73  30A2               	movlw	(low ((EE_WritePage@frame| 0+2)))& (0+255)
  8991  0F74  318E  26CD  318F   	fcall	_memcpy
  8992  0F77                     l6262:
  8993  0F77  0140               	movlb	0	; select bank0
  8994  0F78  1019               	bcf	25,0	;volatile
  8995  0F79                     l6264:
  8996                           
  8997                           ;main.c: 45:     i2c_writeNBytes(0b01010000, &frame[0], 66);
  8998  0F79  30A0               	movlw	(low (EE_WritePage@frame| 0))& (0+255)
  8999  0F7A  00AF               	movwf	??_EE_WritePage
  9000  0F7B  082F               	movf	??_EE_WritePage,w
  9001  0F7C  00A8               	movwf	i2c_writeNBytes@data
  9002  0F7D  3042               	movlw	66
  9003  0F7E  00A9               	movwf	i2c_writeNBytes@len
  9004  0F7F  3000               	movlw	0
  9005  0F80  00AA               	movwf	i2c_writeNBytes@len+1
  9006  0F81  3050               	movlw	80
  9007  0F82  318E  2648  318F   	fcall	_i2c_writeNBytes
  9008  0F85                     l6266:
  9009                           
  9010                           ;main.c: 46:     _delay((unsigned long)((5)*(32000000/4000.0)));
  9011  0F85  3034               	movlw	52
  9012  0F86  0140               	movlb	0	; select bank0
  9013  0F87  00AF               	movwf	??_EE_WritePage
  9014  0F88  30F1               	movlw	241
  9015  0F89                     u4377:
  9016  0F89  0B89               	decfsz	9,f
  9017  0F8A  2F89               	goto	u4377
  9018  0F8B  0BAF               	decfsz	??_EE_WritePage,f
  9019  0F8C  2F89               	goto	u4377
  9020  0F8D  3200               	nop2
  9021  0F8E                     l6268:
  9022  0F8E  0140               	movlb	0	; select bank0
  9023  0F8F  1419               	bsf	25,0	;volatile
  9024  0F90                     l1046:
  9025  0F90  0008               	return
  9026  0F91                     __end_of_EE_WritePage:
  9027                           
  9028                           	psect	text37
  9029  0ECD                     __ptext37:	
  9030 ;; *************** function _memcpy *****************
  9031 ;; Defined at:
  9032 ;;		line 4 in file "C:\Program Files\Microchip\xc8\v2.32\pic\sources\c99\common\memcpy.c"
  9033 ;; Parameters:    Size  Location     Type
  9034 ;;  d1              1    wreg     PTR void 
  9035 ;;		 -> EE_WritePage@frame(66), 
  9036 ;;  s1              1    1[COMMON] PTR const void 
  9037 ;;		 -> main@datain(64), 
  9038 ;;  n               2    2[COMMON] unsigned int 
  9039 ;; Auto vars:     Size  Location     Type
  9040 ;;  d1              1    6[COMMON] PTR void 
  9041 ;;		 -> EE_WritePage@frame(66), 
  9042 ;;  s               1    8[COMMON] PTR const unsigned char 
  9043 ;;		 -> main@datain(64), 
  9044 ;;  d               1    7[COMMON] PTR unsigned char 
  9045 ;;		 -> EE_WritePage@frame(66), 
  9046 ;;  tmp             1    5[COMMON] unsigned char 
  9047 ;; Return value:  Size  Location     Type
  9048 ;;                  1    wreg      PTR void 
  9049 ;; Registers used:
  9050 ;;		wreg, fsr1l, fsr1h, status,2, status,0
  9051 ;; Tracked objects:
  9052 ;;		On entry : 0/0
  9053 ;;		On exit  : 0/0
  9054 ;;		Unchanged: 0/0
  9055 ;; Data sizes:     COMMON   BANK0   BANK1   BANK2   BANK3   BANK4   BANK5   BANK6   BANK7   BANK8   BANK9  BANK10  BANK1
      +1  BANK12  BANK13  BANK14  BANK15  BANK16  BANK17  BANK18  BANK19  BANK20  BANK21  BANK22  BANK23  BANK24  BANK25
  9056 ;;      Params:         3       0       0       0       0       0       0       0       0       0       0       0       
      +0       0       0       0       0       0       0       0       0       0       0       0       0       0       0
  9057 ;;      Locals:         4       0       0       0       0       0       0       0       0       0       0       0       
      +0       0       0       0       0       0       0       0       0       0       0       0       0       0       0
  9058 ;;      Temps:          1       0       0       0       0       0       0       0       0       0       0       0       
      +0       0       0       0       0       0       0       0       0       0       0       0       0       0       0
  9059 ;;      Totals:         8       0       0       0       0       0       0       0       0       0       0       0       
      +0       0       0       0       0       0       0       0       0       0       0       0       0       0       0
  9060 ;;Total ram usage:        8 bytes
  9061 ;; Hardware stack levels used: 1
  9062 ;; Hardware stack levels required when called: 4
  9063 ;; This function calls:
  9064 ;;		Nothing
  9065 ;; This function is called by:
  9066 ;;		_EE_WritePage
  9067 ;; This function uses a non-reentrant model
  9068 ;;
  9069                           
  9070                           
  9071                           ;psect for function _memcpy
  9072  0ECD                     _memcpy:
  9073                           
  9074                           ;incstack = 0
  9075                           ; Regs used in _memcpy: [wreg+fsr1l+fsr1h+status,2+status,0]
  9076                           ;memcpy@d1 stored from wreg
  9077  0ECD  00F6               	movwf	memcpy@d1
  9078  0ECE                     l4710:
  9079  0ECE  0871               	movf	memcpy@s1,w
  9080  0ECF  00F4               	movwf	??_memcpy
  9081  0ED0  0874               	movf	??_memcpy,w
  9082  0ED1  00F8               	movwf	memcpy@s
  9083  0ED2  0876               	movf	memcpy@d1,w
  9084  0ED3  00F4               	movwf	??_memcpy
  9085  0ED4  0874               	movf	??_memcpy,w
  9086  0ED5  00F7               	movwf	memcpy@d
  9087  0ED6  2EEE               	goto	l1606
  9088  0ED7                     l4712:
  9089  0ED7  0878               	movf	memcpy@s,w
  9090  0ED8  0086               	movwf	6
  9091  0ED9  3001               	movlw	1	; select bank2/3
  9092  0EDA  0087               	movwf	7
  9093  0EDB  0801               	movf	1,w
  9094  0EDC  00F4               	movwf	??_memcpy
  9095  0EDD  0874               	movf	??_memcpy,w
  9096  0EDE  00F5               	movwf	memcpy@tmp
  9097  0EDF                     l4714:
  9098  0EDF  3001               	movlw	1
  9099  0EE0  00F4               	movwf	??_memcpy
  9100  0EE1  0874               	movf	??_memcpy,w
  9101  0EE2  07F8               	addwf	memcpy@s,f
  9102  0EE3                     l4716:
  9103  0EE3  0875               	movf	memcpy@tmp,w
  9104  0EE4  00F4               	movwf	??_memcpy
  9105  0EE5  0877               	movf	memcpy@d,w
  9106  0EE6  0086               	movwf	6
  9107  0EE7  0187               	clrf	7
  9108  0EE8  0874               	movf	??_memcpy,w
  9109  0EE9  0081               	movwf	1
  9110  0EEA  3001               	movlw	1
  9111  0EEB  00F4               	movwf	??_memcpy
  9112  0EEC  0874               	movf	??_memcpy,w
  9113  0EED  07F7               	addwf	memcpy@d,f
  9114  0EEE                     l1606:
  9115  0EEE  3001               	movlw	1
  9116  0EEF  02F2               	subwf	memcpy@n,f
  9117  0EF0  3000               	movlw	0
  9118  0EF1  3BF3               	subwfb	memcpy@n+1,f
  9119  0EF2  0A72               	incf	memcpy@n,w
  9120  0EF3  1D03               	skipz
  9121  0EF4  2EF9               	goto	u2691
  9122  0EF5  0A73               	incf	memcpy@n+1,w
  9123  0EF6  1D03               	btfss	3,2
  9124  0EF7  2EF9               	goto	u2691
  9125  0EF8  2EFA               	goto	u2690
  9126  0EF9                     u2691:
  9127  0EF9  2ED7               	goto	l4712
  9128  0EFA                     u2690:
  9129  0EFA                     l1609:
  9130  0EFA  0008               	return
  9131  0EFB                     __end_of_memcpy:
  9132                           
  9133                           	psect	text38
  9134  0DA9                     __ptext38:	
  9135 ;; *************** function _EE_Write *****************
  9136 ;; Defined at:
  9137 ;;		line 12 in file "main.c"
  9138 ;; Parameters:    Size  Location     Type
  9139 ;;  addr            2   12[BANK0 ] unsigned short 
  9140 ;;  data            1   14[BANK0 ] unsigned char 
  9141 ;; Auto vars:     Size  Location     Type
  9142 ;;  frame           3   16[BANK0 ] unsigned char [3]
  9143 ;; Return value:  Size  Location     Type
  9144 ;;                  1    wreg      void 
  9145 ;; Registers used:
  9146 ;;		wreg, fsr0l, fsr0h, fsr1l, fsr1h, status,2, status,0, pclath, cstack
  9147 ;; Tracked objects:
  9148 ;;		On entry : 0/0
  9149 ;;		On exit  : 0/0
  9150 ;;		Unchanged: 0/0
  9151 ;; Data sizes:     COMMON   BANK0   BANK1   BANK2   BANK3   BANK4   BANK5   BANK6   BANK7   BANK8   BANK9  BANK10  BANK1
      +1  BANK12  BANK13  BANK14  BANK15  BANK16  BANK17  BANK18  BANK19  BANK20  BANK21  BANK22  BANK23  BANK24  BANK25
  9152 ;;      Params:         0       3       0       0       0       0       0       0       0       0       0       0       
      +0       0       0       0       0       0       0       0       0       0       0       0       0       0       0
  9153 ;;      Locals:         0       3       0       0       0       0       0       0       0       0       0       0       
      +0       0       0       0       0       0       0       0       0       0       0       0       0       0       0
  9154 ;;      Temps:          0       1       0       0       0       0       0       0       0       0       0       0       
      +0       0       0       0       0       0       0       0       0       0       0       0       0       0       0
  9155 ;;      Totals:         0       7       0       0       0       0       0       0       0       0       0       0       
      +0       0       0       0       0       0       0       0       0       0       0       0       0       0       0
  9156 ;;Total ram usage:        7 bytes
  9157 ;; Hardware stack levels used: 1
  9158 ;; Hardware stack levels required when called: 13
  9159 ;; This function calls:
  9160 ;;		_i2c_writeNBytes
  9161 ;; This function is called by:
  9162 ;;		_main
  9163 ;; This function uses a non-reentrant model
  9164 ;;
  9165                           
  9166                           
  9167                           ;psect for function _EE_Write
  9168  0DA9                     _EE_Write:
  9169  0DA9                     l6242:	
  9170                           ;incstack = 0
  9171                           ; Regs used in _EE_Write: [wreg-fsr1h+status,2+status,0+pclath+cstack]
  9172                           
  9173                           
  9174                           ;main.c: 12: void EE_Write(uint16_t addr, uint8_t data);main.c: 13: {;main.c: 14:     ui
      +                          nt8_t frame[3];;main.c: 16:     frame[0] = (uint8_t) (addr >> 8);
  9175  0DA9  0140               	movlb	0	; select bank0
  9176  0DAA  082D               	movf	EE_Write@addr+1,w
  9177  0DAB  00AF               	movwf	??_EE_Write
  9178  0DAC  082F               	movf	??_EE_Write,w
  9179  0DAD  00B0               	movwf	EE_Write@frame
  9180  0DAE                     l6244:
  9181                           
  9182                           ;main.c: 17:     frame[1] = (uint8_t) addr;
  9183  0DAE  082C               	movf	EE_Write@addr,w
  9184  0DAF  00AF               	movwf	??_EE_Write
  9185  0DB0  082F               	movf	??_EE_Write,w
  9186  0DB1  00B1               	movwf	EE_Write@frame+1
  9187  0DB2                     l6246:
  9188                           
  9189                           ;main.c: 18:     frame[2] = data;
  9190  0DB2  082E               	movf	EE_Write@data,w
  9191  0DB3  00AF               	movwf	??_EE_Write
  9192  0DB4  082F               	movf	??_EE_Write,w
  9193  0DB5  00B2               	movwf	EE_Write@frame+2
  9194  0DB6                     l6248:
  9195  0DB6  1019               	bcf	25,0	;volatile
  9196  0DB7                     l6250:
  9197                           
  9198                           ;main.c: 20:     i2c_writeNBytes(0b01010000, &frame[0], 3);
  9199  0DB7  3030               	movlw	(low (EE_Write@frame| 0))& (0+255)
  9200  0DB8  00AF               	movwf	??_EE_Write
  9201  0DB9  082F               	movf	??_EE_Write,w
  9202  0DBA  00A8               	movwf	i2c_writeNBytes@data
  9203  0DBB  3003               	movlw	3
  9204  0DBC  00A9               	movwf	i2c_writeNBytes@len
  9205  0DBD  3000               	movlw	0
  9206  0DBE  00AA               	movwf	i2c_writeNBytes@len+1
  9207  0DBF  3050               	movlw	80
  9208  0DC0  318E  2648  318D   	fcall	_i2c_writeNBytes
  9209  0DC3                     l6252:
  9210                           
  9211                           ;main.c: 21:     _delay((unsigned long)((5)*(32000000/4000.0)));
  9212  0DC3  3034               	movlw	52
  9213  0DC4  0140               	movlb	0	; select bank0
  9214  0DC5  00AF               	movwf	??_EE_Write
  9215  0DC6  30F1               	movlw	241
  9216  0DC7                     u4387:
  9217  0DC7  0B89               	decfsz	9,f
  9218  0DC8  2DC7               	goto	u4387
  9219  0DC9  0BAF               	decfsz	??_EE_Write,f
  9220  0DCA  2DC7               	goto	u4387
  9221  0DCB  3200               	nop2
  9222  0DCC                     l6254:
  9223  0DCC  0140               	movlb	0	; select bank0
  9224  0DCD  1419               	bsf	25,0	;volatile
  9225  0DCE                     l1036:
  9226  0DCE  0008               	return
  9227  0DCF                     __end_of_EE_Write:
  9228                           
  9229                           	psect	text39
  9230  0D3D                     __ptext39:	
  9231 ;; *************** function _EE_ReadPage *****************
  9232 ;; Defined at:
  9233 ;;		line 50 in file "main.c"
  9234 ;; Parameters:    Size  Location     Type
  9235 ;;  addr            2   13[BANK0 ] unsigned short 
  9236 ;;  pData           1   15[BANK0 ] PTR unsigned char 
  9237 ;;		 -> main@dataout(64), 
  9238 ;; Auto vars:     Size  Location     Type
  9239 ;;  frame           2   17[BANK0 ] unsigned char [2]
  9240 ;; Return value:  Size  Location     Type
  9241 ;;                  1    wreg      void 
  9242 ;; Registers used:
  9243 ;;		wreg, fsr0l, fsr0h, fsr1l, fsr1h, status,2, status,0, pclath, cstack
  9244 ;; Tracked objects:
  9245 ;;		On entry : 0/0
  9246 ;;		On exit  : 0/0
  9247 ;;		Unchanged: 0/0
  9248 ;; Data sizes:     COMMON   BANK0   BANK1   BANK2   BANK3   BANK4   BANK5   BANK6   BANK7   BANK8   BANK9  BANK10  BANK1
      +1  BANK12  BANK13  BANK14  BANK15  BANK16  BANK17  BANK18  BANK19  BANK20  BANK21  BANK22  BANK23  BANK24  BANK25
  9249 ;;      Params:         0       3       0       0       0       0       0       0       0       0       0       0       
      +0       0       0       0       0       0       0       0       0       0       0       0       0       0       0
  9250 ;;      Locals:         0       2       0       0       0       0       0       0       0       0       0       0       
      +0       0       0       0       0       0       0       0       0       0       0       0       0       0       0
  9251 ;;      Temps:          0       1       0       0       0       0       0       0       0       0       0       0       
      +0       0       0       0       0       0       0       0       0       0       0       0       0       0       0
  9252 ;;      Totals:         0       6       0       0       0       0       0       0       0       0       0       0       
      +0       0       0       0       0       0       0       0       0       0       0       0       0       0       0
  9253 ;;Total ram usage:        6 bytes
  9254 ;; Hardware stack levels used: 1
  9255 ;; Hardware stack levels required when called: 13
  9256 ;; This function calls:
  9257 ;;		_i2c_readNBytes
  9258 ;;		_i2c_writeNBytes
  9259 ;; This function is called by:
  9260 ;;		_main
  9261 ;; This function uses a non-reentrant model
  9262 ;;
  9263                           
  9264                           
  9265                           ;psect for function _EE_ReadPage
  9266  0D3D                     _EE_ReadPage:
  9267  0D3D                     l6270:	
  9268                           ;incstack = 0
  9269                           ; Regs used in _EE_ReadPage: [wreg-fsr1h+status,2+status,0+pclath+cstack]
  9270                           
  9271                           
  9272                           ;main.c: 50: void EE_ReadPage(uint16_t addr, uint8_t *pData);main.c: 51: {;main.c: 52:  
      +                             uint8_t frame[2];;main.c: 54:     frame[0] = (uint8_t) (addr >> 8);
  9273  0D3D  0140               	movlb	0	; select bank0
  9274  0D3E  082E               	movf	EE_ReadPage@addr+1,w
  9275  0D3F  00B0               	movwf	??_EE_ReadPage
  9276  0D40  0830               	movf	??_EE_ReadPage,w
  9277  0D41  00B1               	movwf	EE_ReadPage@frame
  9278  0D42                     l6272:
  9279                           
  9280                           ;main.c: 55:     frame[1] = (uint8_t) addr;
  9281  0D42  082D               	movf	EE_ReadPage@addr,w
  9282  0D43  00B0               	movwf	??_EE_ReadPage
  9283  0D44  0830               	movf	??_EE_ReadPage,w
  9284  0D45  00B2               	movwf	EE_ReadPage@frame+1
  9285  0D46                     l6274:
  9286                           
  9287                           ;main.c: 57:     i2c_writeNBytes(0b01010000, &frame[0], 2);
  9288  0D46  3031               	movlw	(low (EE_ReadPage@frame| 0))& (0+255)
  9289  0D47  00B0               	movwf	??_EE_ReadPage
  9290  0D48  0830               	movf	??_EE_ReadPage,w
  9291  0D49  00A8               	movwf	i2c_writeNBytes@data
  9292  0D4A  3002               	movlw	2
  9293  0D4B  00A9               	movwf	i2c_writeNBytes@len
  9294  0D4C  3000               	movlw	0
  9295  0D4D  00AA               	movwf	i2c_writeNBytes@len+1
  9296  0D4E  3050               	movlw	80
  9297  0D4F  318E  2648  318D   	fcall	_i2c_writeNBytes
  9298  0D52                     l6276:
  9299                           
  9300                           ;main.c: 58:     i2c_readNBytes(0b01010000, pData, 64);
  9301  0D52  0140               	movlb	0	; select bank0
  9302  0D53  082F               	movf	EE_ReadPage@pData,w
  9303  0D54  00A8               	movwf	i2c_readNBytes@data
  9304  0D55  3001               	movlw	1
  9305  0D56  00A9               	movwf	i2c_readNBytes@data+1
  9306  0D57  3040               	movlw	64
  9307  0D58  00AA               	movwf	i2c_readNBytes@len
  9308  0D59  3000               	movlw	0
  9309  0D5A  00AB               	movwf	i2c_readNBytes@len+1
  9310  0D5B  3050               	movlw	80
  9311  0D5C  318D  2560  318D   	fcall	_i2c_readNBytes
  9312  0D5F                     l1049:
  9313  0D5F  0008               	return
  9314  0D60                     __end_of_EE_ReadPage:
  9315                           
  9316                           	psect	text40
  9317  0E48                     __ptext40:	
  9318 ;; *************** function _i2c_writeNBytes *****************
  9319 ;; Defined at:
  9320 ;;		line 71 in file "mcc_generated_files/drivers/i2c_simple_master.c"
  9321 ;; Parameters:    Size  Location     Type
  9322 ;;  address         1    wreg     unsigned char 
  9323 ;;  data            1    8[BANK0 ] PTR void 
  9324 ;;		 -> EE_ReadPage@frame(2), EE_WritePage@frame(66), EE_Read@frame(3), EE_Write@frame(3), 
  9325 ;;  len             2    9[BANK0 ] unsigned int 
  9326 ;; Auto vars:     Size  Location     Type
  9327 ;;  address         1   11[BANK0 ] unsigned char 
  9328 ;; Return value:  Size  Location     Type
  9329 ;;                  1    wreg      void 
  9330 ;; Registers used:
  9331 ;;		wreg, fsr0l, fsr0h, fsr1l, fsr1h, status,2, status,0, pclath, cstack
  9332 ;; Tracked objects:
  9333 ;;		On entry : 0/0
  9334 ;;		On exit  : 0/0
  9335 ;;		Unchanged: 0/0
  9336 ;; Data sizes:     COMMON   BANK0   BANK1   BANK2   BANK3   BANK4   BANK5   BANK6   BANK7   BANK8   BANK9  BANK10  BANK1
      +1  BANK12  BANK13  BANK14  BANK15  BANK16  BANK17  BANK18  BANK19  BANK20  BANK21  BANK22  BANK23  BANK24  BANK25
  9337 ;;      Params:         0       3       0       0       0       0       0       0       0       0       0       0       
      +0       0       0       0       0       0       0       0       0       0       0       0       0       0       0
  9338 ;;      Locals:         0       1       0       0       0       0       0       0       0       0       0       0       
      +0       0       0       0       0       0       0       0       0       0       0       0       0       0       0
  9339 ;;      Temps:          0       0       0       0       0       0       0       0       0       0       0       0       
      +0       0       0       0       0       0       0       0       0       0       0       0       0       0       0
  9340 ;;      Totals:         0       4       0       0       0       0       0       0       0       0       0       0       
      +0       0       0       0       0       0       0       0       0       0       0       0       0       0       0
  9341 ;;Total ram usage:        4 bytes
  9342 ;; Hardware stack levels used: 1
  9343 ;; Hardware stack levels required when called: 12
  9344 ;; This function calls:
  9345 ;;		_I2C1_Close
  9346 ;;		_I2C1_MasterWrite
  9347 ;;		_I2C1_Open
  9348 ;;		_I2C1_SetAddressNackCallback
  9349 ;;		_I2C1_SetBuffer
  9350 ;; This function is called by:
  9351 ;;		_EE_Write
  9352 ;;		_EE_WritePage
  9353 ;;		_EE_ReadPage
  9354 ;;		_EE_Read
  9355 ;; This function uses a non-reentrant model
  9356 ;;
  9357                           
  9358                           
  9359                           ;psect for function _i2c_writeNBytes
  9360  0E48                     _i2c_writeNBytes:
  9361                           
  9362                           ;incstack = 0
  9363                           ; Regs used in _i2c_writeNBytes: [wreg-fsr1h+status,2+status,0+pclath+cstack]
  9364                           ;i2c_writeNBytes@address stored from wreg
  9365  0E48  0140               	movlb	0	; select bank0
  9366  0E49  00AB               	movwf	i2c_writeNBytes@address
  9367  0E4A                     l6208:
  9368  0E4A                     l6210:	
  9369                           ;mcc_generated_files/drivers/i2c_simple_master.c: 71: void i2c_writeNBytes(i2c1_address_
      +                          t address, void* data, size_t len);mcc_generated_files/drivers/i2c_simple_master.c: 72: 
      +                          {;mcc_generated_files/drivers/i2c_simple_master.c: 73:     while(!I2C1_Open(address));
  9370                           
  9371  0E4A  0140               	movlb	0	; select bank0
  9372  0E4B  082B               	movf	i2c_writeNBytes@address,w
  9373  0E4C  3187  2798  318E   	fcall	_I2C1_Open
  9374  0E4F  3A00               	xorlw	0
  9375  0E50  1903               	skipnz
  9376  0E51  2E53               	goto	u3971
  9377  0E52  2E54               	goto	u3970
  9378  0E53                     u3971:
  9379  0E53  2E4A               	goto	l6210
  9380  0E54                     u3970:
  9381  0E54                     l6212:
  9382                           
  9383                           ;mcc_generated_files/drivers/i2c_simple_master.c: 74:     I2C1_SetBuffer(data,len);
  9384  0E54  0140               	movlb	0	; select bank0
  9385  0E55  0828               	movf	i2c_writeNBytes@data,w
  9386  0E56  00F1               	movwf	I2C1_SetBuffer@buffer
  9387  0E57  3000               	movlw	0
  9388  0E58  00F2               	movwf	I2C1_SetBuffer@buffer+1
  9389  0E59  082A               	movf	i2c_writeNBytes@len+1,w
  9390  0E5A  00F4               	movwf	I2C1_SetBuffer@bufferSize+1
  9391  0E5B  0829               	movf	i2c_writeNBytes@len,w
  9392  0E5C  00F3               	movwf	I2C1_SetBuffer@bufferSize
  9393  0E5D  318A  22EC  318E   	fcall	_I2C1_SetBuffer
  9394  0E60                     l6214:
  9395                           
  9396                           ;mcc_generated_files/drivers/i2c_simple_master.c: 75:     I2C1_SetAddressNackCallback(((
      +                          void*)0),((void*)0));
  9397  0E60  3000               	movlw	0
  9398  0E61  00F6               	movwf	I2C1_SetAddressNackCallback@cb
  9399  0E62  00F7               	movwf	I2C1_SetAddressNackCallback@cb+1
  9400  0E63  01F8               	clrf	I2C1_SetAddressNackCallback@ptr
  9401  0E64  318A  22DF  318E   	fcall	_I2C1_SetAddressNackCallback
  9402  0E67                     l6216:
  9403                           
  9404                           ;mcc_generated_files/drivers/i2c_simple_master.c: 76:     I2C1_MasterWrite();
  9405  0E67  318A  2232  318E   	fcall	_I2C1_MasterWrite
  9406  0E6A                     l6218:	
  9407                           ;mcc_generated_files/drivers/i2c_simple_master.c: 77:     while(I2C1_BUSY == I2C1_Close(
      +                          ));
  9408                           
  9409  0E6A  318C  24A0  318E   	fcall	_I2C1_Close
  9410  0E6D  3A01               	xorlw	1
  9411  0E6E  1903               	skipnz
  9412  0E6F  2E71               	goto	u3981
  9413  0E70  2E72               	goto	u3980
  9414  0E71                     u3981:
  9415  0E71  2E6A               	goto	l6218
  9416  0E72                     u3980:
  9417  0E72                     l35:
  9418  0E72  0008               	return
  9419  0E73                     __end_of_i2c_writeNBytes:
  9420                           
  9421                           	psect	text41
  9422  0ADF                     __ptext41:	
  9423 ;; *************** function _I2C1_SetAddressNackCallback *****************
  9424 ;; Defined at:
  9425 ;;		line 283 in file "mcc_generated_files/i2c1_master.c"
  9426 ;; Parameters:    Size  Location     Type
  9427 ;;  cb              2    6[COMMON] PTR FTN(PTR void ,)enum 
  9428 ;;		 -> Absolute function(1), 
  9429 ;;  ptr             1    8[COMMON] PTR void 
  9430 ;;		 -> NULL(0), 
  9431 ;; Auto vars:     Size  Location     Type
  9432 ;;		None
  9433 ;; Return value:  Size  Location     Type
  9434 ;;                  1    wreg      void 
  9435 ;; Registers used:
  9436 ;;		wreg, fsr1l, fsr1h, status,2, status,0, pclath, cstack
  9437 ;; Tracked objects:
  9438 ;;		On entry : 0/0
  9439 ;;		On exit  : 0/0
  9440 ;;		Unchanged: 0/0
  9441 ;; Data sizes:     COMMON   BANK0   BANK1   BANK2   BANK3   BANK4   BANK5   BANK6   BANK7   BANK8   BANK9  BANK10  BANK1
      +1  BANK12  BANK13  BANK14  BANK15  BANK16  BANK17  BANK18  BANK19  BANK20  BANK21  BANK22  BANK23  BANK24  BANK25
  9442 ;;      Params:         3       0       0       0       0       0       0       0       0       0       0       0       
      +0       0       0       0       0       0       0       0       0       0       0       0       0       0       0
  9443 ;;      Locals:         0       0       0       0       0       0       0       0       0       0       0       0       
      +0       0       0       0       0       0       0       0       0       0       0       0       0       0       0
  9444 ;;      Temps:          1       0       0       0       0       0       0       0       0       0       0       0       
      +0       0       0       0       0       0       0       0       0       0       0       0       0       0       0
  9445 ;;      Totals:         4       0       0       0       0       0       0       0       0       0       0       0       
      +0       0       0       0       0       0       0       0       0       0       0       0       0       0       0
  9446 ;;Total ram usage:        4 bytes
  9447 ;; Hardware stack levels used: 1
  9448 ;; Hardware stack levels required when called: 5
  9449 ;; This function calls:
  9450 ;;		_I2C1_SetCallback
  9451 ;; This function is called by:
  9452 ;;		_i2c_writeNBytes
  9453 ;;		_i2c_write1ByteRegister
  9454 ;;		_i2c_read1ByteRegister
  9455 ;;		_i2c_read2ByteRegister
  9456 ;;		_i2c_write2ByteRegister
  9457 ;;		_i2c_readDataBlock
  9458 ;;		_I2C1_Read1ByteRegister
  9459 ;;		_I2C1_Read2ByteRegister
  9460 ;;		_I2C1_Write1ByteRegister
  9461 ;;		_I2C1_Write2ByteRegister
  9462 ;;		_I2C1_WriteNBytes
  9463 ;;		_I2C1_ReadDataBlock
  9464 ;; This function uses a non-reentrant model
  9465 ;;
  9466                           
  9467                           
  9468                           ;psect for function _I2C1_SetAddressNackCallback
  9469  0ADF                     _I2C1_SetAddressNackCallback:
  9470  0ADF                     l6154:	
  9471                           ;incstack = 0
  9472                           ; Regs used in _I2C1_SetAddressNackCallback: [wreg+fsr1l+fsr1h+status,2+status,0+pclath+
      +                          cstack]
  9473                           
  9474                           
  9475                           ;mcc_generated_files/i2c1_master.c: 283: void I2C1_SetAddressNackCallback(i2c1_callback_
      +                          t cb, void *ptr);mcc_generated_files/i2c1_master.c: 284: {;mcc_generated_files/i2c1_mast
      +                          er.c: 285:     I2C1_SetCallback(I2C1_ADDR_NACK, cb, ptr);
  9476  0ADF  0877               	movf	I2C1_SetAddressNackCallback@cb+1,w
  9477  0AE0  00F2               	movwf	I2C1_SetCallback@cb+1
  9478  0AE1  0876               	movf	I2C1_SetAddressNackCallback@cb,w
  9479  0AE2  00F1               	movwf	I2C1_SetCallback@cb
  9480  0AE3  0878               	movf	I2C1_SetAddressNackCallback@ptr,w
  9481  0AE4  00F9               	movwf	??_I2C1_SetAddressNackCallback
  9482  0AE5  0879               	movf	??_I2C1_SetAddressNackCallback,w
  9483  0AE6  00F3               	movwf	I2C1_SetCallback@ptr
  9484  0AE7  3002               	movlw	2
  9485  0AE8  318E  261E  318A   	fcall	_I2C1_SetCallback
  9486  0AEB                     l338:
  9487  0AEB  0008               	return
  9488  0AEC                     __end_of_I2C1_SetAddressNackCallback:
  9489                           
  9490                           	psect	text42
  9491  0A32                     __ptext42:	
  9492 ;; *************** function _I2C1_MasterWrite *****************
  9493 ;; Defined at:
  9494 ;;		line 251 in file "mcc_generated_files/i2c1_master.c"
  9495 ;; Parameters:    Size  Location     Type
  9496 ;;		None
  9497 ;; Auto vars:     Size  Location     Type
  9498 ;;		None
  9499 ;; Return value:  Size  Location     Type
  9500 ;;                  1    wreg      enum E355
  9501 ;; Registers used:
  9502 ;;		wreg, fsr0l, fsr0h, fsr1l, fsr1h, status,2, status,0, pclath, cstack
  9503 ;; Tracked objects:
  9504 ;;		On entry : 0/0
  9505 ;;		On exit  : 0/0
  9506 ;;		Unchanged: 0/0
  9507 ;; Data sizes:     COMMON   BANK0   BANK1   BANK2   BANK3   BANK4   BANK5   BANK6   BANK7   BANK8   BANK9  BANK10  BANK1
      +1  BANK12  BANK13  BANK14  BANK15  BANK16  BANK17  BANK18  BANK19  BANK20  BANK21  BANK22  BANK23  BANK24  BANK25
  9508 ;;      Params:         0       0       0       0       0       0       0       0       0       0       0       0       
      +0       0       0       0       0       0       0       0       0       0       0       0       0       0       0
  9509 ;;      Locals:         0       0       0       0       0       0       0       0       0       0       0       0       
      +0       0       0       0       0       0       0       0       0       0       0       0       0       0       0
  9510 ;;      Temps:          0       0       0       0       0       0       0       0       0       0       0       0       
      +0       0       0       0       0       0       0       0       0       0       0       0       0       0       0
  9511 ;;      Totals:         0       0       0       0       0       0       0       0       0       0       0       0       
      +0       0       0       0       0       0       0       0       0       0       0       0       0       0       0
  9512 ;;Total ram usage:        0 bytes
  9513 ;; Hardware stack levels used: 1
  9514 ;; Hardware stack levels required when called: 11
  9515 ;; This function calls:
  9516 ;;		_I2C1_MasterOperation
  9517 ;; This function is called by:
  9518 ;;		_i2c_writeNBytes
  9519 ;;		_i2c_write1ByteRegister
  9520 ;;		_i2c_read1ByteRegister
  9521 ;;		_i2c_read2ByteRegister
  9522 ;;		_i2c_write2ByteRegister
  9523 ;;		_i2c_readDataBlock
  9524 ;;		_I2C1_Read1ByteRegister
  9525 ;;		_I2C1_Read2ByteRegister
  9526 ;;		_I2C1_Write1ByteRegister
  9527 ;;		_I2C1_Write2ByteRegister
  9528 ;;		_I2C1_WriteNBytes
  9529 ;;		_I2C1_ReadDataBlock
  9530 ;; This function uses a non-reentrant model
  9531 ;;
  9532                           
  9533                           
  9534                           ;psect for function _I2C1_MasterWrite
  9535  0A32                     _I2C1_MasterWrite:
  9536  0A32                     l6156:	
  9537                           ;incstack = 0
  9538                           ; Regs used in _I2C1_MasterWrite: [wreg-fsr1h+status,2+status,0+pclath+cstack]
  9539                           
  9540                           
  9541                           ;mcc_generated_files/i2c1_master.c: 253:     return I2C1_MasterOperation(0);;	Return val
      +                          ue of _I2C1_MasterWrite is never used
  9542  0A32  3000               	movlw	0
  9543  0A33  318D  251A  318A   	fcall	_I2C1_MasterOperation
  9544  0A36                     l322:
  9545  0A36  0008               	return
  9546  0A37                     __end_of_I2C1_MasterWrite:
  9547                           
  9548                           	psect	text43
  9549  0D60                     __ptext43:	
  9550 ;; *************** function _i2c_readNBytes *****************
  9551 ;; Defined at:
  9552 ;;		line 228 in file "mcc_generated_files/drivers/i2c_simple_master.c"
  9553 ;; Parameters:    Size  Location     Type
  9554 ;;  address         1    wreg     unsigned char 
  9555 ;;  data            2    8[BANK0 ] PTR void 
  9556 ;;		 -> main@dataout(64), EE_Read@frame(3), 
  9557 ;;  len             2   10[BANK0 ] unsigned int 
  9558 ;; Auto vars:     Size  Location     Type
  9559 ;;  address         1   12[BANK0 ] unsigned char 
  9560 ;; Return value:  Size  Location     Type
  9561 ;;                  1    wreg      void 
  9562 ;; Registers used:
  9563 ;;		wreg, fsr0l, fsr0h, fsr1l, fsr1h, status,2, status,0, pclath, cstack
  9564 ;; Tracked objects:
  9565 ;;		On entry : 0/0
  9566 ;;		On exit  : 0/0
  9567 ;;		Unchanged: 0/0
  9568 ;; Data sizes:     COMMON   BANK0   BANK1   BANK2   BANK3   BANK4   BANK5   BANK6   BANK7   BANK8   BANK9  BANK10  BANK1
      +1  BANK12  BANK13  BANK14  BANK15  BANK16  BANK17  BANK18  BANK19  BANK20  BANK21  BANK22  BANK23  BANK24  BANK25
  9569 ;;      Params:         0       4       0       0       0       0       0       0       0       0       0       0       
      +0       0       0       0       0       0       0       0       0       0       0       0       0       0       0
  9570 ;;      Locals:         0       1       0       0       0       0       0       0       0       0       0       0       
      +0       0       0       0       0       0       0       0       0       0       0       0       0       0       0
  9571 ;;      Temps:          0       0       0       0       0       0       0       0       0       0       0       0       
      +0       0       0       0       0       0       0       0       0       0       0       0       0       0       0
  9572 ;;      Totals:         0       5       0       0       0       0       0       0       0       0       0       0       
      +0       0       0       0       0       0       0       0       0       0       0       0       0       0       0
  9573 ;;Total ram usage:        5 bytes
  9574 ;; Hardware stack levels used: 1
  9575 ;; Hardware stack levels required when called: 12
  9576 ;; This function calls:
  9577 ;;		_I2C1_Close
  9578 ;;		_I2C1_MasterRead
  9579 ;;		_I2C1_Open
  9580 ;;		_I2C1_SetBuffer
  9581 ;; This function is called by:
  9582 ;;		_EE_ReadPage
  9583 ;;		_EE_Read
  9584 ;; This function uses a non-reentrant model
  9585 ;;
  9586                           
  9587                           
  9588                           ;psect for function _i2c_readNBytes
  9589  0D60                     _i2c_readNBytes:
  9590                           
  9591                           ;incstack = 0
  9592                           ; Regs used in _i2c_readNBytes: [wreg-fsr1h+status,2+status,0+pclath+cstack]
  9593                           ;i2c_readNBytes@address stored from wreg
  9594  0D60  0140               	movlb	0	; select bank0
  9595  0D61  00AC               	movwf	i2c_readNBytes@address
  9596  0D62                     l6220:
  9597  0D62                     l6222:	
  9598                           ;mcc_generated_files/drivers/i2c_simple_master.c: 228: void i2c_readNBytes(i2c1_address_
      +                          t address, void *data, size_t len);mcc_generated_files/drivers/i2c_simple_master.c: 229:
      +                           {;mcc_generated_files/drivers/i2c_simple_master.c: 230:     while(!I2C1_Open(address));
  9599                           
  9600  0D62  0140               	movlb	0	; select bank0
  9601  0D63  082C               	movf	i2c_readNBytes@address,w
  9602  0D64  3187  2798  318D   	fcall	_I2C1_Open
  9603  0D67  3A00               	xorlw	0
  9604  0D68  1903               	skipnz
  9605  0D69  2D6B               	goto	u3991
  9606  0D6A  2D6C               	goto	u3990
  9607  0D6B                     u3991:
  9608  0D6B  2D62               	goto	l6222
  9609  0D6C                     u3990:
  9610  0D6C                     l6224:
  9611                           
  9612                           ;mcc_generated_files/drivers/i2c_simple_master.c: 231:     I2C1_SetBuffer(data,len);
  9613  0D6C  0140               	movlb	0	; select bank0
  9614  0D6D  0829               	movf	i2c_readNBytes@data+1,w
  9615  0D6E  00F2               	movwf	I2C1_SetBuffer@buffer+1
  9616  0D6F  0828               	movf	i2c_readNBytes@data,w
  9617  0D70  00F1               	movwf	I2C1_SetBuffer@buffer
  9618  0D71  082B               	movf	i2c_readNBytes@len+1,w
  9619  0D72  00F4               	movwf	I2C1_SetBuffer@bufferSize+1
  9620  0D73  082A               	movf	i2c_readNBytes@len,w
  9621  0D74  00F3               	movwf	I2C1_SetBuffer@bufferSize
  9622  0D75  318A  22EC  318D   	fcall	_I2C1_SetBuffer
  9623  0D78                     l6226:
  9624                           
  9625                           ;mcc_generated_files/drivers/i2c_simple_master.c: 232:     I2C1_MasterRead();
  9626  0D78  318A  222D  318D   	fcall	_I2C1_MasterRead
  9627  0D7B                     l6228:	
  9628                           ;mcc_generated_files/drivers/i2c_simple_master.c: 233:     while(I2C1_BUSY == I2C1_Close
      +                          ());
  9629                           
  9630  0D7B  318C  24A0  318D   	fcall	_I2C1_Close
  9631  0D7E  3A01               	xorlw	1
  9632  0D7F  1903               	skipnz
  9633  0D80  2D82               	goto	u4001
  9634  0D81  2D83               	goto	u4000
  9635  0D82                     u4001:
  9636  0D82  2D7B               	goto	l6228
  9637  0D83                     u4000:
  9638  0D83                     l95:
  9639  0D83  0008               	return
  9640  0D84                     __end_of_i2c_readNBytes:
  9641                           
  9642                           	psect	text44
  9643  0798                     __ptext44:	
  9644 ;; *************** function _I2C1_Open *****************
  9645 ;; Defined at:
  9646 ;;		line 176 in file "mcc_generated_files/i2c1_master.c"
  9647 ;; Parameters:    Size  Location     Type
  9648 ;;  address         1    wreg     unsigned char 
  9649 ;; Auto vars:     Size  Location     Type
  9650 ;;  address         1    2[COMMON] unsigned char 
  9651 ;;  returnValue     1    3[COMMON] enum E355
  9652 ;; Return value:  Size  Location     Type
  9653 ;;                  1    wreg      enum E355
  9654 ;; Registers used:
  9655 ;;		wreg, status,2, status,0, pclath, cstack
  9656 ;; Tracked objects:
  9657 ;;		On entry : 0/0
  9658 ;;		On exit  : 0/0
  9659 ;;		Unchanged: 0/0
  9660 ;; Data sizes:     COMMON   BANK0   BANK1   BANK2   BANK3   BANK4   BANK5   BANK6   BANK7   BANK8   BANK9  BANK10  BANK1
      +1  BANK12  BANK13  BANK14  BANK15  BANK16  BANK17  BANK18  BANK19  BANK20  BANK21  BANK22  BANK23  BANK24  BANK25
  9661 ;;      Params:         0       0       0       0       0       0       0       0       0       0       0       0       
      +0       0       0       0       0       0       0       0       0       0       0       0       0       0       0
  9662 ;;      Locals:         2       0       0       0       0       0       0       0       0       0       0       0       
      +0       0       0       0       0       0       0       0       0       0       0       0       0       0       0
  9663 ;;      Temps:          1       0       0       0       0       0       0       0       0       0       0       0       
      +0       0       0       0       0       0       0       0       0       0       0       0       0       0       0
  9664 ;;      Totals:         3       0       0       0       0       0       0       0       0       0       0       0       
      +0       0       0       0       0       0       0       0       0       0       0       0       0       0       0
  9665 ;;Total ram usage:        3 bytes
  9666 ;; Hardware stack levels used: 1
  9667 ;; Hardware stack levels required when called: 5
  9668 ;; This function calls:
  9669 ;;		_I2C1_MasterClearIrq
  9670 ;;		_I2C1_MasterOpen
  9671 ;; This function is called by:
  9672 ;;		_i2c_writeNBytes
  9673 ;;		_i2c_readNBytes
  9674 ;;		_i2c_write1ByteRegister
  9675 ;;		_i2c_read1ByteRegister
  9676 ;;		_i2c_read2ByteRegister
  9677 ;;		_i2c_write2ByteRegister
  9678 ;;		_i2c_readDataBlock
  9679 ;;		_I2C1_Read1ByteRegister
  9680 ;;		_I2C1_Read2ByteRegister
  9681 ;;		_I2C1_Write1ByteRegister
  9682 ;;		_I2C1_Write2ByteRegister
  9683 ;;		_I2C1_WriteNBytes
  9684 ;;		_I2C1_ReadNBytes
  9685 ;;		_I2C1_ReadDataBlock
  9686 ;; This function uses a non-reentrant model
  9687 ;;
  9688                           
  9689                           
  9690                           ;psect for function _I2C1_Open
  9691  0798                     _I2C1_Open:
  9692                           
  9693                           ;incstack = 0
  9694                           ; Regs used in _I2C1_Open: [wreg+status,2+status,0+pclath+cstack]
  9695                           ;I2C1_Open@address stored from wreg
  9696  0798  00F2               	movwf	I2C1_Open@address
  9697  0799                     l6122:
  9698                           
  9699                           ;mcc_generated_files/i2c1_master.c: 176: i2c1_error_t I2C1_Open(i2c1_address_t address);
      +                          mcc_generated_files/i2c1_master.c: 177: {;mcc_generated_files/i2c1_master.c: 178:     i2
      +                          c1_error_t returnValue = I2C1_BUSY;
  9700  0799  01F3               	clrf	I2C1_Open@returnValue
  9701  079A  0AF3               	incf	I2C1_Open@returnValue,f
  9702                           
  9703                           ;mcc_generated_files/i2c1_master.c: 180:     if(!I2C1_Status.inUse)
  9704  079B  0144               	movlb	4	; select bank4
  9705  079C  193D               	btfsc	(_I2C1_Status^(0+512)+29),2
  9706  079D  2F9F               	goto	u3901
  9707  079E  2FA0               	goto	u3900
  9708  079F                     u3901:
  9709  079F  2FD0               	goto	l305
  9710  07A0                     u3900:
  9711  07A0                     l6124:
  9712                           
  9713                           ;mcc_generated_files/i2c1_master.c: 181:     {;mcc_generated_files/i2c1_master.c: 182:  
      +                                 I2C1_Status.address = address;
  9714  07A0  0872               	movf	I2C1_Open@address,w
  9715  07A1  00F1               	movwf	??_I2C1_Open
  9716  07A2  0871               	movf	??_I2C1_Open,w
  9717  07A3  00B6               	movwf	(_I2C1_Status^(0+512)+22)
  9718  07A4                     l6126:
  9719                           
  9720                           ;mcc_generated_files/i2c1_master.c: 183:         I2C1_Status.busy = 0;
  9721  07A4  10BD               	bcf	(_I2C1_Status^(0+512)+29),1
  9722  07A5                     l6128:
  9723                           
  9724                           ;mcc_generated_files/i2c1_master.c: 184:         I2C1_Status.inUse = 1;
  9725  07A5  153D               	bsf	(_I2C1_Status^(0+512)+29),2
  9726  07A6                     l6130:
  9727                           
  9728                           ;mcc_generated_files/i2c1_master.c: 185:         I2C1_Status.addressNackCheck = 0;
  9729  07A6  103D               	bcf	(_I2C1_Status^(0+512)+29),0
  9730                           
  9731                           ;mcc_generated_files/i2c1_master.c: 186:         I2C1_Status.state = I2C1_RESET;
  9732  07A7  300E               	movlw	14
  9733  07A8  00F1               	movwf	??_I2C1_Open
  9734  07A9  0871               	movf	??_I2C1_Open,w
  9735  07AA  00BB               	movwf	(_I2C1_Status^(0+512)+27)
  9736                           
  9737                           ;mcc_generated_files/i2c1_master.c: 187:         I2C1_Status.time_out_value = 500;
  9738  07AB  30F4               	movlw	244
  9739  07AC  00B4               	movwf	(_I2C1_Status^(0+512)+20)
  9740  07AD  3001               	movlw	1
  9741  07AE  00B5               	movwf	(_I2C1_Status^(0+512)+21)
  9742  07AF                     l6132:
  9743                           
  9744                           ;mcc_generated_files/i2c1_master.c: 188:         I2C1_Status.bufferFree = 1;
  9745  07AF  15BD               	bsf	(_I2C1_Status^(0+512)+29),3
  9746                           
  9747                           ;mcc_generated_files/i2c1_master.c: 191:         I2C1_Status.callbackTable[I2C1_DATA_COM
      +                          PLETE]=I2C1_CallbackReturnStop;
  9748  07B0  30CE               	movlw	low _I2C1_CallbackReturnStop
  9749  07B1  00A0               	movwf	_I2C1_Status^(0+512)
  9750  07B2  3009               	movlw	high _I2C1_CallbackReturnStop
  9751  07B3  00A1               	movwf	(_I2C1_Status^(0+512)+1)
  9752  07B4                     l6134:
  9753                           
  9754                           ;mcc_generated_files/i2c1_master.c: 192:         I2C1_Status.callbackPayload[I2C1_DATA_C
      +                          OMPLETE] = ((void*)0);
  9755  07B4  01AC               	clrf	(low ((_I2C1_Status| (0+512)+12)))^0
  9756  07B5                     l6136:
  9757                           
  9758                           ;mcc_generated_files/i2c1_master.c: 193:         I2C1_Status.callbackTable[I2C1_WRITE_CO
      +                          LLISION]=I2C1_CallbackReturnStop;
  9759  07B5  30CE               	movlw	low _I2C1_CallbackReturnStop
  9760  07B6  00A2               	movwf	(low ((_I2C1_Status| (0+512)+2)))^0
  9761  07B7  3009               	movlw	high _I2C1_CallbackReturnStop
  9762  07B8  00A3               	movwf	((low ((_I2C1_Status| (0+512)+2)))^0+1)
  9763                           
  9764                           ;mcc_generated_files/i2c1_master.c: 194:         I2C1_Status.callbackPayload[I2C1_WRITE_
      +                          COLLISION] = ((void*)0);
  9765  07B9  01AD               	clrf	(low ((_I2C1_Status| (0+512)+13)))^0
  9766  07BA                     l6138:
  9767                           
  9768                           ;mcc_generated_files/i2c1_master.c: 195:         I2C1_Status.callbackTable[I2C1_ADDR_NAC
      +                          K]=I2C1_CallbackReturnStop;
  9769  07BA  30CE               	movlw	low _I2C1_CallbackReturnStop
  9770  07BB  00A4               	movwf	(low ((_I2C1_Status| (0+512)+4)))^0
  9771  07BC  3009               	movlw	high _I2C1_CallbackReturnStop
  9772  07BD  00A5               	movwf	((low ((_I2C1_Status| (0+512)+4)))^0+1)
  9773  07BE                     l6140:
  9774                           
  9775                           ;mcc_generated_files/i2c1_master.c: 196:         I2C1_Status.callbackPayload[I2C1_ADDR_N
      +                          ACK] = ((void*)0);
  9776  07BE  01AE               	clrf	(low ((_I2C1_Status| (0+512)+14)))^0
  9777                           
  9778                           ;mcc_generated_files/i2c1_master.c: 197:         I2C1_Status.callbackTable[I2C1_DATA_NAC
      +                          K]=I2C1_CallbackReturnStop;
  9779  07BF  30CE               	movlw	low _I2C1_CallbackReturnStop
  9780  07C0  00A6               	movwf	(low ((_I2C1_Status| (0+512)+6)))^0
  9781  07C1  3009               	movlw	high _I2C1_CallbackReturnStop
  9782  07C2  00A7               	movwf	((low ((_I2C1_Status| (0+512)+6)))^0+1)
  9783  07C3                     l6142:
  9784                           
  9785                           ;mcc_generated_files/i2c1_master.c: 198:         I2C1_Status.callbackPayload[I2C1_DATA_N
      +                          ACK] = ((void*)0);
  9786  07C3  01AF               	clrf	(low ((_I2C1_Status| (0+512)+15)))^0
  9787  07C4                     l6144:
  9788                           
  9789                           ;mcc_generated_files/i2c1_master.c: 199:         I2C1_Status.callbackTable[I2C1_TIMEOUT]
      +                          =I2C1_CallbackReturnReset;
  9790  07C4  3002               	movlw	low _I2C1_CallbackReturnReset
  9791  07C5  00A8               	movwf	(low ((_I2C1_Status| (0+512)+8)))^0
  9792  07C6  3000               	movlw	high _I2C1_CallbackReturnReset
  9793  07C7  00A9               	movwf	((low ((_I2C1_Status| (0+512)+8)))^0+1)
  9794                           
  9795                           ;mcc_generated_files/i2c1_master.c: 200:         I2C1_Status.callbackPayload[I2C1_TIMEOU
      +                          T] = ((void*)0);
  9796  07C8  01B0               	clrf	(low ((_I2C1_Status| (0+512)+16)))^0
  9797  07C9                     l6146:
  9798                           
  9799                           ;mcc_generated_files/i2c1_master.c: 202:         I2C1_MasterClearIrq();
  9800  07C9  3189  21D0  3187   	fcall	_I2C1_MasterClearIrq
  9801  07CC                     l6148:
  9802                           
  9803                           ;mcc_generated_files/i2c1_master.c: 203:         I2C1_MasterOpen();
  9804  07CC  318A  22D2  3187   	fcall	_I2C1_MasterOpen
  9805  07CF                     l6150:
  9806                           
  9807                           ;mcc_generated_files/i2c1_master.c: 204:         returnValue = I2C1_NOERR;
  9808  07CF  01F3               	clrf	I2C1_Open@returnValue
  9809  07D0                     l305:	
  9810                           ;mcc_generated_files/i2c1_master.c: 205:     }
  9811                           
  9812                           
  9813                           ;mcc_generated_files/i2c1_master.c: 206:     return returnValue;
  9814  07D0  0873               	movf	I2C1_Open@returnValue,w
  9815  07D1                     l306:
  9816  07D1  0008               	return
  9817  07D2                     __end_of_I2C1_Open:
  9818                           
  9819                           	psect	text45
  9820  0AD2                     __ptext45:	
  9821 ;; *************** function _I2C1_MasterOpen *****************
  9822 ;; Defined at:
  9823 ;;		line 543 in file "mcc_generated_files/i2c1_master.c"
  9824 ;; Parameters:    Size  Location     Type
  9825 ;;		None
  9826 ;; Auto vars:     Size  Location     Type
  9827 ;;		None
  9828 ;; Return value:  Size  Location     Type
  9829 ;;                  1    wreg      _Bool 
  9830 ;; Registers used:
  9831 ;;		wreg, status,2
  9832 ;; Tracked objects:
  9833 ;;		On entry : 0/0
  9834 ;;		On exit  : 0/0
  9835 ;;		Unchanged: 0/0
  9836 ;; Data sizes:     COMMON   BANK0   BANK1   BANK2   BANK3   BANK4   BANK5   BANK6   BANK7   BANK8   BANK9  BANK10  BANK1
      +1  BANK12  BANK13  BANK14  BANK15  BANK16  BANK17  BANK18  BANK19  BANK20  BANK21  BANK22  BANK23  BANK24  BANK25
  9837 ;;      Params:         0       0       0       0       0       0       0       0       0       0       0       0       
      +0       0       0       0       0       0       0       0       0       0       0       0       0       0       0
  9838 ;;      Locals:         0       0       0       0       0       0       0       0       0       0       0       0       
      +0       0       0       0       0       0       0       0       0       0       0       0       0       0       0
  9839 ;;      Temps:          0       0       0       0       0       0       0       0       0       0       0       0       
      +0       0       0       0       0       0       0       0       0       0       0       0       0       0       0
  9840 ;;      Totals:         0       0       0       0       0       0       0       0       0       0       0       0       
      +0       0       0       0       0       0       0       0       0       0       0       0       0       0       0
  9841 ;;Total ram usage:        0 bytes
  9842 ;; Hardware stack levels used: 1
  9843 ;; Hardware stack levels required when called: 4
  9844 ;; This function calls:
  9845 ;;		Nothing
  9846 ;; This function is called by:
  9847 ;;		_I2C1_Open
  9848 ;; This function uses a non-reentrant model
  9849 ;;
  9850                           
  9851                           
  9852                           ;psect for function _I2C1_MasterOpen
  9853  0AD2                     _I2C1_MasterOpen:
  9854  0AD2                     l5992:	
  9855                           ;incstack = 0
  9856                           ; Regs used in _I2C1_MasterOpen: [wreg+status,2]
  9857                           
  9858                           
  9859                           ;mcc_generated_files/i2c1_master.c: 545:     if(!SSP1CON1bits.SSPEN)
  9860  0AD2  0143               	movlb	3	; select bank3
  9861  0AD3  1A90               	btfsc	16,5	;volatile
  9862  0AD4  2AD6               	goto	u3761
  9863  0AD5  2AD7               	goto	u3760
  9864  0AD6                     u3761:
  9865  0AD6  2ADE               	goto	l471
  9866  0AD7                     u3760:
  9867  0AD7                     l5994:
  9868                           
  9869                           ;mcc_generated_files/i2c1_master.c: 546:     {;mcc_generated_files/i2c1_master.c: 547:  
      +                                 SSP1STAT = 0x00;
  9870  0AD7  018F               	clrf	15	;volatile
  9871  0AD8                     l5996:
  9872                           
  9873                           ;mcc_generated_files/i2c1_master.c: 548:         SSP1CON1 = 0x08;
  9874  0AD8  3008               	movlw	8
  9875  0AD9  0090               	movwf	16	;volatile
  9876  0ADA                     l5998:
  9877                           
  9878                           ;mcc_generated_files/i2c1_master.c: 549:         SSP1CON2 = 0x00;
  9879  0ADA  0191               	clrf	17	;volatile
  9880                           
  9881                           ;mcc_generated_files/i2c1_master.c: 550:         SSP1ADD = 0x7F;
  9882  0ADB  307F               	movlw	127
  9883  0ADC  008D               	movwf	13	;volatile
  9884  0ADD                     l6000:
  9885                           
  9886                           ;mcc_generated_files/i2c1_master.c: 551:         SSP1CON1bits.SSPEN = 1;
  9887  0ADD  1690               	bsf	16,5	;volatile
  9888  0ADE                     l471:
  9889  0ADE  0008               	return
  9890  0ADF                     __end_of_I2C1_MasterOpen:
  9891                           
  9892                           	psect	text46
  9893  0A2D                     __ptext46:	
  9894 ;; *************** function _I2C1_MasterRead *****************
  9895 ;; Defined at:
  9896 ;;		line 246 in file "mcc_generated_files/i2c1_master.c"
  9897 ;; Parameters:    Size  Location     Type
  9898 ;;		None
  9899 ;; Auto vars:     Size  Location     Type
  9900 ;;		None
  9901 ;; Return value:  Size  Location     Type
  9902 ;;                  1    wreg      enum E355
  9903 ;; Registers used:
  9904 ;;		wreg, fsr0l, fsr0h, fsr1l, fsr1h, status,2, status,0, pclath, cstack
  9905 ;; Tracked objects:
  9906 ;;		On entry : 0/0
  9907 ;;		On exit  : 0/0
  9908 ;;		Unchanged: 0/0
  9909 ;; Data sizes:     COMMON   BANK0   BANK1   BANK2   BANK3   BANK4   BANK5   BANK6   BANK7   BANK8   BANK9  BANK10  BANK1
      +1  BANK12  BANK13  BANK14  BANK15  BANK16  BANK17  BANK18  BANK19  BANK20  BANK21  BANK22  BANK23  BANK24  BANK25
  9910 ;;      Params:         0       0       0       0       0       0       0       0       0       0       0       0       
      +0       0       0       0       0       0       0       0       0       0       0       0       0       0       0
  9911 ;;      Locals:         0       0       0       0       0       0       0       0       0       0       0       0       
      +0       0       0       0       0       0       0       0       0       0       0       0       0       0       0
  9912 ;;      Temps:          0       0       0       0       0       0       0       0       0       0       0       0       
      +0       0       0       0       0       0       0       0       0       0       0       0       0       0       0
  9913 ;;      Totals:         0       0       0       0       0       0       0       0       0       0       0       0       
      +0       0       0       0       0       0       0       0       0       0       0       0       0       0       0
  9914 ;;Total ram usage:        0 bytes
  9915 ;; Hardware stack levels used: 1
  9916 ;; Hardware stack levels required when called: 11
  9917 ;; This function calls:
  9918 ;;		_I2C1_MasterOperation
  9919 ;; This function is called by:
  9920 ;;		_i2c_readNBytes
  9921 ;;		_I2C1_ReadNBytes
  9922 ;; This function uses a non-reentrant model
  9923 ;;
  9924                           
  9925                           
  9926                           ;psect for function _I2C1_MasterRead
  9927  0A2D                     _I2C1_MasterRead:
  9928  0A2D                     l6178:	
  9929                           ;incstack = 0
  9930                           ; Regs used in _I2C1_MasterRead: [wreg-fsr1h+status,2+status,0+pclath+cstack]
  9931                           
  9932                           
  9933                           ;mcc_generated_files/i2c1_master.c: 248:     return I2C1_MasterOperation(1);;	Return val
      +                          ue of _I2C1_MasterRead is never used
  9934  0A2D  3001               	movlw	1
  9935  0A2E  318D  251A  318A   	fcall	_I2C1_MasterOperation
  9936  0A31                     l319:
  9937  0A31  0008               	return
  9938  0A32                     __end_of_I2C1_MasterRead:
  9939                           
  9940                           	psect	text47
  9941  0D1A                     __ptext47:	
  9942 ;; *************** function _I2C1_MasterOperation *****************
  9943 ;; Defined at:
  9944 ;;		line 224 in file "mcc_generated_files/i2c1_master.c"
  9945 ;; Parameters:    Size  Location     Type
  9946 ;;  read            1    wreg     _Bool 
  9947 ;; Auto vars:     Size  Location     Type
  9948 ;;  read            1    6[BANK0 ] _Bool 
  9949 ;;  returnValue     1    7[BANK0 ] enum E355
  9950 ;; Return value:  Size  Location     Type
  9951 ;;                  1    wreg      enum E355
  9952 ;; Registers used:
  9953 ;;		wreg, fsr0l, fsr0h, fsr1l, fsr1h, status,2, status,0, pclath, cstack
  9954 ;; Tracked objects:
  9955 ;;		On entry : 0/0
  9956 ;;		On exit  : 0/0
  9957 ;;		Unchanged: 0/0
  9958 ;; Data sizes:     COMMON   BANK0   BANK1   BANK2   BANK3   BANK4   BANK5   BANK6   BANK7   BANK8   BANK9  BANK10  BANK1
      +1  BANK12  BANK13  BANK14  BANK15  BANK16  BANK17  BANK18  BANK19  BANK20  BANK21  BANK22  BANK23  BANK24  BANK25
  9959 ;;      Params:         0       0       0       0       0       0       0       0       0       0       0       0       
      +0       0       0       0       0       0       0       0       0       0       0       0       0       0       0
  9960 ;;      Locals:         0       2       0       0       0       0       0       0       0       0       0       0       
      +0       0       0       0       0       0       0       0       0       0       0       0       0       0       0
  9961 ;;      Temps:          1       0       0       0       0       0       0       0       0       0       0       0       
      +0       0       0       0       0       0       0       0       0       0       0       0       0       0       0
  9962 ;;      Totals:         1       2       0       0       0       0       0       0       0       0       0       0       
      +0       0       0       0       0       0       0       0       0       0       0       0       0       0       0
  9963 ;;Total ram usage:        3 bytes
  9964 ;; Hardware stack levels used: 1
  9965 ;; Hardware stack levels required when called: 10
  9966 ;; This function calls:
  9967 ;;		_I2C1_MasterStart
  9968 ;;		_I2C1_Poller
  9969 ;; This function is called by:
  9970 ;;		_I2C1_MasterRead
  9971 ;;		_I2C1_MasterWrite
  9972 ;; This function uses a non-reentrant model
  9973 ;;
  9974                           
  9975                           
  9976                           ;psect for function _I2C1_MasterOperation
  9977  0D1A                     _I2C1_MasterOperation:
  9978                           
  9979                           ;incstack = 0
  9980                           ; Regs used in _I2C1_MasterOperation: [wreg-fsr1h+status,2+status,0+pclath+cstack]
  9981                           ;I2C1_MasterOperation@read stored from wreg
  9982  0D1A  0140               	movlb	0	; select bank0
  9983  0D1B  00A6               	movwf	I2C1_MasterOperation@read
  9984  0D1C                     l6008:
  9985                           
  9986                           ;mcc_generated_files/i2c1_master.c: 224: i2c1_error_t I2C1_MasterOperation(_Bool read);m
      +                          cc_generated_files/i2c1_master.c: 225: {;mcc_generated_files/i2c1_master.c: 226:     i2c
      +                          1_error_t returnValue = I2C1_BUSY;
  9987  0D1C  01A7               	clrf	I2C1_MasterOperation@returnValue
  9988  0D1D  0AA7               	incf	I2C1_MasterOperation@returnValue,f
  9989                           
  9990                           ;mcc_generated_files/i2c1_master.c: 227:     if(!I2C1_Status.busy)
  9991  0D1E  0144               	movlb	4	; select bank4
  9992  0D1F  18BD               	btfsc	(_I2C1_Status^(0+512)+29),1
  9993  0D20  2D22               	goto	u3771
  9994  0D21  2D23               	goto	u3770
  9995  0D22                     u3771:
  9996  0D22  2D3A               	goto	l6024
  9997  0D23                     u3770:
  9998  0D23                     l6010:
  9999                           
 10000                           ;mcc_generated_files/i2c1_master.c: 228:     {;mcc_generated_files/i2c1_master.c: 229:  
      +                                 I2C1_Status.busy = 1;
 10001  0D23  14BD               	bsf	(_I2C1_Status^(0+512)+29),1
 10002  0D24                     l6012:
 10003                           
 10004                           ;mcc_generated_files/i2c1_master.c: 230:         returnValue = I2C1_NOERR;
 10005  0D24  0140               	movlb	0	; select bank0
 10006  0D25  01A7               	clrf	I2C1_MasterOperation@returnValue
 10007  0D26                     l6014:
 10008                           
 10009                           ;mcc_generated_files/i2c1_master.c: 232:         if(read)
 10010  0D26  0826               	movf	I2C1_MasterOperation@read,w
 10011  0D27  1903               	btfsc	3,2
 10012  0D28  2D2A               	goto	u3781
 10013  0D29  2D2B               	goto	u3780
 10014  0D2A                     u3781:
 10015  0D2A  2D2F               	goto	l6018
 10016  0D2B                     u3780:
 10017  0D2B                     l6016:
 10018                           
 10019                           ;mcc_generated_files/i2c1_master.c: 233:         {;mcc_generated_files/i2c1_master.c: 23
      +                          4:             I2C1_Status.state = I2C1_SEND_ADR_READ;
 10020  0D2B  0144               	movlb	4	; select bank4
 10021  0D2C  01BB               	clrf	(_I2C1_Status^(0+512)+27)
 10022  0D2D  0ABB               	incf	(_I2C1_Status^(0+512)+27),f
 10023                           
 10024                           ;mcc_generated_files/i2c1_master.c: 235:         }
 10025  0D2E  2D34               	goto	l6020
 10026  0D2F                     l6018:
 10027                           
 10028                           ;mcc_generated_files/i2c1_master.c: 237:         {;mcc_generated_files/i2c1_master.c: 23
      +                          8:             I2C1_Status.state = I2C1_SEND_ADR_WRITE;
 10029  0D2F  3002               	movlw	2
 10030  0D30  00FB               	movwf	??_I2C1_MasterOperation
 10031  0D31  087B               	movf	??_I2C1_MasterOperation,w
 10032  0D32  0144               	movlb	4	; select bank4
 10033  0D33  00BB               	movwf	(_I2C1_Status^(0+512)+27)
 10034  0D34                     l6020:
 10035                           
 10036                           ;mcc_generated_files/i2c1_master.c: 240:         I2C1_MasterStart();
 10037  0D34  3189  21D9  318D   	fcall	_I2C1_MasterStart
 10038  0D37                     l6022:
 10039                           
 10040                           ;mcc_generated_files/i2c1_master.c: 241:         I2C1_Poller();
 10041  0D37  318A  22C5  318D   	fcall	_I2C1_Poller
 10042  0D3A                     l6024:
 10043                           
 10044                           ;mcc_generated_files/i2c1_master.c: 243:     return returnValue;
 10045  0D3A  0140               	movlb	0	; select bank0
 10046  0D3B  0827               	movf	I2C1_MasterOperation@returnValue,w
 10047  0D3C                     l316:
 10048  0D3C  0008               	return
 10049  0D3D                     __end_of_I2C1_MasterOperation:
 10050                           
 10051                           	psect	text48
 10052  0AC5                     __ptext48:	
 10053 ;; *************** function _I2C1_Poller *****************
 10054 ;; Defined at:
 10055 ;;		line 312 in file "mcc_generated_files/i2c1_master.c"
 10056 ;; Parameters:    Size  Location     Type
 10057 ;;		None
 10058 ;; Auto vars:     Size  Location     Type
 10059 ;;		None
 10060 ;; Return value:  Size  Location     Type
 10061 ;;                  1    wreg      void 
 10062 ;; Registers used:
 10063 ;;		wreg, fsr0l, fsr0h, fsr1l, fsr1h, status,2, status,0, pclath, cstack
 10064 ;; Tracked objects:
 10065 ;;		On entry : 0/0
 10066 ;;		On exit  : 0/0
 10067 ;;		Unchanged: 0/0
 10068 ;; Data sizes:     COMMON   BANK0   BANK1   BANK2   BANK3   BANK4   BANK5   BANK6   BANK7   BANK8   BANK9  BANK10  BANK1
      +1  BANK12  BANK13  BANK14  BANK15  BANK16  BANK17  BANK18  BANK19  BANK20  BANK21  BANK22  BANK23  BANK24  BANK25
 10069 ;;      Params:         0       0       0       0       0       0       0       0       0       0       0       0       
      +0       0       0       0       0       0       0       0       0       0       0       0       0       0       0
 10070 ;;      Locals:         0       0       0       0       0       0       0       0       0       0       0       0       
      +0       0       0       0       0       0       0       0       0       0       0       0       0       0       0
 10071 ;;      Temps:          0       0       0       0       0       0       0       0       0       0       0       0       
      +0       0       0       0       0       0       0       0       0       0       0       0       0       0       0
 10072 ;;      Totals:         0       0       0       0       0       0       0       0       0       0       0       0       
      +0       0       0       0       0       0       0       0       0       0       0       0       0       0       0
 10073 ;;Total ram usage:        0 bytes
 10074 ;; Hardware stack levels used: 1
 10075 ;; Hardware stack levels required when called: 9
 10076 ;; This function calls:
 10077 ;;		_I2C1_MasterFsm
 10078 ;;		_I2C1_MasterWaitForEvent
 10079 ;; This function is called by:
 10080 ;;		_I2C1_MasterOperation
 10081 ;; This function uses a non-reentrant model
 10082 ;;
 10083                           
 10084                           
 10085                           ;psect for function _I2C1_Poller
 10086  0AC5                     _I2C1_Poller:
 10087  0AC5                     l5874:	
 10088                           ;incstack = 0
 10089                           ; Regs used in _I2C1_Poller: [wreg-fsr1h+status,2+status,0+pclath+cstack]
 10090                           
 10091                           
 10092                           ;mcc_generated_files/i2c1_master.c: 314:     while(I2C1_Status.busy)
 10093  0AC5  2ACC               	goto	l5880
 10094  0AC6                     l5876:
 10095                           
 10096                           ;mcc_generated_files/i2c1_master.c: 315:     {;mcc_generated_files/i2c1_master.c: 316:  
      +                                 I2C1_MasterWaitForEvent();
 10097  0AC6  318A  223D  318A   	fcall	_I2C1_MasterWaitForEvent
 10098  0AC9                     l5878:
 10099                           
 10100                           ;mcc_generated_files/i2c1_master.c: 317:         I2C1_MasterFsm();
 10101  0AC9  318E  269F  318A   	fcall	_I2C1_MasterFsm
 10102  0ACC                     l5880:
 10103                           
 10104                           ;mcc_generated_files/i2c1_master.c: 314:     while(I2C1_Status.busy)
 10105  0ACC  0144               	movlb	4	; select bank4
 10106  0ACD  18BD               	btfsc	(_I2C1_Status^(0+512)+29),1
 10107  0ACE  2AD0               	goto	u3511
 10108  0ACF  2AD1               	goto	u3510
 10109  0AD0                     u3511:
 10110  0AD0  2AC6               	goto	l5876
 10111  0AD1                     u3510:
 10112  0AD1                     l355:
 10113  0AD1  0008               	return
 10114  0AD2                     __end_of_I2C1_Poller:
 10115                           
 10116                           	psect	text49
 10117  0A3D                     __ptext49:	
 10118 ;; *************** function _I2C1_MasterWaitForEvent *****************
 10119 ;; Defined at:
 10120 ;;		line 650 in file "mcc_generated_files/i2c1_master.c"
 10121 ;; Parameters:    Size  Location     Type
 10122 ;;		None
 10123 ;; Auto vars:     Size  Location     Type
 10124 ;;		None
 10125 ;; Return value:  Size  Location     Type
 10126 ;;                  1    wreg      void 
 10127 ;; Registers used:
 10128 ;;		None
 10129 ;; Tracked objects:
 10130 ;;		On entry : 0/0
 10131 ;;		On exit  : 0/0
 10132 ;;		Unchanged: 0/0
 10133 ;; Data sizes:     COMMON   BANK0   BANK1   BANK2   BANK3   BANK4   BANK5   BANK6   BANK7   BANK8   BANK9  BANK10  BANK1
      +1  BANK12  BANK13  BANK14  BANK15  BANK16  BANK17  BANK18  BANK19  BANK20  BANK21  BANK22  BANK23  BANK24  BANK25
 10134 ;;      Params:         0       0       0       0       0       0       0       0       0       0       0       0       
      +0       0       0       0       0       0       0       0       0       0       0       0       0       0       0
 10135 ;;      Locals:         0       0       0       0       0       0       0       0       0       0       0       0       
      +0       0       0       0       0       0       0       0       0       0       0       0       0       0       0
 10136 ;;      Temps:          0       0       0       0       0       0       0       0       0       0       0       0       
      +0       0       0       0       0       0       0       0       0       0       0       0       0       0       0
 10137 ;;      Totals:         0       0       0       0       0       0       0       0       0       0       0       0       
      +0       0       0       0       0       0       0       0       0       0       0       0       0       0       0
 10138 ;;Total ram usage:        0 bytes
 10139 ;; Hardware stack levels used: 1
 10140 ;; Hardware stack levels required when called: 4
 10141 ;; This function calls:
 10142 ;;		Nothing
 10143 ;; This function is called by:
 10144 ;;		_I2C1_Poller
 10145 ;; This function uses a non-reentrant model
 10146 ;;
 10147                           
 10148                           
 10149                           ;psect for function _I2C1_MasterWaitForEvent
 10150  0A3D                     _I2C1_MasterWaitForEvent:
 10151  0A3D                     l528:	
 10152                           ;incstack = 0
 10153                           ; Regs used in _I2C1_MasterWaitForEvent: []
 10154                           ;mcc_generated_files/i2c1_master.c: 652:     while(1)
 10155                           
 10156                           
 10157                           ;mcc_generated_files/i2c1_master.c: 653:     {;mcc_generated_files/i2c1_master.c: 654:  
      +                                 if(PIR3bits.SSP1IF)
 10158  0A3D  014E               	movlb	14	; select bank14
 10159  0A3E  1C0F               	btfss	15,0	;volatile
 10160  0A3F  2A41               	goto	u3411
 10161  0A40  2A42               	goto	u3410
 10162  0A41                     u3411:
 10163  0A41  2A3D               	goto	l528
 10164  0A42                     u3410:
 10165  0A42                     l532:
 10166  0A42  0008               	return
 10167  0A43                     __end_of_I2C1_MasterWaitForEvent:
 10168                           
 10169                           	psect	text50
 10170  0E9F                     __ptext50:	
 10171 ;; *************** function _I2C1_MasterFsm *****************
 10172 ;; Defined at:
 10173 ;;		line 321 in file "mcc_generated_files/i2c1_master.c"
 10174 ;; Parameters:    Size  Location     Type
 10175 ;;		None
 10176 ;; Auto vars:     Size  Location     Type
 10177 ;;		None
 10178 ;; Return value:  Size  Location     Type
 10179 ;;                  1    wreg      void 
 10180 ;; Registers used:
 10181 ;;		wreg, fsr0l, fsr0h, fsr1l, fsr1h, status,2, status,0, pclath, cstack
 10182 ;; Tracked objects:
 10183 ;;		On entry : 0/0
 10184 ;;		On exit  : 0/0
 10185 ;;		Unchanged: 0/0
 10186 ;; Data sizes:     COMMON   BANK0   BANK1   BANK2   BANK3   BANK4   BANK5   BANK6   BANK7   BANK8   BANK9  BANK10  BANK1
      +1  BANK12  BANK13  BANK14  BANK15  BANK16  BANK17  BANK18  BANK19  BANK20  BANK21  BANK22  BANK23  BANK24  BANK25
 10187 ;;      Params:         0       0       0       0       0       0       0       0       0       0       0       0       
      +0       0       0       0       0       0       0       0       0       0       0       0       0       0       0
 10188 ;;      Locals:         0       0       0       0       0       0       0       0       0       0       0       0       
      +0       0       0       0       0       0       0       0       0       0       0       0       0       0       0
 10189 ;;      Temps:          0       3       0       0       0       0       0       0       0       0       0       0       
      +0       0       0       0       0       0       0       0       0       0       0       0       0       0       0
 10190 ;;      Totals:         0       3       0       0       0       0       0       0       0       0       0       0       
      +0       0       0       0       0       0       0       0       0       0       0       0       0       0       0
 10191 ;;Total ram usage:        3 bytes
 10192 ;; Hardware stack levels used: 1
 10193 ;; Hardware stack levels required when called: 8
 10194 ;; This function calls:
 10195 ;;		_I2C1_DO_ADDRESS_NACK
 10196 ;;		_I2C1_DO_IDLE
 10197 ;;		_I2C1_DO_RCEN
 10198 ;;		_I2C1_DO_RESET
 10199 ;;		_I2C1_DO_RX
 10200 ;;		_I2C1_DO_RX_ACK
 10201 ;;		_I2C1_DO_RX_NACK_RESTART
 10202 ;;		_I2C1_DO_RX_NACK_STOP
 10203 ;;		_I2C1_DO_SEND_ADR_READ
 10204 ;;		_I2C1_DO_SEND_ADR_WRITE
 10205 ;;		_I2C1_DO_SEND_RESTART
 10206 ;;		_I2C1_DO_SEND_RESTART_READ
 10207 ;;		_I2C1_DO_SEND_RESTART_WRITE
 10208 ;;		_I2C1_DO_SEND_STOP
 10209 ;;		_I2C1_DO_TX
 10210 ;;		_I2C1_DO_TX_EMPTY
 10211 ;;		_I2C1_MasterClearIrq
 10212 ;;		_I2C1_MasterIsNack
 10213 ;; This function is called by:
 10214 ;;		_I2C1_Poller
 10215 ;; This function uses a non-reentrant model
 10216 ;;
 10217                           
 10218                           
 10219                           ;psect for function _I2C1_MasterFsm
 10220  0E9F                     _I2C1_MasterFsm:
 10221  0E9F                     l5832:	
 10222                           ;incstack = 0
 10223                           ; Regs used in _I2C1_MasterFsm: [wreg-fsr1h+status,2+status,0+pclath+cstack]
 10224                           
 10225                           
 10226                           ;mcc_generated_files/i2c1_master.c: 323:     I2C1_MasterClearIrq();
 10227  0E9F  3189  21D0  318E   	fcall	_I2C1_MasterClearIrq
 10228  0EA2                     l5834:
 10229                           
 10230                           ;mcc_generated_files/i2c1_master.c: 325:     if(I2C1_Status.addressNackCheck && I2C1_Mas
      +                          terIsNack())
 10231  0EA2  0144               	movlb	4	; select bank4
 10232  0EA3  1C3D               	btfss	(_I2C1_Status^(0+512)+29),0
 10233  0EA4  2EA6               	goto	u3421
 10234  0EA5  2EA7               	goto	u3420
 10235  0EA6                     u3421:
 10236  0EA6  2EB5               	goto	l5840
 10237  0EA7                     u3420:
 10238  0EA7                     l5836:
 10239  0EA7  318A  2237  318E   	fcall	_I2C1_MasterIsNack
 10240  0EAA  3A00               	xorlw	0
 10241  0EAB  1903               	skipnz
 10242  0EAC  2EAE               	goto	u3431
 10243  0EAD  2EAF               	goto	u3430
 10244  0EAE                     u3431:
 10245  0EAE  2EB5               	goto	l5840
 10246  0EAF                     u3430:
 10247  0EAF                     l5838:
 10248                           
 10249                           ;mcc_generated_files/i2c1_master.c: 326:     {;mcc_generated_files/i2c1_master.c: 327:  
      +                                 I2C1_Status.state = I2C1_ADDRESS_NACK;
 10250  0EAF  300F               	movlw	15
 10251  0EB0  0140               	movlb	0	; select bank0
 10252  0EB1  00A3               	movwf	??_I2C1_MasterFsm
 10253  0EB2  0823               	movf	??_I2C1_MasterFsm,w
 10254  0EB3  0144               	movlb	4	; select bank4
 10255  0EB4  00BB               	movwf	(_I2C1_Status^(0+512)+27)
 10256  0EB5                     l5840:
 10257                           
 10258                           ;mcc_generated_files/i2c1_master.c: 329:     I2C1_Status.state = i2c1_fsmStateTable[I2C1
      +                          _Status.state]();
 10259  0EB5  0144               	movlb	4	; select bank4
 10260  0EB6  083B               	movf	(_I2C1_Status^(0+512)+27),w
 10261  0EB7  0140               	movlb	0	; select bank0
 10262  0EB8  00A3               	movwf	??_I2C1_MasterFsm
 10263  0EB9  01A4               	clrf	??_I2C1_MasterFsm+1
 10264  0EBA  35A3               	lslf	??_I2C1_MasterFsm,f
 10265  0EBB  0DA4               	rlf	??_I2C1_MasterFsm+1,f
 10266  0EBC  3000               	movlw	low (_i2c1_fsmStateTable| (0+32768))
 10267  0EBD  0723               	addwf	??_I2C1_MasterFsm,w
 10268  0EBE  0084               	movwf	4
 10269  0EBF  3090               	movlw	high (_i2c1_fsmStateTable| (0+32768))
 10270  0EC0  3D24               	addwfc	??_I2C1_MasterFsm+1,w
 10271  0EC1  0085               	movwf	5
 10272  0EC2  3F01               	moviw [1]fsr0
 10273  0EC3  008A               	movwf	10
 10274  0EC4  3F00               	moviw [0]fsr0
 10275  0EC5  000A               	callw
 10276  0EC6  318E               	pagesel	$
 10277  0EC7  0140               	movlb	0	; select bank0
 10278  0EC8  00A5               	movwf	??_I2C1_MasterFsm+2
 10279  0EC9  0825               	movf	??_I2C1_MasterFsm+2,w
 10280  0ECA  0144               	movlb	4	; select bank4
 10281  0ECB  00BB               	movwf	(_I2C1_Status^(0+512)+27)
 10282  0ECC                     l359:
 10283  0ECC  0008               	return
 10284  0ECD                     __end_of_I2C1_MasterFsm:
 10285                           
 10286                           	psect	text51
 10287  0EFB                     __ptext51:	
 10288 ;; *************** function _I2C1_DO_ADDRESS_NACK *****************
 10289 ;; Defined at:
 10290 ;;		line 500 in file "mcc_generated_files/i2c1_master.c"
 10291 ;; Parameters:    Size  Location     Type
 10292 ;;		None
 10293 ;; Auto vars:     Size  Location     Type
 10294 ;;		None
 10295 ;; Return value:  Size  Location     Type
 10296 ;;                  1    wreg      enum E8119
 10297 ;; Registers used:
 10298 ;;		wreg, fsr0l, fsr0h, fsr1l, fsr1h, status,2, status,0, pclath, cstack
 10299 ;; Tracked objects:
 10300 ;;		On entry : 0/0
 10301 ;;		On exit  : 0/0
 10302 ;;		Unchanged: 0/0
 10303 ;; Data sizes:     COMMON   BANK0   BANK1   BANK2   BANK3   BANK4   BANK5   BANK6   BANK7   BANK8   BANK9  BANK10  BANK1
      +1  BANK12  BANK13  BANK14  BANK15  BANK16  BANK17  BANK18  BANK19  BANK20  BANK21  BANK22  BANK23  BANK24  BANK25
 10304 ;;      Params:         0       0       0       0       0       0       0       0       0       0       0       0       
      +0       0       0       0       0       0       0       0       0       0       0       0       0       0       0
 10305 ;;      Locals:         0       0       0       0       0       0       0       0       0       0       0       0       
      +0       0       0       0       0       0       0       0       0       0       0       0       0       0       0
 10306 ;;      Temps:          0       3       0       0       0       0       0       0       0       0       0       0       
      +0       0       0       0       0       0       0       0       0       0       0       0       0       0       0
 10307 ;;      Totals:         0       3       0       0       0       0       0       0       0       0       0       0       
      +0       0       0       0       0       0       0       0       0       0       0       0       0       0       0
 10308 ;;Total ram usage:        3 bytes
 10309 ;; Hardware stack levels used: 1
 10310 ;; Hardware stack levels required when called: 7
 10311 ;; This function calls:
 10312 ;;		Absolute function
 10313 ;;		_I2C1_CallbackReturnReset
 10314 ;;		_I2C1_CallbackReturnStop
 10315 ;;		_I2C1_DO_SEND_RESTART
 10316 ;;		_I2C1_DO_SEND_STOP
 10317 ;;		_rd1RegCompleteHandler
 10318 ;;		_rd1RegCompleteHandler@i2c1_master_example$F143
 10319 ;;		_rd2RegCompleteHandler
 10320 ;;		_rd2RegCompleteHandler@i2c1_master_example$F154
 10321 ;;		_rdBlkRegCompleteHandler
 10322 ;;		_rdBlkRegCompleteHandler@i2c1_master_example$F177
 10323 ;;		_wr1RegCompleteHandler
 10324 ;;		_wr1RegCompleteHandler@i2c1_master_example$F160
 10325 ;;		_wr2RegCompleteHandler
 10326 ;;		_wr2RegCompleteHandler@i2c1_master_example$F166
 10327 ;; This function is called by:
 10328 ;;		_I2C1_MasterFsm
 10329 ;; This function uses a non-reentrant model
 10330 ;;
 10331                           
 10332                           
 10333                           ;psect for function _I2C1_DO_ADDRESS_NACK
 10334  0EFB                     _I2C1_DO_ADDRESS_NACK:
 10335  0EFB                     l5798:	
 10336                           ;incstack = 0
 10337                           ; Regs used in _I2C1_DO_ADDRESS_NACK: [wreg-fsr1h+status,2+status,0+pclath+cstack]
 10338                           
 10339                           
 10340                           ;mcc_generated_files/i2c1_master.c: 502:     I2C1_Status.addressNackCheck = 0;
 10341  0EFB  0144               	movlb	4	; select bank4
 10342  0EFC  103D               	bcf	(_I2C1_Status^(0+512)+29),0
 10343  0EFD                     l5800:
 10344                           
 10345                           ;mcc_generated_files/i2c1_master.c: 503:     I2C1_Status.error = I2C1_FAIL;
 10346  0EFD  3002               	movlw	2
 10347  0EFE  0140               	movlb	0	; select bank0
 10348  0EFF  00A0               	movwf	??_I2C1_DO_ADDRESS_NACK
 10349  0F00  0820               	movf	??_I2C1_DO_ADDRESS_NACK,w
 10350  0F01  0144               	movlb	4	; select bank4
 10351  0F02  00BC               	movwf	(_I2C1_Status^(0+512)+28)
 10352                           
 10353                           ;mcc_generated_files/i2c1_master.c: 504:     switch(I2C1_Status.callbackTable[I2C1_ADDR_
      +                          NACK](I2C1_Status.callbackPayload[I2C1_ADDR_NACK]))
 10354  0F03  2F0C               	goto	l5812
 10355  0F04                     l5802:
 10356                           
 10357                           ;mcc_generated_files/i2c1_master.c: 508:             return I2C1_DO_SEND_RESTART();
 10358  0F04  318A  220F  318E   	fcall	_I2C1_DO_SEND_RESTART
 10359  0F07  2F2B               	goto	l450
 10360  0F08                     l5806:
 10361                           
 10362                           ;mcc_generated_files/i2c1_master.c: 510:             return I2C1_DO_SEND_STOP();
 10363  0F08  318A  2214  318E   	fcall	_I2C1_DO_SEND_STOP
 10364  0F0B  2F2B               	goto	l450
 10365  0F0C                     l5812:
 10366  0F0C  082E               	movf	(low ((_I2C1_Status| (0+512)+14)))^0,w
 10367  0F0D  0140               	movlb	0	; select bank0
 10368  0F0E  00A0               	movwf	??_I2C1_DO_ADDRESS_NACK
 10369  0F0F  0820               	movf	??_I2C1_DO_ADDRESS_NACK,w
 10370  0F10  00FA               	movwf	I2C1_CallbackReturnReset@funPtr
 10371  0F11  3004               	movlw	4
 10372  0F12  3E20               	addlw	(low (_I2C1_Status| (0+512)))& (0+255)
 10373  0F13  0086               	movwf	6
 10374  0F14  3002               	movlw	2	; select bank4/5
 10375  0F15  0087               	movwf	7
 10376  0F16  3F41               	moviw [1]fsr1
 10377  0F17  008A               	movwf	10
 10378  0F18  3F40               	moviw [0]fsr1
 10379  0F19  000A               	callw
 10380  0F1A  318E               	pagesel	$
 10381  0F1B  0140               	movlb	0	; select bank0
 10382  0F1C  00A1               	movwf	??_I2C1_DO_ADDRESS_NACK+1
 10383  0F1D  01A2               	clrf	??_I2C1_DO_ADDRESS_NACK+2
 10384                           
 10385                           ; Switch on 2 bytes has been partitioned into a top level switch of size 1, and 1 sub-sw
      +                          itches
 10386                           ; Switch size 1, requested type "simple"
 10387                           ; Number of cases is 1, Range of values is 0 to 0
 10388                           ; switch strategies available:
 10389                           ; Name         Instructions Cycles
 10390                           ; simple_byte            4     3 (average)
 10391                           ; direct_byte            8     6 (fixed)
 10392                           ; jumptable            260     6 (fixed)
 10393                           ;	Chosen strategy is simple_byte
 10394  0F1E  0822               	movf	??_I2C1_DO_ADDRESS_NACK+2,w
 10395  0F1F  3A00               	xorlw	0	; case 0
 10396  0F20  1903               	skipnz
 10397  0F21  2F23               	goto	l6752
 10398  0F22  2F08               	goto	l5806
 10399  0F23                     l6752:
 10400                           
 10401                           ; Switch size 1, requested type "simple"
 10402                           ; Number of cases is 2, Range of values is 2 to 3
 10403                           ; switch strategies available:
 10404                           ; Name         Instructions Cycles
 10405                           ; simple_byte            7     4 (average)
 10406                           ; direct_byte           13     9 (fixed)
 10407                           ; jumptable            263     9 (fixed)
 10408                           ;	Chosen strategy is simple_byte
 10409  0F23  0821               	movf	??_I2C1_DO_ADDRESS_NACK+1,w
 10410  0F24  3A02               	xorlw	2	; case 2
 10411  0F25  1903               	skipnz
 10412  0F26  2F04               	goto	l5802
 10413  0F27  3A01               	xorlw	1	; case 3
 10414  0F28  1903               	skipnz
 10415  0F29  2F04               	goto	l5802
 10416  0F2A  2F08               	goto	l5806
 10417  0F2B                     l450:
 10418  0F2B  0008               	return
 10419  0F2C                     __end_of_I2C1_DO_ADDRESS_NACK:
 10420                           
 10421                           	psect	text52
 10422  0A28                     __ptext52:	
 10423 ;; *************** function _I2C1_DO_RESET *****************
 10424 ;; Defined at:
 10425 ;;		line 494 in file "mcc_generated_files/i2c1_master.c"
 10426 ;; Parameters:    Size  Location     Type
 10427 ;;		None
 10428 ;; Auto vars:     Size  Location     Type
 10429 ;;		None
 10430 ;; Return value:  Size  Location     Type
 10431 ;;                  1    wreg      enum E8119
 10432 ;; Registers used:
 10433 ;;		wreg, status,2
 10434 ;; Tracked objects:
 10435 ;;		On entry : 0/0
 10436 ;;		On exit  : 0/0
 10437 ;;		Unchanged: 0/0
 10438 ;; Data sizes:     COMMON   BANK0   BANK1   BANK2   BANK3   BANK4   BANK5   BANK6   BANK7   BANK8   BANK9  BANK10  BANK1
      +1  BANK12  BANK13  BANK14  BANK15  BANK16  BANK17  BANK18  BANK19  BANK20  BANK21  BANK22  BANK23  BANK24  BANK25
 10439 ;;      Params:         0       0       0       0       0       0       0       0       0       0       0       0       
      +0       0       0       0       0       0       0       0       0       0       0       0       0       0       0
 10440 ;;      Locals:         0       0       0       0       0       0       0       0       0       0       0       0       
      +0       0       0       0       0       0       0       0       0       0       0       0       0       0       0
 10441 ;;      Temps:          0       0       0       0       0       0       0       0       0       0       0       0       
      +0       0       0       0       0       0       0       0       0       0       0       0       0       0       0
 10442 ;;      Totals:         0       0       0       0       0       0       0       0       0       0       0       0       
      +0       0       0       0       0       0       0       0       0       0       0       0       0       0       0
 10443 ;;Total ram usage:        0 bytes
 10444 ;; Hardware stack levels used: 1
 10445 ;; Hardware stack levels required when called: 4
 10446 ;; This function calls:
 10447 ;;		Nothing
 10448 ;; This function is called by:
 10449 ;;		_I2C1_MasterFsm
 10450 ;; This function uses a non-reentrant model
 10451 ;;
 10452                           
 10453                           
 10454                           ;psect for function _I2C1_DO_RESET
 10455  0A28                     _I2C1_DO_RESET:
 10456  0A28                     l5790:	
 10457                           ;incstack = 0
 10458                           ; Regs used in _I2C1_DO_RESET: [wreg+status,2]
 10459                           
 10460                           
 10461                           ;mcc_generated_files/i2c1_master.c: 496:     I2C1_Status.busy = 0;
 10462  0A28  0144               	movlb	4	; select bank4
 10463  0A29  10BD               	bcf	(_I2C1_Status^(0+512)+29),1
 10464  0A2A                     l5792:
 10465                           
 10466                           ;mcc_generated_files/i2c1_master.c: 497:     I2C1_Status.error = I2C1_NOERR;
 10467  0A2A  01BC               	clrf	(_I2C1_Status^(0+512)+28)
 10468  0A2B                     l5794:
 10469                           
 10470                           ;mcc_generated_files/i2c1_master.c: 498:     return I2C1_RESET;
 10471  0A2B  300E               	movlw	14
 10472  0A2C                     l444:
 10473  0A2C  0008               	return
 10474  0A2D                     __end_of_I2C1_DO_RESET:
 10475                           
 10476                           	psect	text53
 10477  0A23                     __ptext53:	
 10478 ;; *************** function _I2C1_DO_RX_NACK_RESTART *****************
 10479 ;; Defined at:
 10480 ;;		line 488 in file "mcc_generated_files/i2c1_master.c"
 10481 ;; Parameters:    Size  Location     Type
 10482 ;;		None
 10483 ;; Auto vars:     Size  Location     Type
 10484 ;;		None
 10485 ;; Return value:  Size  Location     Type
 10486 ;;                  1    wreg      enum E8119
 10487 ;; Registers used:
 10488 ;;		wreg, status,2, status,0, pclath, cstack
 10489 ;; Tracked objects:
 10490 ;;		On entry : 0/0
 10491 ;;		On exit  : 0/0
 10492 ;;		Unchanged: 0/0
 10493 ;; Data sizes:     COMMON   BANK0   BANK1   BANK2   BANK3   BANK4   BANK5   BANK6   BANK7   BANK8   BANK9  BANK10  BANK1
      +1  BANK12  BANK13  BANK14  BANK15  BANK16  BANK17  BANK18  BANK19  BANK20  BANK21  BANK22  BANK23  BANK24  BANK25
 10494 ;;      Params:         0       0       0       0       0       0       0       0       0       0       0       0       
      +0       0       0       0       0       0       0       0       0       0       0       0       0       0       0
 10495 ;;      Locals:         0       0       0       0       0       0       0       0       0       0       0       0       
      +0       0       0       0       0       0       0       0       0       0       0       0       0       0       0
 10496 ;;      Temps:          0       0       0       0       0       0       0       0       0       0       0       0       
      +0       0       0       0       0       0       0       0       0       0       0       0       0       0       0
 10497 ;;      Totals:         0       0       0       0       0       0       0       0       0       0       0       0       
      +0       0       0       0       0       0       0       0       0       0       0       0       0       0       0
 10498 ;;Total ram usage:        0 bytes
 10499 ;; Hardware stack levels used: 1
 10500 ;; Hardware stack levels required when called: 5
 10501 ;; This function calls:
 10502 ;;		_I2C1_MasterSendNack
 10503 ;; This function is called by:
 10504 ;;		_I2C1_DO_RX
 10505 ;;		_I2C1_MasterFsm
 10506 ;; This function uses a non-reentrant model
 10507 ;;
 10508                           
 10509                           
 10510                           ;psect for function _I2C1_DO_RX_NACK_RESTART
 10511  0A23                     _I2C1_DO_RX_NACK_RESTART:
 10512  0A23                     l5632:	
 10513                           ;incstack = 0
 10514                           ; Regs used in _I2C1_DO_RX_NACK_RESTART: [wreg+status,2+status,0+pclath+cstack]
 10515                           
 10516                           
 10517                           ;mcc_generated_files/i2c1_master.c: 490:     I2C1_MasterSendNack();
 10518  0A23  3189  21F3  318A   	fcall	_I2C1_MasterSendNack
 10519  0A26                     l5634:
 10520                           
 10521                           ;mcc_generated_files/i2c1_master.c: 491:     return I2C1_SEND_RESTART;
 10522  0A26  3009               	movlw	9
 10523  0A27                     l441:
 10524  0A27  0008               	return
 10525  0A28                     __end_of_I2C1_DO_RX_NACK_RESTART:
 10526                           
 10527                           	psect	text54
 10528  0A1E                     __ptext54:	
 10529 ;; *************** function _I2C1_DO_RX_NACK_STOP *****************
 10530 ;; Defined at:
 10531 ;;		line 482 in file "mcc_generated_files/i2c1_master.c"
 10532 ;; Parameters:    Size  Location     Type
 10533 ;;		None
 10534 ;; Auto vars:     Size  Location     Type
 10535 ;;		None
 10536 ;; Return value:  Size  Location     Type
 10537 ;;                  1    wreg      enum E8119
 10538 ;; Registers used:
 10539 ;;		wreg, status,2, status,0, pclath, cstack
 10540 ;; Tracked objects:
 10541 ;;		On entry : 0/0
 10542 ;;		On exit  : 0/0
 10543 ;;		Unchanged: 0/0
 10544 ;; Data sizes:     COMMON   BANK0   BANK1   BANK2   BANK3   BANK4   BANK5   BANK6   BANK7   BANK8   BANK9  BANK10  BANK1
      +1  BANK12  BANK13  BANK14  BANK15  BANK16  BANK17  BANK18  BANK19  BANK20  BANK21  BANK22  BANK23  BANK24  BANK25
 10545 ;;      Params:         0       0       0       0       0       0       0       0       0       0       0       0       
      +0       0       0       0       0       0       0       0       0       0       0       0       0       0       0
 10546 ;;      Locals:         0       0       0       0       0       0       0       0       0       0       0       0       
      +0       0       0       0       0       0       0       0       0       0       0       0       0       0       0
 10547 ;;      Temps:          0       0       0       0       0       0       0       0       0       0       0       0       
      +0       0       0       0       0       0       0       0       0       0       0       0       0       0       0
 10548 ;;      Totals:         0       0       0       0       0       0       0       0       0       0       0       0       
      +0       0       0       0       0       0       0       0       0       0       0       0       0       0       0
 10549 ;;Total ram usage:        0 bytes
 10550 ;; Hardware stack levels used: 1
 10551 ;; Hardware stack levels required when called: 5
 10552 ;; This function calls:
 10553 ;;		_I2C1_MasterSendNack
 10554 ;; This function is called by:
 10555 ;;		_I2C1_DO_RX
 10556 ;;		_I2C1_MasterFsm
 10557 ;; This function uses a non-reentrant model
 10558 ;;
 10559                           
 10560                           
 10561                           ;psect for function _I2C1_DO_RX_NACK_STOP
 10562  0A1E                     _I2C1_DO_RX_NACK_STOP:
 10563  0A1E                     l5638:	
 10564                           ;incstack = 0
 10565                           ; Regs used in _I2C1_DO_RX_NACK_STOP: [wreg+status,2+status,0+pclath+cstack]
 10566                           
 10567                           
 10568                           ;mcc_generated_files/i2c1_master.c: 484:     I2C1_MasterSendNack();
 10569  0A1E  3189  21F3  318A   	fcall	_I2C1_MasterSendNack
 10570  0A21                     l5640:
 10571                           
 10572                           ;mcc_generated_files/i2c1_master.c: 485:     return I2C1_SEND_STOP;
 10573  0A21  300A               	movlw	10
 10574  0A22                     l438:
 10575  0A22  0008               	return
 10576  0A23                     __end_of_I2C1_DO_RX_NACK_STOP:
 10577                           
 10578                           	psect	text55
 10579  0A19                     __ptext55:	
 10580 ;; *************** function _I2C1_DO_RX_ACK *****************
 10581 ;; Defined at:
 10582 ;;		line 475 in file "mcc_generated_files/i2c1_master.c"
 10583 ;; Parameters:    Size  Location     Type
 10584 ;;		None
 10585 ;; Auto vars:     Size  Location     Type
 10586 ;;		None
 10587 ;; Return value:  Size  Location     Type
 10588 ;;                  1    wreg      enum E8119
 10589 ;; Registers used:
 10590 ;;		wreg, status,2, status,0, pclath, cstack
 10591 ;; Tracked objects:
 10592 ;;		On entry : 0/0
 10593 ;;		On exit  : 0/0
 10594 ;;		Unchanged: 0/0
 10595 ;; Data sizes:     COMMON   BANK0   BANK1   BANK2   BANK3   BANK4   BANK5   BANK6   BANK7   BANK8   BANK9  BANK10  BANK1
      +1  BANK12  BANK13  BANK14  BANK15  BANK16  BANK17  BANK18  BANK19  BANK20  BANK21  BANK22  BANK23  BANK24  BANK25
 10596 ;;      Params:         0       0       0       0       0       0       0       0       0       0       0       0       
      +0       0       0       0       0       0       0       0       0       0       0       0       0       0       0
 10597 ;;      Locals:         0       0       0       0       0       0       0       0       0       0       0       0       
      +0       0       0       0       0       0       0       0       0       0       0       0       0       0       0
 10598 ;;      Temps:          0       0       0       0       0       0       0       0       0       0       0       0       
      +0       0       0       0       0       0       0       0       0       0       0       0       0       0       0
 10599 ;;      Totals:         0       0       0       0       0       0       0       0       0       0       0       0       
      +0       0       0       0       0       0       0       0       0       0       0       0       0       0       0
 10600 ;;Total ram usage:        0 bytes
 10601 ;; Hardware stack levels used: 1
 10602 ;; Hardware stack levels required when called: 5
 10603 ;; This function calls:
 10604 ;;		_I2C1_MasterSendAck
 10605 ;; This function is called by:
 10606 ;;		_I2C1_MasterFsm
 10607 ;; This function uses a non-reentrant model
 10608 ;;
 10609                           
 10610                           
 10611                           ;psect for function _I2C1_DO_RX_ACK
 10612  0A19                     _I2C1_DO_RX_ACK:
 10613  0A19                     l5784:	
 10614                           ;incstack = 0
 10615                           ; Regs used in _I2C1_DO_RX_ACK: [wreg+status,2+status,0+pclath+cstack]
 10616                           
 10617                           
 10618                           ;mcc_generated_files/i2c1_master.c: 477:     I2C1_MasterSendAck();
 10619  0A19  3189  21F7  318A   	fcall	_I2C1_MasterSendAck
 10620  0A1C                     l5786:
 10621                           
 10622                           ;mcc_generated_files/i2c1_master.c: 478:     return I2C1_RCEN;
 10623  0A1C  3005               	movlw	5
 10624  0A1D                     l435:
 10625  0A1D  0008               	return
 10626  0A1E                     __end_of_I2C1_DO_RX_ACK:
 10627                           
 10628                           	psect	text56
 10629  0A14                     __ptext56:	
 10630 ;; *************** function _I2C1_DO_SEND_STOP *****************
 10631 ;; Defined at:
 10632 ;;		line 469 in file "mcc_generated_files/i2c1_master.c"
 10633 ;; Parameters:    Size  Location     Type
 10634 ;;		None
 10635 ;; Auto vars:     Size  Location     Type
 10636 ;;		None
 10637 ;; Return value:  Size  Location     Type
 10638 ;;                  1    wreg      enum E8119
 10639 ;; Registers used:
 10640 ;;		wreg, status,2, status,0, pclath, cstack
 10641 ;; Tracked objects:
 10642 ;;		On entry : 0/0
 10643 ;;		On exit  : 0/0
 10644 ;;		Unchanged: 0/0
 10645 ;; Data sizes:     COMMON   BANK0   BANK1   BANK2   BANK3   BANK4   BANK5   BANK6   BANK7   BANK8   BANK9  BANK10  BANK1
      +1  BANK12  BANK13  BANK14  BANK15  BANK16  BANK17  BANK18  BANK19  BANK20  BANK21  BANK22  BANK23  BANK24  BANK25
 10646 ;;      Params:         0       0       0       0       0       0       0       0       0       0       0       0       
      +0       0       0       0       0       0       0       0       0       0       0       0       0       0       0
 10647 ;;      Locals:         0       0       0       0       0       0       0       0       0       0       0       0       
      +0       0       0       0       0       0       0       0       0       0       0       0       0       0       0
 10648 ;;      Temps:          0       0       0       0       0       0       0       0       0       0       0       0       
      +0       0       0       0       0       0       0       0       0       0       0       0       0       0       0
 10649 ;;      Totals:         0       0       0       0       0       0       0       0       0       0       0       0       
      +0       0       0       0       0       0       0       0       0       0       0       0       0       0       0
 10650 ;;Total ram usage:        0 bytes
 10651 ;; Hardware stack levels used: 1
 10652 ;; Hardware stack levels required when called: 5
 10653 ;; This function calls:
 10654 ;;		_I2C1_MasterStop
 10655 ;; This function is called by:
 10656 ;;		_I2C1_DO_TX
 10657 ;;		_I2C1_DO_TX_EMPTY
 10658 ;;		_I2C1_DO_ADDRESS_NACK
 10659 ;;		_I2C1_MasterFsm
 10660 ;; This function uses a non-reentrant model
 10661 ;;
 10662                           
 10663                           
 10664                           ;psect for function _I2C1_DO_SEND_STOP
 10665  0A14                     _I2C1_DO_SEND_STOP:
 10666  0A14                     l5620:	
 10667                           ;incstack = 0
 10668                           ; Regs used in _I2C1_DO_SEND_STOP: [wreg+status,2+status,0+pclath+cstack]
 10669                           
 10670                           
 10671                           ;mcc_generated_files/i2c1_master.c: 471:     I2C1_MasterStop();
 10672  0A14  3189  21DF  318A   	fcall	_I2C1_MasterStop
 10673  0A17                     l5622:
 10674                           
 10675                           ;mcc_generated_files/i2c1_master.c: 472:     return I2C1_IDLE;
 10676  0A17  3000               	movlw	0
 10677  0A18                     l432:
 10678  0A18  0008               	return
 10679  0A19                     __end_of_I2C1_DO_SEND_STOP:
 10680                           
 10681                           	psect	text57
 10682  0A0F                     __ptext57:	
 10683 ;; *************** function _I2C1_DO_SEND_RESTART *****************
 10684 ;; Defined at:
 10685 ;;		line 463 in file "mcc_generated_files/i2c1_master.c"
 10686 ;; Parameters:    Size  Location     Type
 10687 ;;		None
 10688 ;; Auto vars:     Size  Location     Type
 10689 ;;		None
 10690 ;; Return value:  Size  Location     Type
 10691 ;;                  1    wreg      enum E8119
 10692 ;; Registers used:
 10693 ;;		wreg, status,2, status,0, pclath, cstack
 10694 ;; Tracked objects:
 10695 ;;		On entry : 0/0
 10696 ;;		On exit  : 0/0
 10697 ;;		Unchanged: 0/0
 10698 ;; Data sizes:     COMMON   BANK0   BANK1   BANK2   BANK3   BANK4   BANK5   BANK6   BANK7   BANK8   BANK9  BANK10  BANK1
      +1  BANK12  BANK13  BANK14  BANK15  BANK16  BANK17  BANK18  BANK19  BANK20  BANK21  BANK22  BANK23  BANK24  BANK25
 10699 ;;      Params:         0       0       0       0       0       0       0       0       0       0       0       0       
      +0       0       0       0       0       0       0       0       0       0       0       0       0       0       0
 10700 ;;      Locals:         0       0       0       0       0       0       0       0       0       0       0       0       
      +0       0       0       0       0       0       0       0       0       0       0       0       0       0       0
 10701 ;;      Temps:          0       0       0       0       0       0       0       0       0       0       0       0       
      +0       0       0       0       0       0       0       0       0       0       0       0       0       0       0
 10702 ;;      Totals:         0       0       0       0       0       0       0       0       0       0       0       0       
      +0       0       0       0       0       0       0       0       0       0       0       0       0       0       0
 10703 ;;Total ram usage:        0 bytes
 10704 ;; Hardware stack levels used: 1
 10705 ;; Hardware stack levels required when called: 5
 10706 ;; This function calls:
 10707 ;;		_I2C1_MasterEnableRestart
 10708 ;; This function is called by:
 10709 ;;		_I2C1_DO_TX_EMPTY
 10710 ;;		_I2C1_DO_ADDRESS_NACK
 10711 ;;		_I2C1_MasterFsm
 10712 ;; This function uses a non-reentrant model
 10713 ;;
 10714                           
 10715                           
 10716                           ;psect for function _I2C1_DO_SEND_RESTART
 10717  0A0F                     _I2C1_DO_SEND_RESTART:
 10718  0A0F                     l5646:	
 10719                           ;incstack = 0
 10720                           ; Regs used in _I2C1_DO_SEND_RESTART: [wreg+status,2+status,0+pclath+cstack]
 10721                           
 10722                           
 10723                           ;mcc_generated_files/i2c1_master.c: 465:     I2C1_MasterEnableRestart();
 10724  0A0F  3189  21DC  318A   	fcall	_I2C1_MasterEnableRestart
 10725  0A12                     l5648:
 10726                           
 10727                           ;mcc_generated_files/i2c1_master.c: 466:     return I2C1_SEND_ADR_READ;
 10728  0A12  3001               	movlw	1
 10729  0A13                     l429:
 10730  0A13  0008               	return
 10731  0A14                     __end_of_I2C1_DO_SEND_RESTART:
 10732                           
 10733                           	psect	text58
 10734  0A0A                     __ptext58:	
 10735 ;; *************** function _I2C1_DO_SEND_RESTART_WRITE *****************
 10736 ;; Defined at:
 10737 ;;		line 456 in file "mcc_generated_files/i2c1_master.c"
 10738 ;; Parameters:    Size  Location     Type
 10739 ;;		None
 10740 ;; Auto vars:     Size  Location     Type
 10741 ;;		None
 10742 ;; Return value:  Size  Location     Type
 10743 ;;                  1    wreg      enum E8119
 10744 ;; Registers used:
 10745 ;;		wreg, status,2, status,0, pclath, cstack
 10746 ;; Tracked objects:
 10747 ;;		On entry : 0/0
 10748 ;;		On exit  : 0/0
 10749 ;;		Unchanged: 0/0
 10750 ;; Data sizes:     COMMON   BANK0   BANK1   BANK2   BANK3   BANK4   BANK5   BANK6   BANK7   BANK8   BANK9  BANK10  BANK1
      +1  BANK12  BANK13  BANK14  BANK15  BANK16  BANK17  BANK18  BANK19  BANK20  BANK21  BANK22  BANK23  BANK24  BANK25
 10751 ;;      Params:         0       0       0       0       0       0       0       0       0       0       0       0       
      +0       0       0       0       0       0       0       0       0       0       0       0       0       0       0
 10752 ;;      Locals:         0       0       0       0       0       0       0       0       0       0       0       0       
      +0       0       0       0       0       0       0       0       0       0       0       0       0       0       0
 10753 ;;      Temps:          0       0       0       0       0       0       0       0       0       0       0       0       
      +0       0       0       0       0       0       0       0       0       0       0       0       0       0       0
 10754 ;;      Totals:         0       0       0       0       0       0       0       0       0       0       0       0       
      +0       0       0       0       0       0       0       0       0       0       0       0       0       0       0
 10755 ;;Total ram usage:        0 bytes
 10756 ;; Hardware stack levels used: 1
 10757 ;; Hardware stack levels required when called: 5
 10758 ;; This function calls:
 10759 ;;		_I2C1_MasterEnableRestart
 10760 ;; This function is called by:
 10761 ;;		_I2C1_DO_TX
 10762 ;;		_I2C1_MasterFsm
 10763 ;; This function uses a non-reentrant model
 10764 ;;
 10765                           
 10766                           
 10767                           ;psect for function _I2C1_DO_SEND_RESTART_WRITE
 10768  0A0A                     _I2C1_DO_SEND_RESTART_WRITE:
 10769  0A0A                     l5614:	
 10770                           ;incstack = 0
 10771                           ; Regs used in _I2C1_DO_SEND_RESTART_WRITE: [wreg+status,2+status,0+pclath+cstack]
 10772                           
 10773                           
 10774                           ;mcc_generated_files/i2c1_master.c: 458:     I2C1_MasterEnableRestart();
 10775  0A0A  3189  21DC  318A   	fcall	_I2C1_MasterEnableRestart
 10776  0A0D                     l5616:
 10777                           
 10778                           ;mcc_generated_files/i2c1_master.c: 459:     return I2C1_SEND_ADR_WRITE;
 10779  0A0D  3002               	movlw	2
 10780  0A0E                     l426:
 10781  0A0E  0008               	return
 10782  0A0F                     __end_of_I2C1_DO_SEND_RESTART_WRITE:
 10783                           
 10784                           	psect	text59
 10785  0A05                     __ptext59:	
 10786 ;; *************** function _I2C1_DO_SEND_RESTART_READ *****************
 10787 ;; Defined at:
 10788 ;;		line 450 in file "mcc_generated_files/i2c1_master.c"
 10789 ;; Parameters:    Size  Location     Type
 10790 ;;		None
 10791 ;; Auto vars:     Size  Location     Type
 10792 ;;		None
 10793 ;; Return value:  Size  Location     Type
 10794 ;;                  1    wreg      enum E8119
 10795 ;; Registers used:
 10796 ;;		wreg, status,2, status,0, pclath, cstack
 10797 ;; Tracked objects:
 10798 ;;		On entry : 0/0
 10799 ;;		On exit  : 0/0
 10800 ;;		Unchanged: 0/0
 10801 ;; Data sizes:     COMMON   BANK0   BANK1   BANK2   BANK3   BANK4   BANK5   BANK6   BANK7   BANK8   BANK9  BANK10  BANK1
      +1  BANK12  BANK13  BANK14  BANK15  BANK16  BANK17  BANK18  BANK19  BANK20  BANK21  BANK22  BANK23  BANK24  BANK25
 10802 ;;      Params:         0       0       0       0       0       0       0       0       0       0       0       0       
      +0       0       0       0       0       0       0       0       0       0       0       0       0       0       0
 10803 ;;      Locals:         0       0       0       0       0       0       0       0       0       0       0       0       
      +0       0       0       0       0       0       0       0       0       0       0       0       0       0       0
 10804 ;;      Temps:          0       0       0       0       0       0       0       0       0       0       0       0       
      +0       0       0       0       0       0       0       0       0       0       0       0       0       0       0
 10805 ;;      Totals:         0       0       0       0       0       0       0       0       0       0       0       0       
      +0       0       0       0       0       0       0       0       0       0       0       0       0       0       0
 10806 ;;Total ram usage:        0 bytes
 10807 ;; Hardware stack levels used: 1
 10808 ;; Hardware stack levels required when called: 5
 10809 ;; This function calls:
 10810 ;;		_I2C1_MasterEnableRestart
 10811 ;; This function is called by:
 10812 ;;		_I2C1_DO_TX
 10813 ;;		_I2C1_MasterFsm
 10814 ;; This function uses a non-reentrant model
 10815 ;;
 10816                           
 10817                           
 10818                           ;psect for function _I2C1_DO_SEND_RESTART_READ
 10819  0A05                     _I2C1_DO_SEND_RESTART_READ:
 10820  0A05                     l5608:	
 10821                           ;incstack = 0
 10822                           ; Regs used in _I2C1_DO_SEND_RESTART_READ: [wreg+status,2+status,0+pclath+cstack]
 10823                           
 10824                           
 10825                           ;mcc_generated_files/i2c1_master.c: 452:     I2C1_MasterEnableRestart();
 10826  0A05  3189  21DC  318A   	fcall	_I2C1_MasterEnableRestart
 10827  0A08                     l5610:
 10828                           
 10829                           ;mcc_generated_files/i2c1_master.c: 453:     return I2C1_SEND_ADR_READ;
 10830  0A08  3001               	movlw	1
 10831  0A09                     l423:
 10832  0A09  0008               	return
 10833  0A0A                     __end_of_I2C1_DO_SEND_RESTART_READ:
 10834                           
 10835                           	psect	text60
 10836  0A73                     __ptext60:	
 10837 ;; *************** function _I2C1_DO_RCEN *****************
 10838 ;; Defined at:
 10839 ;;		line 402 in file "mcc_generated_files/i2c1_master.c"
 10840 ;; Parameters:    Size  Location     Type
 10841 ;;		None
 10842 ;; Auto vars:     Size  Location     Type
 10843 ;;		None
 10844 ;; Return value:  Size  Location     Type
 10845 ;;                  1    wreg      enum E8119
 10846 ;; Registers used:
 10847 ;;		wreg, status,2, status,0, pclath, cstack
 10848 ;; Tracked objects:
 10849 ;;		On entry : 0/0
 10850 ;;		On exit  : 0/0
 10851 ;;		Unchanged: 0/0
 10852 ;; Data sizes:     COMMON   BANK0   BANK1   BANK2   BANK3   BANK4   BANK5   BANK6   BANK7   BANK8   BANK9  BANK10  BANK1
      +1  BANK12  BANK13  BANK14  BANK15  BANK16  BANK17  BANK18  BANK19  BANK20  BANK21  BANK22  BANK23  BANK24  BANK25
 10853 ;;      Params:         0       0       0       0       0       0       0       0       0       0       0       0       
      +0       0       0       0       0       0       0       0       0       0       0       0       0       0       0
 10854 ;;      Locals:         0       0       0       0       0       0       0       0       0       0       0       0       
      +0       0       0       0       0       0       0       0       0       0       0       0       0       0       0
 10855 ;;      Temps:          0       0       0       0       0       0       0       0       0       0       0       0       
      +0       0       0       0       0       0       0       0       0       0       0       0       0       0       0
 10856 ;;      Totals:         0       0       0       0       0       0       0       0       0       0       0       0       
      +0       0       0       0       0       0       0       0       0       0       0       0       0       0       0
 10857 ;;Total ram usage:        0 bytes
 10858 ;; Hardware stack levels used: 1
 10859 ;; Hardware stack levels required when called: 5
 10860 ;; This function calls:
 10861 ;;		_I2C1_MasterStartRx
 10862 ;; This function is called by:
 10863 ;;		_I2C1_MasterFsm
 10864 ;; This function uses a non-reentrant model
 10865 ;;
 10866                           
 10867                           
 10868                           ;psect for function _I2C1_DO_RCEN
 10869  0A73                     _I2C1_DO_RCEN:
 10870  0A73                     l5752:	
 10871                           ;incstack = 0
 10872                           ; Regs used in _I2C1_DO_RCEN: [wreg+status,2+status,0+pclath+cstack]
 10873                           
 10874                           
 10875                           ;mcc_generated_files/i2c1_master.c: 404:     I2C1_Status.addressNackCheck = 0;
 10876  0A73  0144               	movlb	4	; select bank4
 10877  0A74  103D               	bcf	(_I2C1_Status^(0+512)+29),0
 10878  0A75                     l5754:
 10879                           
 10880                           ;mcc_generated_files/i2c1_master.c: 405:     I2C1_MasterStartRx();
 10881  0A75  3189  21E2  318A   	fcall	_I2C1_MasterStartRx
 10882  0A78                     l5756:
 10883                           
 10884                           ;mcc_generated_files/i2c1_master.c: 406:     return I2C1_RX;
 10885  0A78  3004               	movlw	4
 10886  0A79                     l399:
 10887  0A79  0008               	return
 10888  0A7A                     __end_of_I2C1_DO_RCEN:
 10889                           
 10890                           	psect	text61
 10891  0650                     __ptext61:	
 10892 ;; *************** function _I2C1_DO_RX *****************
 10893 ;; Defined at:
 10894 ;;		line 378 in file "mcc_generated_files/i2c1_master.c"
 10895 ;; Parameters:    Size  Location     Type
 10896 ;;		None
 10897 ;; Auto vars:     Size  Location     Type
 10898 ;;		None
 10899 ;; Return value:  Size  Location     Type
 10900 ;;                  1    wreg      enum E8119
 10901 ;; Registers used:
 10902 ;;		wreg, fsr0l, fsr0h, fsr1l, fsr1h, status,2, status,0, pclath, cstack
 10903 ;; Tracked objects:
 10904 ;;		On entry : 0/0
 10905 ;;		On exit  : 0/0
 10906 ;;		Unchanged: 0/0
 10907 ;; Data sizes:     COMMON   BANK0   BANK1   BANK2   BANK3   BANK4   BANK5   BANK6   BANK7   BANK8   BANK9  BANK10  BANK1
      +1  BANK12  BANK13  BANK14  BANK15  BANK16  BANK17  BANK18  BANK19  BANK20  BANK21  BANK22  BANK23  BANK24  BANK25
 10908 ;;      Params:         0       0       0       0       0       0       0       0       0       0       0       0       
      +0       0       0       0       0       0       0       0       0       0       0       0       0       0       0
 10909 ;;      Locals:         0       0       0       0       0       0       0       0       0       0       0       0       
      +0       0       0       0       0       0       0       0       0       0       0       0       0       0       0
 10910 ;;      Temps:          0       3       0       0       0       0       0       0       0       0       0       0       
      +0       0       0       0       0       0       0       0       0       0       0       0       0       0       0
 10911 ;;      Totals:         0       3       0       0       0       0       0       0       0       0       0       0       
      +0       0       0       0       0       0       0       0       0       0       0       0       0       0       0
 10912 ;;Total ram usage:        3 bytes
 10913 ;; Hardware stack levels used: 1
 10914 ;; Hardware stack levels required when called: 7
 10915 ;; This function calls:
 10916 ;;		Absolute function
 10917 ;;		_I2C1_CallbackReturnReset
 10918 ;;		_I2C1_CallbackReturnStop
 10919 ;;		_I2C1_DO_RX_NACK_RESTART
 10920 ;;		_I2C1_DO_RX_NACK_STOP
 10921 ;;		_I2C1_MasterGetRxData
 10922 ;;		_I2C1_MasterSendAck
 10923 ;;		_rd1RegCompleteHandler
 10924 ;;		_rd1RegCompleteHandler@i2c1_master_example$F143
 10925 ;;		_rd2RegCompleteHandler
 10926 ;;		_rd2RegCompleteHandler@i2c1_master_example$F154
 10927 ;;		_rdBlkRegCompleteHandler
 10928 ;;		_rdBlkRegCompleteHandler@i2c1_master_example$F177
 10929 ;;		_wr1RegCompleteHandler
 10930 ;;		_wr1RegCompleteHandler@i2c1_master_example$F160
 10931 ;;		_wr2RegCompleteHandler
 10932 ;;		_wr2RegCompleteHandler@i2c1_master_example$F166
 10933 ;; This function is called by:
 10934 ;;		_I2C1_MasterFsm
 10935 ;; This function uses a non-reentrant model
 10936 ;;
 10937                           
 10938                           
 10939                           ;psect for function _I2C1_DO_RX
 10940  0650                     _I2C1_DO_RX:
 10941  0650                     l5722:	
 10942                           ;incstack = 0
 10943                           ; Regs used in _I2C1_DO_RX: [wreg-fsr1h+status,2+status,0+pclath+cstack]
 10944                           
 10945                           
 10946                           ;mcc_generated_files/i2c1_master.c: 380:     *I2C1_Status.data_ptr++ = I2C1_MasterGetRxD
      +                          ata();
 10947  0650  3189  21E5  3186   	fcall	_I2C1_MasterGetRxData
 10948  0653  0140               	movlb	0	; select bank0
 10949  0654  00A0               	movwf	??_I2C1_DO_RX
 10950  0655  0144               	movlb	4	; select bank4
 10951  0656  0837               	movf	(low ((_I2C1_Status| (0+512)+23)))^0,w
 10952  0657  0086               	movwf	6
 10953  0658  0838               	movf	((low ((_I2C1_Status| (0+512)+23))+1))^0,w
 10954  0659  0087               	movwf	7
 10955  065A  0140               	movlb	0	; select bank0
 10956  065B  0820               	movf	??_I2C1_DO_RX,w
 10957  065C  0081               	movwf	1
 10958  065D                     l5724:
 10959  065D  3001               	movlw	1
 10960  065E  0144               	movlb	4	; select bank4
 10961  065F  07B7               	addwf	(low ((_I2C1_Status| (0+512)+23)))^0,f
 10962  0660  3000               	movlw	0
 10963  0661  3DB8               	addwfc	((low ((_I2C1_Status| (0+512)+23))+1))^0,f
 10964  0662                     l5726:
 10965                           
 10966                           ;mcc_generated_files/i2c1_master.c: 381:     if(--I2C1_Status.data_length)
 10967  0662  3001               	movlw	1
 10968  0663  02B9               	subwf	(_I2C1_Status^(0+512)+25),f
 10969  0664  3000               	movlw	0
 10970  0665  3BBA               	subwfb	((_I2C1_Status+1)^(0+512)+25),f
 10971  0666  0839               	movf	(_I2C1_Status^(0+512)+25),w
 10972  0667  043A               	iorwf	((_I2C1_Status+1)^(0+512)+25),w
 10973  0668  1903               	btfsc	3,2
 10974  0669  2E6B               	goto	u3371
 10975  066A  2E6C               	goto	u3370
 10976  066B                     u3371:
 10977  066B  2E71               	goto	l387
 10978  066C                     u3370:
 10979  066C                     l5728:
 10980                           
 10981                           ;mcc_generated_files/i2c1_master.c: 382:     {;mcc_generated_files/i2c1_master.c: 383:  
      +                                 I2C1_MasterSendAck();
 10982  066C  3189  21F7  3186   	fcall	_I2C1_MasterSendAck
 10983  066F                     l5730:
 10984                           
 10985                           ;mcc_generated_files/i2c1_master.c: 384:         return I2C1_RCEN;
 10986  066F  3005               	movlw	5
 10987  0670  2E9C               	goto	l388
 10988  0671                     l387:	
 10989                           ;mcc_generated_files/i2c1_master.c: 386:     else
 10990                           
 10991                           
 10992                           ;mcc_generated_files/i2c1_master.c: 387:     {;mcc_generated_files/i2c1_master.c: 388:  
      +                                 I2C1_Status.bufferFree = 1;
 10993  0671  15BD               	bsf	(_I2C1_Status^(0+512)+29),3
 10994                           
 10995                           ;mcc_generated_files/i2c1_master.c: 389:         switch(I2C1_Status.callbackTable[I2C1_D
      +                          ATA_COMPLETE](I2C1_Status.callbackPayload[I2C1_DATA_COMPLETE]))
 10996  0672  2E7B               	goto	l5746
 10997  0673                     l5736:
 10998                           
 10999                           ;mcc_generated_files/i2c1_master.c: 393:                 return I2C1_DO_RX_NACK_RESTART(
      +                          );
 11000  0673  318A  2223  3186   	fcall	_I2C1_DO_RX_NACK_RESTART
 11001  0676  2E9C               	goto	l388
 11002  0677                     l5740:
 11003                           
 11004                           ;mcc_generated_files/i2c1_master.c: 397:                 return I2C1_DO_RX_NACK_STOP();
 11005  0677  318A  221E  3186   	fcall	_I2C1_DO_RX_NACK_STOP
 11006  067A  2E9C               	goto	l388
 11007  067B                     l5746:
 11008  067B  082C               	movf	(low ((_I2C1_Status| (0+512)+12)))^0,w
 11009  067C  0140               	movlb	0	; select bank0
 11010  067D  00A0               	movwf	??_I2C1_DO_RX
 11011  067E  0820               	movf	??_I2C1_DO_RX,w
 11012  067F  00FA               	movwf	I2C1_CallbackReturnReset@funPtr
 11013  0680  0144               	movlb	4	; select bank4
 11014  0681  0821               	movf	(_I2C1_Status+1)^(0+512),w
 11015  0682  008A               	movwf	10
 11016  0683  0820               	movf	_I2C1_Status^(0+512),w
 11017  0684  000A               	callw
 11018  0685  3186               	pagesel	$
 11019  0686  0140               	movlb	0	; select bank0
 11020  0687  00A1               	movwf	??_I2C1_DO_RX+1
 11021  0688  01A2               	clrf	??_I2C1_DO_RX+2
 11022                           
 11023                           ; Switch on 2 bytes has been partitioned into a top level switch of size 1, and 1 sub-sw
      +                          itches
 11024                           ; Switch size 1, requested type "simple"
 11025                           ; Number of cases is 1, Range of values is 0 to 0
 11026                           ; switch strategies available:
 11027                           ; Name         Instructions Cycles
 11028                           ; simple_byte            4     3 (average)
 11029                           ; direct_byte            8     6 (fixed)
 11030                           ; jumptable            260     6 (fixed)
 11031                           ;	Chosen strategy is simple_byte
 11032  0689  0822               	movf	??_I2C1_DO_RX+2,w
 11033  068A  3A00               	xorlw	0	; case 0
 11034  068B  1903               	skipnz
 11035  068C  2E8E               	goto	l6754
 11036  068D  2E77               	goto	l5740
 11037  068E                     l6754:
 11038                           
 11039                           ; Switch size 1, requested type "simple"
 11040                           ; Number of cases is 4, Range of values is 1 to 4
 11041                           ; switch strategies available:
 11042                           ; Name         Instructions Cycles
 11043                           ; simple_byte           13     7 (average)
 11044                           ; direct_byte           17     9 (fixed)
 11045                           ; jumptable            263     9 (fixed)
 11046                           ;	Chosen strategy is simple_byte
 11047  068E  0821               	movf	??_I2C1_DO_RX+1,w
 11048  068F  3A01               	xorlw	1	; case 1
 11049  0690  1903               	skipnz
 11050  0691  2E77               	goto	l5740
 11051  0692  3A03               	xorlw	3	; case 2
 11052  0693  1903               	skipnz
 11053  0694  2E73               	goto	l5736
 11054  0695  3A01               	xorlw	1	; case 3
 11055  0696  1903               	skipnz
 11056  0697  2E73               	goto	l5736
 11057  0698  3A07               	xorlw	7	; case 4
 11058  0699  1903               	skipnz
 11059  069A  2E77               	goto	l5740
 11060  069B  2E77               	goto	l5740
 11061  069C                     l388:
 11062  069C  0008               	return
 11063  069D                     __end_of_I2C1_DO_RX:
 11064                           
 11065                           	psect	text62
 11066  04F8                     __ptext62:	
 11067 ;; *************** function _I2C1_DO_TX *****************
 11068 ;; Defined at:
 11069 ;;		line 354 in file "mcc_generated_files/i2c1_master.c"
 11070 ;; Parameters:    Size  Location     Type
 11071 ;;		None
 11072 ;; Auto vars:     Size  Location     Type
 11073 ;;		None
 11074 ;; Return value:  Size  Location     Type
 11075 ;;                  1    wreg      enum E8119
 11076 ;; Registers used:
 11077 ;;		wreg, fsr0l, fsr0h, fsr1l, fsr1h, status,2, status,0, pclath, cstack
 11078 ;; Tracked objects:
 11079 ;;		On entry : 0/0
 11080 ;;		On exit  : 0/0
 11081 ;;		Unchanged: 0/0
 11082 ;; Data sizes:     COMMON   BANK0   BANK1   BANK2   BANK3   BANK4   BANK5   BANK6   BANK7   BANK8   BANK9  BANK10  BANK1
      +1  BANK12  BANK13  BANK14  BANK15  BANK16  BANK17  BANK18  BANK19  BANK20  BANK21  BANK22  BANK23  BANK24  BANK25
 11083 ;;      Params:         0       0       0       0       0       0       0       0       0       0       0       0       
      +0       0       0       0       0       0       0       0       0       0       0       0       0       0       0
 11084 ;;      Locals:         0       0       0       0       0       0       0       0       0       0       0       0       
      +0       0       0       0       0       0       0       0       0       0       0       0       0       0       0
 11085 ;;      Temps:          0       3       0       0       0       0       0       0       0       0       0       0       
      +0       0       0       0       0       0       0       0       0       0       0       0       0       0       0
 11086 ;;      Totals:         0       3       0       0       0       0       0       0       0       0       0       0       
      +0       0       0       0       0       0       0       0       0       0       0       0       0       0       0
 11087 ;;Total ram usage:        3 bytes
 11088 ;; Hardware stack levels used: 1
 11089 ;; Hardware stack levels required when called: 7
 11090 ;; This function calls:
 11091 ;;		Absolute function
 11092 ;;		_I2C1_CallbackReturnReset
 11093 ;;		_I2C1_CallbackReturnStop
 11094 ;;		_I2C1_DO_SEND_RESTART_READ
 11095 ;;		_I2C1_DO_SEND_RESTART_WRITE
 11096 ;;		_I2C1_DO_SEND_STOP
 11097 ;;		_I2C1_MasterIsNack
 11098 ;;		_I2C1_MasterSendTxData
 11099 ;;		_rd1RegCompleteHandler
 11100 ;;		_rd1RegCompleteHandler@i2c1_master_example$F143
 11101 ;;		_rd2RegCompleteHandler
 11102 ;;		_rd2RegCompleteHandler@i2c1_master_example$F154
 11103 ;;		_rdBlkRegCompleteHandler
 11104 ;;		_rdBlkRegCompleteHandler@i2c1_master_example$F177
 11105 ;;		_wr1RegCompleteHandler
 11106 ;;		_wr1RegCompleteHandler@i2c1_master_example$F160
 11107 ;;		_wr2RegCompleteHandler
 11108 ;;		_wr2RegCompleteHandler@i2c1_master_example$F166
 11109 ;; This function is called by:
 11110 ;;		_I2C1_MasterFsm
 11111 ;; This function uses a non-reentrant model
 11112 ;;
 11113                           
 11114                           
 11115                           ;psect for function _I2C1_DO_TX
 11116  04F8                     _I2C1_DO_TX:
 11117  04F8                     l5688:	
 11118                           ;incstack = 0
 11119                           ; Regs used in _I2C1_DO_TX: [wreg-fsr1h+status,2+status,0+pclath+cstack]
 11120                           
 11121                           
 11122                           ;mcc_generated_files/i2c1_master.c: 356:     if(I2C1_MasterIsNack())
 11123  04F8  318A  2237  3184   	fcall	_I2C1_MasterIsNack
 11124  04FB  3A00               	xorlw	0
 11125  04FC  1903               	skipnz
 11126  04FD  2CFF               	goto	u3351
 11127  04FE  2D00               	goto	u3350
 11128  04FF                     u3351:
 11129  04FF  2D33               	goto	l371
 11130  0500                     u3350:
 11131  0500  2D0D               	goto	l5706
 11132  0501                     l5692:
 11133                           
 11134                           ;mcc_generated_files/i2c1_master.c: 361:                 return I2C1_DO_SEND_RESTART_REA
      +                          D();
 11135  0501  318A  2205  3184   	fcall	_I2C1_DO_SEND_RESTART_READ
 11136  0504  2D57               	goto	l374
 11137  0505                     l5696:
 11138                           
 11139                           ;mcc_generated_files/i2c1_master.c: 363:                   return I2C1_DO_SEND_RESTART_W
      +                          RITE();
 11140  0505  318A  220A  3184   	fcall	_I2C1_DO_SEND_RESTART_WRITE
 11141  0508  2D57               	goto	l374
 11142  0509                     l5700:
 11143                           
 11144                           ;mcc_generated_files/i2c1_master.c: 367:                 return I2C1_DO_SEND_STOP();
 11145  0509  318A  2214  3184   	fcall	_I2C1_DO_SEND_STOP
 11146  050C  2D57               	goto	l374
 11147  050D                     l5706:
 11148  050D  0144               	movlb	4	; select bank4
 11149  050E  082F               	movf	(low ((_I2C1_Status| (0+512)+15)))^0,w
 11150  050F  0140               	movlb	0	; select bank0
 11151  0510  00A0               	movwf	??_I2C1_DO_TX
 11152  0511  0820               	movf	??_I2C1_DO_TX,w
 11153  0512  00FA               	movwf	I2C1_CallbackReturnReset@funPtr
 11154  0513  3006               	movlw	6
 11155  0514  3E20               	addlw	(low (_I2C1_Status| (0+512)))& (0+255)
 11156  0515  0086               	movwf	6
 11157  0516  3002               	movlw	2	; select bank4/5
 11158  0517  0087               	movwf	7
 11159  0518  3F41               	moviw [1]fsr1
 11160  0519  008A               	movwf	10
 11161  051A  3F40               	moviw [0]fsr1
 11162  051B  000A               	callw
 11163  051C  3184               	pagesel	$
 11164  051D  0140               	movlb	0	; select bank0
 11165  051E  00A1               	movwf	??_I2C1_DO_TX+1
 11166  051F  01A2               	clrf	??_I2C1_DO_TX+2
 11167                           
 11168                           ; Switch on 2 bytes has been partitioned into a top level switch of size 1, and 1 sub-sw
      +                          itches
 11169                           ; Switch size 1, requested type "simple"
 11170                           ; Number of cases is 1, Range of values is 0 to 0
 11171                           ; switch strategies available:
 11172                           ; Name         Instructions Cycles
 11173                           ; simple_byte            4     3 (average)
 11174                           ; direct_byte            8     6 (fixed)
 11175                           ; jumptable            260     6 (fixed)
 11176                           ;	Chosen strategy is simple_byte
 11177  0520  0822               	movf	??_I2C1_DO_TX+2,w
 11178  0521  3A00               	xorlw	0	; case 0
 11179  0522  1903               	skipnz
 11180  0523  2D25               	goto	l6756
 11181  0524  2D09               	goto	l5700
 11182  0525                     l6756:
 11183                           
 11184                           ; Switch size 1, requested type "simple"
 11185                           ; Number of cases is 4, Range of values is 1 to 4
 11186                           ; switch strategies available:
 11187                           ; Name         Instructions Cycles
 11188                           ; simple_byte           13     7 (average)
 11189                           ; direct_byte           17     9 (fixed)
 11190                           ; jumptable            263     9 (fixed)
 11191                           ;	Chosen strategy is simple_byte
 11192  0525  0821               	movf	??_I2C1_DO_TX+1,w
 11193  0526  3A01               	xorlw	1	; case 1
 11194  0527  1903               	skipnz
 11195  0528  2D09               	goto	l5700
 11196  0529  3A03               	xorlw	3	; case 2
 11197  052A  1903               	skipnz
 11198  052B  2D01               	goto	l5692
 11199  052C  3A01               	xorlw	1	; case 3
 11200  052D  1903               	skipnz
 11201  052E  2D05               	goto	l5696
 11202  052F  3A07               	xorlw	7	; case 4
 11203  0530  1903               	skipnz
 11204  0531  2D09               	goto	l5700
 11205  0532  2D09               	goto	l5700
 11206  0533                     l371:	
 11207                           ;mcc_generated_files/i2c1_master.c: 370:     else
 11208                           
 11209                           
 11210                           ;mcc_generated_files/i2c1_master.c: 371:     {;mcc_generated_files/i2c1_master.c: 372:  
      +                                 I2C1_Status.addressNackCheck = 0;
 11211  0533  0144               	movlb	4	; select bank4
 11212  0534  103D               	bcf	(_I2C1_Status^(0+512)+29),0
 11213  0535                     l5708:
 11214                           
 11215                           ;mcc_generated_files/i2c1_master.c: 373:         I2C1_MasterSendTxData(*I2C1_Status.data
      +                          _ptr++);
 11216  0535  0838               	movf	((low ((_I2C1_Status| (0+512)+23))+1))^0,w
 11217  0536  0140               	movlb	0	; select bank0
 11218  0537  00A1               	movwf	??_I2C1_DO_TX+1
 11219  0538  0144               	movlb	4	; select bank4
 11220  0539  0837               	movf	(low ((_I2C1_Status| (0+512)+23)))^0,w
 11221  053A  0140               	movlb	0	; select bank0
 11222  053B  00A0               	movwf	??_I2C1_DO_TX
 11223  053C  0144               	movlb	4	; select bank4
 11224  053D  0AB7               	incf	(low ((_I2C1_Status| (0+512)+23)))^0,f
 11225  053E  1903               	skipnz
 11226  053F  0AB8               	incf	((low ((_I2C1_Status| (0+512)+23))+1))^0,f
 11227  0540  0140               	movlb	0	; select bank0
 11228  0541  0820               	movf	??_I2C1_DO_TX,w
 11229  0542  0086               	movwf	6
 11230  0543  0821               	movf	??_I2C1_DO_TX+1,w
 11231  0544  0087               	movwf	7
 11232  0545  0801               	movf	1,w
 11233  0546  3189  21FB  3184   	fcall	_I2C1_MasterSendTxData
 11234  0549                     l5710:
 11235                           
 11236                           ;mcc_generated_files/i2c1_master.c: 374:         return (--I2C1_Status.data_length)?I2C1
      +                          _TX:I2C1_TX_EMPTY;
 11237  0549  3001               	movlw	1
 11238  054A  0144               	movlb	4	; select bank4
 11239  054B  02B9               	subwf	(_I2C1_Status^(0+512)+25),f
 11240  054C  3000               	movlw	0
 11241  054D  3BBA               	subwfb	((_I2C1_Status+1)^(0+512)+25),f
 11242  054E  0839               	movf	(_I2C1_Status^(0+512)+25),w
 11243  054F  043A               	iorwf	((_I2C1_Status+1)^(0+512)+25),w
 11244  0550  1D03               	btfss	3,2
 11245  0551  2D53               	goto	u3361
 11246  0552  2D54               	goto	u3360
 11247  0553                     u3361:
 11248  0553  2D56               	goto	l5714
 11249  0554                     u3360:
 11250  0554                     l5712:
 11251  0554  3006               	movlw	6
 11252  0555  2D57               	goto	l374
 11253  0556                     l5714:
 11254  0556  3003               	movlw	3
 11255  0557                     l374:
 11256  0557  0008               	return
 11257  0558                     __end_of_I2C1_DO_TX:
 11258                           
 11259                           	psect	text63
 11260  0A7A                     __ptext63:	
 11261 ;; *************** function _I2C1_DO_SEND_ADR_WRITE *****************
 11262 ;; Defined at:
 11263 ;;		line 347 in file "mcc_generated_files/i2c1_master.c"
 11264 ;; Parameters:    Size  Location     Type
 11265 ;;		None
 11266 ;; Auto vars:     Size  Location     Type
 11267 ;;		None
 11268 ;; Return value:  Size  Location     Type
 11269 ;;                  1    wreg      enum E8119
 11270 ;; Registers used:
 11271 ;;		wreg, status,2, status,0, pclath, cstack
 11272 ;; Tracked objects:
 11273 ;;		On entry : 0/0
 11274 ;;		On exit  : 0/0
 11275 ;;		Unchanged: 0/0
 11276 ;; Data sizes:     COMMON   BANK0   BANK1   BANK2   BANK3   BANK4   BANK5   BANK6   BANK7   BANK8   BANK9  BANK10  BANK1
      +1  BANK12  BANK13  BANK14  BANK15  BANK16  BANK17  BANK18  BANK19  BANK20  BANK21  BANK22  BANK23  BANK24  BANK25
 11277 ;;      Params:         0       0       0       0       0       0       0       0       0       0       0       0       
      +0       0       0       0       0       0       0       0       0       0       0       0       0       0       0
 11278 ;;      Locals:         0       0       0       0       0       0       0       0       0       0       0       0       
      +0       0       0       0       0       0       0       0       0       0       0       0       0       0       0
 11279 ;;      Temps:          0       0       0       0       0       0       0       0       0       0       0       0       
      +0       0       0       0       0       0       0       0       0       0       0       0       0       0       0
 11280 ;;      Totals:         0       0       0       0       0       0       0       0       0       0       0       0       
      +0       0       0       0       0       0       0       0       0       0       0       0       0       0       0
 11281 ;;Total ram usage:        0 bytes
 11282 ;; Hardware stack levels used: 1
 11283 ;; Hardware stack levels required when called: 5
 11284 ;; This function calls:
 11285 ;;		_I2C1_MasterSendTxData
 11286 ;; This function is called by:
 11287 ;;		_I2C1_MasterFsm
 11288 ;; This function uses a non-reentrant model
 11289 ;;
 11290                           
 11291                           
 11292                           ;psect for function _I2C1_DO_SEND_ADR_WRITE
 11293  0A7A                     _I2C1_DO_SEND_ADR_WRITE:
 11294  0A7A                     l5680:	
 11295                           ;incstack = 0
 11296                           ; Regs used in _I2C1_DO_SEND_ADR_WRITE: [wreg+status,2+status,0+pclath+cstack]
 11297                           
 11298                           
 11299                           ;mcc_generated_files/i2c1_master.c: 349:     I2C1_Status.addressNackCheck = 1;
 11300  0A7A  0144               	movlb	4	; select bank4
 11301  0A7B  143D               	bsf	(_I2C1_Status^(0+512)+29),0
 11302  0A7C                     l5682:
 11303                           
 11304                           ;mcc_generated_files/i2c1_master.c: 350:     I2C1_MasterSendTxData((uint8_t) (I2C1_Statu
      +                          s.address << 1));
 11305  0A7C  3536               	lslf	(_I2C1_Status^(0+512)+22),w
 11306  0A7D  3189  21FB  318A   	fcall	_I2C1_MasterSendTxData
 11307  0A80                     l5684:
 11308                           
 11309                           ;mcc_generated_files/i2c1_master.c: 351:     return I2C1_TX;
 11310  0A80  3003               	movlw	3
 11311  0A81                     l368:
 11312  0A81  0008               	return
 11313  0A82                     __end_of_I2C1_DO_SEND_ADR_WRITE:
 11314                           
 11315                           	psect	text64
 11316  0A8A                     __ptext64:	
 11317 ;; *************** function _I2C1_DO_SEND_ADR_READ *****************
 11318 ;; Defined at:
 11319 ;;		line 340 in file "mcc_generated_files/i2c1_master.c"
 11320 ;; Parameters:    Size  Location     Type
 11321 ;;		None
 11322 ;; Auto vars:     Size  Location     Type
 11323 ;;		None
 11324 ;; Return value:  Size  Location     Type
 11325 ;;                  1    wreg      enum E8119
 11326 ;; Registers used:
 11327 ;;		wreg, status,2, status,0, pclath, cstack
 11328 ;; Tracked objects:
 11329 ;;		On entry : 0/0
 11330 ;;		On exit  : 0/0
 11331 ;;		Unchanged: 0/0
 11332 ;; Data sizes:     COMMON   BANK0   BANK1   BANK2   BANK3   BANK4   BANK5   BANK6   BANK7   BANK8   BANK9  BANK10  BANK1
      +1  BANK12  BANK13  BANK14  BANK15  BANK16  BANK17  BANK18  BANK19  BANK20  BANK21  BANK22  BANK23  BANK24  BANK25
 11333 ;;      Params:         0       0       0       0       0       0       0       0       0       0       0       0       
      +0       0       0       0       0       0       0       0       0       0       0       0       0       0       0
 11334 ;;      Locals:         0       0       0       0       0       0       0       0       0       0       0       0       
      +0       0       0       0       0       0       0       0       0       0       0       0       0       0       0
 11335 ;;      Temps:          0       0       0       0       0       0       0       0       0       0       0       0       
      +0       0       0       0       0       0       0       0       0       0       0       0       0       0       0
 11336 ;;      Totals:         0       0       0       0       0       0       0       0       0       0       0       0       
      +0       0       0       0       0       0       0       0       0       0       0       0       0       0       0
 11337 ;;Total ram usage:        0 bytes
 11338 ;; Hardware stack levels used: 1
 11339 ;; Hardware stack levels required when called: 5
 11340 ;; This function calls:
 11341 ;;		_I2C1_MasterSendTxData
 11342 ;; This function is called by:
 11343 ;;		_I2C1_MasterFsm
 11344 ;; This function uses a non-reentrant model
 11345 ;;
 11346                           
 11347                           
 11348                           ;psect for function _I2C1_DO_SEND_ADR_READ
 11349  0A8A                     _I2C1_DO_SEND_ADR_READ:
 11350  0A8A                     l5672:	
 11351                           ;incstack = 0
 11352                           ; Regs used in _I2C1_DO_SEND_ADR_READ: [wreg+status,2+status,0+pclath+cstack]
 11353                           
 11354                           
 11355                           ;mcc_generated_files/i2c1_master.c: 342:     I2C1_Status.addressNackCheck = 1;
 11356  0A8A  0144               	movlb	4	; select bank4
 11357  0A8B  143D               	bsf	(_I2C1_Status^(0+512)+29),0
 11358  0A8C                     l5674:
 11359                           
 11360                           ;mcc_generated_files/i2c1_master.c: 343:     I2C1_MasterSendTxData((uint8_t) (I2C1_Statu
      +                          s.address << 1 | 1));
 11361  0A8C  1403               	setc
 11362  0A8D  0D36               	rlf	(_I2C1_Status^(0+512)+22),w
 11363  0A8E  3189  21FB  318A   	fcall	_I2C1_MasterSendTxData
 11364  0A91                     l5676:
 11365                           
 11366                           ;mcc_generated_files/i2c1_master.c: 344:     return I2C1_RCEN;
 11367  0A91  3005               	movlw	5
 11368  0A92                     l365:
 11369  0A92  0008               	return
 11370  0A93                     __end_of_I2C1_DO_SEND_ADR_READ:
 11371                           
 11372                           	psect	text65
 11373  0A00                     __ptext65:	
 11374 ;; *************** function _I2C1_DO_IDLE *****************
 11375 ;; Defined at:
 11376 ;;		line 333 in file "mcc_generated_files/i2c1_master.c"
 11377 ;; Parameters:    Size  Location     Type
 11378 ;;		None
 11379 ;; Auto vars:     Size  Location     Type
 11380 ;;		None
 11381 ;; Return value:  Size  Location     Type
 11382 ;;                  1    wreg      enum E8119
 11383 ;; Registers used:
 11384 ;;		wreg, status,2
 11385 ;; Tracked objects:
 11386 ;;		On entry : 0/0
 11387 ;;		On exit  : 0/0
 11388 ;;		Unchanged: 0/0
 11389 ;; Data sizes:     COMMON   BANK0   BANK1   BANK2   BANK3   BANK4   BANK5   BANK6   BANK7   BANK8   BANK9  BANK10  BANK1
      +1  BANK12  BANK13  BANK14  BANK15  BANK16  BANK17  BANK18  BANK19  BANK20  BANK21  BANK22  BANK23  BANK24  BANK25
 11390 ;;      Params:         0       0       0       0       0       0       0       0       0       0       0       0       
      +0       0       0       0       0       0       0       0       0       0       0       0       0       0       0
 11391 ;;      Locals:         0       0       0       0       0       0       0       0       0       0       0       0       
      +0       0       0       0       0       0       0       0       0       0       0       0       0       0       0
 11392 ;;      Temps:          0       0       0       0       0       0       0       0       0       0       0       0       
      +0       0       0       0       0       0       0       0       0       0       0       0       0       0       0
 11393 ;;      Totals:         0       0       0       0       0       0       0       0       0       0       0       0       
      +0       0       0       0       0       0       0       0       0       0       0       0       0       0       0
 11394 ;;Total ram usage:        0 bytes
 11395 ;; Hardware stack levels used: 1
 11396 ;; Hardware stack levels required when called: 4
 11397 ;; This function calls:
 11398 ;;		Nothing
 11399 ;; This function is called by:
 11400 ;;		_I2C1_MasterFsm
 11401 ;; This function uses a non-reentrant model
 11402 ;;
 11403                           
 11404                           
 11405                           ;psect for function _I2C1_DO_IDLE
 11406  0A00                     _I2C1_DO_IDLE:
 11407  0A00                     l5664:	
 11408                           ;incstack = 0
 11409                           ; Regs used in _I2C1_DO_IDLE: [wreg+status,2]
 11410                           
 11411                           
 11412                           ;mcc_generated_files/i2c1_master.c: 335:     I2C1_Status.busy = 0;
 11413  0A00  0144               	movlb	4	; select bank4
 11414  0A01  10BD               	bcf	(_I2C1_Status^(0+512)+29),1
 11415  0A02                     l5666:
 11416                           
 11417                           ;mcc_generated_files/i2c1_master.c: 336:     I2C1_Status.error = I2C1_NOERR;
 11418  0A02  01BC               	clrf	(_I2C1_Status^(0+512)+28)
 11419  0A03                     l5668:
 11420                           
 11421                           ;mcc_generated_files/i2c1_master.c: 337:     return I2C1_RESET;
 11422  0A03  300E               	movlw	14
 11423  0A04                     l362:
 11424  0A04  0008               	return
 11425  0A05                     __end_of_I2C1_DO_IDLE:
 11426                           
 11427                           	psect	text66
 11428  0F2C                     __ptext66:	
 11429 ;; *************** function _I2C1_DO_TX_EMPTY *****************
 11430 ;; Defined at:
 11431 ;;		line 409 in file "mcc_generated_files/i2c1_master.c"
 11432 ;; Parameters:    Size  Location     Type
 11433 ;;		None
 11434 ;; Auto vars:     Size  Location     Type
 11435 ;;		None
 11436 ;; Return value:  Size  Location     Type
 11437 ;;                  1    wreg      enum E8119
 11438 ;; Registers used:
 11439 ;;		wreg, fsr0l, fsr0h, fsr1l, fsr1h, status,2, status,0, pclath, cstack
 11440 ;; Tracked objects:
 11441 ;;		On entry : 0/0
 11442 ;;		On exit  : 0/0
 11443 ;;		Unchanged: 0/0
 11444 ;; Data sizes:     COMMON   BANK0   BANK1   BANK2   BANK3   BANK4   BANK5   BANK6   BANK7   BANK8   BANK9  BANK10  BANK1
      +1  BANK12  BANK13  BANK14  BANK15  BANK16  BANK17  BANK18  BANK19  BANK20  BANK21  BANK22  BANK23  BANK24  BANK25
 11445 ;;      Params:         0       0       0       0       0       0       0       0       0       0       0       0       
      +0       0       0       0       0       0       0       0       0       0       0       0       0       0       0
 11446 ;;      Locals:         0       0       0       0       0       0       0       0       0       0       0       0       
      +0       0       0       0       0       0       0       0       0       0       0       0       0       0       0
 11447 ;;      Temps:          0       3       0       0       0       0       0       0       0       0       0       0       
      +0       0       0       0       0       0       0       0       0       0       0       0       0       0       0
 11448 ;;      Totals:         0       3       0       0       0       0       0       0       0       0       0       0       
      +0       0       0       0       0       0       0       0       0       0       0       0       0       0       0
 11449 ;;Total ram usage:        3 bytes
 11450 ;; Hardware stack levels used: 1
 11451 ;; Hardware stack levels required when called: 7
 11452 ;; This function calls:
 11453 ;;		Absolute function
 11454 ;;		_I2C1_CallbackReturnReset
 11455 ;;		_I2C1_CallbackReturnStop
 11456 ;;		_I2C1_DO_SEND_RESTART
 11457 ;;		_I2C1_DO_SEND_STOP
 11458 ;;		_I2C1_MasterSetIrq
 11459 ;;		_rd1RegCompleteHandler
 11460 ;;		_rd1RegCompleteHandler@i2c1_master_example$F143
 11461 ;;		_rd2RegCompleteHandler
 11462 ;;		_rd2RegCompleteHandler@i2c1_master_example$F154
 11463 ;;		_rdBlkRegCompleteHandler
 11464 ;;		_rdBlkRegCompleteHandler@i2c1_master_example$F177
 11465 ;;		_wr1RegCompleteHandler
 11466 ;;		_wr1RegCompleteHandler@i2c1_master_example$F160
 11467 ;;		_wr2RegCompleteHandler
 11468 ;;		_wr2RegCompleteHandler@i2c1_master_example$F166
 11469 ;; This function is called by:
 11470 ;;		_I2C1_MasterFsm
 11471 ;; This function uses a non-reentrant model
 11472 ;;
 11473                           
 11474                           
 11475                           ;psect for function _I2C1_DO_TX_EMPTY
 11476  0F2C                     _I2C1_DO_TX_EMPTY:
 11477  0F2C                     l5760:	
 11478                           ;incstack = 0
 11479                           ; Regs used in _I2C1_DO_TX_EMPTY: [wreg-fsr1h+status,2+status,0+pclath+cstack]
 11480                           
 11481                           
 11482                           ;mcc_generated_files/i2c1_master.c: 411:     I2C1_Status.bufferFree = 1;
 11483  0F2C  0144               	movlb	4	; select bank4
 11484  0F2D  15BD               	bsf	(_I2C1_Status^(0+512)+29),3
 11485                           
 11486                           ;mcc_generated_files/i2c1_master.c: 412:     switch(I2C1_Status.callbackTable[I2C1_DATA_
      +                          COMPLETE](I2C1_Status.callbackPayload[I2C1_DATA_COMPLETE]))
 11487  0F2E  2F3C               	goto	l5778
 11488  0F2F                     l5762:
 11489                           
 11490                           ;mcc_generated_files/i2c1_master.c: 416:             return I2C1_DO_SEND_RESTART();
 11491  0F2F  318A  220F  318F   	fcall	_I2C1_DO_SEND_RESTART
 11492  0F32  2F5D               	goto	l405
 11493  0F33                     l5766:
 11494                           
 11495                           ;mcc_generated_files/i2c1_master.c: 418:             I2C1_MasterSetIrq();
 11496  0F33  3189  21E8  318F   	fcall	_I2C1_MasterSetIrq
 11497  0F36                     l5768:
 11498                           
 11499                           ;mcc_generated_files/i2c1_master.c: 419:             return I2C1_TX;
 11500  0F36  3003               	movlw	3
 11501  0F37  2F5D               	goto	l405
 11502  0F38                     l5772:
 11503                           
 11504                           ;mcc_generated_files/i2c1_master.c: 422:             return I2C1_DO_SEND_STOP();
 11505  0F38  318A  2214  318F   	fcall	_I2C1_DO_SEND_STOP
 11506  0F3B  2F5D               	goto	l405
 11507  0F3C                     l5778:
 11508  0F3C  082C               	movf	(low ((_I2C1_Status| (0+512)+12)))^0,w
 11509  0F3D  0140               	movlb	0	; select bank0
 11510  0F3E  00A0               	movwf	??_I2C1_DO_TX_EMPTY
 11511  0F3F  0820               	movf	??_I2C1_DO_TX_EMPTY,w
 11512  0F40  00FA               	movwf	I2C1_CallbackReturnReset@funPtr
 11513  0F41  0144               	movlb	4	; select bank4
 11514  0F42  0821               	movf	(_I2C1_Status+1)^(0+512),w
 11515  0F43  008A               	movwf	10
 11516  0F44  0820               	movf	_I2C1_Status^(0+512),w
 11517  0F45  000A               	callw
 11518  0F46  318F               	pagesel	$
 11519  0F47  0140               	movlb	0	; select bank0
 11520  0F48  00A1               	movwf	??_I2C1_DO_TX_EMPTY+1
 11521  0F49  01A2               	clrf	??_I2C1_DO_TX_EMPTY+2
 11522                           
 11523                           ; Switch on 2 bytes has been partitioned into a top level switch of size 1, and 1 sub-sw
      +                          itches
 11524                           ; Switch size 1, requested type "simple"
 11525                           ; Number of cases is 1, Range of values is 0 to 0
 11526                           ; switch strategies available:
 11527                           ; Name         Instructions Cycles
 11528                           ; simple_byte            4     3 (average)
 11529                           ; direct_byte            8     6 (fixed)
 11530                           ; jumptable            260     6 (fixed)
 11531                           ;	Chosen strategy is simple_byte
 11532  0F4A  0822               	movf	??_I2C1_DO_TX_EMPTY+2,w
 11533  0F4B  3A00               	xorlw	0	; case 0
 11534  0F4C  1903               	skipnz
 11535  0F4D  2F4F               	goto	l6758
 11536  0F4E  2F38               	goto	l5772
 11537  0F4F                     l6758:
 11538                           
 11539                           ; Switch size 1, requested type "simple"
 11540                           ; Number of cases is 4, Range of values is 1 to 4
 11541                           ; switch strategies available:
 11542                           ; Name         Instructions Cycles
 11543                           ; simple_byte           13     7 (average)
 11544                           ; direct_byte           17     9 (fixed)
 11545                           ; jumptable            263     9 (fixed)
 11546                           ;	Chosen strategy is simple_byte
 11547  0F4F  0821               	movf	??_I2C1_DO_TX_EMPTY+1,w
 11548  0F50  3A01               	xorlw	1	; case 1
 11549  0F51  1903               	skipnz
 11550  0F52  2F38               	goto	l5772
 11551  0F53  3A03               	xorlw	3	; case 2
 11552  0F54  1903               	skipnz
 11553  0F55  2F2F               	goto	l5762
 11554  0F56  3A01               	xorlw	1	; case 3
 11555  0F57  1903               	skipnz
 11556  0F58  2F2F               	goto	l5762
 11557  0F59  3A07               	xorlw	7	; case 4
 11558  0F5A  1903               	skipnz
 11559  0F5B  2F33               	goto	l5766
 11560  0F5C  2F38               	goto	l5772
 11561  0F5D                     l405:
 11562  0F5D  0008               	return
 11563  0F5E                     __end_of_I2C1_DO_TX_EMPTY:
 11564                           
 11565                           	psect	text67
 11566  09E8                     __ptext67:	
 11567 ;; *************** function _I2C1_MasterSetIrq *****************
 11568 ;; Defined at:
 11569 ;;		line 645 in file "mcc_generated_files/i2c1_master.c"
 11570 ;; Parameters:    Size  Location     Type
 11571 ;;		None
 11572 ;; Auto vars:     Size  Location     Type
 11573 ;;		None
 11574 ;; Return value:  Size  Location     Type
 11575 ;;                  1    wreg      void 
 11576 ;; Registers used:
 11577 ;;		None
 11578 ;; Tracked objects:
 11579 ;;		On entry : 0/0
 11580 ;;		On exit  : 0/0
 11581 ;;		Unchanged: 0/0
 11582 ;; Data sizes:     COMMON   BANK0   BANK1   BANK2   BANK3   BANK4   BANK5   BANK6   BANK7   BANK8   BANK9  BANK10  BANK1
      +1  BANK12  BANK13  BANK14  BANK15  BANK16  BANK17  BANK18  BANK19  BANK20  BANK21  BANK22  BANK23  BANK24  BANK25
 11583 ;;      Params:         0       0       0       0       0       0       0       0       0       0       0       0       
      +0       0       0       0       0       0       0       0       0       0       0       0       0       0       0
 11584 ;;      Locals:         0       0       0       0       0       0       0       0       0       0       0       0       
      +0       0       0       0       0       0       0       0       0       0       0       0       0       0       0
 11585 ;;      Temps:          0       0       0       0       0       0       0       0       0       0       0       0       
      +0       0       0       0       0       0       0       0       0       0       0       0       0       0       0
 11586 ;;      Totals:         0       0       0       0       0       0       0       0       0       0       0       0       
      +0       0       0       0       0       0       0       0       0       0       0       0       0       0       0
 11587 ;;Total ram usage:        0 bytes
 11588 ;; Hardware stack levels used: 1
 11589 ;; Hardware stack levels required when called: 4
 11590 ;; This function calls:
 11591 ;;		Nothing
 11592 ;; This function is called by:
 11593 ;;		_I2C1_DO_TX_EMPTY
 11594 ;; This function uses a non-reentrant model
 11595 ;;
 11596                           
 11597                           
 11598                           ;psect for function _I2C1_MasterSetIrq
 11599  09E8                     _I2C1_MasterSetIrq:
 11600  09E8                     l5652:	
 11601                           ;incstack = 0
 11602                           ; Regs used in _I2C1_MasterSetIrq: []
 11603                           
 11604                           
 11605                           ;mcc_generated_files/i2c1_master.c: 647:     PIR3bits.SSP1IF = 1;
 11606  09E8  014E               	movlb	14	; select bank14
 11607  09E9  140F               	bsf	15,0	;volatile
 11608  09EA                     l525:
 11609  09EA  0008               	return
 11610  09EB                     __end_of_I2C1_MasterSetIrq:
 11611                           
 11612                           	psect	text68
 11613  0A37                     __ptext68:	
 11614 ;; *************** function _I2C1_MasterIsNack *****************
 11615 ;; Defined at:
 11616 ;;		line 598 in file "mcc_generated_files/i2c1_master.c"
 11617 ;; Parameters:    Size  Location     Type
 11618 ;;		None
 11619 ;; Auto vars:     Size  Location     Type
 11620 ;;		None
 11621 ;; Return value:  Size  Location     Type
 11622 ;;                  1    wreg      _Bool 
 11623 ;; Registers used:
 11624 ;;		wreg, status,2, status,0
 11625 ;; Tracked objects:
 11626 ;;		On entry : 0/0
 11627 ;;		On exit  : 0/0
 11628 ;;		Unchanged: 0/0
 11629 ;; Data sizes:     COMMON   BANK0   BANK1   BANK2   BANK3   BANK4   BANK5   BANK6   BANK7   BANK8   BANK9  BANK10  BANK1
      +1  BANK12  BANK13  BANK14  BANK15  BANK16  BANK17  BANK18  BANK19  BANK20  BANK21  BANK22  BANK23  BANK24  BANK25
 11630 ;;      Params:         0       0       0       0       0       0       0       0       0       0       0       0       
      +0       0       0       0       0       0       0       0       0       0       0       0       0       0       0
 11631 ;;      Locals:         0       0       0       0       0       0       0       0       0       0       0       0       
      +0       0       0       0       0       0       0       0       0       0       0       0       0       0       0
 11632 ;;      Temps:          0       0       0       0       0       0       0       0       0       0       0       0       
      +0       0       0       0       0       0       0       0       0       0       0       0       0       0       0
 11633 ;;      Totals:         0       0       0       0       0       0       0       0       0       0       0       0       
      +0       0       0       0       0       0       0       0       0       0       0       0       0       0       0
 11634 ;;Total ram usage:        0 bytes
 11635 ;; Hardware stack levels used: 1
 11636 ;; Hardware stack levels required when called: 4
 11637 ;; This function calls:
 11638 ;;		Nothing
 11639 ;; This function is called by:
 11640 ;;		_I2C1_MasterFsm
 11641 ;;		_I2C1_DO_TX
 11642 ;; This function uses a non-reentrant model
 11643 ;;
 11644                           
 11645                           
 11646                           ;psect for function _I2C1_MasterIsNack
 11647  0A37                     _I2C1_MasterIsNack:
 11648  0A37                     l5602:	
 11649                           ;incstack = 0
 11650                           ; Regs used in _I2C1_MasterIsNack: [wreg+status,2+status,0]
 11651                           
 11652                           
 11653                           ;mcc_generated_files/i2c1_master.c: 600:     return SSP1CON2bits.ACKSTAT;
 11654  0A37  0143               	movlb	3	; select bank3
 11655  0A38  0E11               	swapf	17,w	;volatile
 11656  0A39  0C89               	rrf	9,f
 11657  0A3A  0C89               	rrf	9,f
 11658  0A3B  3901               	andlw	1
 11659  0A3C                     l498:
 11660  0A3C  0008               	return
 11661  0A3D                     __end_of_I2C1_MasterIsNack:
 11662                           
 11663                           	psect	text69
 11664  09FB                     __ptext69:	
 11665 ;; *************** function _I2C1_MasterSendTxData *****************
 11666 ;; Defined at:
 11667 ;;		line 568 in file "mcc_generated_files/i2c1_master.c"
 11668 ;; Parameters:    Size  Location     Type
 11669 ;;  data            1    wreg     unsigned char 
 11670 ;; Auto vars:     Size  Location     Type
 11671 ;;  data            1    1[COMMON] unsigned char 
 11672 ;; Return value:  Size  Location     Type
 11673 ;;                  1    wreg      void 
 11674 ;; Registers used:
 11675 ;;		wreg
 11676 ;; Tracked objects:
 11677 ;;		On entry : 0/0
 11678 ;;		On exit  : 0/0
 11679 ;;		Unchanged: 0/0
 11680 ;; Data sizes:     COMMON   BANK0   BANK1   BANK2   BANK3   BANK4   BANK5   BANK6   BANK7   BANK8   BANK9  BANK10  BANK1
      +1  BANK12  BANK13  BANK14  BANK15  BANK16  BANK17  BANK18  BANK19  BANK20  BANK21  BANK22  BANK23  BANK24  BANK25
 11681 ;;      Params:         0       0       0       0       0       0       0       0       0       0       0       0       
      +0       0       0       0       0       0       0       0       0       0       0       0       0       0       0
 11682 ;;      Locals:         1       0       0       0       0       0       0       0       0       0       0       0       
      +0       0       0       0       0       0       0       0       0       0       0       0       0       0       0
 11683 ;;      Temps:          0       0       0       0       0       0       0       0       0       0       0       0       
      +0       0       0       0       0       0       0       0       0       0       0       0       0       0       0
 11684 ;;      Totals:         1       0       0       0       0       0       0       0       0       0       0       0       
      +0       0       0       0       0       0       0       0       0       0       0       0       0       0       0
 11685 ;;Total ram usage:        1 bytes
 11686 ;; Hardware stack levels used: 1
 11687 ;; Hardware stack levels required when called: 4
 11688 ;; This function calls:
 11689 ;;		Nothing
 11690 ;; This function is called by:
 11691 ;;		_I2C1_DO_SEND_ADR_READ
 11692 ;;		_I2C1_DO_SEND_ADR_WRITE
 11693 ;;		_I2C1_DO_TX
 11694 ;; This function uses a non-reentrant model
 11695 ;;
 11696                           
 11697                           
 11698                           ;psect for function _I2C1_MasterSendTxData
 11699  09FB                     _I2C1_MasterSendTxData:
 11700                           
 11701                           ;incstack = 0
 11702                           ; Regs used in _I2C1_MasterSendTxData: [wreg]
 11703                           ;I2C1_MasterSendTxData@data stored from wreg
 11704  09FB  00F1               	movwf	I2C1_MasterSendTxData@data
 11705  09FC                     l5606:
 11706                           
 11707                           ;mcc_generated_files/i2c1_master.c: 568: static __attribute__((inline)) void I2C1_Master
      +                          SendTxData(uint8_t data);mcc_generated_files/i2c1_master.c: 569: {;mcc_generated_files/i
      +                          2c1_master.c: 570:     SSP1BUF = data;
 11708  09FC  0871               	movf	I2C1_MasterSendTxData@data,w
 11709  09FD  0143               	movlb	3	; select bank3
 11710  09FE  008C               	movwf	12	;volatile
 11711  09FF                     l480:
 11712  09FF  0008               	return
 11713  0A00                     __end_of_I2C1_MasterSendTxData:
 11714                           
 11715                           	psect	text70
 11716  09F7                     __ptext70:	
 11717 ;; *************** function _I2C1_MasterSendAck *****************
 11718 ;; Defined at:
 11719 ;;		line 603 in file "mcc_generated_files/i2c1_master.c"
 11720 ;; Parameters:    Size  Location     Type
 11721 ;;		None
 11722 ;; Auto vars:     Size  Location     Type
 11723 ;;		None
 11724 ;; Return value:  Size  Location     Type
 11725 ;;                  1    wreg      void 
 11726 ;; Registers used:
 11727 ;;		None
 11728 ;; Tracked objects:
 11729 ;;		On entry : 0/0
 11730 ;;		On exit  : 0/0
 11731 ;;		Unchanged: 0/0
 11732 ;; Data sizes:     COMMON   BANK0   BANK1   BANK2   BANK3   BANK4   BANK5   BANK6   BANK7   BANK8   BANK9  BANK10  BANK1
      +1  BANK12  BANK13  BANK14  BANK15  BANK16  BANK17  BANK18  BANK19  BANK20  BANK21  BANK22  BANK23  BANK24  BANK25
 11733 ;;      Params:         0       0       0       0       0       0       0       0       0       0       0       0       
      +0       0       0       0       0       0       0       0       0       0       0       0       0       0       0
 11734 ;;      Locals:         0       0       0       0       0       0       0       0       0       0       0       0       
      +0       0       0       0       0       0       0       0       0       0       0       0       0       0       0
 11735 ;;      Temps:          0       0       0       0       0       0       0       0       0       0       0       0       
      +0       0       0       0       0       0       0       0       0       0       0       0       0       0       0
 11736 ;;      Totals:         0       0       0       0       0       0       0       0       0       0       0       0       
      +0       0       0       0       0       0       0       0       0       0       0       0       0       0       0
 11737 ;;Total ram usage:        0 bytes
 11738 ;; Hardware stack levels used: 1
 11739 ;; Hardware stack levels required when called: 4
 11740 ;; This function calls:
 11741 ;;		Nothing
 11742 ;; This function is called by:
 11743 ;;		_I2C1_DO_RX
 11744 ;;		_I2C1_DO_RX_ACK
 11745 ;; This function uses a non-reentrant model
 11746 ;;
 11747                           
 11748                           
 11749                           ;psect for function _I2C1_MasterSendAck
 11750  09F7                     _I2C1_MasterSendAck:
 11751  09F7                     l5630:	
 11752                           ;incstack = 0
 11753                           ; Regs used in _I2C1_MasterSendAck: []
 11754                           
 11755                           
 11756                           ;mcc_generated_files/i2c1_master.c: 605:     SSP1CON2bits.ACKDT = 0;
 11757  09F7  0143               	movlb	3	; select bank3
 11758  09F8  1291               	bcf	17,5	;volatile
 11759                           
 11760                           ;mcc_generated_files/i2c1_master.c: 606:     SSP1CON2bits.ACKEN = 1;
 11761  09F9  1611               	bsf	17,4	;volatile
 11762  09FA                     l501:
 11763  09FA  0008               	return
 11764  09FB                     __end_of_I2C1_MasterSendAck:
 11765                           
 11766                           	psect	text71
 11767  09E5                     __ptext71:	
 11768 ;; *************** function _I2C1_MasterGetRxData *****************
 11769 ;; Defined at:
 11770 ;;		line 563 in file "mcc_generated_files/i2c1_master.c"
 11771 ;; Parameters:    Size  Location     Type
 11772 ;;		None
 11773 ;; Auto vars:     Size  Location     Type
 11774 ;;		None
 11775 ;; Return value:  Size  Location     Type
 11776 ;;                  1    wreg      unsigned char 
 11777 ;; Registers used:
 11778 ;;		wreg
 11779 ;; Tracked objects:
 11780 ;;		On entry : 0/0
 11781 ;;		On exit  : 0/0
 11782 ;;		Unchanged: 0/0
 11783 ;; Data sizes:     COMMON   BANK0   BANK1   BANK2   BANK3   BANK4   BANK5   BANK6   BANK7   BANK8   BANK9  BANK10  BANK1
      +1  BANK12  BANK13  BANK14  BANK15  BANK16  BANK17  BANK18  BANK19  BANK20  BANK21  BANK22  BANK23  BANK24  BANK25
 11784 ;;      Params:         0       0       0       0       0       0       0       0       0       0       0       0       
      +0       0       0       0       0       0       0       0       0       0       0       0       0       0       0
 11785 ;;      Locals:         0       0       0       0       0       0       0       0       0       0       0       0       
      +0       0       0       0       0       0       0       0       0       0       0       0       0       0       0
 11786 ;;      Temps:          0       0       0       0       0       0       0       0       0       0       0       0       
      +0       0       0       0       0       0       0       0       0       0       0       0       0       0       0
 11787 ;;      Totals:         0       0       0       0       0       0       0       0       0       0       0       0       
      +0       0       0       0       0       0       0       0       0       0       0       0       0       0       0
 11788 ;;Total ram usage:        0 bytes
 11789 ;; Hardware stack levels used: 1
 11790 ;; Hardware stack levels required when called: 4
 11791 ;; This function calls:
 11792 ;;		Nothing
 11793 ;; This function is called by:
 11794 ;;		_I2C1_DO_RX
 11795 ;; This function uses a non-reentrant model
 11796 ;;
 11797                           
 11798                           
 11799                           ;psect for function _I2C1_MasterGetRxData
 11800  09E5                     _I2C1_MasterGetRxData:
 11801  09E5                     l5626:	
 11802                           ;incstack = 0
 11803                           ; Regs used in _I2C1_MasterGetRxData: [wreg]
 11804                           
 11805                           
 11806                           ;mcc_generated_files/i2c1_master.c: 565:     return SSP1BUF;
 11807  09E5  0143               	movlb	3	; select bank3
 11808  09E6  080C               	movf	12,w	;volatile
 11809  09E7                     l477:
 11810  09E7  0008               	return
 11811  09E8                     __end_of_I2C1_MasterGetRxData:
 11812                           
 11813                           	psect	text72
 11814  09F3                     __ptext72:	
 11815 ;; *************** function _I2C1_MasterSendNack *****************
 11816 ;; Defined at:
 11817 ;;		line 609 in file "mcc_generated_files/i2c1_master.c"
 11818 ;; Parameters:    Size  Location     Type
 11819 ;;		None
 11820 ;; Auto vars:     Size  Location     Type
 11821 ;;		None
 11822 ;; Return value:  Size  Location     Type
 11823 ;;                  1    wreg      void 
 11824 ;; Registers used:
 11825 ;;		None
 11826 ;; Tracked objects:
 11827 ;;		On entry : 0/0
 11828 ;;		On exit  : 0/0
 11829 ;;		Unchanged: 0/0
 11830 ;; Data sizes:     COMMON   BANK0   BANK1   BANK2   BANK3   BANK4   BANK5   BANK6   BANK7   BANK8   BANK9  BANK10  BANK1
      +1  BANK12  BANK13  BANK14  BANK15  BANK16  BANK17  BANK18  BANK19  BANK20  BANK21  BANK22  BANK23  BANK24  BANK25
 11831 ;;      Params:         0       0       0       0       0       0       0       0       0       0       0       0       
      +0       0       0       0       0       0       0       0       0       0       0       0       0       0       0
 11832 ;;      Locals:         0       0       0       0       0       0       0       0       0       0       0       0       
      +0       0       0       0       0       0       0       0       0       0       0       0       0       0       0
 11833 ;;      Temps:          0       0       0       0       0       0       0       0       0       0       0       0       
      +0       0       0       0       0       0       0       0       0       0       0       0       0       0       0
 11834 ;;      Totals:         0       0       0       0       0       0       0       0       0       0       0       0       
      +0       0       0       0       0       0       0       0       0       0       0       0       0       0       0
 11835 ;;Total ram usage:        0 bytes
 11836 ;; Hardware stack levels used: 1
 11837 ;; Hardware stack levels required when called: 4
 11838 ;; This function calls:
 11839 ;;		Nothing
 11840 ;; This function is called by:
 11841 ;;		_I2C1_DO_RX_NACK_STOP
 11842 ;;		_I2C1_DO_RX_NACK_RESTART
 11843 ;; This function uses a non-reentrant model
 11844 ;;
 11845                           
 11846                           
 11847                           ;psect for function _I2C1_MasterSendNack
 11848  09F3                     _I2C1_MasterSendNack:
 11849  09F3                     l5524:	
 11850                           ;incstack = 0
 11851                           ; Regs used in _I2C1_MasterSendNack: []
 11852                           
 11853                           
 11854                           ;mcc_generated_files/i2c1_master.c: 611:     SSP1CON2bits.ACKDT = 1;
 11855  09F3  0143               	movlb	3	; select bank3
 11856  09F4  1691               	bsf	17,5	;volatile
 11857                           
 11858                           ;mcc_generated_files/i2c1_master.c: 612:     SSP1CON2bits.ACKEN = 1;
 11859  09F5  1611               	bsf	17,4	;volatile
 11860  09F6                     l504:
 11861  09F6  0008               	return
 11862  09F7                     __end_of_I2C1_MasterSendNack:
 11863                           
 11864                           	psect	text73
 11865  09E2                     __ptext73:	
 11866 ;; *************** function _I2C1_MasterStartRx *****************
 11867 ;; Defined at:
 11868 ;;		line 583 in file "mcc_generated_files/i2c1_master.c"
 11869 ;; Parameters:    Size  Location     Type
 11870 ;;		None
 11871 ;; Auto vars:     Size  Location     Type
 11872 ;;		None
 11873 ;; Return value:  Size  Location     Type
 11874 ;;                  1    wreg      void 
 11875 ;; Registers used:
 11876 ;;		None
 11877 ;; Tracked objects:
 11878 ;;		On entry : 0/0
 11879 ;;		On exit  : 0/0
 11880 ;;		Unchanged: 0/0
 11881 ;; Data sizes:     COMMON   BANK0   BANK1   BANK2   BANK3   BANK4   BANK5   BANK6   BANK7   BANK8   BANK9  BANK10  BANK1
      +1  BANK12  BANK13  BANK14  BANK15  BANK16  BANK17  BANK18  BANK19  BANK20  BANK21  BANK22  BANK23  BANK24  BANK25
 11882 ;;      Params:         0       0       0       0       0       0       0       0       0       0       0       0       
      +0       0       0       0       0       0       0       0       0       0       0       0       0       0       0
 11883 ;;      Locals:         0       0       0       0       0       0       0       0       0       0       0       0       
      +0       0       0       0       0       0       0       0       0       0       0       0       0       0       0
 11884 ;;      Temps:          0       0       0       0       0       0       0       0       0       0       0       0       
      +0       0       0       0       0       0       0       0       0       0       0       0       0       0       0
 11885 ;;      Totals:         0       0       0       0       0       0       0       0       0       0       0       0       
      +0       0       0       0       0       0       0       0       0       0       0       0       0       0       0
 11886 ;;Total ram usage:        0 bytes
 11887 ;; Hardware stack levels used: 1
 11888 ;; Hardware stack levels required when called: 4
 11889 ;; This function calls:
 11890 ;;		Nothing
 11891 ;; This function is called by:
 11892 ;;		_I2C1_DO_RCEN
 11893 ;; This function uses a non-reentrant model
 11894 ;;
 11895                           
 11896                           
 11897                           ;psect for function _I2C1_MasterStartRx
 11898  09E2                     _I2C1_MasterStartRx:
 11899  09E2                     l5644:	
 11900                           ;incstack = 0
 11901                           ; Regs used in _I2C1_MasterStartRx: []
 11902                           
 11903                           
 11904                           ;mcc_generated_files/i2c1_master.c: 585:     SSP1CON2bits.RCEN = 1;
 11905  09E2  0143               	movlb	3	; select bank3
 11906  09E3  1591               	bsf	17,3	;volatile
 11907  09E4                     l489:
 11908  09E4  0008               	return
 11909  09E5                     __end_of_I2C1_MasterStartRx:
 11910                           
 11911                           	psect	text74
 11912  0002                     __ptext74:	
 11913 ;; *************** function _I2C1_CallbackReturnReset *****************
 11914 ;; Defined at:
 11915 ;;		line 525 in file "mcc_generated_files/i2c1_master.c"
 11916 ;; Parameters:    Size  Location     Type
 11917 ;;  funPtr          1   10[COMMON] PTR void 
 11918 ;;		 -> I2C1_ReadDataBlock@bufferBlock(3), I2C1_Write2ByteRegister@data(2), I2C1_Write1ByteRegister@data(1), I2C1_Read2B
      +yteRegister@returnValue(2), 
 11919 ;;		 -> I2C1_Read1ByteRegister@returnValue(1), i2c_readDataBlock@d(3), i2c_write2ByteRegister@data(2), i2c_read2ByteRegi
      +ster@result(2), 
 11920 ;;		 -> i2c_read1ByteRegister@d2(1), i2c_write1ByteRegister@data(1), NULL(0), 
 11921 ;; Auto vars:     Size  Location     Type
 11922 ;;		None
 11923 ;; Return value:  Size  Location     Type
 11924 ;;                  1    wreg      enum E360
 11925 ;; Registers used:
 11926 ;;		wreg
 11927 ;; Tracked objects:
 11928 ;;		On entry : 0/0
 11929 ;;		On exit  : 0/0
 11930 ;;		Unchanged: 0/0
 11931 ;; Data sizes:     COMMON   BANK0   BANK1   BANK2   BANK3   BANK4   BANK5   BANK6   BANK7   BANK8   BANK9  BANK10  BANK1
      +1  BANK12  BANK13  BANK14  BANK15  BANK16  BANK17  BANK18  BANK19  BANK20  BANK21  BANK22  BANK23  BANK24  BANK25
 11932 ;;      Params:         1       0       0       0       0       0       0       0       0       0       0       0       
      +0       0       0       0       0       0       0       0       0       0       0       0       0       0       0
 11933 ;;      Locals:         0       0       0       0       0       0       0       0       0       0       0       0       
      +0       0       0       0       0       0       0       0       0       0       0       0       0       0       0
 11934 ;;      Temps:          0       0       0       0       0       0       0       0       0       0       0       0       
      +0       0       0       0       0       0       0       0       0       0       0       0       0       0       0
 11935 ;;      Totals:         1       0       0       0       0       0       0       0       0       0       0       0       
      +0       0       0       0       0       0       0       0       0       0       0       0       0       0       0
 11936 ;;Total ram usage:        1 bytes
 11937 ;; Hardware stack levels used: 1
 11938 ;; Hardware stack levels required when called: 4
 11939 ;; This function calls:
 11940 ;;		Nothing
 11941 ;; This function is called by:
 11942 ;;		_I2C1_Open
 11943 ;;		_I2C1_DO_TX
 11944 ;;		_I2C1_DO_RX
 11945 ;;		_I2C1_DO_TX_EMPTY
 11946 ;;		_I2C1_DO_ADDRESS_NACK
 11947 ;;		_I2C1_DO_RX_EMPTY
 11948 ;; This function uses a non-reentrant model
 11949 ;;
 11950                           
 11951                           
 11952                           ;psect for function _I2C1_CallbackReturnReset
 11953  0002                     _I2C1_CallbackReturnReset:
 11954  0002                     l5658:	
 11955                           ;incstack = 0
 11956                           ; Regs used in _I2C1_CallbackReturnReset: [wreg]
 11957                           
 11958                           
 11959                           ;mcc_generated_files/i2c1_master.c: 525: i2c1_operations_t I2C1_CallbackReturnReset(void
      +                           *funPtr);mcc_generated_files/i2c1_master.c: 526: {;mcc_generated_files/i2c1_master.c: 5
      +                          27:     return I2C1_RESET_LINK;
 11960  0002  3005               	movlw	5
 11961  0003                     l461:
 11962  0003  0008               	return
 11963  0004                     __end_of_I2C1_CallbackReturnReset:
 11964                           
 11965                           	psect	text75
 11966  09CE                     __ptext75:	
 11967 ;; *************** function _I2C1_CallbackReturnStop *****************
 11968 ;; Defined at:
 11969 ;;		line 520 in file "mcc_generated_files/i2c1_master.c"
 11970 ;; Parameters:    Size  Location     Type
 11971 ;;  funPtr          1   10[COMMON] PTR void 
 11972 ;;		 -> I2C1_ReadDataBlock@bufferBlock(3), I2C1_Write2ByteRegister@data(2), I2C1_Write1ByteRegister@data(1), I2C1_Read2B
      +yteRegister@returnValue(2), 
 11973 ;;		 -> I2C1_Read1ByteRegister@returnValue(1), i2c_readDataBlock@d(3), i2c_write2ByteRegister@data(2), i2c_read2ByteRegi
      +ster@result(2), 
 11974 ;;		 -> i2c_read1ByteRegister@d2(1), i2c_write1ByteRegister@data(1), NULL(0), 
 11975 ;; Auto vars:     Size  Location     Type
 11976 ;;		None
 11977 ;; Return value:  Size  Location     Type
 11978 ;;                  1    wreg      enum E360
 11979 ;; Registers used:
 11980 ;;		wreg
 11981 ;; Tracked objects:
 11982 ;;		On entry : 0/0
 11983 ;;		On exit  : 0/0
 11984 ;;		Unchanged: 0/0
 11985 ;; Data sizes:     COMMON   BANK0   BANK1   BANK2   BANK3   BANK4   BANK5   BANK6   BANK7   BANK8   BANK9  BANK10  BANK1
      +1  BANK12  BANK13  BANK14  BANK15  BANK16  BANK17  BANK18  BANK19  BANK20  BANK21  BANK22  BANK23  BANK24  BANK25
 11986 ;;      Params:         1       0       0       0       0       0       0       0       0       0       0       0       
      +0       0       0       0       0       0       0       0       0       0       0       0       0       0       0
 11987 ;;      Locals:         0       0       0       0       0       0       0       0       0       0       0       0       
      +0       0       0       0       0       0       0       0       0       0       0       0       0       0       0
 11988 ;;      Temps:          0       0       0       0       0       0       0       0       0       0       0       0       
      +0       0       0       0       0       0       0       0       0       0       0       0       0       0       0
 11989 ;;      Totals:         1       0       0       0       0       0       0       0       0       0       0       0       
      +0       0       0       0       0       0       0       0       0       0       0       0       0       0       0
 11990 ;;Total ram usage:        1 bytes
 11991 ;; Hardware stack levels used: 1
 11992 ;; Hardware stack levels required when called: 4
 11993 ;; This function calls:
 11994 ;;		Nothing
 11995 ;; This function is called by:
 11996 ;;		_I2C1_Open
 11997 ;;		_I2C1_SetCallback
 11998 ;;		_I2C1_DO_TX
 11999 ;;		_I2C1_DO_RX
 12000 ;;		_I2C1_DO_TX_EMPTY
 12001 ;;		_I2C1_DO_ADDRESS_NACK
 12002 ;;		_I2C1_DO_RX_EMPTY
 12003 ;; This function uses a non-reentrant model
 12004 ;;
 12005                           
 12006                           
 12007                           ;psect for function _I2C1_CallbackReturnStop
 12008  09CE                     _I2C1_CallbackReturnStop:
 12009  09CE                     l5654:	
 12010                           ;incstack = 0
 12011                           ; Regs used in _I2C1_CallbackReturnStop: [wreg]
 12012                           
 12013                           
 12014                           ;mcc_generated_files/i2c1_master.c: 520: i2c1_operations_t I2C1_CallbackReturnStop(void 
      +                          *funPtr);mcc_generated_files/i2c1_master.c: 521: {;mcc_generated_files/i2c1_master.c: 52
      +                          2:     return I2C1_STOP;
 12015  09CE  3001               	movlw	1
 12016  09CF                     l458:
 12017  09CF  0008               	return
 12018  09D0                     __end_of_I2C1_CallbackReturnStop:
 12019                           
 12020                           	psect	text76
 12021  0C6A                     __ptext76:	
 12022 ;; *************** function _rdBlkRegCompleteHandler@i2c1_master_example$F177 *****************
 12023 ;; Defined at:
 12024 ;;		line 170 in file "mcc_generated_files/examples/i2c1_master_example.c"
 12025 ;; Parameters:    Size  Location     Type
 12026 ;;  ptr             1   10[COMMON] PTR void 
 12027 ;;		 -> I2C1_ReadDataBlock@bufferBlock(3), I2C1_Write2ByteRegister@data(2), I2C1_Write1ByteRegister@data(1), I2C1_Read2B
      +yteRegister@returnValue(2), 
 12028 ;;		 -> I2C1_Read1ByteRegister@returnValue(1), i2c_readDataBlock@d(3), i2c_write2ByteRegister@data(2), i2c_read2ByteRegi
      +ster@result(2), 
 12029 ;;		 -> i2c_read1ByteRegister@d2(1), i2c_write1ByteRegister@data(1), NULL(0), 
 12030 ;; Auto vars:     Size  Location     Type
 12031 ;;		None
 12032 ;; Return value:  Size  Location     Type
 12033 ;;                  1    wreg      enum E360
 12034 ;; Registers used:
 12035 ;;		wreg, fsr1l, fsr1h, status,2, status,0, pclath, cstack
 12036 ;; Tracked objects:
 12037 ;;		On entry : 0/0
 12038 ;;		On exit  : 0/0
 12039 ;;		Unchanged: 0/0
 12040 ;; Data sizes:     COMMON   BANK0   BANK1   BANK2   BANK3   BANK4   BANK5   BANK6   BANK7   BANK8   BANK9  BANK10  BANK1
      +1  BANK12  BANK13  BANK14  BANK15  BANK16  BANK17  BANK18  BANK19  BANK20  BANK21  BANK22  BANK23  BANK24  BANK25
 12041 ;;      Params:         1       0       0       0       0       0       0       0       0       0       0       0       
      +0       0       0       0       0       0       0       0       0       0       0       0       0       0       0
 12042 ;;      Locals:         0       0       0       0       0       0       0       0       0       0       0       0       
      +0       0       0       0       0       0       0       0       0       0       0       0       0       0       0
 12043 ;;      Temps:          0       0       0       0       0       0       0       0       0       0       0       0       
      +0       0       0       0       0       0       0       0       0       0       0       0       0       0       0
 12044 ;;      Totals:         1       0       0       0       0       0       0       0       0       0       0       0       
      +0       0       0       0       0       0       0       0       0       0       0       0       0       0       0
 12045 ;;Total ram usage:        1 bytes
 12046 ;; Hardware stack levels used: 1
 12047 ;; Hardware stack levels required when called: 6
 12048 ;; This function calls:
 12049 ;;		_I2C1_SetBuffer
 12050 ;;		_I2C1_SetDataCompleteCallback
 12051 ;; This function is called by:
 12052 ;;		_I2C1_ReadDataBlock
 12053 ;;		_I2C1_DO_TX
 12054 ;;		_I2C1_DO_RX
 12055 ;;		_I2C1_DO_TX_EMPTY
 12056 ;;		_I2C1_DO_ADDRESS_NACK
 12057 ;;		_I2C1_DO_RX_EMPTY
 12058 ;; This function uses a non-reentrant model
 12059 ;;
 12060                           
 12061                           
 12062                           ;psect for function _rdBlkRegCompleteHandler@i2c1_master_example$F177
 12063  0C6A                     _rdBlkRegCompleteHandler@i2c1_master_example$F177:
 12064  0C6A                     l5596:	
 12065                           ;incstack = 0
 12066                           ; Regs used in _rdBlkRegCompleteHandler@i2c1_master_example$F177: [wreg+fsr1l+fsr1h+stat
      +                          us,2+status,0+pclath+cstack]
 12067                           
 12068                           
 12069                           ;mcc_generated_files/examples/i2c1_master_example.c: 170: static i2c1_operations_t rdBlk
      +                          RegCompleteHandler(void *ptr);mcc_generated_files/examples/i2c1_master_example.c: 171: {
      +                          ;mcc_generated_files/examples/i2c1_master_example.c: 172:     I2C1_SetBuffer(((i2c1_buff
      +                          er_t *)ptr)->data,((i2c1_buffer_t*)ptr)->len);
 12070  0C6A  087A               	movf	rdBlkRegCompleteHandler@i2c1_master_example$F177@ptr,w
 12071  0C6B  3E02               	addlw	2
 12072  0C6C  0086               	movwf	6
 12073  0C6D  0187               	clrf	7
 12074  0C6E  0801               	movf	1,w
 12075  0C6F  00F1               	movwf	I2C1_SetBuffer@buffer
 12076  0C70  3000               	movlw	0
 12077  0C71  00F2               	movwf	I2C1_SetBuffer@buffer+1
 12078  0C72  087A               	movf	rdBlkRegCompleteHandler@i2c1_master_example$F177@ptr,w
 12079  0C73  0086               	movwf	6
 12080  0C74  0187               	clrf	7
 12081  0C75  3F40               	moviw [0]fsr1
 12082  0C76  00F3               	movwf	I2C1_SetBuffer@bufferSize
 12083  0C77  3F41               	moviw [1]fsr1
 12084  0C78  00F4               	movwf	I2C1_SetBuffer@bufferSize+1
 12085  0C79  318A  22EC  318C   	fcall	_I2C1_SetBuffer
 12086                           
 12087                           ;mcc_generated_files/examples/i2c1_master_example.c: 173:     I2C1_SetDataCompleteCallba
      +                          ck(((void*)0),((void*)0));
 12088  0C7C  3000               	movlw	0
 12089  0C7D  00F6               	movwf	I2C1_SetDataCompleteCallback@cb
 12090  0C7E  00F7               	movwf	I2C1_SetDataCompleteCallback@cb+1
 12091  0C7F  01F8               	clrf	I2C1_SetDataCompleteCallback@ptr
 12092  0C80  318A  22B8  318C   	fcall	_I2C1_SetDataCompleteCallback
 12093  0C83                     l5598:
 12094                           
 12095                           ;mcc_generated_files/examples/i2c1_master_example.c: 174:     return I2C1_RESTART_READ;
 12096  0C83  3002               	movlw	2
 12097  0C84                     l197:
 12098  0C84  0008               	return
 12099  0C85                     __end_of_rdBlkRegCompleteHandler@i2c1_master_example$F177:
 12100                           
 12101                           	psect	text77
 12102  0BA5                     __ptext77:	
 12103 ;; *************** function _wr1RegCompleteHandler@i2c1_master_example$F160 *****************
 12104 ;; Defined at:
 12105 ;;		line 156 in file "mcc_generated_files/examples/i2c1_master_example.c"
 12106 ;; Parameters:    Size  Location     Type
 12107 ;;  ptr             1   10[COMMON] PTR void 
 12108 ;;		 -> I2C1_ReadDataBlock@bufferBlock(3), I2C1_Write2ByteRegister@data(2), I2C1_Write1ByteRegister@data(1), I2C1_Read2B
      +yteRegister@returnValue(2), 
 12109 ;;		 -> I2C1_Read1ByteRegister@returnValue(1), i2c_readDataBlock@d(3), i2c_write2ByteRegister@data(2), i2c_read2ByteRegi
      +ster@result(2), 
 12110 ;;		 -> i2c_read1ByteRegister@d2(1), i2c_write1ByteRegister@data(1), NULL(0), 
 12111 ;; Auto vars:     Size  Location     Type
 12112 ;;		None
 12113 ;; Return value:  Size  Location     Type
 12114 ;;                  1    wreg      enum E360
 12115 ;; Registers used:
 12116 ;;		wreg, fsr1l, fsr1h, status,2, status,0, pclath, cstack
 12117 ;; Tracked objects:
 12118 ;;		On entry : 0/0
 12119 ;;		On exit  : 0/0
 12120 ;;		Unchanged: 0/0
 12121 ;; Data sizes:     COMMON   BANK0   BANK1   BANK2   BANK3   BANK4   BANK5   BANK6   BANK7   BANK8   BANK9  BANK10  BANK1
      +1  BANK12  BANK13  BANK14  BANK15  BANK16  BANK17  BANK18  BANK19  BANK20  BANK21  BANK22  BANK23  BANK24  BANK25
 12122 ;;      Params:         1       0       0       0       0       0       0       0       0       0       0       0       
      +0       0       0       0       0       0       0       0       0       0       0       0       0       0       0
 12123 ;;      Locals:         0       0       0       0       0       0       0       0       0       0       0       0       
      +0       0       0       0       0       0       0       0       0       0       0       0       0       0       0
 12124 ;;      Temps:          0       0       0       0       0       0       0       0       0       0       0       0       
      +0       0       0       0       0       0       0       0       0       0       0       0       0       0       0
 12125 ;;      Totals:         1       0       0       0       0       0       0       0       0       0       0       0       
      +0       0       0       0       0       0       0       0       0       0       0       0       0       0       0
 12126 ;;Total ram usage:        1 bytes
 12127 ;; Hardware stack levels used: 1
 12128 ;; Hardware stack levels required when called: 6
 12129 ;; This function calls:
 12130 ;;		_I2C1_SetBuffer
 12131 ;;		_I2C1_SetDataCompleteCallback
 12132 ;; This function is called by:
 12133 ;;		_I2C1_Write1ByteRegister
 12134 ;;		_I2C1_DO_TX
 12135 ;;		_I2C1_DO_RX
 12136 ;;		_I2C1_DO_TX_EMPTY
 12137 ;;		_I2C1_DO_ADDRESS_NACK
 12138 ;;		_I2C1_DO_RX_EMPTY
 12139 ;; This function uses a non-reentrant model
 12140 ;;
 12141                           
 12142                           
 12143                           ;psect for function _wr1RegCompleteHandler@i2c1_master_example$F160
 12144  0BA5                     _wr1RegCompleteHandler@i2c1_master_example$F160:
 12145  0BA5                     l5580:	
 12146                           ;incstack = 0
 12147                           ; Regs used in _wr1RegCompleteHandler@i2c1_master_example$F160: [wreg+fsr1l+fsr1h+status
      +                          ,2+status,0+pclath+cstack]
 12148                           
 12149                           
 12150                           ;mcc_generated_files/examples/i2c1_master_example.c: 156: static i2c1_operations_t wr1Re
      +                          gCompleteHandler(void *ptr);mcc_generated_files/examples/i2c1_master_example.c: 157: {;m
      +                          cc_generated_files/examples/i2c1_master_example.c: 158:     I2C1_SetBuffer(ptr,1);
 12151  0BA5  087A               	movf	wr1RegCompleteHandler@i2c1_master_example$F160@ptr,w
 12152  0BA6  00F1               	movwf	I2C1_SetBuffer@buffer
 12153  0BA7  39FF               	andlw	255
 12154  0BA8  1D03               	skipz
 12155  0BA9  3000               	movlw	0
 12156  0BAA  00F2               	movwf	I2C1_SetBuffer@buffer+1
 12157  0BAB  3001               	movlw	1
 12158  0BAC  00F3               	movwf	I2C1_SetBuffer@bufferSize
 12159  0BAD  3000               	movlw	0
 12160  0BAE  00F4               	movwf	I2C1_SetBuffer@bufferSize+1
 12161  0BAF  318A  22EC  318B   	fcall	_I2C1_SetBuffer
 12162  0BB2                     l5582:
 12163                           
 12164                           ;mcc_generated_files/examples/i2c1_master_example.c: 159:     I2C1_SetDataCompleteCallba
      +                          ck(((void*)0),((void*)0));
 12165  0BB2  3000               	movlw	0
 12166  0BB3  00F6               	movwf	I2C1_SetDataCompleteCallback@cb
 12167  0BB4  00F7               	movwf	I2C1_SetDataCompleteCallback@cb+1
 12168  0BB5  01F8               	clrf	I2C1_SetDataCompleteCallback@ptr
 12169  0BB6  318A  22B8  318B   	fcall	_I2C1_SetDataCompleteCallback
 12170  0BB9                     l5584:
 12171                           
 12172                           ;mcc_generated_files/examples/i2c1_master_example.c: 160:     return I2C1_CONTINUE;
 12173  0BB9  3004               	movlw	4
 12174  0BBA                     l191:
 12175  0BBA  0008               	return
 12176  0BBB                     __end_of_wr1RegCompleteHandler@i2c1_master_example$F160:
 12177                           
 12178                           	psect	text78
 12179  0B8F                     __ptext78:	
 12180 ;; *************** function _rd2RegCompleteHandler@i2c1_master_example$F154 *****************
 12181 ;; Defined at:
 12182 ;;		line 149 in file "mcc_generated_files/examples/i2c1_master_example.c"
 12183 ;; Parameters:    Size  Location     Type
 12184 ;;  ptr             1   10[COMMON] PTR void 
 12185 ;;		 -> I2C1_ReadDataBlock@bufferBlock(3), I2C1_Write2ByteRegister@data(2), I2C1_Write1ByteRegister@data(1), I2C1_Read2B
      +yteRegister@returnValue(2), 
 12186 ;;		 -> I2C1_Read1ByteRegister@returnValue(1), i2c_readDataBlock@d(3), i2c_write2ByteRegister@data(2), i2c_read2ByteRegi
      +ster@result(2), 
 12187 ;;		 -> i2c_read1ByteRegister@d2(1), i2c_write1ByteRegister@data(1), NULL(0), 
 12188 ;; Auto vars:     Size  Location     Type
 12189 ;;		None
 12190 ;; Return value:  Size  Location     Type
 12191 ;;                  1    wreg      enum E360
 12192 ;; Registers used:
 12193 ;;		wreg, fsr1l, fsr1h, status,2, status,0, pclath, cstack
 12194 ;; Tracked objects:
 12195 ;;		On entry : 0/0
 12196 ;;		On exit  : 0/0
 12197 ;;		Unchanged: 0/0
 12198 ;; Data sizes:     COMMON   BANK0   BANK1   BANK2   BANK3   BANK4   BANK5   BANK6   BANK7   BANK8   BANK9  BANK10  BANK1
      +1  BANK12  BANK13  BANK14  BANK15  BANK16  BANK17  BANK18  BANK19  BANK20  BANK21  BANK22  BANK23  BANK24  BANK25
 12199 ;;      Params:         1       0       0       0       0       0       0       0       0       0       0       0       
      +0       0       0       0       0       0       0       0       0       0       0       0       0       0       0
 12200 ;;      Locals:         0       0       0       0       0       0       0       0       0       0       0       0       
      +0       0       0       0       0       0       0       0       0       0       0       0       0       0       0
 12201 ;;      Temps:          0       0       0       0       0       0       0       0       0       0       0       0       
      +0       0       0       0       0       0       0       0       0       0       0       0       0       0       0
 12202 ;;      Totals:         1       0       0       0       0       0       0       0       0       0       0       0       
      +0       0       0       0       0       0       0       0       0       0       0       0       0       0       0
 12203 ;;Total ram usage:        1 bytes
 12204 ;; Hardware stack levels used: 1
 12205 ;; Hardware stack levels required when called: 6
 12206 ;; This function calls:
 12207 ;;		_I2C1_SetBuffer
 12208 ;;		_I2C1_SetDataCompleteCallback
 12209 ;; This function is called by:
 12210 ;;		_I2C1_Read2ByteRegister
 12211 ;;		_I2C1_DO_TX
 12212 ;;		_I2C1_DO_RX
 12213 ;;		_I2C1_DO_TX_EMPTY
 12214 ;;		_I2C1_DO_ADDRESS_NACK
 12215 ;;		_I2C1_DO_RX_EMPTY
 12216 ;; This function uses a non-reentrant model
 12217 ;;
 12218                           
 12219                           
 12220                           ;psect for function _rd2RegCompleteHandler@i2c1_master_example$F154
 12221  0B8F                     _rd2RegCompleteHandler@i2c1_master_example$F154:
 12222  0B8F                     l5572:	
 12223                           ;incstack = 0
 12224                           ; Regs used in _rd2RegCompleteHandler@i2c1_master_example$F154: [wreg+fsr1l+fsr1h+status
      +                          ,2+status,0+pclath+cstack]
 12225                           
 12226                           
 12227                           ;mcc_generated_files/examples/i2c1_master_example.c: 149: static i2c1_operations_t rd2Re
      +                          gCompleteHandler(void *ptr);mcc_generated_files/examples/i2c1_master_example.c: 150: {;m
      +                          cc_generated_files/examples/i2c1_master_example.c: 151:     I2C1_SetBuffer(ptr,2);
 12228  0B8F  087A               	movf	rd2RegCompleteHandler@i2c1_master_example$F154@ptr,w
 12229  0B90  00F1               	movwf	I2C1_SetBuffer@buffer
 12230  0B91  39FF               	andlw	255
 12231  0B92  1D03               	skipz
 12232  0B93  3000               	movlw	0
 12233  0B94  00F2               	movwf	I2C1_SetBuffer@buffer+1
 12234  0B95  3002               	movlw	2
 12235  0B96  00F3               	movwf	I2C1_SetBuffer@bufferSize
 12236  0B97  3000               	movlw	0
 12237  0B98  00F4               	movwf	I2C1_SetBuffer@bufferSize+1
 12238  0B99  318A  22EC  318B   	fcall	_I2C1_SetBuffer
 12239  0B9C                     l5574:
 12240                           
 12241                           ;mcc_generated_files/examples/i2c1_master_example.c: 152:     I2C1_SetDataCompleteCallba
      +                          ck(((void*)0),((void*)0));
 12242  0B9C  3000               	movlw	0
 12243  0B9D  00F6               	movwf	I2C1_SetDataCompleteCallback@cb
 12244  0B9E  00F7               	movwf	I2C1_SetDataCompleteCallback@cb+1
 12245  0B9F  01F8               	clrf	I2C1_SetDataCompleteCallback@ptr
 12246  0BA0  318A  22B8  318B   	fcall	_I2C1_SetDataCompleteCallback
 12247  0BA3                     l5576:
 12248                           
 12249                           ;mcc_generated_files/examples/i2c1_master_example.c: 153:     return I2C1_RESTART_READ;
 12250  0BA3  3002               	movlw	2
 12251  0BA4                     l188:
 12252  0BA4  0008               	return
 12253  0BA5                     __end_of_rd2RegCompleteHandler@i2c1_master_example$F154:
 12254                           
 12255                           	psect	text79
 12256  0B79                     __ptext79:	
 12257 ;; *************** function _rd1RegCompleteHandler@i2c1_master_example$F143 *****************
 12258 ;; Defined at:
 12259 ;;		line 142 in file "mcc_generated_files/examples/i2c1_master_example.c"
 12260 ;; Parameters:    Size  Location     Type
 12261 ;;  ptr             1   10[COMMON] PTR void 
 12262 ;;		 -> I2C1_ReadDataBlock@bufferBlock(3), I2C1_Write2ByteRegister@data(2), I2C1_Write1ByteRegister@data(1), I2C1_Read2B
      +yteRegister@returnValue(2), 
 12263 ;;		 -> I2C1_Read1ByteRegister@returnValue(1), i2c_readDataBlock@d(3), i2c_write2ByteRegister@data(2), i2c_read2ByteRegi
      +ster@result(2), 
 12264 ;;		 -> i2c_read1ByteRegister@d2(1), i2c_write1ByteRegister@data(1), NULL(0), 
 12265 ;; Auto vars:     Size  Location     Type
 12266 ;;		None
 12267 ;; Return value:  Size  Location     Type
 12268 ;;                  1    wreg      enum E360
 12269 ;; Registers used:
 12270 ;;		wreg, fsr1l, fsr1h, status,2, status,0, pclath, cstack
 12271 ;; Tracked objects:
 12272 ;;		On entry : 0/0
 12273 ;;		On exit  : 0/0
 12274 ;;		Unchanged: 0/0
 12275 ;; Data sizes:     COMMON   BANK0   BANK1   BANK2   BANK3   BANK4   BANK5   BANK6   BANK7   BANK8   BANK9  BANK10  BANK1
      +1  BANK12  BANK13  BANK14  BANK15  BANK16  BANK17  BANK18  BANK19  BANK20  BANK21  BANK22  BANK23  BANK24  BANK25
 12276 ;;      Params:         1       0       0       0       0       0       0       0       0       0       0       0       
      +0       0       0       0       0       0       0       0       0       0       0       0       0       0       0
 12277 ;;      Locals:         0       0       0       0       0       0       0       0       0       0       0       0       
      +0       0       0       0       0       0       0       0       0       0       0       0       0       0       0
 12278 ;;      Temps:          0       0       0       0       0       0       0       0       0       0       0       0       
      +0       0       0       0       0       0       0       0       0       0       0       0       0       0       0
 12279 ;;      Totals:         1       0       0       0       0       0       0       0       0       0       0       0       
      +0       0       0       0       0       0       0       0       0       0       0       0       0       0       0
 12280 ;;Total ram usage:        1 bytes
 12281 ;; Hardware stack levels used: 1
 12282 ;; Hardware stack levels required when called: 6
 12283 ;; This function calls:
 12284 ;;		_I2C1_SetBuffer
 12285 ;;		_I2C1_SetDataCompleteCallback
 12286 ;; This function is called by:
 12287 ;;		_I2C1_Read1ByteRegister
 12288 ;;		_I2C1_DO_TX
 12289 ;;		_I2C1_DO_RX
 12290 ;;		_I2C1_DO_TX_EMPTY
 12291 ;;		_I2C1_DO_ADDRESS_NACK
 12292 ;;		_I2C1_DO_RX_EMPTY
 12293 ;; This function uses a non-reentrant model
 12294 ;;
 12295                           
 12296                           
 12297                           ;psect for function _rd1RegCompleteHandler@i2c1_master_example$F143
 12298  0B79                     _rd1RegCompleteHandler@i2c1_master_example$F143:
 12299  0B79                     l5564:	
 12300                           ;incstack = 0
 12301                           ; Regs used in _rd1RegCompleteHandler@i2c1_master_example$F143: [wreg+fsr1l+fsr1h+status
      +                          ,2+status,0+pclath+cstack]
 12302                           
 12303                           
 12304                           ;mcc_generated_files/examples/i2c1_master_example.c: 142: static i2c1_operations_t rd1Re
      +                          gCompleteHandler(void *ptr);mcc_generated_files/examples/i2c1_master_example.c: 143: {;m
      +                          cc_generated_files/examples/i2c1_master_example.c: 144:     I2C1_SetBuffer(ptr,1);
 12305  0B79  087A               	movf	rd1RegCompleteHandler@i2c1_master_example$F143@ptr,w
 12306  0B7A  00F1               	movwf	I2C1_SetBuffer@buffer
 12307  0B7B  39FF               	andlw	255
 12308  0B7C  1D03               	skipz
 12309  0B7D  3000               	movlw	0
 12310  0B7E  00F2               	movwf	I2C1_SetBuffer@buffer+1
 12311  0B7F  3001               	movlw	1
 12312  0B80  00F3               	movwf	I2C1_SetBuffer@bufferSize
 12313  0B81  3000               	movlw	0
 12314  0B82  00F4               	movwf	I2C1_SetBuffer@bufferSize+1
 12315  0B83  318A  22EC  318B   	fcall	_I2C1_SetBuffer
 12316  0B86                     l5566:
 12317                           
 12318                           ;mcc_generated_files/examples/i2c1_master_example.c: 145:     I2C1_SetDataCompleteCallba
      +                          ck(((void*)0),((void*)0));
 12319  0B86  3000               	movlw	0
 12320  0B87  00F6               	movwf	I2C1_SetDataCompleteCallback@cb
 12321  0B88  00F7               	movwf	I2C1_SetDataCompleteCallback@cb+1
 12322  0B89  01F8               	clrf	I2C1_SetDataCompleteCallback@ptr
 12323  0B8A  318A  22B8  318B   	fcall	_I2C1_SetDataCompleteCallback
 12324  0B8D                     l5568:
 12325                           
 12326                           ;mcc_generated_files/examples/i2c1_master_example.c: 146:     return I2C1_RESTART_READ;
 12327  0B8D  3002               	movlw	2
 12328  0B8E                     l185:
 12329  0B8E  0008               	return
 12330  0B8F                     __end_of_rd1RegCompleteHandler@i2c1_master_example$F143:
 12331                           
 12332                           	psect	text80
 12333  0C4F                     __ptext80:	
 12334 ;; *************** function _rdBlkRegCompleteHandler *****************
 12335 ;; Defined at:
 12336 ;;		line 185 in file "mcc_generated_files/drivers/i2c_simple_master.c"
 12337 ;; Parameters:    Size  Location     Type
 12338 ;;  p               1   10[COMMON] PTR void 
 12339 ;;		 -> I2C1_ReadDataBlock@bufferBlock(3), I2C1_Write2ByteRegister@data(2), I2C1_Write1ByteRegister@data(1), I2C1_Read2B
      +yteRegister@returnValue(2), 
 12340 ;;		 -> I2C1_Read1ByteRegister@returnValue(1), i2c_readDataBlock@d(3), i2c_write2ByteRegister@data(2), i2c_read2ByteRegi
      +ster@result(2), 
 12341 ;;		 -> i2c_read1ByteRegister@d2(1), i2c_write1ByteRegister@data(1), NULL(0), 
 12342 ;; Auto vars:     Size  Location     Type
 12343 ;;		None
 12344 ;; Return value:  Size  Location     Type
 12345 ;;                  1    wreg      enum E360
 12346 ;; Registers used:
 12347 ;;		wreg, fsr1l, fsr1h, status,2, status,0, pclath, cstack
 12348 ;; Tracked objects:
 12349 ;;		On entry : 0/0
 12350 ;;		On exit  : 0/0
 12351 ;;		Unchanged: 0/0
 12352 ;; Data sizes:     COMMON   BANK0   BANK1   BANK2   BANK3   BANK4   BANK5   BANK6   BANK7   BANK8   BANK9  BANK10  BANK1
      +1  BANK12  BANK13  BANK14  BANK15  BANK16  BANK17  BANK18  BANK19  BANK20  BANK21  BANK22  BANK23  BANK24  BANK25
 12353 ;;      Params:         1       0       0       0       0       0       0       0       0       0       0       0       
      +0       0       0       0       0       0       0       0       0       0       0       0       0       0       0
 12354 ;;      Locals:         0       0       0       0       0       0       0       0       0       0       0       0       
      +0       0       0       0       0       0       0       0       0       0       0       0       0       0       0
 12355 ;;      Temps:          0       0       0       0       0       0       0       0       0       0       0       0       
      +0       0       0       0       0       0       0       0       0       0       0       0       0       0       0
 12356 ;;      Totals:         1       0       0       0       0       0       0       0       0       0       0       0       
      +0       0       0       0       0       0       0       0       0       0       0       0       0       0       0
 12357 ;;Total ram usage:        1 bytes
 12358 ;; Hardware stack levels used: 1
 12359 ;; Hardware stack levels required when called: 6
 12360 ;; This function calls:
 12361 ;;		_I2C1_SetBuffer
 12362 ;;		_I2C1_SetDataCompleteCallback
 12363 ;; This function is called by:
 12364 ;;		_i2c_readDataBlock
 12365 ;;		_I2C1_DO_TX
 12366 ;;		_I2C1_DO_RX
 12367 ;;		_I2C1_DO_TX_EMPTY
 12368 ;;		_I2C1_DO_ADDRESS_NACK
 12369 ;;		_I2C1_DO_RX_EMPTY
 12370 ;; This function uses a non-reentrant model
 12371 ;;
 12372                           
 12373                           
 12374                           ;psect for function _rdBlkRegCompleteHandler
 12375  0C4F                     _rdBlkRegCompleteHandler:
 12376  0C4F                     l5558:	
 12377                           ;incstack = 0
 12378                           ; Regs used in _rdBlkRegCompleteHandler: [wreg+fsr1l+fsr1h+status,2+status,0+pclath+csta
      +                          ck]
 12379                           
 12380                           
 12381                           ;mcc_generated_files/drivers/i2c_simple_master.c: 185: static i2c1_operations_t rdBlkReg
      +                          CompleteHandler(void *p);mcc_generated_files/drivers/i2c_simple_master.c: 186: {;mcc_gen
      +                          erated_files/drivers/i2c_simple_master.c: 187:     I2C1_SetBuffer(((buf_t *)p)->data,((b
      +                          uf_t*)p)->len);
 12382  0C4F  087A               	movf	rdBlkRegCompleteHandler@p,w
 12383  0C50  3E02               	addlw	2
 12384  0C51  0086               	movwf	6
 12385  0C52  0187               	clrf	7
 12386  0C53  0801               	movf	1,w
 12387  0C54  00F1               	movwf	I2C1_SetBuffer@buffer
 12388  0C55  3000               	movlw	0
 12389  0C56  00F2               	movwf	I2C1_SetBuffer@buffer+1
 12390  0C57  087A               	movf	rdBlkRegCompleteHandler@p,w
 12391  0C58  0086               	movwf	6
 12392  0C59  0187               	clrf	7
 12393  0C5A  3F40               	moviw [0]fsr1
 12394  0C5B  00F3               	movwf	I2C1_SetBuffer@bufferSize
 12395  0C5C  3F41               	moviw [1]fsr1
 12396  0C5D  00F4               	movwf	I2C1_SetBuffer@bufferSize+1
 12397  0C5E  318A  22EC  318C   	fcall	_I2C1_SetBuffer
 12398                           
 12399                           ;mcc_generated_files/drivers/i2c_simple_master.c: 188:     I2C1_SetDataCompleteCallback(
      +                          ((void*)0),((void*)0));
 12400  0C61  3000               	movlw	0
 12401  0C62  00F6               	movwf	I2C1_SetDataCompleteCallback@cb
 12402  0C63  00F7               	movwf	I2C1_SetDataCompleteCallback@cb+1
 12403  0C64  01F8               	clrf	I2C1_SetDataCompleteCallback@ptr
 12404  0C65  318A  22B8  318C   	fcall	_I2C1_SetDataCompleteCallback
 12405  0C68                     l5560:
 12406                           
 12407                           ;mcc_generated_files/drivers/i2c_simple_master.c: 189:     return I2C1_RESTART_READ;
 12408  0C68  3002               	movlw	2
 12409  0C69                     l77:
 12410  0C69  0008               	return
 12411  0C6A                     __end_of_rdBlkRegCompleteHandler:
 12412                           
 12413                           	psect	text81
 12414  0B63                     __ptext81:	
 12415 ;; *************** function _wr2RegCompleteHandler *****************
 12416 ;; Defined at:
 12417 ;;		line 151 in file "mcc_generated_files/drivers/i2c_simple_master.c"
 12418 ;; Parameters:    Size  Location     Type
 12419 ;;  p               1   10[COMMON] PTR void 
 12420 ;;		 -> I2C1_ReadDataBlock@bufferBlock(3), I2C1_Write2ByteRegister@data(2), I2C1_Write1ByteRegister@data(1), I2C1_Read2B
      +yteRegister@returnValue(2), 
 12421 ;;		 -> I2C1_Read1ByteRegister@returnValue(1), i2c_readDataBlock@d(3), i2c_write2ByteRegister@data(2), i2c_read2ByteRegi
      +ster@result(2), 
 12422 ;;		 -> i2c_read1ByteRegister@d2(1), i2c_write1ByteRegister@data(1), NULL(0), 
 12423 ;; Auto vars:     Size  Location     Type
 12424 ;;		None
 12425 ;; Return value:  Size  Location     Type
 12426 ;;                  1    wreg      enum E360
 12427 ;; Registers used:
 12428 ;;		wreg, fsr1l, fsr1h, status,2, status,0, pclath, cstack
 12429 ;; Tracked objects:
 12430 ;;		On entry : 0/0
 12431 ;;		On exit  : 0/0
 12432 ;;		Unchanged: 0/0
 12433 ;; Data sizes:     COMMON   BANK0   BANK1   BANK2   BANK3   BANK4   BANK5   BANK6   BANK7   BANK8   BANK9  BANK10  BANK1
      +1  BANK12  BANK13  BANK14  BANK15  BANK16  BANK17  BANK18  BANK19  BANK20  BANK21  BANK22  BANK23  BANK24  BANK25
 12434 ;;      Params:         1       0       0       0       0       0       0       0       0       0       0       0       
      +0       0       0       0       0       0       0       0       0       0       0       0       0       0       0
 12435 ;;      Locals:         0       0       0       0       0       0       0       0       0       0       0       0       
      +0       0       0       0       0       0       0       0       0       0       0       0       0       0       0
 12436 ;;      Temps:          0       0       0       0       0       0       0       0       0       0       0       0       
      +0       0       0       0       0       0       0       0       0       0       0       0       0       0       0
 12437 ;;      Totals:         1       0       0       0       0       0       0       0       0       0       0       0       
      +0       0       0       0       0       0       0       0       0       0       0       0       0       0       0
 12438 ;;Total ram usage:        1 bytes
 12439 ;; Hardware stack levels used: 1
 12440 ;; Hardware stack levels required when called: 6
 12441 ;; This function calls:
 12442 ;;		_I2C1_SetBuffer
 12443 ;;		_I2C1_SetDataCompleteCallback
 12444 ;; This function is called by:
 12445 ;;		_i2c_write2ByteRegister
 12446 ;;		_I2C1_DO_TX
 12447 ;;		_I2C1_DO_RX
 12448 ;;		_I2C1_DO_TX_EMPTY
 12449 ;;		_I2C1_DO_ADDRESS_NACK
 12450 ;;		_I2C1_DO_RX_EMPTY
 12451 ;; This function uses a non-reentrant model
 12452 ;;
 12453                           
 12454                           
 12455                           ;psect for function _wr2RegCompleteHandler
 12456  0B63                     _wr2RegCompleteHandler:
 12457  0B63                     l5550:	
 12458                           ;incstack = 0
 12459                           ; Regs used in _wr2RegCompleteHandler: [wreg+fsr1l+fsr1h+status,2+status,0+pclath+cstack
      +                          ]
 12460                           
 12461                           
 12462                           ;mcc_generated_files/drivers/i2c_simple_master.c: 151: static i2c1_operations_t wr2RegCo
      +                          mpleteHandler(void *p);mcc_generated_files/drivers/i2c_simple_master.c: 152: {;mcc_gener
      +                          ated_files/drivers/i2c_simple_master.c: 153:     I2C1_SetBuffer(p,2);
 12463  0B63  087A               	movf	wr2RegCompleteHandler@p,w
 12464  0B64  00F1               	movwf	I2C1_SetBuffer@buffer
 12465  0B65  39FF               	andlw	255
 12466  0B66  1D03               	skipz
 12467  0B67  3000               	movlw	0
 12468  0B68  00F2               	movwf	I2C1_SetBuffer@buffer+1
 12469  0B69  3002               	movlw	2
 12470  0B6A  00F3               	movwf	I2C1_SetBuffer@bufferSize
 12471  0B6B  3000               	movlw	0
 12472  0B6C  00F4               	movwf	I2C1_SetBuffer@bufferSize+1
 12473  0B6D  318A  22EC  318B   	fcall	_I2C1_SetBuffer
 12474  0B70                     l5552:
 12475                           
 12476                           ;mcc_generated_files/drivers/i2c_simple_master.c: 154:     I2C1_SetDataCompleteCallback(
      +                          ((void*)0),((void*)0));
 12477  0B70  3000               	movlw	0
 12478  0B71  00F6               	movwf	I2C1_SetDataCompleteCallback@cb
 12479  0B72  00F7               	movwf	I2C1_SetDataCompleteCallback@cb+1
 12480  0B73  01F8               	clrf	I2C1_SetDataCompleteCallback@ptr
 12481  0B74  318A  22B8  318B   	fcall	_I2C1_SetDataCompleteCallback
 12482  0B77                     l5554:
 12483                           
 12484                           ;mcc_generated_files/drivers/i2c_simple_master.c: 155:     return I2C1_CONTINUE;
 12485  0B77  3004               	movlw	4
 12486  0B78                     l65:
 12487  0B78  0008               	return
 12488  0B79                     __end_of_wr2RegCompleteHandler:
 12489                           
 12490                           	psect	text82
 12491  0B4D                     __ptext82:	
 12492 ;; *************** function _rd2RegCompleteHandler *****************
 12493 ;; Defined at:
 12494 ;;		line 119 in file "mcc_generated_files/drivers/i2c_simple_master.c"
 12495 ;; Parameters:    Size  Location     Type
 12496 ;;  p               1   10[COMMON] PTR void 
 12497 ;;		 -> I2C1_ReadDataBlock@bufferBlock(3), I2C1_Write2ByteRegister@data(2), I2C1_Write1ByteRegister@data(1), I2C1_Read2B
      +yteRegister@returnValue(2), 
 12498 ;;		 -> I2C1_Read1ByteRegister@returnValue(1), i2c_readDataBlock@d(3), i2c_write2ByteRegister@data(2), i2c_read2ByteRegi
      +ster@result(2), 
 12499 ;;		 -> i2c_read1ByteRegister@d2(1), i2c_write1ByteRegister@data(1), NULL(0), 
 12500 ;; Auto vars:     Size  Location     Type
 12501 ;;		None
 12502 ;; Return value:  Size  Location     Type
 12503 ;;                  1    wreg      enum E360
 12504 ;; Registers used:
 12505 ;;		wreg, fsr1l, fsr1h, status,2, status,0, pclath, cstack
 12506 ;; Tracked objects:
 12507 ;;		On entry : 0/0
 12508 ;;		On exit  : 0/0
 12509 ;;		Unchanged: 0/0
 12510 ;; Data sizes:     COMMON   BANK0   BANK1   BANK2   BANK3   BANK4   BANK5   BANK6   BANK7   BANK8   BANK9  BANK10  BANK1
      +1  BANK12  BANK13  BANK14  BANK15  BANK16  BANK17  BANK18  BANK19  BANK20  BANK21  BANK22  BANK23  BANK24  BANK25
 12511 ;;      Params:         1       0       0       0       0       0       0       0       0       0       0       0       
      +0       0       0       0       0       0       0       0       0       0       0       0       0       0       0
 12512 ;;      Locals:         0       0       0       0       0       0       0       0       0       0       0       0       
      +0       0       0       0       0       0       0       0       0       0       0       0       0       0       0
 12513 ;;      Temps:          0       0       0       0       0       0       0       0       0       0       0       0       
      +0       0       0       0       0       0       0       0       0       0       0       0       0       0       0
 12514 ;;      Totals:         1       0       0       0       0       0       0       0       0       0       0       0       
      +0       0       0       0       0       0       0       0       0       0       0       0       0       0       0
 12515 ;;Total ram usage:        1 bytes
 12516 ;; Hardware stack levels used: 1
 12517 ;; Hardware stack levels required when called: 6
 12518 ;; This function calls:
 12519 ;;		_I2C1_SetBuffer
 12520 ;;		_I2C1_SetDataCompleteCallback
 12521 ;; This function is called by:
 12522 ;;		_i2c_read2ByteRegister
 12523 ;;		_I2C1_DO_TX
 12524 ;;		_I2C1_DO_RX
 12525 ;;		_I2C1_DO_TX_EMPTY
 12526 ;;		_I2C1_DO_ADDRESS_NACK
 12527 ;;		_I2C1_DO_RX_EMPTY
 12528 ;; This function uses a non-reentrant model
 12529 ;;
 12530                           
 12531                           
 12532                           ;psect for function _rd2RegCompleteHandler
 12533  0B4D                     _rd2RegCompleteHandler:
 12534  0B4D                     l5542:	
 12535                           ;incstack = 0
 12536                           ; Regs used in _rd2RegCompleteHandler: [wreg+fsr1l+fsr1h+status,2+status,0+pclath+cstack
      +                          ]
 12537                           
 12538                           
 12539                           ;mcc_generated_files/drivers/i2c_simple_master.c: 119: static i2c1_operations_t rd2RegCo
      +                          mpleteHandler(void *p);mcc_generated_files/drivers/i2c_simple_master.c: 120: {;mcc_gener
      +                          ated_files/drivers/i2c_simple_master.c: 121:     I2C1_SetBuffer(p,2);
 12540  0B4D  087A               	movf	rd2RegCompleteHandler@p,w
 12541  0B4E  00F1               	movwf	I2C1_SetBuffer@buffer
 12542  0B4F  39FF               	andlw	255
 12543  0B50  1D03               	skipz
 12544  0B51  3000               	movlw	0
 12545  0B52  00F2               	movwf	I2C1_SetBuffer@buffer+1
 12546  0B53  3002               	movlw	2
 12547  0B54  00F3               	movwf	I2C1_SetBuffer@bufferSize
 12548  0B55  3000               	movlw	0
 12549  0B56  00F4               	movwf	I2C1_SetBuffer@bufferSize+1
 12550  0B57  318A  22EC  318B   	fcall	_I2C1_SetBuffer
 12551  0B5A                     l5544:
 12552                           
 12553                           ;mcc_generated_files/drivers/i2c_simple_master.c: 122:     I2C1_SetDataCompleteCallback(
      +                          ((void*)0),((void*)0));
 12554  0B5A  3000               	movlw	0
 12555  0B5B  00F6               	movwf	I2C1_SetDataCompleteCallback@cb
 12556  0B5C  00F7               	movwf	I2C1_SetDataCompleteCallback@cb+1
 12557  0B5D  01F8               	clrf	I2C1_SetDataCompleteCallback@ptr
 12558  0B5E  318A  22B8  318B   	fcall	_I2C1_SetDataCompleteCallback
 12559  0B61                     l5546:
 12560                           
 12561                           ;mcc_generated_files/drivers/i2c_simple_master.c: 123:     return I2C1_RESTART_READ;
 12562  0B61  3002               	movlw	2
 12563  0B62                     l53:
 12564  0B62  0008               	return
 12565  0B63                     __end_of_rd2RegCompleteHandler:
 12566                           
 12567                           	psect	text83
 12568  0B37                     __ptext83:	
 12569 ;; *************** function _rd1RegCompleteHandler *****************
 12570 ;; Defined at:
 12571 ;;		line 81 in file "mcc_generated_files/drivers/i2c_simple_master.c"
 12572 ;; Parameters:    Size  Location     Type
 12573 ;;  p               1   10[COMMON] PTR void 
 12574 ;;		 -> I2C1_ReadDataBlock@bufferBlock(3), I2C1_Write2ByteRegister@data(2), I2C1_Write1ByteRegister@data(1), I2C1_Read2B
      +yteRegister@returnValue(2), 
 12575 ;;		 -> I2C1_Read1ByteRegister@returnValue(1), i2c_readDataBlock@d(3), i2c_write2ByteRegister@data(2), i2c_read2ByteRegi
      +ster@result(2), 
 12576 ;;		 -> i2c_read1ByteRegister@d2(1), i2c_write1ByteRegister@data(1), NULL(0), 
 12577 ;; Auto vars:     Size  Location     Type
 12578 ;;		None
 12579 ;; Return value:  Size  Location     Type
 12580 ;;                  1    wreg      enum E360
 12581 ;; Registers used:
 12582 ;;		wreg, fsr1l, fsr1h, status,2, status,0, pclath, cstack
 12583 ;; Tracked objects:
 12584 ;;		On entry : 0/0
 12585 ;;		On exit  : 0/0
 12586 ;;		Unchanged: 0/0
 12587 ;; Data sizes:     COMMON   BANK0   BANK1   BANK2   BANK3   BANK4   BANK5   BANK6   BANK7   BANK8   BANK9  BANK10  BANK1
      +1  BANK12  BANK13  BANK14  BANK15  BANK16  BANK17  BANK18  BANK19  BANK20  BANK21  BANK22  BANK23  BANK24  BANK25
 12588 ;;      Params:         1       0       0       0       0       0       0       0       0       0       0       0       
      +0       0       0       0       0       0       0       0       0       0       0       0       0       0       0
 12589 ;;      Locals:         0       0       0       0       0       0       0       0       0       0       0       0       
      +0       0       0       0       0       0       0       0       0       0       0       0       0       0       0
 12590 ;;      Temps:          0       0       0       0       0       0       0       0       0       0       0       0       
      +0       0       0       0       0       0       0       0       0       0       0       0       0       0       0
 12591 ;;      Totals:         1       0       0       0       0       0       0       0       0       0       0       0       
      +0       0       0       0       0       0       0       0       0       0       0       0       0       0       0
 12592 ;;Total ram usage:        1 bytes
 12593 ;; Hardware stack levels used: 1
 12594 ;; Hardware stack levels required when called: 6
 12595 ;; This function calls:
 12596 ;;		_I2C1_SetBuffer
 12597 ;;		_I2C1_SetDataCompleteCallback
 12598 ;; This function is called by:
 12599 ;;		_i2c_read1ByteRegister
 12600 ;;		_I2C1_DO_TX
 12601 ;;		_I2C1_DO_RX
 12602 ;;		_I2C1_DO_TX_EMPTY
 12603 ;;		_I2C1_DO_ADDRESS_NACK
 12604 ;;		_I2C1_DO_RX_EMPTY
 12605 ;; This function uses a non-reentrant model
 12606 ;;
 12607                           
 12608                           
 12609                           ;psect for function _rd1RegCompleteHandler
 12610  0B37                     _rd1RegCompleteHandler:
 12611  0B37                     l5534:	
 12612                           ;incstack = 0
 12613                           ; Regs used in _rd1RegCompleteHandler: [wreg+fsr1l+fsr1h+status,2+status,0+pclath+cstack
      +                          ]
 12614                           
 12615                           
 12616                           ;mcc_generated_files/drivers/i2c_simple_master.c: 81: static i2c1_operations_t rd1RegCom
      +                          pleteHandler(void *p);mcc_generated_files/drivers/i2c_simple_master.c: 82: {;mcc_generat
      +                          ed_files/drivers/i2c_simple_master.c: 83:     I2C1_SetBuffer(p,1);
 12617  0B37  087A               	movf	rd1RegCompleteHandler@p,w
 12618  0B38  00F1               	movwf	I2C1_SetBuffer@buffer
 12619  0B39  39FF               	andlw	255
 12620  0B3A  1D03               	skipz
 12621  0B3B  3000               	movlw	0
 12622  0B3C  00F2               	movwf	I2C1_SetBuffer@buffer+1
 12623  0B3D  3001               	movlw	1
 12624  0B3E  00F3               	movwf	I2C1_SetBuffer@bufferSize
 12625  0B3F  3000               	movlw	0
 12626  0B40  00F4               	movwf	I2C1_SetBuffer@bufferSize+1
 12627  0B41  318A  22EC  318B   	fcall	_I2C1_SetBuffer
 12628  0B44                     l5536:
 12629                           
 12630                           ;mcc_generated_files/drivers/i2c_simple_master.c: 84:     I2C1_SetDataCompleteCallback((
      +                          (void*)0),((void*)0));
 12631  0B44  3000               	movlw	0
 12632  0B45  00F6               	movwf	I2C1_SetDataCompleteCallback@cb
 12633  0B46  00F7               	movwf	I2C1_SetDataCompleteCallback@cb+1
 12634  0B47  01F8               	clrf	I2C1_SetDataCompleteCallback@ptr
 12635  0B48  318A  22B8  318B   	fcall	_I2C1_SetDataCompleteCallback
 12636  0B4B                     l5538:
 12637                           
 12638                           ;mcc_generated_files/drivers/i2c_simple_master.c: 85:     return I2C1_RESTART_READ;
 12639  0B4B  3002               	movlw	2
 12640  0B4C                     l38:
 12641  0B4C  0008               	return
 12642  0B4D                     __end_of_rd1RegCompleteHandler:
 12643                           
 12644                           	psect	text84
 12645  0B21                     __ptext84:	
 12646 ;; *************** function _wr1RegCompleteHandler *****************
 12647 ;; Defined at:
 12648 ;;		line 34 in file "mcc_generated_files/drivers/i2c_simple_master.c"
 12649 ;; Parameters:    Size  Location     Type
 12650 ;;  p               1   10[COMMON] PTR void 
 12651 ;;		 -> I2C1_ReadDataBlock@bufferBlock(3), I2C1_Write2ByteRegister@data(2), I2C1_Write1ByteRegister@data(1), I2C1_Read2B
      +yteRegister@returnValue(2), 
 12652 ;;		 -> I2C1_Read1ByteRegister@returnValue(1), i2c_readDataBlock@d(3), i2c_write2ByteRegister@data(2), i2c_read2ByteRegi
      +ster@result(2), 
 12653 ;;		 -> i2c_read1ByteRegister@d2(1), i2c_write1ByteRegister@data(1), NULL(0), 
 12654 ;; Auto vars:     Size  Location     Type
 12655 ;;		None
 12656 ;; Return value:  Size  Location     Type
 12657 ;;                  1    wreg      enum E360
 12658 ;; Registers used:
 12659 ;;		wreg, fsr1l, fsr1h, status,2, status,0, pclath, cstack
 12660 ;; Tracked objects:
 12661 ;;		On entry : 0/0
 12662 ;;		On exit  : 0/0
 12663 ;;		Unchanged: 0/0
 12664 ;; Data sizes:     COMMON   BANK0   BANK1   BANK2   BANK3   BANK4   BANK5   BANK6   BANK7   BANK8   BANK9  BANK10  BANK1
      +1  BANK12  BANK13  BANK14  BANK15  BANK16  BANK17  BANK18  BANK19  BANK20  BANK21  BANK22  BANK23  BANK24  BANK25
 12665 ;;      Params:         1       0       0       0       0       0       0       0       0       0       0       0       
      +0       0       0       0       0       0       0       0       0       0       0       0       0       0       0
 12666 ;;      Locals:         0       0       0       0       0       0       0       0       0       0       0       0       
      +0       0       0       0       0       0       0       0       0       0       0       0       0       0       0
 12667 ;;      Temps:          0       0       0       0       0       0       0       0       0       0       0       0       
      +0       0       0       0       0       0       0       0       0       0       0       0       0       0       0
 12668 ;;      Totals:         1       0       0       0       0       0       0       0       0       0       0       0       
      +0       0       0       0       0       0       0       0       0       0       0       0       0       0       0
 12669 ;;Total ram usage:        1 bytes
 12670 ;; Hardware stack levels used: 1
 12671 ;; Hardware stack levels required when called: 6
 12672 ;; This function calls:
 12673 ;;		_I2C1_SetBuffer
 12674 ;;		_I2C1_SetDataCompleteCallback
 12675 ;; This function is called by:
 12676 ;;		_i2c_write1ByteRegister
 12677 ;;		_I2C1_DO_TX
 12678 ;;		_I2C1_DO_RX
 12679 ;;		_I2C1_DO_TX_EMPTY
 12680 ;;		_I2C1_DO_ADDRESS_NACK
 12681 ;;		_I2C1_DO_RX_EMPTY
 12682 ;; This function uses a non-reentrant model
 12683 ;;
 12684                           
 12685                           
 12686                           ;psect for function _wr1RegCompleteHandler
 12687  0B21                     _wr1RegCompleteHandler:
 12688  0B21                     l5526:	
 12689                           ;incstack = 0
 12690                           ; Regs used in _wr1RegCompleteHandler: [wreg+fsr1l+fsr1h+status,2+status,0+pclath+cstack
      +                          ]
 12691                           
 12692                           
 12693                           ;mcc_generated_files/drivers/i2c_simple_master.c: 34: static i2c1_operations_t wr1RegCom
      +                          pleteHandler(void *p);mcc_generated_files/drivers/i2c_simple_master.c: 35: {;mcc_generat
      +                          ed_files/drivers/i2c_simple_master.c: 36:     I2C1_SetBuffer(p,1);
 12694  0B21  087A               	movf	wr1RegCompleteHandler@p,w
 12695  0B22  00F1               	movwf	I2C1_SetBuffer@buffer
 12696  0B23  39FF               	andlw	255
 12697  0B24  1D03               	skipz
 12698  0B25  3000               	movlw	0
 12699  0B26  00F2               	movwf	I2C1_SetBuffer@buffer+1
 12700  0B27  3001               	movlw	1
 12701  0B28  00F3               	movwf	I2C1_SetBuffer@bufferSize
 12702  0B29  3000               	movlw	0
 12703  0B2A  00F4               	movwf	I2C1_SetBuffer@bufferSize+1
 12704  0B2B  318A  22EC  318B   	fcall	_I2C1_SetBuffer
 12705  0B2E                     l5528:
 12706                           
 12707                           ;mcc_generated_files/drivers/i2c_simple_master.c: 37:     I2C1_SetDataCompleteCallback((
      +                          (void*)0),((void*)0));
 12708  0B2E  3000               	movlw	0
 12709  0B2F  00F6               	movwf	I2C1_SetDataCompleteCallback@cb
 12710  0B30  00F7               	movwf	I2C1_SetDataCompleteCallback@cb+1
 12711  0B31  01F8               	clrf	I2C1_SetDataCompleteCallback@ptr
 12712  0B32  318A  22B8  318B   	fcall	_I2C1_SetDataCompleteCallback
 12713  0B35                     l5530:
 12714                           
 12715                           ;mcc_generated_files/drivers/i2c_simple_master.c: 38:     return I2C1_CONTINUE;
 12716  0B35  3004               	movlw	4
 12717  0B36                     l17:
 12718  0B36  0008               	return
 12719  0B37                     __end_of_wr1RegCompleteHandler:
 12720                           
 12721                           	psect	text85
 12722  0B0B                     __ptext85:	
 12723 ;; *************** function _wr2RegCompleteHandler@i2c1_master_example$F166 *****************
 12724 ;; Defined at:
 12725 ;;		line 163 in file "mcc_generated_files/examples/i2c1_master_example.c"
 12726 ;; Parameters:    Size  Location     Type
 12727 ;;  ptr             1   10[COMMON] PTR void 
 12728 ;;		 -> I2C1_ReadDataBlock@bufferBlock(3), I2C1_Write2ByteRegister@data(2), I2C1_Write1ByteRegister@data(1), I2C1_Read2B
      +yteRegister@returnValue(2), 
 12729 ;;		 -> I2C1_Read1ByteRegister@returnValue(1), i2c_readDataBlock@d(3), i2c_write2ByteRegister@data(2), i2c_read2ByteRegi
      +ster@result(2), 
 12730 ;;		 -> i2c_read1ByteRegister@d2(1), i2c_write1ByteRegister@data(1), NULL(0), 
 12731 ;; Auto vars:     Size  Location     Type
 12732 ;;		None
 12733 ;; Return value:  Size  Location     Type
 12734 ;;                  1    wreg      enum E360
 12735 ;; Registers used:
 12736 ;;		wreg, fsr1l, fsr1h, status,2, status,0, pclath, cstack
 12737 ;; Tracked objects:
 12738 ;;		On entry : 0/0
 12739 ;;		On exit  : 0/0
 12740 ;;		Unchanged: 0/0
 12741 ;; Data sizes:     COMMON   BANK0   BANK1   BANK2   BANK3   BANK4   BANK5   BANK6   BANK7   BANK8   BANK9  BANK10  BANK1
      +1  BANK12  BANK13  BANK14  BANK15  BANK16  BANK17  BANK18  BANK19  BANK20  BANK21  BANK22  BANK23  BANK24  BANK25
 12742 ;;      Params:         1       0       0       0       0       0       0       0       0       0       0       0       
      +0       0       0       0       0       0       0       0       0       0       0       0       0       0       0
 12743 ;;      Locals:         0       0       0       0       0       0       0       0       0       0       0       0       
      +0       0       0       0       0       0       0       0       0       0       0       0       0       0       0
 12744 ;;      Temps:          0       0       0       0       0       0       0       0       0       0       0       0       
      +0       0       0       0       0       0       0       0       0       0       0       0       0       0       0
 12745 ;;      Totals:         1       0       0       0       0       0       0       0       0       0       0       0       
      +0       0       0       0       0       0       0       0       0       0       0       0       0       0       0
 12746 ;;Total ram usage:        1 bytes
 12747 ;; Hardware stack levels used: 1
 12748 ;; Hardware stack levels required when called: 6
 12749 ;; This function calls:
 12750 ;;		_I2C1_SetBuffer
 12751 ;;		_I2C1_SetDataCompleteCallback
 12752 ;; This function is called by:
 12753 ;;		_I2C1_Write2ByteRegister
 12754 ;;		_I2C1_DO_TX
 12755 ;;		_I2C1_DO_RX
 12756 ;;		_I2C1_DO_TX_EMPTY
 12757 ;;		_I2C1_DO_ADDRESS_NACK
 12758 ;;		_I2C1_DO_RX_EMPTY
 12759 ;; This function uses a non-reentrant model
 12760 ;;
 12761                           
 12762                           
 12763                           ;psect for function _wr2RegCompleteHandler@i2c1_master_example$F166
 12764  0B0B                     _wr2RegCompleteHandler@i2c1_master_example$F166:
 12765  0B0B                     l5588:	
 12766                           ;incstack = 0
 12767                           ; Regs used in _wr2RegCompleteHandler@i2c1_master_example$F166: [wreg+fsr1l+fsr1h+status
      +                          ,2+status,0+pclath+cstack]
 12768                           
 12769                           
 12770                           ;mcc_generated_files/examples/i2c1_master_example.c: 163: static i2c1_operations_t wr2Re
      +                          gCompleteHandler(void *ptr);mcc_generated_files/examples/i2c1_master_example.c: 164: {;m
      +                          cc_generated_files/examples/i2c1_master_example.c: 165:     I2C1_SetBuffer(ptr,2);
 12771  0B0B  087A               	movf	wr2RegCompleteHandler@i2c1_master_example$F166@ptr,w
 12772  0B0C  00F1               	movwf	I2C1_SetBuffer@buffer
 12773  0B0D  39FF               	andlw	255
 12774  0B0E  1D03               	skipz
 12775  0B0F  3000               	movlw	0
 12776  0B10  00F2               	movwf	I2C1_SetBuffer@buffer+1
 12777  0B11  3002               	movlw	2
 12778  0B12  00F3               	movwf	I2C1_SetBuffer@bufferSize
 12779  0B13  3000               	movlw	0
 12780  0B14  00F4               	movwf	I2C1_SetBuffer@bufferSize+1
 12781  0B15  318A  22EC  318B   	fcall	_I2C1_SetBuffer
 12782  0B18                     l5590:
 12783                           
 12784                           ;mcc_generated_files/examples/i2c1_master_example.c: 166:     I2C1_SetDataCompleteCallba
      +                          ck(((void*)0),((void*)0));
 12785  0B18  3000               	movlw	0
 12786  0B19  00F6               	movwf	I2C1_SetDataCompleteCallback@cb
 12787  0B1A  00F7               	movwf	I2C1_SetDataCompleteCallback@cb+1
 12788  0B1B  01F8               	clrf	I2C1_SetDataCompleteCallback@ptr
 12789  0B1C  318A  22B8  318B   	fcall	_I2C1_SetDataCompleteCallback
 12790  0B1F                     l5592:
 12791                           
 12792                           ;mcc_generated_files/examples/i2c1_master_example.c: 167:     return I2C1_CONTINUE;
 12793  0B1F  3004               	movlw	4
 12794  0B20                     l194:
 12795  0B20  0008               	return
 12796  0B21                     __end_of_wr2RegCompleteHandler@i2c1_master_example$F166:
 12797                           
 12798                           	psect	text86
 12799  0AB8                     __ptext86:	
 12800 ;; *************** function _I2C1_SetDataCompleteCallback *****************
 12801 ;; Defined at:
 12802 ;;		line 273 in file "mcc_generated_files/i2c1_master.c"
 12803 ;; Parameters:    Size  Location     Type
 12804 ;;  cb              2    6[COMMON] PTR FTN(PTR void ,)enum 
 12805 ;;		 -> Absolute function(1), rdBlkRegCompleteHandler@i2c1_master_example$F177(1), wr2RegCompleteHandler@i2c1_master_exa
      +mple$F166(1), wr1RegCompleteHandler@i2c1_master_example$F160(1), 
 12806 ;;		 -> rd2RegCompleteHandler@i2c1_master_example$F154(1), rd1RegCompleteHandler@i2c1_master_example$F143(1), rdBlkRegCo
      +mpleteHandler(1), wr2RegCompleteHandler(1), 
 12807 ;;		 -> rd2RegCompleteHandler(1), rd1RegCompleteHandler(1), wr1RegCompleteHandler(1), 
 12808 ;;  ptr             1    8[COMMON] PTR void 
 12809 ;;		 -> I2C1_ReadDataBlock@bufferBlock(3), I2C1_Write2ByteRegister@data(2), I2C1_Write1ByteRegister@data(1), I2C1_Read2B
      +yteRegister@returnValue(2), 
 12810 ;;		 -> I2C1_Read1ByteRegister@returnValue(1), i2c_readDataBlock@d(3), i2c_write2ByteRegister@data(2), i2c_read2ByteRegi
      +ster@result(2), 
 12811 ;;		 -> i2c_read1ByteRegister@d2(1), i2c_write1ByteRegister@data(1), NULL(0), 
 12812 ;; Auto vars:     Size  Location     Type
 12813 ;;		None
 12814 ;; Return value:  Size  Location     Type
 12815 ;;                  1    wreg      void 
 12816 ;; Registers used:
 12817 ;;		wreg, fsr1l, fsr1h, status,2, status,0, pclath, cstack
 12818 ;; Tracked objects:
 12819 ;;		On entry : 0/0
 12820 ;;		On exit  : 0/0
 12821 ;;		Unchanged: 0/0
 12822 ;; Data sizes:     COMMON   BANK0   BANK1   BANK2   BANK3   BANK4   BANK5   BANK6   BANK7   BANK8   BANK9  BANK10  BANK1
      +1  BANK12  BANK13  BANK14  BANK15  BANK16  BANK17  BANK18  BANK19  BANK20  BANK21  BANK22  BANK23  BANK24  BANK25
 12823 ;;      Params:         3       0       0       0       0       0       0       0       0       0       0       0       
      +0       0       0       0       0       0       0       0       0       0       0       0       0       0       0
 12824 ;;      Locals:         0       0       0       0       0       0       0       0       0       0       0       0       
      +0       0       0       0       0       0       0       0       0       0       0       0       0       0       0
 12825 ;;      Temps:          1       0       0       0       0       0       0       0       0       0       0       0       
      +0       0       0       0       0       0       0       0       0       0       0       0       0       0       0
 12826 ;;      Totals:         4       0       0       0       0       0       0       0       0       0       0       0       
      +0       0       0       0       0       0       0       0       0       0       0       0       0       0       0
 12827 ;;Total ram usage:        4 bytes
 12828 ;; Hardware stack levels used: 1
 12829 ;; Hardware stack levels required when called: 5
 12830 ;; This function calls:
 12831 ;;		_I2C1_SetCallback
 12832 ;; This function is called by:
 12833 ;;		_wr1RegCompleteHandler
 12834 ;;		_rd1RegCompleteHandler
 12835 ;;		_rd2RegCompleteHandler
 12836 ;;		_wr2RegCompleteHandler
 12837 ;;		_rdBlkRegCompleteHandler
 12838 ;;		_rd1RegCompleteHandler@i2c1_master_example$F143
 12839 ;;		_rd2RegCompleteHandler@i2c1_master_example$F154
 12840 ;;		_wr1RegCompleteHandler@i2c1_master_example$F160
 12841 ;;		_wr2RegCompleteHandler@i2c1_master_example$F166
 12842 ;;		_rdBlkRegCompleteHandler@i2c1_master_example$F177
 12843 ;;		_i2c_write1ByteRegister
 12844 ;;		_i2c_read1ByteRegister
 12845 ;;		_i2c_read2ByteRegister
 12846 ;;		_i2c_write2ByteRegister
 12847 ;;		_i2c_readDataBlock
 12848 ;;		_I2C1_Read1ByteRegister
 12849 ;;		_I2C1_Read2ByteRegister
 12850 ;;		_I2C1_Write1ByteRegister
 12851 ;;		_I2C1_Write2ByteRegister
 12852 ;;		_I2C1_ReadDataBlock
 12853 ;; This function uses a non-reentrant model
 12854 ;;
 12855                           
 12856                           
 12857                           ;psect for function _I2C1_SetDataCompleteCallback
 12858  0AB8                     _I2C1_SetDataCompleteCallback:
 12859  0AB8                     l5518:	
 12860                           ;incstack = 0
 12861                           ; Regs used in _I2C1_SetDataCompleteCallback: [wreg+fsr1l+fsr1h+status,2+status,0+pclath
      +                          +cstack]
 12862                           
 12863                           
 12864                           ;mcc_generated_files/i2c1_master.c: 273: void I2C1_SetDataCompleteCallback(i2c1_callback
      +                          _t cb, void *ptr);mcc_generated_files/i2c1_master.c: 274: {;mcc_generated_files/i2c1_mas
      +                          ter.c: 275:     I2C1_SetCallback(I2C1_DATA_COMPLETE, cb, ptr);
 12865  0AB8  0877               	movf	I2C1_SetDataCompleteCallback@cb+1,w
 12866  0AB9  00F2               	movwf	I2C1_SetCallback@cb+1
 12867  0ABA  0876               	movf	I2C1_SetDataCompleteCallback@cb,w
 12868  0ABB  00F1               	movwf	I2C1_SetCallback@cb
 12869  0ABC  0878               	movf	I2C1_SetDataCompleteCallback@ptr,w
 12870  0ABD  00F9               	movwf	??_I2C1_SetDataCompleteCallback
 12871  0ABE  0879               	movf	??_I2C1_SetDataCompleteCallback,w
 12872  0ABF  00F3               	movwf	I2C1_SetCallback@ptr
 12873  0AC0  3000               	movlw	0
 12874  0AC1  318E  261E  318A   	fcall	_I2C1_SetCallback
 12875  0AC4                     l332:
 12876  0AC4  0008               	return
 12877  0AC5                     __end_of_I2C1_SetDataCompleteCallback:
 12878                           
 12879                           	psect	text87
 12880  0E1E                     __ptext87:	
 12881 ;; *************** function _I2C1_SetCallback *****************
 12882 ;; Defined at:
 12883 ;;		line 298 in file "mcc_generated_files/i2c1_master.c"
 12884 ;; Parameters:    Size  Location     Type
 12885 ;;  idx             1    wreg     enum E8137
 12886 ;;  cb              2    1[COMMON] PTR FTN(PTR void ,)enum 
 12887 ;;		 -> Absolute function(1), rdBlkRegCompleteHandler@i2c1_master_example$F177(1), wr2RegCompleteHandler@i2c1_master_exa
      +mple$F166(1), wr1RegCompleteHandler@i2c1_master_example$F160(1), 
 12888 ;;		 -> rd2RegCompleteHandler@i2c1_master_example$F154(1), rd1RegCompleteHandler@i2c1_master_example$F143(1), rdBlkRegCo
      +mpleteHandler(1), wr2RegCompleteHandler(1), 
 12889 ;;		 -> rd2RegCompleteHandler(1), rd1RegCompleteHandler(1), wr1RegCompleteHandler(1), 
 12890 ;;  ptr             1    3[COMMON] PTR void 
 12891 ;;		 -> I2C1_ReadDataBlock@bufferBlock(3), I2C1_Write2ByteRegister@data(2), I2C1_Write1ByteRegister@data(1), I2C1_Read2B
      +yteRegister@returnValue(2), 
 12892 ;;		 -> I2C1_Read1ByteRegister@returnValue(1), i2c_readDataBlock@d(3), i2c_write2ByteRegister@data(2), i2c_read2ByteRegi
      +ster@result(2), 
 12893 ;;		 -> i2c_read1ByteRegister@d2(1), i2c_write1ByteRegister@data(1), NULL(0), 
 12894 ;; Auto vars:     Size  Location     Type
 12895 ;;  idx             1    5[COMMON] enum E8137
 12896 ;; Return value:  Size  Location     Type
 12897 ;;                  1    wreg      void 
 12898 ;; Registers used:
 12899 ;;		wreg, fsr1l, fsr1h, status,2, status,0
 12900 ;; Tracked objects:
 12901 ;;		On entry : 0/0
 12902 ;;		On exit  : 0/0
 12903 ;;		Unchanged: 0/0
 12904 ;; Data sizes:     COMMON   BANK0   BANK1   BANK2   BANK3   BANK4   BANK5   BANK6   BANK7   BANK8   BANK9  BANK10  BANK1
      +1  BANK12  BANK13  BANK14  BANK15  BANK16  BANK17  BANK18  BANK19  BANK20  BANK21  BANK22  BANK23  BANK24  BANK25
 12905 ;;      Params:         3       0       0       0       0       0       0       0       0       0       0       0       
      +0       0       0       0       0       0       0       0       0       0       0       0       0       0       0
 12906 ;;      Locals:         1       0       0       0       0       0       0       0       0       0       0       0       
      +0       0       0       0       0       0       0       0       0       0       0       0       0       0       0
 12907 ;;      Temps:          1       0       0       0       0       0       0       0       0       0       0       0       
      +0       0       0       0       0       0       0       0       0       0       0       0       0       0       0
 12908 ;;      Totals:         5       0       0       0       0       0       0       0       0       0       0       0       
      +0       0       0       0       0       0       0       0       0       0       0       0       0       0       0
 12909 ;;Total ram usage:        5 bytes
 12910 ;; Hardware stack levels used: 1
 12911 ;; Hardware stack levels required when called: 4
 12912 ;; This function calls:
 12913 ;;		Nothing
 12914 ;; This function is called by:
 12915 ;;		_I2C1_SetDataCompleteCallback
 12916 ;;		_I2C1_SetAddressNackCallback
 12917 ;;		_I2C1_SetWriteCollisionCallback
 12918 ;;		_I2C1_SetDataNackCallback
 12919 ;;		_I2C1_SetTimeoutCallback
 12920 ;; This function uses a non-reentrant model
 12921 ;;
 12922                           
 12923                           
 12924                           ;psect for function _I2C1_SetCallback
 12925  0E1E                     _I2C1_SetCallback:
 12926                           
 12927                           ;incstack = 0
 12928                           ; Regs used in _I2C1_SetCallback: [wreg+fsr1l+fsr1h+status,2+status,0]
 12929                           ;I2C1_SetCallback@idx stored from wreg
 12930  0E1E  00F5               	movwf	I2C1_SetCallback@idx
 12931  0E1F                     l5506:
 12932                           
 12933                           ;mcc_generated_files/i2c1_master.c: 298: static void I2C1_SetCallback(i2c1_callbackIndex
      +                          _t idx, i2c1_callback_t cb, void *ptr);mcc_generated_files/i2c1_master.c: 299: {;mcc_gen
      +                          erated_files/i2c1_master.c: 300:     if(cb)
 12934  0E1F  0871               	movf	I2C1_SetCallback@cb,w
 12935  0E20  0472               	iorwf	I2C1_SetCallback@cb+1,w
 12936  0E21  1903               	btfsc	3,2
 12937  0E22  2E24               	goto	u3331
 12938  0E23  2E25               	goto	u3330
 12939  0E24                     u3331:
 12940  0E24  2E38               	goto	l5510
 12941  0E25                     u3330:
 12942  0E25                     l5508:
 12943                           
 12944                           ;mcc_generated_files/i2c1_master.c: 301:     {;mcc_generated_files/i2c1_master.c: 302:  
      +                                 I2C1_Status.callbackTable[idx] = cb;
 12945  0E25  3575               	lslf	I2C1_SetCallback@idx,w
 12946  0E26  3E20               	addlw	(low (_I2C1_Status| (0+512)))& (0+255)
 12947  0E27  0086               	movwf	6
 12948  0E28  3002               	movlw	2	; select bank4/5
 12949  0E29  0087               	movwf	7
 12950  0E2A  0871               	movf	I2C1_SetCallback@cb,w
 12951  0E2B  3FC0               	movwi [0]fsr1
 12952  0E2C  0872               	movf	I2C1_SetCallback@cb+1,w
 12953  0E2D  3FC1               	movwi [1]fsr1
 12954                           
 12955                           ;mcc_generated_files/i2c1_master.c: 303:         I2C1_Status.callbackPayload[idx] = ptr;
 12956  0E2E  0873               	movf	I2C1_SetCallback@ptr,w
 12957  0E2F  00F4               	movwf	??_I2C1_SetCallback
 12958  0E30  0875               	movf	I2C1_SetCallback@idx,w
 12959  0E31  3E2C               	addlw	(low ((_I2C1_Status| (0+512)+12)))& (0+255)
 12960  0E32  0086               	movwf	6
 12961  0E33  3002               	movlw	2	; select bank4/5
 12962  0E34  0087               	movwf	7
 12963  0E35  0874               	movf	??_I2C1_SetCallback,w
 12964  0E36  0081               	movwf	1
 12965                           
 12966                           ;mcc_generated_files/i2c1_master.c: 304:     }
 12967  0E37  2E47               	goto	l349
 12968  0E38                     l5510:
 12969                           
 12970                           ;mcc_generated_files/i2c1_master.c: 306:     {;mcc_generated_files/i2c1_master.c: 307:  
      +                                 I2C1_Status.callbackTable[idx] = I2C1_CallbackReturnStop;
 12971  0E38  3575               	lslf	I2C1_SetCallback@idx,w
 12972  0E39  3E20               	addlw	(low (_I2C1_Status| (0+512)))& (0+255)
 12973  0E3A  0086               	movwf	6
 12974  0E3B  3002               	movlw	2	; select bank4/5
 12975  0E3C  0087               	movwf	7
 12976  0E3D  30CE               	movlw	low _I2C1_CallbackReturnStop
 12977  0E3E  3FC0               	movwi [0]fsr1
 12978  0E3F  3009               	movlw	high _I2C1_CallbackReturnStop
 12979  0E40  3FC1               	movwi [1]fsr1
 12980                           
 12981                           ;mcc_generated_files/i2c1_master.c: 308:         I2C1_Status.callbackPayload[idx] = ((vo
      +                          id*)0);
 12982  0E41  0875               	movf	I2C1_SetCallback@idx,w
 12983  0E42  3E2C               	addlw	(low ((_I2C1_Status| (0+512)+12)))& (0+255)
 12984  0E43  0086               	movwf	6
 12985  0E44  3002               	movlw	2	; select bank4/5
 12986  0E45  0087               	movwf	7
 12987  0E46  0181               	clrf	1
 12988  0E47                     l349:
 12989  0E47  0008               	return
 12990  0E48                     __end_of_I2C1_SetCallback:
 12991                           
 12992                           	psect	text88
 12993  0AEC                     __ptext88:	
 12994 ;; *************** function _I2C1_SetBuffer *****************
 12995 ;; Defined at:
 12996 ;;		line 263 in file "mcc_generated_files/i2c1_master.c"
 12997 ;; Parameters:    Size  Location     Type
 12998 ;;  buffer          2    1[COMMON] PTR void 
 12999 ;;		 -> main@dataout(64), EE_ReadPage@frame(2), EE_WritePage@frame(66), EE_Read@frame(3), 
 13000 ;;		 -> EE_Write@frame(3), I2C1_ReadDataBlock@reg(1), I2C1_ReadDataBlock@bufferBlock(3), I2C1_Write2ByteRegister@reg(1),
      + 
 13001 ;;		 -> I2C1_Write2ByteRegister@data(2), I2C1_Write1ByteRegister@reg(1), I2C1_Write1ByteRegister@data(1), I2C1_Read2Byte
      +Register@reg(1), 
 13002 ;;		 -> I2C1_Read2ByteRegister@returnValue(2), I2C1_Read1ByteRegister@reg(1), I2C1_Read1ByteRegister@returnValue(1), i2c
      +_readDataBlock@reg(1), 
 13003 ;;		 -> i2c_readDataBlock@d(3), i2c_write2ByteRegister@reg(1), i2c_write2ByteRegister@data(2), i2c_read2ByteRegister@reg
      +(1), 
 13004 ;;		 -> i2c_read2ByteRegister@result(2), i2c_read1ByteRegister@reg(1), i2c_read1ByteRegister@d2(1), i2c_write1ByteRegist
      +er@reg(1), 
 13005 ;;		 -> i2c_write1ByteRegister@data(1), NULL(0), 
 13006 ;;  bufferSize      2    3[COMMON] unsigned int 
 13007 ;; Auto vars:     Size  Location     Type
 13008 ;;		None
 13009 ;; Return value:  Size  Location     Type
 13010 ;;                  1    wreg      void 
 13011 ;; Registers used:
 13012 ;;		wreg
 13013 ;; Tracked objects:
 13014 ;;		On entry : 0/0
 13015 ;;		On exit  : 0/0
 13016 ;;		Unchanged: 0/0
 13017 ;; Data sizes:     COMMON   BANK0   BANK1   BANK2   BANK3   BANK4   BANK5   BANK6   BANK7   BANK8   BANK9  BANK10  BANK1
      +1  BANK12  BANK13  BANK14  BANK15  BANK16  BANK17  BANK18  BANK19  BANK20  BANK21  BANK22  BANK23  BANK24  BANK25
 13018 ;;      Params:         4       0       0       0       0       0       0       0       0       0       0       0       
      +0       0       0       0       0       0       0       0       0       0       0       0       0       0       0
 13019 ;;      Locals:         0       0       0       0       0       0       0       0       0       0       0       0       
      +0       0       0       0       0       0       0       0       0       0       0       0       0       0       0
 13020 ;;      Temps:          0       0       0       0       0       0       0       0       0       0       0       0       
      +0       0       0       0       0       0       0       0       0       0       0       0       0       0       0
 13021 ;;      Totals:         4       0       0       0       0       0       0       0       0       0       0       0       
      +0       0       0       0       0       0       0       0       0       0       0       0       0       0       0
 13022 ;;Total ram usage:        4 bytes
 13023 ;; Hardware stack levels used: 1
 13024 ;; Hardware stack levels required when called: 4
 13025 ;; This function calls:
 13026 ;;		Nothing
 13027 ;; This function is called by:
 13028 ;;		_wr1RegCompleteHandler
 13029 ;;		_i2c_writeNBytes
 13030 ;;		_rd1RegCompleteHandler
 13031 ;;		_rd2RegCompleteHandler
 13032 ;;		_wr2RegCompleteHandler
 13033 ;;		_rdBlkRegCompleteHandler
 13034 ;;		_i2c_readNBytes
 13035 ;;		_rd1RegCompleteHandler@i2c1_master_example$F143
 13036 ;;		_rd2RegCompleteHandler@i2c1_master_example$F154
 13037 ;;		_wr1RegCompleteHandler@i2c1_master_example$F160
 13038 ;;		_wr2RegCompleteHandler@i2c1_master_example$F166
 13039 ;;		_rdBlkRegCompleteHandler@i2c1_master_example$F177
 13040 ;;		_i2c_write1ByteRegister
 13041 ;;		_i2c_read1ByteRegister
 13042 ;;		_i2c_read2ByteRegister
 13043 ;;		_i2c_write2ByteRegister
 13044 ;;		_i2c_readDataBlock
 13045 ;;		_I2C1_Read1ByteRegister
 13046 ;;		_I2C1_Read2ByteRegister
 13047 ;;		_I2C1_Write1ByteRegister
 13048 ;;		_I2C1_Write2ByteRegister
 13049 ;;		_I2C1_WriteNBytes
 13050 ;;		_I2C1_ReadNBytes
 13051 ;;		_I2C1_ReadDataBlock
 13052 ;; This function uses a non-reentrant model
 13053 ;;
 13054                           
 13055                           
 13056                           ;psect for function _I2C1_SetBuffer
 13057  0AEC                     _I2C1_SetBuffer:
 13058  0AEC                     l5512:	
 13059                           ;incstack = 0
 13060                           ; Regs used in _I2C1_SetBuffer: [wreg]
 13061                           
 13062                           
 13063                           ;mcc_generated_files/i2c1_master.c: 263: void I2C1_SetBuffer(void *buffer, size_t buffer
      +                          Size);mcc_generated_files/i2c1_master.c: 264: {;mcc_generated_files/i2c1_master.c: 265: 
      +                              if(I2C1_Status.bufferFree)
 13064  0AEC  0144               	movlb	4	; select bank4
 13065  0AED  1DBD               	btfss	(_I2C1_Status^(0+512)+29),3
 13066  0AEE  2AF0               	goto	u3341
 13067  0AEF  2AF1               	goto	u3340
 13068  0AF0                     u3341:
 13069  0AF0  2AFA               	goto	l329
 13070  0AF1                     u3340:
 13071  0AF1                     l5514:
 13072                           
 13073                           ;mcc_generated_files/i2c1_master.c: 266:     {;mcc_generated_files/i2c1_master.c: 267:  
      +                                 I2C1_Status.data_ptr = buffer;
 13074  0AF1  0872               	movf	I2C1_SetBuffer@buffer+1,w
 13075  0AF2  00B8               	movwf	((low ((_I2C1_Status| (0+512)+23))+1))^0
 13076  0AF3  0871               	movf	I2C1_SetBuffer@buffer,w
 13077  0AF4  00B7               	movwf	(low ((_I2C1_Status| (0+512)+23)))^0
 13078                           
 13079                           ;mcc_generated_files/i2c1_master.c: 268:         I2C1_Status.data_length = bufferSize;
 13080  0AF5  0874               	movf	I2C1_SetBuffer@bufferSize+1,w
 13081  0AF6  00BA               	movwf	((_I2C1_Status+1)^(0+512)+25)
 13082  0AF7  0873               	movf	I2C1_SetBuffer@bufferSize,w
 13083  0AF8  00B9               	movwf	(_I2C1_Status^(0+512)+25)
 13084  0AF9                     l5516:
 13085                           
 13086                           ;mcc_generated_files/i2c1_master.c: 269:         I2C1_Status.bufferFree = 0;
 13087  0AF9  11BD               	bcf	(_I2C1_Status^(0+512)+29),3
 13088  0AFA                     l329:
 13089  0AFA  0008               	return
 13090  0AFB                     __end_of_I2C1_SetBuffer:
 13091                           
 13092                           	psect	text89
 13093  09DF                     __ptext89:	
 13094 ;; *************** function _I2C1_MasterStop *****************
 13095 ;; Defined at:
 13096 ;;		line 593 in file "mcc_generated_files/i2c1_master.c"
 13097 ;; Parameters:    Size  Location     Type
 13098 ;;		None
 13099 ;; Auto vars:     Size  Location     Type
 13100 ;;		None
 13101 ;; Return value:  Size  Location     Type
 13102 ;;                  1    wreg      void 
 13103 ;; Registers used:
 13104 ;;		None
 13105 ;; Tracked objects:
 13106 ;;		On entry : 0/0
 13107 ;;		On exit  : 0/0
 13108 ;;		Unchanged: 0/0
 13109 ;; Data sizes:     COMMON   BANK0   BANK1   BANK2   BANK3   BANK4   BANK5   BANK6   BANK7   BANK8   BANK9  BANK10  BANK1
      +1  BANK12  BANK13  BANK14  BANK15  BANK16  BANK17  BANK18  BANK19  BANK20  BANK21  BANK22  BANK23  BANK24  BANK25
 13110 ;;      Params:         0       0       0       0       0       0       0       0       0       0       0       0       
      +0       0       0       0       0       0       0       0       0       0       0       0       0       0       0
 13111 ;;      Locals:         0       0       0       0       0       0       0       0       0       0       0       0       
      +0       0       0       0       0       0       0       0       0       0       0       0       0       0       0
 13112 ;;      Temps:          0       0       0       0       0       0       0       0       0       0       0       0       
      +0       0       0       0       0       0       0       0       0       0       0       0       0       0       0
 13113 ;;      Totals:         0       0       0       0       0       0       0       0       0       0       0       0       
      +0       0       0       0       0       0       0       0       0       0       0       0       0       0       0
 13114 ;;Total ram usage:        0 bytes
 13115 ;; Hardware stack levels used: 1
 13116 ;; Hardware stack levels required when called: 4
 13117 ;; This function calls:
 13118 ;;		Nothing
 13119 ;; This function is called by:
 13120 ;;		_I2C1_DO_SEND_STOP
 13121 ;; This function uses a non-reentrant model
 13122 ;;
 13123                           
 13124                           
 13125                           ;psect for function _I2C1_MasterStop
 13126  09DF                     _I2C1_MasterStop:
 13127  09DF                     l5522:	
 13128                           ;incstack = 0
 13129                           ; Regs used in _I2C1_MasterStop: []
 13130                           
 13131                           
 13132                           ;mcc_generated_files/i2c1_master.c: 595:     SSP1CON2bits.PEN = 1;
 13133  09DF  0143               	movlb	3	; select bank3
 13134  09E0  1511               	bsf	17,2	;volatile
 13135  09E1                     l495:
 13136  09E1  0008               	return
 13137  09E2                     __end_of_I2C1_MasterStop:
 13138                           
 13139                           	psect	text90
 13140  09DC                     __ptext90:	
 13141 ;; *************** function _I2C1_MasterEnableRestart *****************
 13142 ;; Defined at:
 13143 ;;		line 573 in file "mcc_generated_files/i2c1_master.c"
 13144 ;; Parameters:    Size  Location     Type
 13145 ;;		None
 13146 ;; Auto vars:     Size  Location     Type
 13147 ;;		None
 13148 ;; Return value:  Size  Location     Type
 13149 ;;                  1    wreg      void 
 13150 ;; Registers used:
 13151 ;;		None
 13152 ;; Tracked objects:
 13153 ;;		On entry : 0/0
 13154 ;;		On exit  : 0/0
 13155 ;;		Unchanged: 0/0
 13156 ;; Data sizes:     COMMON   BANK0   BANK1   BANK2   BANK3   BANK4   BANK5   BANK6   BANK7   BANK8   BANK9  BANK10  BANK1
      +1  BANK12  BANK13  BANK14  BANK15  BANK16  BANK17  BANK18  BANK19  BANK20  BANK21  BANK22  BANK23  BANK24  BANK25
 13157 ;;      Params:         0       0       0       0       0       0       0       0       0       0       0       0       
      +0       0       0       0       0       0       0       0       0       0       0       0       0       0       0
 13158 ;;      Locals:         0       0       0       0       0       0       0       0       0       0       0       0       
      +0       0       0       0       0       0       0       0       0       0       0       0       0       0       0
 13159 ;;      Temps:          0       0       0       0       0       0       0       0       0       0       0       0       
      +0       0       0       0       0       0       0       0       0       0       0       0       0       0       0
 13160 ;;      Totals:         0       0       0       0       0       0       0       0       0       0       0       0       
      +0       0       0       0       0       0       0       0       0       0       0       0       0       0       0
 13161 ;;Total ram usage:        0 bytes
 13162 ;; Hardware stack levels used: 1
 13163 ;; Hardware stack levels required when called: 4
 13164 ;; This function calls:
 13165 ;;		Nothing
 13166 ;; This function is called by:
 13167 ;;		_I2C1_DO_SEND_RESTART_READ
 13168 ;;		_I2C1_DO_SEND_RESTART_WRITE
 13169 ;;		_I2C1_DO_SEND_RESTART
 13170 ;;		_I2C1_DO_RX_EMPTY
 13171 ;; This function uses a non-reentrant model
 13172 ;;
 13173                           
 13174                           
 13175                           ;psect for function _I2C1_MasterEnableRestart
 13176  09DC                     _I2C1_MasterEnableRestart:
 13177  09DC                     l5520:	
 13178                           ;incstack = 0
 13179                           ; Regs used in _I2C1_MasterEnableRestart: []
 13180                           
 13181                           
 13182                           ;mcc_generated_files/i2c1_master.c: 575:     SSP1CON2bits.RSEN = 1;
 13183  09DC  0143               	movlb	3	; select bank3
 13184  09DD  1491               	bsf	17,1	;volatile
 13185  09DE                     l483:
 13186  09DE  0008               	return
 13187  09DF                     __end_of_I2C1_MasterEnableRestart:
 13188                           
 13189                           	psect	text91
 13190  09D9                     __ptext91:	
 13191 ;; *************** function _I2C1_MasterStart *****************
 13192 ;; Defined at:
 13193 ;;		line 588 in file "mcc_generated_files/i2c1_master.c"
 13194 ;; Parameters:    Size  Location     Type
 13195 ;;		None
 13196 ;; Auto vars:     Size  Location     Type
 13197 ;;		None
 13198 ;; Return value:  Size  Location     Type
 13199 ;;                  1    wreg      void 
 13200 ;; Registers used:
 13201 ;;		None
 13202 ;; Tracked objects:
 13203 ;;		On entry : 0/0
 13204 ;;		On exit  : 0/0
 13205 ;;		Unchanged: 0/0
 13206 ;; Data sizes:     COMMON   BANK0   BANK1   BANK2   BANK3   BANK4   BANK5   BANK6   BANK7   BANK8   BANK9  BANK10  BANK1
      +1  BANK12  BANK13  BANK14  BANK15  BANK16  BANK17  BANK18  BANK19  BANK20  BANK21  BANK22  BANK23  BANK24  BANK25
 13207 ;;      Params:         0       0       0       0       0       0       0       0       0       0       0       0       
      +0       0       0       0       0       0       0       0       0       0       0       0       0       0       0
 13208 ;;      Locals:         0       0       0       0       0       0       0       0       0       0       0       0       
      +0       0       0       0       0       0       0       0       0       0       0       0       0       0       0
 13209 ;;      Temps:          0       0       0       0       0       0       0       0       0       0       0       0       
      +0       0       0       0       0       0       0       0       0       0       0       0       0       0       0
 13210 ;;      Totals:         0       0       0       0       0       0       0       0       0       0       0       0       
      +0       0       0       0       0       0       0       0       0       0       0       0       0       0       0
 13211 ;;Total ram usage:        0 bytes
 13212 ;; Hardware stack levels used: 1
 13213 ;; Hardware stack levels required when called: 4
 13214 ;; This function calls:
 13215 ;;		Nothing
 13216 ;; This function is called by:
 13217 ;;		_I2C1_MasterOperation
 13218 ;; This function uses a non-reentrant model
 13219 ;;
 13220                           
 13221                           
 13222                           ;psect for function _I2C1_MasterStart
 13223  09D9                     _I2C1_MasterStart:
 13224  09D9                     l5872:	
 13225                           ;incstack = 0
 13226                           ; Regs used in _I2C1_MasterStart: []
 13227                           
 13228                           
 13229                           ;mcc_generated_files/i2c1_master.c: 590:     SSP1CON2bits.SEN = 1;
 13230  09D9  0143               	movlb	3	; select bank3
 13231  09DA  1411               	bsf	17,0	;volatile
 13232  09DB                     l492:
 13233  09DB  0008               	return
 13234  09DC                     __end_of_I2C1_MasterStart:
 13235                           
 13236                           	psect	text92
 13237  0CA0                     __ptext92:	
 13238 ;; *************** function _I2C1_Close *****************
 13239 ;; Defined at:
 13240 ;;		line 209 in file "mcc_generated_files/i2c1_master.c"
 13241 ;; Parameters:    Size  Location     Type
 13242 ;;		None
 13243 ;; Auto vars:     Size  Location     Type
 13244 ;;  returnValue     1    2[COMMON] enum E355
 13245 ;; Return value:  Size  Location     Type
 13246 ;;                  1    wreg      enum E355
 13247 ;; Registers used:
 13248 ;;		wreg, status,2, status,0, pclath, cstack
 13249 ;; Tracked objects:
 13250 ;;		On entry : 0/0
 13251 ;;		On exit  : 0/0
 13252 ;;		Unchanged: 0/0
 13253 ;; Data sizes:     COMMON   BANK0   BANK1   BANK2   BANK3   BANK4   BANK5   BANK6   BANK7   BANK8   BANK9  BANK10  BANK1
      +1  BANK12  BANK13  BANK14  BANK15  BANK16  BANK17  BANK18  BANK19  BANK20  BANK21  BANK22  BANK23  BANK24  BANK25
 13254 ;;      Params:         0       0       0       0       0       0       0       0       0       0       0       0       
      +0       0       0       0       0       0       0       0       0       0       0       0       0       0       0
 13255 ;;      Locals:         1       0       0       0       0       0       0       0       0       0       0       0       
      +0       0       0       0       0       0       0       0       0       0       0       0       0       0       0
 13256 ;;      Temps:          1       0       0       0       0       0       0       0       0       0       0       0       
      +0       0       0       0       0       0       0       0       0       0       0       0       0       0       0
 13257 ;;      Totals:         2       0       0       0       0       0       0       0       0       0       0       0       
      +0       0       0       0       0       0       0       0       0       0       0       0       0       0       0
 13258 ;;Total ram usage:        2 bytes
 13259 ;; Hardware stack levels used: 1
 13260 ;; Hardware stack levels required when called: 5
 13261 ;; This function calls:
 13262 ;;		_I2C1_MasterClearIrq
 13263 ;;		_I2C1_MasterClose
 13264 ;;		_I2C1_MasterDisableIrq
 13265 ;; This function is called by:
 13266 ;;		_i2c_writeNBytes
 13267 ;;		_i2c_readNBytes
 13268 ;;		_i2c_write1ByteRegister
 13269 ;;		_i2c_read1ByteRegister
 13270 ;;		_i2c_read2ByteRegister
 13271 ;;		_i2c_write2ByteRegister
 13272 ;;		_i2c_readDataBlock
 13273 ;;		_I2C1_Read1ByteRegister
 13274 ;;		_I2C1_Read2ByteRegister
 13275 ;;		_I2C1_Write1ByteRegister
 13276 ;;		_I2C1_Write2ByteRegister
 13277 ;;		_I2C1_WriteNBytes
 13278 ;;		_I2C1_ReadNBytes
 13279 ;;		_I2C1_ReadDataBlock
 13280 ;; This function uses a non-reentrant model
 13281 ;;
 13282                           
 13283                           
 13284                           ;psect for function _I2C1_Close
 13285  0CA0                     _I2C1_Close:
 13286  0CA0                     l6160:	
 13287                           ;incstack = 0
 13288                           ; Regs used in _I2C1_Close: [wreg+status,2+status,0+pclath+cstack]
 13289                           
 13290                           
 13291                           ;mcc_generated_files/i2c1_master.c: 211:     i2c1_error_t returnValue = I2C1_BUSY;
 13292  0CA0  01F2               	clrf	I2C1_Close@returnValue
 13293  0CA1  0AF2               	incf	I2C1_Close@returnValue,f
 13294                           
 13295                           ;mcc_generated_files/i2c1_master.c: 212:     if(!I2C1_Status.busy)
 13296  0CA2  0144               	movlb	4	; select bank4
 13297  0CA3  18BD               	btfsc	(_I2C1_Status^(0+512)+29),1
 13298  0CA4  2CA6               	goto	u3911
 13299  0CA5  2CA7               	goto	u3910
 13300  0CA6                     u3911:
 13301  0CA6  2CBA               	goto	l6174
 13302  0CA7                     u3910:
 13303  0CA7                     l6162:
 13304                           
 13305                           ;mcc_generated_files/i2c1_master.c: 213:     {;mcc_generated_files/i2c1_master.c: 214:  
      +                                 I2C1_Status.inUse = 0;
 13306  0CA7  113D               	bcf	(_I2C1_Status^(0+512)+29),2
 13307  0CA8                     l6164:
 13308                           
 13309                           ;mcc_generated_files/i2c1_master.c: 215:         I2C1_Status.address = 0xff;
 13310  0CA8  30FF               	movlw	255
 13311  0CA9  00F1               	movwf	??_I2C1_Close
 13312  0CAA  0871               	movf	??_I2C1_Close,w
 13313  0CAB  00B6               	movwf	(_I2C1_Status^(0+512)+22)
 13314  0CAC                     l6166:
 13315                           
 13316                           ;mcc_generated_files/i2c1_master.c: 216:         I2C1_MasterClearIrq();
 13317  0CAC  3189  21D0  318C   	fcall	_I2C1_MasterClearIrq
 13318  0CAF                     l6168:
 13319                           
 13320                           ;mcc_generated_files/i2c1_master.c: 217:         I2C1_MasterDisableIrq();
 13321  0CAF  3189  21D6  318C   	fcall	_I2C1_MasterDisableIrq
 13322  0CB2                     l6170:
 13323                           
 13324                           ;mcc_generated_files/i2c1_master.c: 218:         I2C1_MasterClose();
 13325  0CB2  3189  21D3  318C   	fcall	_I2C1_MasterClose
 13326  0CB5                     l6172:
 13327                           
 13328                           ;mcc_generated_files/i2c1_master.c: 219:         returnValue = I2C1_Status.error;
 13329  0CB5  0144               	movlb	4	; select bank4
 13330  0CB6  083C               	movf	(_I2C1_Status^(0+512)+28),w
 13331  0CB7  00F1               	movwf	??_I2C1_Close
 13332  0CB8  0871               	movf	??_I2C1_Close,w
 13333  0CB9  00F2               	movwf	I2C1_Close@returnValue
 13334  0CBA                     l6174:
 13335                           
 13336                           ;mcc_generated_files/i2c1_master.c: 221:     return returnValue;
 13337  0CBA  0872               	movf	I2C1_Close@returnValue,w
 13338  0CBB                     l310:
 13339  0CBB  0008               	return
 13340  0CBC                     __end_of_I2C1_Close:
 13341                           
 13342                           	psect	text93
 13343  09D6                     __ptext93:	
 13344 ;; *************** function _I2C1_MasterDisableIrq *****************
 13345 ;; Defined at:
 13346 ;;		line 635 in file "mcc_generated_files/i2c1_master.c"
 13347 ;; Parameters:    Size  Location     Type
 13348 ;;		None
 13349 ;; Auto vars:     Size  Location     Type
 13350 ;;		None
 13351 ;; Return value:  Size  Location     Type
 13352 ;;                  1    wreg      void 
 13353 ;; Registers used:
 13354 ;;		None
 13355 ;; Tracked objects:
 13356 ;;		On entry : 0/0
 13357 ;;		On exit  : 0/0
 13358 ;;		Unchanged: 0/0
 13359 ;; Data sizes:     COMMON   BANK0   BANK1   BANK2   BANK3   BANK4   BANK5   BANK6   BANK7   BANK8   BANK9  BANK10  BANK1
      +1  BANK12  BANK13  BANK14  BANK15  BANK16  BANK17  BANK18  BANK19  BANK20  BANK21  BANK22  BANK23  BANK24  BANK25
 13360 ;;      Params:         0       0       0       0       0       0       0       0       0       0       0       0       
      +0       0       0       0       0       0       0       0       0       0       0       0       0       0       0
 13361 ;;      Locals:         0       0       0       0       0       0       0       0       0       0       0       0       
      +0       0       0       0       0       0       0       0       0       0       0       0       0       0       0
 13362 ;;      Temps:          0       0       0       0       0       0       0       0       0       0       0       0       
      +0       0       0       0       0       0       0       0       0       0       0       0       0       0       0
 13363 ;;      Totals:         0       0       0       0       0       0       0       0       0       0       0       0       
      +0       0       0       0       0       0       0       0       0       0       0       0       0       0       0
 13364 ;;Total ram usage:        0 bytes
 13365 ;; Hardware stack levels used: 1
 13366 ;; Hardware stack levels required when called: 4
 13367 ;; This function calls:
 13368 ;;		Nothing
 13369 ;; This function is called by:
 13370 ;;		_I2C1_Close
 13371 ;;		_I2C1_SetTimeOut
 13372 ;; This function uses a non-reentrant model
 13373 ;;
 13374                           
 13375                           
 13376                           ;psect for function _I2C1_MasterDisableIrq
 13377  09D6                     _I2C1_MasterDisableIrq:
 13378  09D6                     l6004:	
 13379                           ;incstack = 0
 13380                           ; Regs used in _I2C1_MasterDisableIrq: []
 13381                           
 13382                           
 13383                           ;mcc_generated_files/i2c1_master.c: 637:     PIE3bits.SSP1IE = 0;
 13384  09D6  014E               	movlb	14	; select bank14
 13385  09D7  1019               	bcf	25,0	;volatile
 13386  09D8                     l519:
 13387  09D8  0008               	return
 13388  09D9                     __end_of_I2C1_MasterDisableIrq:
 13389                           
 13390                           	psect	text94
 13391  09D3                     __ptext94:	
 13392 ;; *************** function _I2C1_MasterClose *****************
 13393 ;; Defined at:
 13394 ;;		line 557 in file "mcc_generated_files/i2c1_master.c"
 13395 ;; Parameters:    Size  Location     Type
 13396 ;;		None
 13397 ;; Auto vars:     Size  Location     Type
 13398 ;;		None
 13399 ;; Return value:  Size  Location     Type
 13400 ;;                  1    wreg      void 
 13401 ;; Registers used:
 13402 ;;		None
 13403 ;; Tracked objects:
 13404 ;;		On entry : 0/0
 13405 ;;		On exit  : 0/0
 13406 ;;		Unchanged: 0/0
 13407 ;; Data sizes:     COMMON   BANK0   BANK1   BANK2   BANK3   BANK4   BANK5   BANK6   BANK7   BANK8   BANK9  BANK10  BANK1
      +1  BANK12  BANK13  BANK14  BANK15  BANK16  BANK17  BANK18  BANK19  BANK20  BANK21  BANK22  BANK23  BANK24  BANK25
 13408 ;;      Params:         0       0       0       0       0       0       0       0       0       0       0       0       
      +0       0       0       0       0       0       0       0       0       0       0       0       0       0       0
 13409 ;;      Locals:         0       0       0       0       0       0       0       0       0       0       0       0       
      +0       0       0       0       0       0       0       0       0       0       0       0       0       0       0
 13410 ;;      Temps:          0       0       0       0       0       0       0       0       0       0       0       0       
      +0       0       0       0       0       0       0       0       0       0       0       0       0       0       0
 13411 ;;      Totals:         0       0       0       0       0       0       0       0       0       0       0       0       
      +0       0       0       0       0       0       0       0       0       0       0       0       0       0       0
 13412 ;;Total ram usage:        0 bytes
 13413 ;; Hardware stack levels used: 1
 13414 ;; Hardware stack levels required when called: 4
 13415 ;; This function calls:
 13416 ;;		Nothing
 13417 ;; This function is called by:
 13418 ;;		_I2C1_Close
 13419 ;; This function uses a non-reentrant model
 13420 ;;
 13421                           
 13422                           
 13423                           ;psect for function _I2C1_MasterClose
 13424  09D3                     _I2C1_MasterClose:
 13425  09D3                     l6006:	
 13426                           ;incstack = 0
 13427                           ; Regs used in _I2C1_MasterClose: []
 13428                           
 13429                           
 13430                           ;mcc_generated_files/i2c1_master.c: 560:     SSP1CON1bits.SSPEN = 0;
 13431  09D3  0143               	movlb	3	; select bank3
 13432  09D4  1290               	bcf	16,5	;volatile
 13433  09D5                     l474:
 13434  09D5  0008               	return
 13435  09D6                     __end_of_I2C1_MasterClose:
 13436                           
 13437                           	psect	text95
 13438  09D0                     __ptext95:	
 13439 ;; *************** function _I2C1_MasterClearIrq *****************
 13440 ;; Defined at:
 13441 ;;		line 640 in file "mcc_generated_files/i2c1_master.c"
 13442 ;; Parameters:    Size  Location     Type
 13443 ;;		None
 13444 ;; Auto vars:     Size  Location     Type
 13445 ;;		None
 13446 ;; Return value:  Size  Location     Type
 13447 ;;                  1    wreg      void 
 13448 ;; Registers used:
 13449 ;;		None
 13450 ;; Tracked objects:
 13451 ;;		On entry : 0/0
 13452 ;;		On exit  : 0/0
 13453 ;;		Unchanged: 0/0
 13454 ;; Data sizes:     COMMON   BANK0   BANK1   BANK2   BANK3   BANK4   BANK5   BANK6   BANK7   BANK8   BANK9  BANK10  BANK1
      +1  BANK12  BANK13  BANK14  BANK15  BANK16  BANK17  BANK18  BANK19  BANK20  BANK21  BANK22  BANK23  BANK24  BANK25
 13455 ;;      Params:         0       0       0       0       0       0       0       0       0       0       0       0       
      +0       0       0       0       0       0       0       0       0       0       0       0       0       0       0
 13456 ;;      Locals:         0       0       0       0       0       0       0       0       0       0       0       0       
      +0       0       0       0       0       0       0       0       0       0       0       0       0       0       0
 13457 ;;      Temps:          0       0       0       0       0       0       0       0       0       0       0       0       
      +0       0       0       0       0       0       0       0       0       0       0       0       0       0       0
 13458 ;;      Totals:         0       0       0       0       0       0       0       0       0       0       0       0       
      +0       0       0       0       0       0       0       0       0       0       0       0       0       0       0
 13459 ;;Total ram usage:        0 bytes
 13460 ;; Hardware stack levels used: 1
 13461 ;; Hardware stack levels required when called: 4
 13462 ;; This function calls:
 13463 ;;		Nothing
 13464 ;; This function is called by:
 13465 ;;		_I2C1_Open
 13466 ;;		_I2C1_Close
 13467 ;;		_I2C1_MasterFsm
 13468 ;; This function uses a non-reentrant model
 13469 ;;
 13470                           
 13471                           
 13472                           ;psect for function _I2C1_MasterClearIrq
 13473  09D0                     _I2C1_MasterClearIrq:
 13474  09D0                     l5662:	
 13475                           ;incstack = 0
 13476                           ; Regs used in _I2C1_MasterClearIrq: []
 13477                           
 13478                           
 13479                           ;mcc_generated_files/i2c1_master.c: 642:     PIR3bits.SSP1IF = 0;
 13480  09D0  014E               	movlb	14	; select bank14
 13481  09D1  100F               	bcf	15,0	;volatile
 13482  09D2                     l522:
 13483  09D2  0008               	return
 13484  09D3                     __end_of_I2C1_MasterClearIrq:
 13485                           
 13486                           	psect	intentry
 13487  0004                     __pintentry:	
 13488 ;; *************** function _INTERRUPT_InterruptManager *****************
 13489 ;; Defined at:
 13490 ;;		line 52 in file "mcc_generated_files/interrupt_manager.c"
 13491 ;; Parameters:    Size  Location     Type
 13492 ;;		None
 13493 ;; Auto vars:     Size  Location     Type
 13494 ;;		None
 13495 ;; Return value:  Size  Location     Type
 13496 ;;                  1    wreg      void 
 13497 ;; Registers used:
 13498 ;;		wreg, fsr1l, fsr1h, status,2, status,0, pclath, cstack
 13499 ;; Tracked objects:
 13500 ;;		On entry : 0/0
 13501 ;;		On exit  : 0/0
 13502 ;;		Unchanged: 0/0
 13503 ;; Data sizes:     COMMON   BANK0   BANK1   BANK2   BANK3   BANK4   BANK5   BANK6   BANK7   BANK8   BANK9  BANK10  BANK1
      +1  BANK12  BANK13  BANK14  BANK15  BANK16  BANK17  BANK18  BANK19  BANK20  BANK21  BANK22  BANK23  BANK24  BANK25
 13504 ;;      Params:         0       0       0       0       0       0       0       0       0       0       0       0       
      +0       0       0       0       0       0       0       0       0       0       0       0       0       0       0
 13505 ;;      Locals:         0       0       0       0       0       0       0       0       0       0       0       0       
      +0       0       0       0       0       0       0       0       0       0       0       0       0       0       0
 13506 ;;      Temps:          0       0       0       0       0       0       0       0       0       0       0       0       
      +0       0       0       0       0       0       0       0       0       0       0       0       0       0       0
 13507 ;;      Totals:         0       0       0       0       0       0       0       0       0       0       0       0       
      +0       0       0       0       0       0       0       0       0       0       0       0       0       0       0
 13508 ;;Total ram usage:        0 bytes
 13509 ;; Hardware stack levels used: 1
 13510 ;; Hardware stack levels required when called: 3
 13511 ;; This function calls:
 13512 ;;		Absolute function
 13513 ;;		_EUSART1_Receive_ISR
 13514 ;;		_EUSART1_Transmit_ISR
 13515 ;; This function is called by:
 13516 ;;		Interrupt level 1
 13517 ;; This function uses a non-reentrant model
 13518 ;;
 13519                           
 13520  0004                     _INTERRUPT_InterruptManager:
 13521                           
 13522                           ;incstack = 0
 13523  0004  147E               	bsf	int$flags,0	;set compiler interrupt flag (level 1)
 13524                           
 13525                           ; Regs used in _INTERRUPT_InterruptManager: [wreg+fsr1l+fsr1h+status,2+status,0+pclath+c
      +                          stack]
 13526  0005  3180               	pagesel	$
 13527  0006                     i1l5180:
 13528                           
 13529                           ;mcc_generated_files/interrupt_manager.c: 55:     if(INTCONbits.PEIE == 1)
 13530  0006  1F0B               	btfss	11,6	;volatile
 13531  0007  2809               	goto	u319_21
 13532  0008  280A               	goto	u319_20
 13533  0009                     u319_21:
 13534  0009  2829               	goto	i1l703
 13535  000A                     u319_20:
 13536  000A                     i1l5182:
 13537                           
 13538                           ;mcc_generated_files/interrupt_manager.c: 56:     {;mcc_generated_files/interrupt_manage
      +                          r.c: 57:         if(PIE3bits.TX1IE == 1 && PIR3bits.TX1IF == 1)
 13539  000A  014E               	movlb	14	; select bank14
 13540  000B  1E19               	btfss	25,4	;volatile
 13541  000C  280E               	goto	u320_21
 13542  000D  280F               	goto	u320_20
 13543  000E                     u320_21:
 13544  000E  281A               	goto	i1l698
 13545  000F                     u320_20:
 13546  000F                     i1l5184:
 13547  000F  1E0F               	btfss	15,4	;volatile
 13548  0010  2812               	goto	u321_21
 13549  0011  2813               	goto	u321_20
 13550  0012                     u321_21:
 13551  0012  281A               	goto	i1l698
 13552  0013                     u321_20:
 13553  0013                     i1l5186:
 13554                           
 13555                           ;mcc_generated_files/interrupt_manager.c: 58:         {;mcc_generated_files/interrupt_ma
      +                          nager.c: 59:             EUSART1_TxDefaultInterruptHandler();
 13556  0013  0143               	movlb	3	; select bank3
 13557  0014  086F               	movf	(_EUSART1_TxDefaultInterruptHandler+1)^(0+384),w
 13558  0015  008A               	movwf	10
 13559  0016  086E               	movf	_EUSART1_TxDefaultInterruptHandler^(0+384),w
 13560  0017  000A               	callw
 13561  0018  3180               	pagesel	$
 13562                           
 13563                           ;mcc_generated_files/interrupt_manager.c: 60:         }
 13564  0019  2829               	goto	i1l703
 13565  001A                     i1l698:	
 13566                           ;mcc_generated_files/interrupt_manager.c: 61:         else if(PIE3bits.RC1IE == 1 && PIR
      +                          3bits.RC1IF == 1)
 13567                           
 13568  001A  1E99               	btfss	25,5	;volatile
 13569  001B  281D               	goto	u322_21
 13570  001C  281E               	goto	u322_20
 13571  001D                     u322_21:
 13572  001D  2829               	goto	i1l699
 13573  001E                     u322_20:
 13574  001E                     i1l5188:
 13575  001E  1E8F               	btfss	15,5	;volatile
 13576  001F  2821               	goto	u323_21
 13577  0020  2822               	goto	u323_20
 13578  0021                     u323_21:
 13579  0021  2829               	goto	i1l699
 13580  0022                     u323_20:
 13581  0022                     i1l5190:
 13582                           
 13583                           ;mcc_generated_files/interrupt_manager.c: 62:         {;mcc_generated_files/interrupt_ma
      +                          nager.c: 63:             EUSART1_RxDefaultInterruptHandler();
 13584  0022  0143               	movlb	3	; select bank3
 13585  0023  086D               	movf	(_EUSART1_RxDefaultInterruptHandler+1)^(0+384),w
 13586  0024  008A               	movwf	10
 13587  0025  086C               	movf	_EUSART1_RxDefaultInterruptHandler^(0+384),w
 13588  0026  000A               	callw
 13589  0027  3180               	pagesel	$
 13590                           
 13591                           ;mcc_generated_files/interrupt_manager.c: 64:         }
 13592  0028  2829               	goto	i1l703
 13593  0029                     i1l699:
 13594  0029                     i1l703:	
 13595                           ;mcc_generated_files/interrupt_manager.c: 69:     }
 13596                           
 13597  0029  107E               	bcf	int$flags,0	;clear compiler interrupt flag (level 1)
 13598  002A  0009               	retfie
 13599  002B                     __end_of_INTERRUPT_InterruptManager:
 13600                           
 13601                           	psect	text97
 13602  0D84                     __ptext97:	
 13603 ;; *************** function _EUSART1_Transmit_ISR *****************
 13604 ;; Defined at:
 13605 ;;		line 206 in file "mcc_generated_files/eusart1.c"
 13606 ;; Parameters:    Size  Location     Type
 13607 ;;		None
 13608 ;; Auto vars:     Size  Location     Type
 13609 ;;		None
 13610 ;; Return value:  Size  Location     Type
 13611 ;;                  1    wreg      void 
 13612 ;; Registers used:
 13613 ;;		wreg, fsr1l, fsr1h, status,2, status,0
 13614 ;; Tracked objects:
 13615 ;;		On entry : 0/0
 13616 ;;		On exit  : 0/0
 13617 ;;		Unchanged: 0/0
 13618 ;; Data sizes:     COMMON   BANK0   BANK1   BANK2   BANK3   BANK4   BANK5   BANK6   BANK7   BANK8   BANK9  BANK10  BANK1
      +1  BANK12  BANK13  BANK14  BANK15  BANK16  BANK17  BANK18  BANK19  BANK20  BANK21  BANK22  BANK23  BANK24  BANK25
 13619 ;;      Params:         0       0       0       0       0       0       0       0       0       0       0       0       
      +0       0       0       0       0       0       0       0       0       0       0       0       0       0       0
 13620 ;;      Locals:         0       0       0       0       0       0       0       0       0       0       0       0       
      +0       0       0       0       0       0       0       0       0       0       0       0       0       0       0
 13621 ;;      Temps:          1       0       0       0       0       0       0       0       0       0       0       0       
      +0       0       0       0       0       0       0       0       0       0       0       0       0       0       0
 13622 ;;      Totals:         1       0       0       0       0       0       0       0       0       0       0       0       
      +0       0       0       0       0       0       0       0       0       0       0       0       0       0       0
 13623 ;;Total ram usage:        1 bytes
 13624 ;; Hardware stack levels used: 1
 13625 ;; This function calls:
 13626 ;;		Nothing
 13627 ;; This function is called by:
 13628 ;;		_EUSART1_Initialize
 13629 ;;		_INTERRUPT_InterruptManager
 13630 ;; This function uses a non-reentrant model
 13631 ;;
 13632                           
 13633                           
 13634                           ;psect for function _EUSART1_Transmit_ISR
 13635  0D84                     _EUSART1_Transmit_ISR:
 13636  0D84                     i1l4756:	
 13637                           ;incstack = 0
 13638                           ; Regs used in _EUSART1_Transmit_ISR: [wreg+fsr1l+fsr1h+status,2+status,0]
 13639                           
 13640                           
 13641                           ;mcc_generated_files/eusart1.c: 210:     if(sizeof(eusart1TxBuffer) > eusart1TxBufferRem
      +                          aining)
 13642  0D84  3040               	movlw	64
 13643  0D85  0142               	movlb	2	; select bank2
 13644  0D86  026E               	subwf	_eusart1TxBufferRemaining^(0+256),w	;volatile
 13645  0D87  1803               	skipnc
 13646  0D88  2D8A               	goto	u275_21
 13647  0D89  2D8B               	goto	u275_20
 13648  0D8A                     u275_21:
 13649  0D8A  2DA6               	goto	i1l644
 13650  0D8B                     u275_20:
 13651  0D8B                     i1l4758:
 13652                           
 13653                           ;mcc_generated_files/eusart1.c: 211:     {;mcc_generated_files/eusart1.c: 212:         T
      +                          X1REG = eusart1TxBuffer[eusart1TxTail++];
 13654  0D8B  0141               	movlb	1	; select bank1
 13655  0D8C  086E               	movf	_eusart1TxTail^(0+128),w
 13656  0D8D  3EA0               	addlw	(low (_eusart1TxBuffer| (0+512)))& (0+255)
 13657  0D8E  0086               	movwf	6
 13658  0D8F  3002               	movlw	2	; select bank5/6
 13659  0D90  0087               	movwf	7
 13660  0D91  0801               	movf	1,w
 13661  0D92  0142               	movlb	2	; select bank2
 13662  0D93  009A               	movwf	26	;volatile
 13663  0D94                     i1l4760:
 13664  0D94  3001               	movlw	1
 13665  0D95  00F0               	movwf	??_EUSART1_Transmit_ISR
 13666  0D96  0870               	movf	??_EUSART1_Transmit_ISR,w
 13667  0D97  0141               	movlb	1	; select bank1
 13668  0D98  07EE               	addwf	_eusart1TxTail^(0+128),f	;volatile
 13669  0D99                     i1l4762:
 13670                           
 13671                           ;mcc_generated_files/eusart1.c: 213:         if(sizeof(eusart1TxBuffer) <= eusart1TxTail
      +                          )
 13672  0D99  3040               	movlw	64
 13673  0D9A  026E               	subwf	_eusart1TxTail^(0+128),w	;volatile
 13674  0D9B  1C03               	skipc
 13675  0D9C  2D9E               	goto	u276_21
 13676  0D9D  2D9F               	goto	u276_20
 13677  0D9E                     u276_21:
 13678  0D9E  2DA0               	goto	i1l4766
 13679  0D9F                     u276_20:
 13680  0D9F                     i1l4764:
 13681                           
 13682                           ;mcc_generated_files/eusart1.c: 214:         {;mcc_generated_files/eusart1.c: 215:      
      +                                 eusart1TxTail = 0;
 13683  0D9F  01EE               	clrf	_eusart1TxTail^(0+128)	;volatile
 13684  0DA0                     i1l4766:
 13685                           
 13686                           ;mcc_generated_files/eusart1.c: 217:         eusart1TxBufferRemaining++;
 13687  0DA0  3001               	movlw	1
 13688  0DA1  00F0               	movwf	??_EUSART1_Transmit_ISR
 13689  0DA2  0870               	movf	??_EUSART1_Transmit_ISR,w
 13690  0DA3  0142               	movlb	2	; select bank2
 13691  0DA4  07EE               	addwf	_eusart1TxBufferRemaining^(0+256),f	;volatile
 13692                           
 13693                           ;mcc_generated_files/eusart1.c: 218:     }
 13694  0DA5  2DA8               	goto	i1l647
 13695  0DA6                     i1l644:	
 13696                           ;mcc_generated_files/eusart1.c: 219:     else
 13697                           
 13698                           
 13699                           ;mcc_generated_files/eusart1.c: 220:     {;mcc_generated_files/eusart1.c: 221:         P
      +                          IE3bits.TX1IE = 0;
 13700  0DA6  014E               	movlb	14	; select bank14
 13701  0DA7  1219               	bcf	25,4	;volatile
 13702  0DA8                     i1l647:
 13703  0DA8  0008               	return
 13704  0DA9                     __end_of_EUSART1_Transmit_ISR:
 13705                           
 13706                           	psect	text98
 13707  071F                     __ptext98:	
 13708 ;; *************** function _EUSART1_Receive_ISR *****************
 13709 ;; Defined at:
 13710 ;;		line 225 in file "mcc_generated_files/eusart1.c"
 13711 ;; Parameters:    Size  Location     Type
 13712 ;;		None
 13713 ;; Auto vars:     Size  Location     Type
 13714 ;;		None
 13715 ;; Return value:  Size  Location     Type
 13716 ;;                  1    wreg      void 
 13717 ;; Registers used:
 13718 ;;		wreg, fsr1l, fsr1h, status,2, status,0, pclath, cstack
 13719 ;; Tracked objects:
 13720 ;;		On entry : 0/0
 13721 ;;		On exit  : 0/0
 13722 ;;		Unchanged: 0/0
 13723 ;; Data sizes:     COMMON   BANK0   BANK1   BANK2   BANK3   BANK4   BANK5   BANK6   BANK7   BANK8   BANK9  BANK10  BANK1
      +1  BANK12  BANK13  BANK14  BANK15  BANK16  BANK17  BANK18  BANK19  BANK20  BANK21  BANK22  BANK23  BANK24  BANK25
 13724 ;;      Params:         0       0       0       0       0       0       0       0       0       0       0       0       
      +0       0       0       0       0       0       0       0       0       0       0       0       0       0       0
 13725 ;;      Locals:         0       0       0       0       0       0       0       0       0       0       0       0       
      +0       0       0       0       0       0       0       0       0       0       0       0       0       0       0
 13726 ;;      Temps:          0       0       0       0       0       0       0       0       0       0       0       0       
      +0       0       0       0       0       0       0       0       0       0       0       0       0       0       0
 13727 ;;      Totals:         0       0       0       0       0       0       0       0       0       0       0       0       
      +0       0       0       0       0       0       0       0       0       0       0       0       0       0       0
 13728 ;;Total ram usage:        0 bytes
 13729 ;; Hardware stack levels used: 1
 13730 ;; Hardware stack levels required when called: 2
 13731 ;; This function calls:
 13732 ;;		Absolute function
 13733 ;;		_EUSART1_DefaultErrorHandler
 13734 ;;		_EUSART1_DefaultFramingErrorHandler
 13735 ;;		_EUSART1_DefaultOverrunErrorHandler
 13736 ;;		_EUSART1_RxDataHandler
 13737 ;; This function is called by:
 13738 ;;		_EUSART1_Initialize
 13739 ;;		_INTERRUPT_InterruptManager
 13740 ;; This function uses a non-reentrant model
 13741 ;;
 13742                           
 13743                           
 13744                           ;psect for function _EUSART1_Receive_ISR
 13745  071F                     _EUSART1_Receive_ISR:
 13746  071F                     i1l4768:	
 13747                           ;incstack = 0
 13748                           ; Regs used in _EUSART1_Receive_ISR: [wreg+fsr1l+fsr1h+status,2+status,0+pclath+cstack]
 13749                           
 13750                           
 13751                           ;mcc_generated_files/eusart1.c: 228:     eusart1RxStatusBuffer[eusart1RxHead].status = 0
      +                          ;
 13752  071F  087C               	movf	_eusart1RxHead,w	;volatile
 13753  0720  3EE0               	addlw	(low (_eusart1RxStatusBuffer| (0+256)))& (0+255)
 13754  0721  0086               	movwf	6
 13755  0722  3001               	movlw	1	; select bank3/4
 13756  0723  0087               	movwf	7
 13757  0724  0181               	clrf	1
 13758  0725                     i1l4770:
 13759                           
 13760                           ;mcc_generated_files/eusart1.c: 230:     if(RC1STAbits.FERR){
 13761  0725  0142               	movlb	2	; select bank2
 13762  0726  1D1D               	btfss	29,2	;volatile
 13763  0727  2F29               	goto	u277_21
 13764  0728  2F2A               	goto	u277_20
 13765  0729                     u277_21:
 13766  0729  2F36               	goto	i1l4776
 13767  072A                     u277_20:
 13768  072A                     i1l4772:
 13769                           
 13770                           ;mcc_generated_files/eusart1.c: 231:         eusart1RxStatusBuffer[eusart1RxHead].ferr =
      +                           1;
 13771  072A  087C               	movf	_eusart1RxHead,w	;volatile
 13772  072B  3EE0               	addlw	(low (_eusart1RxStatusBuffer| (0+256)))& (0+255)
 13773  072C  0086               	movwf	6
 13774  072D  3001               	movlw	1	; select bank3/4
 13775  072E  0087               	movwf	7
 13776  072F  1481               	bsf	1,1
 13777  0730                     i1l4774:
 13778                           
 13779                           ;mcc_generated_files/eusart1.c: 232:         EUSART1_FramingErrorHandler();
 13780  0730  0144               	movlb	4	; select bank4
 13781  0731  086B               	movf	(_EUSART1_FramingErrorHandler+1)^(0+512),w
 13782  0732  008A               	movwf	10
 13783  0733  086A               	movf	_EUSART1_FramingErrorHandler^(0+512),w
 13784  0734  000A               	callw
 13785  0735  3187               	pagesel	$
 13786  0736                     i1l4776:
 13787                           
 13788                           ;mcc_generated_files/eusart1.c: 235:     if(RC1STAbits.OERR){
 13789  0736  0142               	movlb	2	; select bank2
 13790  0737  1C9D               	btfss	29,1	;volatile
 13791  0738  2F3A               	goto	u278_21
 13792  0739  2F3B               	goto	u278_20
 13793  073A                     u278_21:
 13794  073A  2F47               	goto	i1l4782
 13795  073B                     u278_20:
 13796  073B                     i1l4778:
 13797                           
 13798                           ;mcc_generated_files/eusart1.c: 236:         eusart1RxStatusBuffer[eusart1RxHead].oerr =
      +                           1;
 13799  073B  087C               	movf	_eusart1RxHead,w	;volatile
 13800  073C  3EE0               	addlw	(low (_eusart1RxStatusBuffer| (0+256)))& (0+255)
 13801  073D  0086               	movwf	6
 13802  073E  3001               	movlw	1	; select bank3/4
 13803  073F  0087               	movwf	7
 13804  0740  1501               	bsf	1,2
 13805  0741                     i1l4780:
 13806                           
 13807                           ;mcc_generated_files/eusart1.c: 237:         EUSART1_OverrunErrorHandler();
 13808  0741  0144               	movlb	4	; select bank4
 13809  0742  0869               	movf	(_EUSART1_OverrunErrorHandler+1)^(0+512),w
 13810  0743  008A               	movwf	10
 13811  0744  0868               	movf	_EUSART1_OverrunErrorHandler^(0+512),w
 13812  0745  000A               	callw
 13813  0746  3187               	pagesel	$
 13814  0747                     i1l4782:
 13815                           
 13816                           ;mcc_generated_files/eusart1.c: 240:     if(eusart1RxStatusBuffer[eusart1RxHead].status)
      +                          {
 13817  0747  087C               	movf	_eusart1RxHead,w	;volatile
 13818  0748  3EE0               	addlw	(low (_eusart1RxStatusBuffer| (0+256)))& (0+255)
 13819  0749  0086               	movwf	6
 13820  074A  3001               	movlw	1	; select bank3/4
 13821  074B  0087               	movwf	7
 13822  074C  0801               	movf	1,w
 13823  074D  1903               	btfsc	3,2
 13824  074E  2F50               	goto	u279_21
 13825  074F  2F51               	goto	u279_20
 13826  0750                     u279_21:
 13827  0750  2F58               	goto	i1l4786
 13828  0751                     u279_20:
 13829  0751                     i1l4784:
 13830                           
 13831                           ;mcc_generated_files/eusart1.c: 241:         EUSART1_ErrorHandler();
 13832  0751  0144               	movlb	4	; select bank4
 13833  0752  0867               	movf	(_EUSART1_ErrorHandler+1)^(0+512),w
 13834  0753  008A               	movwf	10
 13835  0754  0866               	movf	_EUSART1_ErrorHandler^(0+512),w
 13836  0755  000A               	callw
 13837  0756  3187               	pagesel	$
 13838                           
 13839                           ;mcc_generated_files/eusart1.c: 242:     } else {
 13840  0757  2F5B               	goto	i1l654
 13841  0758                     i1l4786:
 13842                           
 13843                           ;mcc_generated_files/eusart1.c: 243:         EUSART1_RxDataHandler();
 13844  0758  318C  2434  3187   	fcall	_EUSART1_RxDataHandler
 13845  075B                     i1l654:
 13846  075B  0008               	return
 13847  075C                     __end_of_EUSART1_Receive_ISR:
 13848                           
 13849                           	psect	text99
 13850  09EF                     __ptext99:	
 13851 ;; *************** function _EUSART1_DefaultOverrunErrorHandler *****************
 13852 ;; Defined at:
 13853 ;;		line 261 in file "mcc_generated_files/eusart1.c"
 13854 ;; Parameters:    Size  Location     Type
 13855 ;;		None
 13856 ;; Auto vars:     Size  Location     Type
 13857 ;;		None
 13858 ;; Return value:  Size  Location     Type
 13859 ;;                  1    wreg      void 
 13860 ;; Registers used:
 13861 ;;		None
 13862 ;; Tracked objects:
 13863 ;;		On entry : 0/0
 13864 ;;		On exit  : 0/0
 13865 ;;		Unchanged: 0/0
 13866 ;; Data sizes:     COMMON   BANK0   BANK1   BANK2   BANK3   BANK4   BANK5   BANK6   BANK7   BANK8   BANK9  BANK10  BANK1
      +1  BANK12  BANK13  BANK14  BANK15  BANK16  BANK17  BANK18  BANK19  BANK20  BANK21  BANK22  BANK23  BANK24  BANK25
 13867 ;;      Params:         0       0       0       0       0       0       0       0       0       0       0       0       
      +0       0       0       0       0       0       0       0       0       0       0       0       0       0       0
 13868 ;;      Locals:         0       0       0       0       0       0       0       0       0       0       0       0       
      +0       0       0       0       0       0       0       0       0       0       0       0       0       0       0
 13869 ;;      Temps:          0       0       0       0       0       0       0       0       0       0       0       0       
      +0       0       0       0       0       0       0       0       0       0       0       0       0       0       0
 13870 ;;      Totals:         0       0       0       0       0       0       0       0       0       0       0       0       
      +0       0       0       0       0       0       0       0       0       0       0       0       0       0       0
 13871 ;;Total ram usage:        0 bytes
 13872 ;; Hardware stack levels used: 1
 13873 ;; This function calls:
 13874 ;;		Nothing
 13875 ;; This function is called by:
 13876 ;;		_EUSART1_Initialize
 13877 ;;		_EUSART1_Receive_ISR
 13878 ;; This function uses a non-reentrant model
 13879 ;;
 13880                           
 13881                           
 13882                           ;psect for function _EUSART1_DefaultOverrunErrorHandler
 13883  09EF                     _EUSART1_DefaultOverrunErrorHandler:
 13884  09EF                     i1l4586:	
 13885                           ;incstack = 0
 13886                           ; Regs used in _EUSART1_DefaultOverrunErrorHandler: []
 13887                           
 13888                           
 13889                           ;mcc_generated_files/eusart1.c: 264:     RC1STAbits.CREN = 0;
 13890  09EF  0142               	movlb	2	; select bank2
 13891  09F0  121D               	bcf	29,4	;volatile
 13892                           
 13893                           ;mcc_generated_files/eusart1.c: 265:     RC1STAbits.CREN = 1;
 13894  09F1  161D               	bsf	29,4	;volatile
 13895  09F2                     i1l664:
 13896  09F2  0008               	return
 13897  09F3                     __end_of_EUSART1_DefaultOverrunErrorHandler:
 13898                           
 13899                           	psect	text100
 13900  09CD                     __ptext100:	
 13901 ;; *************** function _EUSART1_DefaultFramingErrorHandler *****************
 13902 ;; Defined at:
 13903 ;;		line 259 in file "mcc_generated_files/eusart1.c"
 13904 ;; Parameters:    Size  Location     Type
 13905 ;;		None
 13906 ;; Auto vars:     Size  Location     Type
 13907 ;;		None
 13908 ;; Return value:  Size  Location     Type
 13909 ;;                  1    wreg      void 
 13910 ;; Registers used:
 13911 ;;		None
 13912 ;; Tracked objects:
 13913 ;;		On entry : 0/0
 13914 ;;		On exit  : 0/0
 13915 ;;		Unchanged: 0/0
 13916 ;; Data sizes:     COMMON   BANK0   BANK1   BANK2   BANK3   BANK4   BANK5   BANK6   BANK7   BANK8   BANK9  BANK10  BANK1
      +1  BANK12  BANK13  BANK14  BANK15  BANK16  BANK17  BANK18  BANK19  BANK20  BANK21  BANK22  BANK23  BANK24  BANK25
 13917 ;;      Params:         0       0       0       0       0       0       0       0       0       0       0       0       
      +0       0       0       0       0       0       0       0       0       0       0       0       0       0       0
 13918 ;;      Locals:         0       0       0       0       0       0       0       0       0       0       0       0       
      +0       0       0       0       0       0       0       0       0       0       0       0       0       0       0
 13919 ;;      Temps:          0       0       0       0       0       0       0       0       0       0       0       0       
      +0       0       0       0       0       0       0       0       0       0       0       0       0       0       0
 13920 ;;      Totals:         0       0       0       0       0       0       0       0       0       0       0       0       
      +0       0       0       0       0       0       0       0       0       0       0       0       0       0       0
 13921 ;;Total ram usage:        0 bytes
 13922 ;; Hardware stack levels used: 1
 13923 ;; This function calls:
 13924 ;;		Nothing
 13925 ;; This function is called by:
 13926 ;;		_EUSART1_Initialize
 13927 ;;		_EUSART1_Receive_ISR
 13928 ;; This function uses a non-reentrant model
 13929 ;;
 13930                           
 13931                           
 13932                           ;psect for function _EUSART1_DefaultFramingErrorHandler
 13933  09CD                     _EUSART1_DefaultFramingErrorHandler:
 13934  09CD                     i1l661:	
 13935                           ;incstack = 0
 13936                           ; Regs used in _EUSART1_DefaultFramingErrorHandler: []
 13937                           
 13938  09CD  0008               	return
 13939  09CE                     __end_of_EUSART1_DefaultFramingErrorHandler:
 13940                           
 13941                           	psect	text101
 13942  09EB                     __ptext101:	
 13943 ;; *************** function _EUSART1_DefaultErrorHandler *****************
 13944 ;; Defined at:
 13945 ;;		line 269 in file "mcc_generated_files/eusart1.c"
 13946 ;; Parameters:    Size  Location     Type
 13947 ;;		None
 13948 ;; Auto vars:     Size  Location     Type
 13949 ;;		None
 13950 ;; Return value:  Size  Location     Type
 13951 ;;                  1    wreg      void 
 13952 ;; Registers used:
 13953 ;;		wreg, fsr1l, fsr1h, status,2, status,0, pclath, cstack
 13954 ;; Tracked objects:
 13955 ;;		On entry : 0/0
 13956 ;;		On exit  : 0/0
 13957 ;;		Unchanged: 0/0
 13958 ;; Data sizes:     COMMON   BANK0   BANK1   BANK2   BANK3   BANK4   BANK5   BANK6   BANK7   BANK8   BANK9  BANK10  BANK1
      +1  BANK12  BANK13  BANK14  BANK15  BANK16  BANK17  BANK18  BANK19  BANK20  BANK21  BANK22  BANK23  BANK24  BANK25
 13959 ;;      Params:         0       0       0       0       0       0       0       0       0       0       0       0       
      +0       0       0       0       0       0       0       0       0       0       0       0       0       0       0
 13960 ;;      Locals:         0       0       0       0       0       0       0       0       0       0       0       0       
      +0       0       0       0       0       0       0       0       0       0       0       0       0       0       0
 13961 ;;      Temps:          0       0       0       0       0       0       0       0       0       0       0       0       
      +0       0       0       0       0       0       0       0       0       0       0       0       0       0       0
 13962 ;;      Totals:         0       0       0       0       0       0       0       0       0       0       0       0       
      +0       0       0       0       0       0       0       0       0       0       0       0       0       0       0
 13963 ;;Total ram usage:        0 bytes
 13964 ;; Hardware stack levels used: 1
 13965 ;; Hardware stack levels required when called: 1
 13966 ;; This function calls:
 13967 ;;		_EUSART1_RxDataHandler
 13968 ;; This function is called by:
 13969 ;;		_EUSART1_Initialize
 13970 ;;		_EUSART1_Receive_ISR
 13971 ;; This function uses a non-reentrant model
 13972 ;;
 13973                           
 13974                           
 13975                           ;psect for function _EUSART1_DefaultErrorHandler
 13976  09EB                     _EUSART1_DefaultErrorHandler:
 13977  09EB                     i1l4588:	
 13978                           ;incstack = 0
 13979                           ; Regs used in _EUSART1_DefaultErrorHandler: [wreg+fsr1l+fsr1h+status,2+status,0+pclath+
      +                          cstack]
 13980                           
 13981                           
 13982                           ;mcc_generated_files/eusart1.c: 270:     EUSART1_RxDataHandler();
 13983  09EB  318C  2434  3189   	fcall	_EUSART1_RxDataHandler
 13984  09EE                     i1l667:
 13985  09EE  0008               	return
 13986  09EF                     __end_of_EUSART1_DefaultErrorHandler:
 13987                           
 13988                           	psect	text102
 13989  0C34                     __ptext102:	
 13990 ;; *************** function _EUSART1_RxDataHandler *****************
 13991 ;; Defined at:
 13992 ;;		line 249 in file "mcc_generated_files/eusart1.c"
 13993 ;; Parameters:    Size  Location     Type
 13994 ;;		None
 13995 ;; Auto vars:     Size  Location     Type
 13996 ;;		None
 13997 ;; Return value:  Size  Location     Type
 13998 ;;                  1    wreg      void 
 13999 ;; Registers used:
 14000 ;;		wreg, fsr1l, fsr1h, status,2, status,0
 14001 ;; Tracked objects:
 14002 ;;		On entry : 0/0
 14003 ;;		On exit  : 0/0
 14004 ;;		Unchanged: 0/0
 14005 ;; Data sizes:     COMMON   BANK0   BANK1   BANK2   BANK3   BANK4   BANK5   BANK6   BANK7   BANK8   BANK9  BANK10  BANK1
      +1  BANK12  BANK13  BANK14  BANK15  BANK16  BANK17  BANK18  BANK19  BANK20  BANK21  BANK22  BANK23  BANK24  BANK25
 14006 ;;      Params:         0       0       0       0       0       0       0       0       0       0       0       0       
      +0       0       0       0       0       0       0       0       0       0       0       0       0       0       0
 14007 ;;      Locals:         0       0       0       0       0       0       0       0       0       0       0       0       
      +0       0       0       0       0       0       0       0       0       0       0       0       0       0       0
 14008 ;;      Temps:          1       0       0       0       0       0       0       0       0       0       0       0       
      +0       0       0       0       0       0       0       0       0       0       0       0       0       0       0
 14009 ;;      Totals:         1       0       0       0       0       0       0       0       0       0       0       0       
      +0       0       0       0       0       0       0       0       0       0       0       0       0       0       0
 14010 ;;Total ram usage:        1 bytes
 14011 ;; Hardware stack levels used: 1
 14012 ;; This function calls:
 14013 ;;		Nothing
 14014 ;; This function is called by:
 14015 ;;		_EUSART1_Receive_ISR
 14016 ;;		_EUSART1_DefaultErrorHandler
 14017 ;; This function uses a non-reentrant model
 14018 ;;
 14019                           
 14020                           
 14021                           ;psect for function _EUSART1_RxDataHandler
 14022  0C34                     _EUSART1_RxDataHandler:
 14023  0C34                     i1l4466:	
 14024                           ;incstack = 0
 14025                           ; Regs used in _EUSART1_RxDataHandler: [wreg+fsr1l+fsr1h+status,2+status,0]
 14026                           
 14027                           
 14028                           ;mcc_generated_files/eusart1.c: 251:     eusart1RxBuffer[eusart1RxHead++] = RC1REG;
 14029  0C34  0142               	movlb	2	; select bank2
 14030  0C35  0819               	movf	25,w	;volatile
 14031  0C36  00F0               	movwf	??_EUSART1_RxDataHandler
 14032  0C37  087C               	movf	_eusart1RxHead,w
 14033  0C38  3E3E               	addlw	(low (_eusart1RxBuffer| (0+512)))& (0+255)
 14034  0C39  0086               	movwf	6
 14035  0C3A  3002               	movlw	2	; select bank4/5
 14036  0C3B  0087               	movwf	7
 14037  0C3C  0870               	movf	??_EUSART1_RxDataHandler,w
 14038  0C3D  0081               	movwf	1
 14039  0C3E                     i1l4468:
 14040  0C3E  3001               	movlw	1
 14041  0C3F  00F0               	movwf	??_EUSART1_RxDataHandler
 14042  0C40  0870               	movf	??_EUSART1_RxDataHandler,w
 14043  0C41  07FC               	addwf	_eusart1RxHead,f	;volatile
 14044  0C42                     i1l4470:
 14045                           
 14046                           ;mcc_generated_files/eusart1.c: 252:     if(sizeof(eusart1RxBuffer) <= eusart1RxHead)
 14047  0C42  3008               	movlw	8
 14048  0C43  027C               	subwf	_eusart1RxHead,w	;volatile
 14049  0C44  1C03               	skipc
 14050  0C45  2C47               	goto	u252_21
 14051  0C46  2C48               	goto	u252_20
 14052  0C47                     u252_21:
 14053  0C47  2C49               	goto	i1l4474
 14054  0C48                     u252_20:
 14055  0C48                     i1l4472:
 14056                           
 14057                           ;mcc_generated_files/eusart1.c: 253:     {;mcc_generated_files/eusart1.c: 254:         e
      +                          usart1RxHead = 0;
 14058  0C48  01FC               	clrf	_eusart1RxHead	;volatile
 14059  0C49                     i1l4474:
 14060                           
 14061                           ;mcc_generated_files/eusart1.c: 256:     eusart1RxCount++;
 14062  0C49  3001               	movlw	1
 14063  0C4A  00F0               	movwf	??_EUSART1_RxDataHandler
 14064  0C4B  0870               	movf	??_EUSART1_RxDataHandler,w
 14065  0C4C  0141               	movlb	1	; select bank1
 14066  0C4D  07EC               	addwf	_eusart1RxCount^(0+128),f	;volatile
 14067  0C4E                     i1l658:
 14068  0C4E  0008               	return
 14069  0C4F                     __end_of_EUSART1_RxDataHandler:
 14070  007E                     btemp	set	126	;btemp
 14071  007E                     int$flags	set	126
 14072  007E                     wtemp0	set	126
 14073                           
 14074                           	psect	config
 14075                           
 14076                           ;Config register CONFIG1 @ 0x8007
 14077                           ;	External Oscillator mode selection bits
 14078                           ;	FEXTOSC = OFF, Oscillator not enabled
 14079                           ;	Power-up default value for COSC bits
 14080                           ;	RSTOSC = HFINT1, HFINTOSC (1MHz)
 14081                           ;	Clock Out Enable bit
 14082                           ;	CLKOUTEN = OFF, CLKOUT function is disabled; i/o or oscillator function on OSC2
 14083                           ;	Clock Switch Enable bit
 14084                           ;	CSWEN = ON, Writing to NOSC and NDIV is allowed
 14085                           ;	Fail-Safe Clock Monitor Enable bit
 14086                           ;	FCMEN = ON, FSCM timer enabled
 14087  8007                     	org	32775
 14088  8007  3FEC               	dw	16364
 14089                           
 14090                           ;Config register CONFIG2 @ 0x8008
 14091                           ;	Master Clear Enable bit
 14092                           ;	MCLRE = ON, MCLR pin is Master Clear function
 14093                           ;	Power-up Timer Enable bit
 14094                           ;	PWRTE = OFF, PWRT disabled
 14095                           ;	Low-Power BOR enable bit
 14096                           ;	LPBOREN = OFF, ULPBOR disabled
 14097                           ;	Brown-out reset enable bits
 14098                           ;	BOREN = ON, Brown-out Reset Enabled, SBOREN bit is ignored
 14099                           ;	Brown-out Reset Voltage Selection
 14100                           ;	BORV = LO, Brown-out Reset Voltage (VBOR) set to 1.9V on LF, and 2.45V on F Devices
 14101                           ;	Zero-cross detect disable
 14102                           ;	ZCD = OFF, Zero-cross detect circuit is disabled at POR.
 14103                           ;	Peripheral Pin Select one-way control
 14104                           ;	PPS1WAY = ON, The PPSLOCK bit can be cleared and set only once in software
 14105                           ;	Stack Overflow/Underflow Reset Enable bit
 14106                           ;	STVREN = ON, Stack Overflow or Underflow will cause a reset
 14107  8008                     	org	32776
 14108  8008  3FFF               	dw	16383
 14109                           
 14110                           ;Config register CONFIG3 @ 0x8009
 14111                           ;	WDT Period Select bits
 14112                           ;	WDTCPS = WDTCPS_31, Divider ratio 1:65536; software control of WDTPS
 14113                           ;	WDT operating mode
 14114                           ;	WDTE = OFF, WDT Disabled, SWDTEN is ignored
 14115                           ;	WDT Window Select bits
 14116                           ;	WDTCWS = WDTCWS_7, window always open (100%); software control; keyed access not requi
      +                          red
 14117                           ;	WDT input clock selector
 14118                           ;	WDTCCS = SC, Software Control
 14119  8009                     	org	32777
 14120  8009  3F9F               	dw	16287
 14121                           
 14122                           ;Config register CONFIG4 @ 0x800A
 14123                           ;	Boot Block Size Selection bits
 14124                           ;	BBSIZE = BB512, 512 words boot block size
 14125                           ;	Boot Block Enable bit
 14126                           ;	BBEN = OFF, Boot Block disabled
 14127                           ;	SAF Enable bit
 14128                           ;	SAFEN = OFF, SAF disabled
 14129                           ;	Application Block Write Protection bit
 14130                           ;	WRTAPP = OFF, Application Block not write protected
 14131                           ;	Boot Block Write Protection bit
 14132                           ;	WRTB = OFF, Boot Block not write protected
 14133                           ;	Configuration Register Write Protection bit
 14134                           ;	WRTC = OFF, Configuration Register not write protected
 14135                           ;	Storage Area Flash Write Protection bit
 14136                           ;	WRTSAF = OFF, SAF not write protected
 14137                           ;	Low Voltage Programming Enable bit
 14138                           ;	LVP = ON, Low Voltage programming enabled. MCLR/Vpp pin function is MCLR.
 14139  800A                     	org	32778
 14140  800A  3FFF               	dw	16383
 14141                           
 14142                           ;Config register CONFIG5 @ 0x800B
 14143                           ;	UserNVM Program memory code protection bit
 14144                           ;	CP = OFF, UserNVM code protection disabled
 14145  800B                     	org	32779
 14146  800B  3FFF               	dw	16383

Data Sizes:
    Strings     93
    Constant    32
    Data        9
    BSS         160
    Persistent  43
    Stack       0

Auto Spaces:
    Space          Size  Autos    Used
    COMMON           14     12      13
    BANK0            80     80      80
    BANK1            80     72      80
    BANK2            80     64      79
    BANK3            80     64      80
    BANK4            80      0      76
    BANK5            80      0      64
    BANK6            80      0       0
    BANK7            80      0       0
    BANK8            80      0       0
    BANK9            80      0       0
    BANK10           80      0       0
    BANK11           80      0       0
    BANK12           80      0       0
    BANK13           80      0       0
    BANK14           80      0       0
    BANK15           80      0       0
    BANK16           80      0       0
    BANK17           80      0       0
    BANK18           80      0       0
    BANK19           80      0       0
    BANK20           80      0       0
    BANK21           80      0       0
    BANK22           80      0       0
    BANK23           80      0       0
    BANK24           80      0       0
    BANK25           32      0       0

Pointer List with Targets:

    i2c_write1ByteRegister@data.data	PTR unsigned char  size(1) Largest target is 0

    i2c_read1ByteRegister@d2.data	PTR unsigned char  size(1) Largest target is 0

    i2c_read2ByteRegister@result.data	PTR unsigned char  size(1) Largest target is 0

    i2c_write2ByteRegister@data.data	PTR unsigned char  size(1) Largest target is 0

    I2C1_Read1ByteRegister@returnValue.data	PTR unsigned char  size(1) Largest target is 0

    I2C1_Read2ByteRegister@returnValue.data	PTR unsigned char  size(1) Largest target is 0

    I2C1_Write1ByteRegister@data.data	PTR unsigned char  size(1) Largest target is 0

    I2C1_Write2ByteRegister@data.data	PTR unsigned char  size(1) Largest target is 0

    I2C1_DO_TX$2545$0	PTR void  size(1) Largest target is 4
		 -> I2C1_ReadDataBlock@bufferBlock(COMMON[3]), I2C1_Write2ByteRegister@data(COMMON[2]), I2C1_Write1ByteRegister@data(COMMON[1]), I2C1_Read2ByteRegister@returnValue(COMMON[2]), 
		 -> I2C1_Read1ByteRegister@returnValue(COMMON[1]), i2c_readDataBlock@d(COMMON[3]), i2c_write2ByteRegister@data(COMMON[2]), i2c_read2ByteRegister@result(COMMON[2]), 
		 -> i2c_read1ByteRegister@d2(COMMON[1]), i2c_write1ByteRegister@data(COMMON[1]), NULL(NULL[0]), 

    I2C1_DO_TX$2550	PTR void  size(1) Largest target is 4
		 -> I2C1_ReadDataBlock@bufferBlock(COMMON[3]), I2C1_Write2ByteRegister@data(COMMON[2]), I2C1_Write1ByteRegister@data(COMMON[1]), I2C1_Read2ByteRegister@returnValue(COMMON[2]), 
		 -> I2C1_Read1ByteRegister@returnValue(COMMON[1]), i2c_readDataBlock@d(COMMON[3]), i2c_write2ByteRegister@data(COMMON[2]), i2c_read2ByteRegister@result(COMMON[2]), 
		 -> i2c_read1ByteRegister@d2(COMMON[1]), i2c_write1ByteRegister@data(COMMON[1]), NULL(NULL[0]), 

    I2C1_DO_TX$2545	PTR FTN(PTR void ,)enum E360 size(2) Largest target is 1
		 -> I2C1_CallbackReturnReset(), I2C1_CallbackReturnStop(), Absolute function(), rdBlkRegCompleteHandler@i2c1_master_example$F177(), 
		 -> wr2RegCompleteHandler@i2c1_master_example$F166(), wr1RegCompleteHandler@i2c1_master_example$F160(), rd2RegCompleteHandler@i2c1_master_example$F154(), rd1RegCompleteHandler@i2c1_master_example$F143(), 
		 -> rdBlkRegCompleteHandler(), wr2RegCompleteHandler(), rd2RegCompleteHandler(), rd1RegCompleteHandler(), 
		 -> wr1RegCompleteHandler(), 

    I2C1_MasterFsm$2544	const PTR FTN()enum E8119 size(2) Largest target is 1
		 -> I2C1_DO_ADDRESS_NACK(), I2C1_DO_RESET(), I2C1_DO_RX_NACK_RESTART(), I2C1_DO_RX_NACK_STOP(), 
		 -> I2C1_DO_RX_ACK(), I2C1_DO_SEND_STOP(), I2C1_DO_SEND_RESTART(), I2C1_DO_SEND_RESTART_WRITE(), 
		 -> I2C1_DO_SEND_RESTART_READ(), I2C1_DO_TX_EMPTY(), I2C1_DO_RCEN(), I2C1_DO_RX(), 
		 -> I2C1_DO_TX(), I2C1_DO_SEND_ADR_WRITE(), I2C1_DO_SEND_ADR_READ(), I2C1_DO_IDLE(), 

    I2C1_CallbackReturnStop@funPtr	PTR void  size(1) Largest target is 4
		 -> I2C1_ReadDataBlock@bufferBlock(COMMON[3]), I2C1_Write2ByteRegister@data(COMMON[2]), I2C1_Write1ByteRegister@data(COMMON[1]), I2C1_Read2ByteRegister@returnValue(COMMON[2]), 
		 -> I2C1_Read1ByteRegister@returnValue(COMMON[1]), i2c_readDataBlock@d(COMMON[3]), i2c_write2ByteRegister@data(COMMON[2]), i2c_read2ByteRegister@result(COMMON[2]), 
		 -> i2c_read1ByteRegister@d2(COMMON[1]), i2c_write1ByteRegister@data(COMMON[1]), NULL(NULL[0]), 

    I2C1_CallbackReturnReset@funPtr	PTR void  size(1) Largest target is 4
		 -> I2C1_ReadDataBlock@bufferBlock(COMMON[3]), I2C1_Write2ByteRegister@data(COMMON[2]), I2C1_Write1ByteRegister@data(COMMON[1]), I2C1_Read2ByteRegister@returnValue(COMMON[2]), 
		 -> I2C1_Read1ByteRegister@returnValue(COMMON[1]), i2c_readDataBlock@d(COMMON[3]), i2c_write2ByteRegister@data(COMMON[2]), i2c_read2ByteRegister@result(COMMON[2]), 
		 -> i2c_read1ByteRegister@d2(COMMON[1]), i2c_write1ByteRegister@data(COMMON[1]), NULL(NULL[0]), 

    cb$0	PTR void  size(1) Largest target is 4
		 -> I2C1_ReadDataBlock@bufferBlock(COMMON[3]), I2C1_Write2ByteRegister@data(COMMON[2]), I2C1_Write1ByteRegister@data(COMMON[1]), I2C1_Read2ByteRegister@returnValue(COMMON[2]), 
		 -> I2C1_Read1ByteRegister@returnValue(COMMON[1]), i2c_readDataBlock@d(COMMON[3]), i2c_write2ByteRegister@data(COMMON[2]), i2c_read2ByteRegister@result(COMMON[2]), 
		 -> i2c_read1ByteRegister@d2(COMMON[1]), i2c_write1ByteRegister@data(COMMON[1]), NULL(NULL[0]), 

    Absolute function$0	PTR void  size(1) Largest target is 4
		 -> I2C1_ReadDataBlock@bufferBlock(COMMON[3]), I2C1_Write2ByteRegister@data(COMMON[2]), I2C1_Write1ByteRegister@data(COMMON[1]), I2C1_Read2ByteRegister@returnValue(COMMON[2]), 
		 -> I2C1_Read1ByteRegister@returnValue(COMMON[1]), i2c_readDataBlock@d(COMMON[3]), i2c_write2ByteRegister@data(COMMON[2]), i2c_read2ByteRegister@result(COMMON[2]), 
		 -> i2c_read1ByteRegister@d2(COMMON[1]), i2c_write1ByteRegister@data(COMMON[1]), NULL(NULL[0]), 

    cb$0	PTR void  size(1) Largest target is 4
		 -> I2C1_ReadDataBlock@bufferBlock(COMMON[3]), I2C1_Write2ByteRegister@data(COMMON[2]), I2C1_Write1ByteRegister@data(COMMON[1]), I2C1_Read2ByteRegister@returnValue(COMMON[2]), 
		 -> I2C1_Read1ByteRegister@returnValue(COMMON[1]), i2c_readDataBlock@d(COMMON[3]), i2c_write2ByteRegister@data(COMMON[2]), i2c_read2ByteRegister@result(COMMON[2]), 
		 -> i2c_read1ByteRegister@d2(COMMON[1]), i2c_write1ByteRegister@data(COMMON[1]), NULL(NULL[0]), 

    S325$0$0	PTR void  size(1) Largest target is 4
		 -> I2C1_ReadDataBlock@bufferBlock(COMMON[3]), I2C1_Write2ByteRegister@data(COMMON[2]), I2C1_Write1ByteRegister@data(COMMON[1]), I2C1_Read2ByteRegister@returnValue(COMMON[2]), 
		 -> I2C1_Read1ByteRegister@returnValue(COMMON[1]), i2c_readDataBlock@d(COMMON[3]), i2c_write2ByteRegister@data(COMMON[2]), i2c_read2ByteRegister@result(COMMON[2]), 
		 -> i2c_read1ByteRegister@d2(COMMON[1]), i2c_write1ByteRegister@data(COMMON[1]), NULL(NULL[0]), 

    strlen@s	PTR const unsigned char  size(1) Largest target is 32
		 -> dbuf(BANK4[32]), 

    strlen@a	PTR const unsigned char  size(1) Largest target is 32
		 -> dbuf(BANK4[32]), 

    fputs@s	PTR const unsigned char  size(1) Largest target is 32
		 -> dbuf(BANK4[32]), 

    fputs@fp	PTR struct _IO_FILE size(1) Largest target is 0
		 -> NULL(NULL[0]), 

    S2012_IO_FILE$buffer	PTR unsigned char  size(1) Largest target is 0

    fputc@fp.buffer	PTR unsigned char  size(1) Largest target is 0

    fputc@fp	PTR struct _IO_FILE size(1) Largest target is 0
		 -> NULL(NULL[0]), 

    atoi@s	PTR const unsigned char  size(2) Largest target is 30
		 -> STR_5(CODE[30]), STR_4(CODE[2]), STR_3(CODE[13]), STR_2(CODE[22]), 
		 -> STR_1(CODE[26]), 

    vfprintf@ap	PTR PTR void  size(1) Largest target is 1
		 -> printf@ap(BANK1[1]), 

    vfprintf@fp	PTR struct _IO_FILE size(1) Largest target is 0
		 -> NULL(NULL[0]), 

    vfprintf@fmt	PTR const unsigned char  size(2) Largest target is 30
		 -> STR_5(CODE[30]), STR_4(CODE[2]), STR_3(CODE[13]), STR_2(CODE[22]), 
		 -> STR_1(CODE[26]), 

    vfprintf@cfmt	PTR unsigned char  size(2) Largest target is 30
		 -> STR_5(CODE[30]), STR_4(CODE[2]), STR_3(CODE[13]), STR_2(CODE[22]), 
		 -> STR_1(CODE[26]), 

    vfpfcnvrt@fp	PTR struct _IO_FILE size(1) Largest target is 0
		 -> NULL(NULL[0]), 

    vfpfcnvrt@ap	PTR PTR void  size(1) Largest target is 1
		 -> printf@ap(BANK1[1]), 

    vfpfcnvrt@fmt	PTR PTR unsigned char  size(1) Largest target is 2
		 -> vfprintf@cfmt(BANK1[2]), 

    xtoa@fp	PTR struct _IO_FILE size(1) Largest target is 0
		 -> NULL(NULL[0]), 

    pad@fp	PTR struct _IO_FILE size(1) Largest target is 0
		 -> NULL(NULL[0]), 

    pad@buf	PTR unsigned char  size(1) Largest target is 32
		 -> dbuf(BANK4[32]), 

    printf@fmt	PTR const unsigned char  size(2) Largest target is 30
		 -> STR_5(CODE[30]), STR_4(CODE[2]), STR_3(CODE[13]), STR_2(CODE[22]), 
		 -> STR_1(CODE[26]), 

    printf@ap	PTR void [1] size(1) Largest target is 2
		 -> ?_printf(BANK1[2]), 

    memcpy@d1	PTR void  size(1) Largest target is 66
		 -> EE_WritePage@frame(BANK1[66]), 

    memcpy@d	PTR unsigned char  size(1) Largest target is 66
		 -> EE_WritePage@frame(BANK1[66]), 

    memcpy@s1	PTR const void  size(1) Largest target is 64
		 -> main@datain(BANK3[64]), 

    memcpy@s	PTR const unsigned char  size(1) Largest target is 64
		 -> main@datain(BANK3[64]), 

    MemoryTest@pdata2	PTR const unsigned char  size(1) Largest target is 64
		 -> main@dataout(BANK2[64]), 

    MemoryTest@pdata1	PTR const unsigned char  size(1) Largest target is 64
		 -> main@datain(BANK3[64]), 

    RandomArray@pD	PTR unsigned char  size(1) Largest target is 64
		 -> main@datain(BANK3[64]), 

    EE_ReadPage@pData	PTR unsigned char  size(1) Largest target is 64
		 -> main@dataout(BANK2[64]), 

    sp__memcpy	PTR void  size(1) Largest target is 66
		 -> EE_WritePage@frame(BANK1[66]), 

    EE_WritePage@pdata	PTR const unsigned char  size(1) Largest target is 64
		 -> main@datain(BANK3[64]), 

    Sw_I2c_Cxt.Buf.pD	PTR unsigned char  size(1) Largest target is 0
		 -> NULL(NULL[0]), 

    Sw_I2c_Cxt.Rx.pD	PTR unsigned char  size(1) Largest target is 0
		 -> NULL(NULL[0]), 

    S1370$pD	PTR unsigned char  size(1) Largest target is 0
		 -> NULL(NULL[0]), 

    Sw_I2c_Cxt.Tx.pD	PTR unsigned char  size(1) Largest target is 0
		 -> NULL(NULL[0]), 

    EUSART1_SetRxInterruptHandler@interruptHandler	PTR FTN()void  size(2) Largest target is 1
		 -> EUSART1_Receive_ISR(), 

    EUSART1_RxDefaultInterruptHandler	PTR FTN()void  size(2) Largest target is 1
		 -> EUSART1_Receive_ISR(), Absolute function(), 

    EUSART1_SetTxInterruptHandler@interruptHandler	PTR FTN()void  size(2) Largest target is 1
		 -> EUSART1_Transmit_ISR(), 

    EUSART1_TxDefaultInterruptHandler	PTR FTN()void  size(2) Largest target is 1
		 -> EUSART1_Transmit_ISR(), Absolute function(), 

    EUSART1_SetErrorHandler@interruptHandler	PTR FTN()void  size(2) Largest target is 1
		 -> EUSART1_DefaultErrorHandler(), 

    EUSART1_SetOverrunErrorHandler@interruptHandler	PTR FTN()void  size(2) Largest target is 1
		 -> EUSART1_DefaultOverrunErrorHandler(), 

    EUSART1_SetFramingErrorHandler@interruptHandler	PTR FTN()void  size(2) Largest target is 1
		 -> EUSART1_DefaultFramingErrorHandler(), 

    EUSART1_ErrorHandler	PTR FTN()void  size(2) Largest target is 1
		 -> EUSART1_DefaultErrorHandler(), Absolute function(), 

    EUSART1_OverrunErrorHandler	PTR FTN()void  size(2) Largest target is 1
		 -> EUSART1_DefaultOverrunErrorHandler(), Absolute function(), 

    EUSART1_FramingErrorHandler	PTR FTN()void  size(2) Largest target is 1
		 -> EUSART1_DefaultFramingErrorHandler(), Absolute function(), 

    I2C1_SetCallback@ptr	PTR void  size(1) Largest target is 4
		 -> I2C1_ReadDataBlock@bufferBlock(COMMON[3]), I2C1_Write2ByteRegister@data(COMMON[2]), I2C1_Write1ByteRegister@data(COMMON[1]), I2C1_Read2ByteRegister@returnValue(COMMON[2]), 
		 -> I2C1_Read1ByteRegister@returnValue(COMMON[1]), i2c_readDataBlock@d(COMMON[3]), i2c_write2ByteRegister@data(COMMON[2]), i2c_read2ByteRegister@result(COMMON[2]), 
		 -> i2c_read1ByteRegister@d2(COMMON[1]), i2c_write1ByteRegister@data(COMMON[1]), NULL(NULL[0]), 

    I2C1_SetCallback@cb	PTR FTN(PTR void ,)enum E360 size(2) Largest target is 1
		 -> Absolute function(), rdBlkRegCompleteHandler@i2c1_master_example$F177(), wr2RegCompleteHandler@i2c1_master_example$F166(), wr1RegCompleteHandler@i2c1_master_example$F160(), 
		 -> rd2RegCompleteHandler@i2c1_master_example$F154(), rd1RegCompleteHandler@i2c1_master_example$F143(), rdBlkRegCompleteHandler(), wr2RegCompleteHandler(), 
		 -> rd2RegCompleteHandler(), rd1RegCompleteHandler(), wr1RegCompleteHandler(), 

    I2C1_SetAddressNackCallback@ptr	PTR void  size(1) Largest target is 0
		 -> NULL(NULL[0]), 

    I2C1_SetAddressNackCallback@cb	PTR FTN(PTR void ,)enum E360 size(2) Largest target is 1
		 -> Absolute function(), 

    I2C1_SetDataCompleteCallback@ptr	PTR void  size(1) Largest target is 4
		 -> I2C1_ReadDataBlock@bufferBlock(COMMON[3]), I2C1_Write2ByteRegister@data(COMMON[2]), I2C1_Write1ByteRegister@data(COMMON[1]), I2C1_Read2ByteRegister@returnValue(COMMON[2]), 
		 -> I2C1_Read1ByteRegister@returnValue(COMMON[1]), i2c_readDataBlock@d(COMMON[3]), i2c_write2ByteRegister@data(COMMON[2]), i2c_read2ByteRegister@result(COMMON[2]), 
		 -> i2c_read1ByteRegister@d2(COMMON[1]), i2c_write1ByteRegister@data(COMMON[1]), NULL(NULL[0]), 

    I2C1_SetDataCompleteCallback@cb	PTR FTN(PTR void ,)enum E360 size(2) Largest target is 1
		 -> Absolute function(), rdBlkRegCompleteHandler@i2c1_master_example$F177(), wr2RegCompleteHandler@i2c1_master_example$F166(), wr1RegCompleteHandler@i2c1_master_example$F160(), 
		 -> rd2RegCompleteHandler@i2c1_master_example$F154(), rd1RegCompleteHandler@i2c1_master_example$F143(), rdBlkRegCompleteHandler(), wr2RegCompleteHandler(), 
		 -> rd2RegCompleteHandler(), rd1RegCompleteHandler(), wr1RegCompleteHandler(), 

    I2C1_SetBuffer@buffer	PTR void  size(2) Largest target is 66
		 -> main@dataout(BANK2[64]), EE_ReadPage@frame(BANK0[2]), EE_WritePage@frame(BANK1[66]), EE_Read@frame(COMMON[3]), 
		 -> EE_Write@frame(BANK0[3]), I2C1_ReadDataBlock@reg(COMMON[1]), I2C1_ReadDataBlock@bufferBlock(COMMON[3]), I2C1_Write2ByteRegister@reg(COMMON[1]), 
		 -> I2C1_Write2ByteRegister@data(COMMON[2]), I2C1_Write1ByteRegister@reg(COMMON[1]), I2C1_Write1ByteRegister@data(COMMON[1]), I2C1_Read2ByteRegister@reg(COMMON[1]), 
		 -> I2C1_Read2ByteRegister@returnValue(COMMON[2]), I2C1_Read1ByteRegister@reg(COMMON[1]), I2C1_Read1ByteRegister@returnValue(COMMON[1]), i2c_readDataBlock@reg(COMMON[1]), 
		 -> i2c_readDataBlock@d(COMMON[3]), i2c_write2ByteRegister@reg(COMMON[1]), i2c_write2ByteRegister@data(COMMON[2]), i2c_read2ByteRegister@reg(COMMON[1]), 
		 -> i2c_read2ByteRegister@result(COMMON[2]), i2c_read1ByteRegister@reg(COMMON[1]), i2c_read1ByteRegister@d2(COMMON[1]), i2c_write1ByteRegister@reg(COMMON[1]), 
		 -> i2c_write1ByteRegister@data(COMMON[1]), NULL(NULL[0]), 

    S325$data_ptr	PTR unsigned char  size(2) Largest target is 66
		 -> main@dataout(BANK2[64]), EE_ReadPage@frame(BANK0[2]), EE_WritePage@frame(BANK1[66]), EE_Read@frame(COMMON[3]), 
		 -> EE_Write@frame(BANK0[3]), I2C1_ReadDataBlock@reg(COMMON[1]), I2C1_ReadDataBlock@bufferBlock(COMMON[3]), I2C1_Write2ByteRegister@reg(COMMON[1]), 
		 -> I2C1_Write2ByteRegister@data(COMMON[2]), I2C1_Write1ByteRegister@reg(COMMON[1]), I2C1_Write1ByteRegister@data(COMMON[1]), I2C1_Read2ByteRegister@reg(COMMON[1]), 
		 -> I2C1_Read2ByteRegister@returnValue(COMMON[2]), I2C1_Read1ByteRegister@reg(COMMON[1]), I2C1_Read1ByteRegister@returnValue(COMMON[1]), i2c_readDataBlock@reg(COMMON[1]), 
		 -> i2c_readDataBlock@d(COMMON[3]), i2c_write2ByteRegister@reg(COMMON[1]), i2c_write2ByteRegister@data(COMMON[2]), i2c_read2ByteRegister@reg(COMMON[1]), 
		 -> i2c_read2ByteRegister@result(COMMON[2]), i2c_read1ByteRegister@reg(COMMON[1]), i2c_read1ByteRegister@d2(COMMON[1]), i2c_write1ByteRegister@reg(COMMON[1]), 
		 -> i2c_write1ByteRegister@data(COMMON[1]), NULL(NULL[0]), 

    I2C1_Status.data_ptr	PTR unsigned char  size(2) Largest target is 66
		 -> main@dataout(BANK2[64]), EE_ReadPage@frame(BANK0[2]), EE_WritePage@frame(BANK1[66]), EE_Read@frame(COMMON[3]), 
		 -> EE_Write@frame(BANK0[3]), I2C1_ReadDataBlock@reg(COMMON[1]), I2C1_ReadDataBlock@bufferBlock(COMMON[3]), I2C1_Write2ByteRegister@reg(COMMON[1]), 
		 -> I2C1_Write2ByteRegister@data(COMMON[2]), I2C1_Write1ByteRegister@reg(COMMON[1]), I2C1_Write1ByteRegister@data(COMMON[1]), I2C1_Read2ByteRegister@reg(COMMON[1]), 
		 -> I2C1_Read2ByteRegister@returnValue(COMMON[2]), I2C1_Read1ByteRegister@reg(COMMON[1]), I2C1_Read1ByteRegister@returnValue(COMMON[1]), i2c_readDataBlock@reg(COMMON[1]), 
		 -> i2c_readDataBlock@d(COMMON[3]), i2c_write2ByteRegister@reg(COMMON[1]), i2c_write2ByteRegister@data(COMMON[2]), i2c_read2ByteRegister@reg(COMMON[1]), 
		 -> i2c_read2ByteRegister@result(COMMON[2]), i2c_read1ByteRegister@reg(COMMON[1]), i2c_read1ByteRegister@d2(COMMON[1]), i2c_write1ByteRegister@reg(COMMON[1]), 
		 -> i2c_write1ByteRegister@data(COMMON[1]), NULL(NULL[0]), 

    S325$callbackPayload	PTR void [6] size(1) Largest target is 4
		 -> I2C1_ReadDataBlock@bufferBlock(COMMON[3]), I2C1_Write2ByteRegister@data(COMMON[2]), I2C1_Write1ByteRegister@data(COMMON[1]), I2C1_Read2ByteRegister@returnValue(COMMON[2]), 
		 -> I2C1_Read1ByteRegister@returnValue(COMMON[1]), i2c_readDataBlock@d(COMMON[3]), i2c_write2ByteRegister@data(COMMON[2]), i2c_read2ByteRegister@result(COMMON[2]), 
		 -> i2c_read1ByteRegister@d2(COMMON[1]), i2c_write1ByteRegister@data(COMMON[1]), NULL(NULL[0]), 

    I2C1_Status.callbackPayload	PTR void [6] size(1) Largest target is 4
		 -> I2C1_ReadDataBlock@bufferBlock(COMMON[3]), I2C1_Write2ByteRegister@data(COMMON[2]), I2C1_Write1ByteRegister@data(COMMON[1]), I2C1_Read2ByteRegister@returnValue(COMMON[2]), 
		 -> I2C1_Read1ByteRegister@returnValue(COMMON[1]), i2c_readDataBlock@d(COMMON[3]), i2c_write2ByteRegister@data(COMMON[2]), i2c_read2ByteRegister@result(COMMON[2]), 
		 -> i2c_read1ByteRegister@d2(COMMON[1]), i2c_write1ByteRegister@data(COMMON[1]), NULL(NULL[0]), 

    S325$callbackTable	PTR FTN(PTR void ,)enum E360[6] size(2) Largest target is 1
		 -> I2C1_CallbackReturnReset(), I2C1_CallbackReturnStop(), Absolute function(), rdBlkRegCompleteHandler@i2c1_master_example$F177(), 
		 -> wr2RegCompleteHandler@i2c1_master_example$F166(), wr1RegCompleteHandler@i2c1_master_example$F160(), rd2RegCompleteHandler@i2c1_master_example$F154(), rd1RegCompleteHandler@i2c1_master_example$F143(), 
		 -> rdBlkRegCompleteHandler(), wr2RegCompleteHandler(), rd2RegCompleteHandler(), rd1RegCompleteHandler(), 
		 -> wr1RegCompleteHandler(), 

    I2C1_Status.callbackTable	PTR FTN(PTR void ,)enum E360[6] size(2) Largest target is 1
		 -> I2C1_CallbackReturnReset(), I2C1_CallbackReturnStop(), Absolute function(), rdBlkRegCompleteHandler@i2c1_master_example$F177(), 
		 -> wr2RegCompleteHandler@i2c1_master_example$F166(), wr1RegCompleteHandler@i2c1_master_example$F160(), rd2RegCompleteHandler@i2c1_master_example$F154(), rd1RegCompleteHandler@i2c1_master_example$F143(), 
		 -> rdBlkRegCompleteHandler(), wr2RegCompleteHandler(), rd2RegCompleteHandler(), rd1RegCompleteHandler(), 
		 -> wr1RegCompleteHandler(), 

    i2c1_fsmStateTable	const PTR FTN()enum E8119[16] size(2) Largest target is 1
		 -> I2C1_DO_ADDRESS_NACK(), I2C1_DO_RESET(), I2C1_DO_RX_NACK_RESTART(), I2C1_DO_RX_NACK_STOP(), 
		 -> I2C1_DO_RX_ACK(), I2C1_DO_SEND_STOP(), I2C1_DO_SEND_RESTART(), I2C1_DO_SEND_RESTART_WRITE(), 
		 -> I2C1_DO_SEND_RESTART_READ(), I2C1_DO_TX_EMPTY(), I2C1_DO_RCEN(), I2C1_DO_RX(), 
		 -> I2C1_DO_TX(), I2C1_DO_SEND_ADR_WRITE(), I2C1_DO_SEND_ADR_READ(), I2C1_DO_IDLE(), 

    rdBlkRegCompleteHandler@i2c1_master_example$F177@ptr.data	PTR unsigned char  size(1) Largest target is 0

    rdBlkRegCompleteHandler@i2c1_master_example$F177@ptr	PTR void  size(1) Largest target is 4
		 -> I2C1_ReadDataBlock@bufferBlock(COMMON[3]), I2C1_Write2ByteRegister@data(COMMON[2]), I2C1_Write1ByteRegister@data(COMMON[1]), I2C1_Read2ByteRegister@returnValue(COMMON[2]), 
		 -> I2C1_Read1ByteRegister@returnValue(COMMON[1]), i2c_readDataBlock@d(COMMON[3]), i2c_write2ByteRegister@data(COMMON[2]), i2c_read2ByteRegister@result(COMMON[2]), 
		 -> i2c_read1ByteRegister@d2(COMMON[1]), i2c_write1ByteRegister@data(COMMON[1]), NULL(NULL[0]), 

    wr2RegCompleteHandler@i2c1_master_example$F166@ptr	PTR void  size(1) Largest target is 4
		 -> I2C1_ReadDataBlock@bufferBlock(COMMON[3]), I2C1_Write2ByteRegister@data(COMMON[2]), I2C1_Write1ByteRegister@data(COMMON[1]), I2C1_Read2ByteRegister@returnValue(COMMON[2]), 
		 -> I2C1_Read1ByteRegister@returnValue(COMMON[1]), i2c_readDataBlock@d(COMMON[3]), i2c_write2ByteRegister@data(COMMON[2]), i2c_read2ByteRegister@result(COMMON[2]), 
		 -> i2c_read1ByteRegister@d2(COMMON[1]), i2c_write1ByteRegister@data(COMMON[1]), NULL(NULL[0]), 

    wr1RegCompleteHandler@i2c1_master_example$F160@ptr	PTR void  size(1) Largest target is 4
		 -> I2C1_ReadDataBlock@bufferBlock(COMMON[3]), I2C1_Write2ByteRegister@data(COMMON[2]), I2C1_Write1ByteRegister@data(COMMON[1]), I2C1_Read2ByteRegister@returnValue(COMMON[2]), 
		 -> I2C1_Read1ByteRegister@returnValue(COMMON[1]), i2c_readDataBlock@d(COMMON[3]), i2c_write2ByteRegister@data(COMMON[2]), i2c_read2ByteRegister@result(COMMON[2]), 
		 -> i2c_read1ByteRegister@d2(COMMON[1]), i2c_write1ByteRegister@data(COMMON[1]), NULL(NULL[0]), 

    rd2RegCompleteHandler@i2c1_master_example$F154@ptr	PTR void  size(1) Largest target is 4
		 -> I2C1_ReadDataBlock@bufferBlock(COMMON[3]), I2C1_Write2ByteRegister@data(COMMON[2]), I2C1_Write1ByteRegister@data(COMMON[1]), I2C1_Read2ByteRegister@returnValue(COMMON[2]), 
		 -> I2C1_Read1ByteRegister@returnValue(COMMON[1]), i2c_readDataBlock@d(COMMON[3]), i2c_write2ByteRegister@data(COMMON[2]), i2c_read2ByteRegister@result(COMMON[2]), 
		 -> i2c_read1ByteRegister@d2(COMMON[1]), i2c_write1ByteRegister@data(COMMON[1]), NULL(NULL[0]), 

    rd1RegCompleteHandler@i2c1_master_example$F143@ptr	PTR void  size(1) Largest target is 4
		 -> I2C1_ReadDataBlock@bufferBlock(COMMON[3]), I2C1_Write2ByteRegister@data(COMMON[2]), I2C1_Write1ByteRegister@data(COMMON[1]), I2C1_Read2ByteRegister@returnValue(COMMON[2]), 
		 -> I2C1_Read1ByteRegister@returnValue(COMMON[1]), i2c_readDataBlock@d(COMMON[3]), i2c_write2ByteRegister@data(COMMON[2]), i2c_read2ByteRegister@result(COMMON[2]), 
		 -> i2c_read1ByteRegister@d2(COMMON[1]), i2c_write1ByteRegister@data(COMMON[1]), NULL(NULL[0]), 

    bufferBlock.data	PTR unsigned char  size(1) Largest target is 0

    i2c_readNBytes@data	PTR void  size(2) Largest target is 64
		 -> main@dataout(BANK2[64]), EE_Read@frame(COMMON[3]), 

    d.data	PTR unsigned char  size(1) Largest target is 0

    S74$data	PTR unsigned char  size(1) Largest target is 0

    rdBlkRegCompleteHandler@p.data	PTR unsigned char  size(1) Largest target is 0

    rdBlkRegCompleteHandler@p	PTR void  size(1) Largest target is 4
		 -> I2C1_ReadDataBlock@bufferBlock(COMMON[3]), I2C1_Write2ByteRegister@data(COMMON[2]), I2C1_Write1ByteRegister@data(COMMON[1]), I2C1_Read2ByteRegister@returnValue(COMMON[2]), 
		 -> I2C1_Read1ByteRegister@returnValue(COMMON[1]), i2c_readDataBlock@d(COMMON[3]), i2c_write2ByteRegister@data(COMMON[2]), i2c_read2ByteRegister@result(COMMON[2]), 
		 -> i2c_read1ByteRegister@d2(COMMON[1]), i2c_write1ByteRegister@data(COMMON[1]), NULL(NULL[0]), 

    wr2RegCompleteHandler@p	PTR void  size(1) Largest target is 4
		 -> I2C1_ReadDataBlock@bufferBlock(COMMON[3]), I2C1_Write2ByteRegister@data(COMMON[2]), I2C1_Write1ByteRegister@data(COMMON[1]), I2C1_Read2ByteRegister@returnValue(COMMON[2]), 
		 -> I2C1_Read1ByteRegister@returnValue(COMMON[1]), i2c_readDataBlock@d(COMMON[3]), i2c_write2ByteRegister@data(COMMON[2]), i2c_read2ByteRegister@result(COMMON[2]), 
		 -> i2c_read1ByteRegister@d2(COMMON[1]), i2c_write1ByteRegister@data(COMMON[1]), NULL(NULL[0]), 

    rd2RegCompleteHandler@p	PTR void  size(1) Largest target is 4
		 -> I2C1_ReadDataBlock@bufferBlock(COMMON[3]), I2C1_Write2ByteRegister@data(COMMON[2]), I2C1_Write1ByteRegister@data(COMMON[1]), I2C1_Read2ByteRegister@returnValue(COMMON[2]), 
		 -> I2C1_Read1ByteRegister@returnValue(COMMON[1]), i2c_readDataBlock@d(COMMON[3]), i2c_write2ByteRegister@data(COMMON[2]), i2c_read2ByteRegister@result(COMMON[2]), 
		 -> i2c_read1ByteRegister@d2(COMMON[1]), i2c_write1ByteRegister@data(COMMON[1]), NULL(NULL[0]), 

    rd1RegCompleteHandler@p	PTR void  size(1) Largest target is 4
		 -> I2C1_ReadDataBlock@bufferBlock(COMMON[3]), I2C1_Write2ByteRegister@data(COMMON[2]), I2C1_Write1ByteRegister@data(COMMON[1]), I2C1_Read2ByteRegister@returnValue(COMMON[2]), 
		 -> I2C1_Read1ByteRegister@returnValue(COMMON[1]), i2c_readDataBlock@d(COMMON[3]), i2c_write2ByteRegister@data(COMMON[2]), i2c_read2ByteRegister@result(COMMON[2]), 
		 -> i2c_read1ByteRegister@d2(COMMON[1]), i2c_write1ByteRegister@data(COMMON[1]), NULL(NULL[0]), 

    i2c_writeNBytes@data	PTR void  size(1) Largest target is 66
		 -> EE_ReadPage@frame(BANK0[2]), EE_WritePage@frame(BANK1[66]), EE_Read@frame(COMMON[3]), EE_Write@frame(BANK0[3]), 

    wr1RegCompleteHandler@p	PTR void  size(1) Largest target is 4
		 -> I2C1_ReadDataBlock@bufferBlock(COMMON[3]), I2C1_Write2ByteRegister@data(COMMON[2]), I2C1_Write1ByteRegister@data(COMMON[1]), I2C1_Read2ByteRegister@returnValue(COMMON[2]), 
		 -> I2C1_Read1ByteRegister@returnValue(COMMON[1]), i2c_readDataBlock@d(COMMON[3]), i2c_write2ByteRegister@data(COMMON[2]), i2c_read2ByteRegister@result(COMMON[2]), 
		 -> i2c_read1ByteRegister@d2(COMMON[1]), i2c_write1ByteRegister@data(COMMON[1]), NULL(NULL[0]), 


Critical Paths under _main in COMMON

    _SYSTEM_Initialize->_EUSART1_Initialize
    _EUSART1_Initialize->_EUSART1_SetErrorHandler
    _EUSART1_Initialize->_EUSART1_SetFramingErrorHandler
    _EUSART1_Initialize->_EUSART1_SetOverrunErrorHandler
    _EUSART1_Initialize->_EUSART1_SetRxInterruptHandler
    _EUSART1_Initialize->_EUSART1_SetTxInterruptHandler
    _rand->___lmul
    _vfpfcnvrt->_fputc
    _toupper->_islower
    _pad->_fputc
    _fputs->_fputc
    _fputc->_putch
    _putch->_EUSART1_Write
    _atoi->___wmul
    _atoi->_isdigit
    _I2C1_SetAddressNackCallback->_I2C1_SetCallback
    _I2C1_MasterWrite->_I2C1_MasterOperation
    _I2C1_MasterRead->_I2C1_MasterOperation
    _I2C1_DO_TX_EMPTY->_I2C1_CallbackReturnReset
    _I2C1_DO_TX_EMPTY->_I2C1_CallbackReturnStop
    _I2C1_DO_TX_EMPTY->_rd1RegCompleteHandler
    _I2C1_DO_TX_EMPTY->_rd1RegCompleteHandler@i2c1_master_example$F143
    _I2C1_DO_TX_EMPTY->_rd2RegCompleteHandler
    _I2C1_DO_TX_EMPTY->_rd2RegCompleteHandler@i2c1_master_example$F154
    _I2C1_DO_TX_EMPTY->_rdBlkRegCompleteHandler
    _I2C1_DO_TX_EMPTY->_rdBlkRegCompleteHandler@i2c1_master_example$F177
    _I2C1_DO_TX_EMPTY->_wr1RegCompleteHandler
    _I2C1_DO_TX_EMPTY->_wr1RegCompleteHandler@i2c1_master_example$F160
    _I2C1_DO_TX_EMPTY->_wr2RegCompleteHandler
    _I2C1_DO_TX_EMPTY->_wr2RegCompleteHandler@i2c1_master_example$F166
    _I2C1_DO_TX->_I2C1_CallbackReturnReset
    _I2C1_DO_TX->_I2C1_CallbackReturnStop
    _I2C1_DO_TX->_rd1RegCompleteHandler
    _I2C1_DO_TX->_rd1RegCompleteHandler@i2c1_master_example$F143
    _I2C1_DO_TX->_rd2RegCompleteHandler
    _I2C1_DO_TX->_rd2RegCompleteHandler@i2c1_master_example$F154
    _I2C1_DO_TX->_rdBlkRegCompleteHandler
    _I2C1_DO_TX->_rdBlkRegCompleteHandler@i2c1_master_example$F177
    _I2C1_DO_TX->_wr1RegCompleteHandler
    _I2C1_DO_TX->_wr1RegCompleteHandler@i2c1_master_example$F160
    _I2C1_DO_TX->_wr2RegCompleteHandler
    _I2C1_DO_TX->_wr2RegCompleteHandler@i2c1_master_example$F166
    _I2C1_DO_SEND_ADR_WRITE->_I2C1_MasterSendTxData
    _I2C1_DO_RX->_I2C1_CallbackReturnReset
    _I2C1_DO_RX->_I2C1_CallbackReturnStop
    _I2C1_DO_RX->_rd1RegCompleteHandler
    _I2C1_DO_RX->_rd1RegCompleteHandler@i2c1_master_example$F143
    _I2C1_DO_RX->_rd2RegCompleteHandler
    _I2C1_DO_RX->_rd2RegCompleteHandler@i2c1_master_example$F154
    _I2C1_DO_RX->_rdBlkRegCompleteHandler
    _I2C1_DO_RX->_rdBlkRegCompleteHandler@i2c1_master_example$F177
    _I2C1_DO_RX->_wr1RegCompleteHandler
    _I2C1_DO_RX->_wr1RegCompleteHandler@i2c1_master_example$F160
    _I2C1_DO_RX->_wr2RegCompleteHandler
    _I2C1_DO_RX->_wr2RegCompleteHandler@i2c1_master_example$F166
    _I2C1_DO_ADDRESS_NACK->_I2C1_CallbackReturnReset
    _I2C1_DO_ADDRESS_NACK->_I2C1_CallbackReturnStop
    _I2C1_DO_ADDRESS_NACK->_rd1RegCompleteHandler
    _I2C1_DO_ADDRESS_NACK->_rd1RegCompleteHandler@i2c1_master_example$F143
    _I2C1_DO_ADDRESS_NACK->_rd2RegCompleteHandler
    _I2C1_DO_ADDRESS_NACK->_rd2RegCompleteHandler@i2c1_master_example$F154
    _I2C1_DO_ADDRESS_NACK->_rdBlkRegCompleteHandler
    _I2C1_DO_ADDRESS_NACK->_rdBlkRegCompleteHandler@i2c1_master_example$F177
    _I2C1_DO_ADDRESS_NACK->_wr1RegCompleteHandler
    _I2C1_DO_ADDRESS_NACK->_wr1RegCompleteHandler@i2c1_master_example$F160
    _I2C1_DO_ADDRESS_NACK->_wr2RegCompleteHandler
    _I2C1_DO_ADDRESS_NACK->_wr2RegCompleteHandler@i2c1_master_example$F166
    _wr2RegCompleteHandler@i2c1_master_example$F166->_I2C1_SetDataCompleteCallback
    _wr2RegCompleteHandler->_I2C1_SetDataCompleteCallback
    _wr1RegCompleteHandler@i2c1_master_example$F160->_I2C1_SetDataCompleteCallback
    _wr1RegCompleteHandler->_I2C1_SetDataCompleteCallback
    _rdBlkRegCompleteHandler@i2c1_master_example$F177->_I2C1_SetDataCompleteCallback
    _rdBlkRegCompleteHandler->_I2C1_SetDataCompleteCallback
    _rd2RegCompleteHandler@i2c1_master_example$F154->_I2C1_SetDataCompleteCallback
    _rd2RegCompleteHandler->_I2C1_SetDataCompleteCallback
    _rd1RegCompleteHandler@i2c1_master_example$F143->_I2C1_SetDataCompleteCallback
    _rd1RegCompleteHandler->_I2C1_SetDataCompleteCallback
    _I2C1_SetDataCompleteCallback->_I2C1_SetCallback

Critical Paths under _INTERRUPT_InterruptManager in COMMON

    _INTERRUPT_InterruptManager->_EUSART1_Transmit_ISR
    _EUSART1_Receive_ISR->_EUSART1_RxDataHandler
    _EUSART1_DefaultErrorHandler->_EUSART1_RxDataHandler

Critical Paths under _main in BANK0

    _RandomArray->_rand
    _rand->___lmul
    _printf->_vfprintf
    _vfprintf->_vfpfcnvrt
    _vfpfcnvrt->_xtoa
    _xtoa->_pad
    _pad->_fputs
    _EE_WritePage->_i2c_writeNBytes
    _EE_Write->_i2c_writeNBytes
    _EE_ReadPage->_i2c_readNBytes
    _I2C1_MasterWrite->_I2C1_MasterOperation
    _I2C1_MasterRead->_I2C1_MasterOperation
    _I2C1_Poller->_I2C1_MasterFsm
    _I2C1_MasterFsm->_I2C1_DO_ADDRESS_NACK
    _I2C1_MasterFsm->_I2C1_DO_RX
    _I2C1_MasterFsm->_I2C1_DO_TX
    _I2C1_MasterFsm->_I2C1_DO_TX_EMPTY

Critical Paths under _INTERRUPT_InterruptManager in BANK0

    None.

Critical Paths under _main in BANK1

    _main->_EE_WritePage
    _MemoryTest->_printf
    _printf->_vfprintf

Critical Paths under _INTERRUPT_InterruptManager in BANK1

    None.

Critical Paths under _main in BANK2

    None.

Critical Paths under _INTERRUPT_InterruptManager in BANK2

    None.

Critical Paths under _main in BANK3

    None.

Critical Paths under _INTERRUPT_InterruptManager in BANK3

    None.

Critical Paths under _main in BANK4

    None.

Critical Paths under _INTERRUPT_InterruptManager in BANK4

    None.

Critical Paths under _main in BANK5

    None.

Critical Paths under _INTERRUPT_InterruptManager in BANK5

    None.

Critical Paths under _main in BANK6

    None.

Critical Paths under _INTERRUPT_InterruptManager in BANK6

    None.

Critical Paths under _main in BANK7

    None.

Critical Paths under _INTERRUPT_InterruptManager in BANK7

    None.

Critical Paths under _main in BANK8

    None.

Critical Paths under _INTERRUPT_InterruptManager in BANK8

    None.

Critical Paths under _main in BANK9

    None.

Critical Paths under _INTERRUPT_InterruptManager in BANK9

    None.

Critical Paths under _main in BANK10

    None.

Critical Paths under _INTERRUPT_InterruptManager in BANK10

    None.

Critical Paths under _main in BANK11

    None.

Critical Paths under _INTERRUPT_InterruptManager in BANK11

    None.

Critical Paths under _main in BANK12

    None.

Critical Paths under _INTERRUPT_InterruptManager in BANK12

    None.

Critical Paths under _main in BANK13

    None.

Critical Paths under _INTERRUPT_InterruptManager in BANK13

    None.

Critical Paths under _main in BANK14

    None.

Critical Paths under _INTERRUPT_InterruptManager in BANK14

    None.

Critical Paths under _main in BANK15

    None.

Critical Paths under _INTERRUPT_InterruptManager in BANK15

    None.

Critical Paths under _main in BANK16

    None.

Critical Paths under _INTERRUPT_InterruptManager in BANK16

    None.

Critical Paths under _main in BANK17

    None.

Critical Paths under _INTERRUPT_InterruptManager in BANK17

    None.

Critical Paths under _main in BANK18

    None.

Critical Paths under _INTERRUPT_InterruptManager in BANK18

    None.

Critical Paths under _main in BANK19

    None.

Critical Paths under _INTERRUPT_InterruptManager in BANK19

    None.

Critical Paths under _main in BANK20

    None.

Critical Paths under _INTERRUPT_InterruptManager in BANK20

    None.

Critical Paths under _main in BANK21

    None.

Critical Paths under _INTERRUPT_InterruptManager in BANK21

    None.

Critical Paths under _main in BANK22

    None.

Critical Paths under _INTERRUPT_InterruptManager in BANK22

    None.

Critical Paths under _main in BANK23

    None.

Critical Paths under _INTERRUPT_InterruptManager in BANK23

    None.

Critical Paths under _main in BANK24

    None.

Critical Paths under _INTERRUPT_InterruptManager in BANK24

    None.

Critical Paths under _main in BANK25

    None.

Critical Paths under _INTERRUPT_InterruptManager in BANK25

    None.

Call Graph Tables:

 ---------------------------------------------------------------------------------
 (Depth) Function   	        Calls       Base Space   Used Autos Params    Refs
 ---------------------------------------------------------------------------------
 (0) _main                                               135   135      0 1335678
                                             66 BANK1      6     6      0
                                              0 BANK2     64    64      0
                                              0 BANK3     64    64      0
                        _EE_ReadPage
                           _EE_Write
                       _EE_WritePage
                       _EUSART1_Read
                _EUSART1_is_rx_ready
                    _I2C1_Initialize
                         _MemoryTest
                        _RandomArray
                  _SYSTEM_Initialize
                             _printf
 ---------------------------------------------------------------------------------
 (1) _SYSTEM_Initialize                                    0     0      0     490
                 _EUSART1_Initialize
                    _I2C1_Initialize
              _OSCILLATOR_Initialize
             _PIN_MANAGER_Initialize
                     _PMD_Initialize
 ---------------------------------------------------------------------------------
 (2) _PMD_Initialize                                       0     0      0       0
 ---------------------------------------------------------------------------------
 (2) _PIN_MANAGER_Initialize                               0     0      0       0
 ---------------------------------------------------------------------------------
 (2) _OSCILLATOR_Initialize                                0     0      0       0
 ---------------------------------------------------------------------------------
 (2) _I2C1_Initialize                                      0     0      0       0
 ---------------------------------------------------------------------------------
 (2) _EUSART1_Initialize                                   1     1      0     490
                                              3 COMMON     1     1      0
            _EUSART1_SetErrorHandler
     _EUSART1_SetFramingErrorHandler
     _EUSART1_SetOverrunErrorHandler
      _EUSART1_SetRxInterruptHandler
      _EUSART1_SetTxInterruptHandler
 ---------------------------------------------------------------------------------
 (3) _EUSART1_SetTxInterruptHandler                        2     0      2      98
                                              1 COMMON     2     0      2
 ---------------------------------------------------------------------------------
 (3) _EUSART1_SetRxInterruptHandler                        2     0      2      98
                                              1 COMMON     2     0      2
 ---------------------------------------------------------------------------------
 (3) _EUSART1_SetOverrunErrorHandler                       2     0      2      98
                                              1 COMMON     2     0      2
 ---------------------------------------------------------------------------------
 (3) _EUSART1_SetFramingErrorHandler                       2     0      2      98
                                              1 COMMON     2     0      2
 ---------------------------------------------------------------------------------
 (3) _EUSART1_SetErrorHandler                              2     0      2      98
                                              1 COMMON     2     0      2
 ---------------------------------------------------------------------------------
 (1) _RandomArray                                          3     2      1     510
                                              9 COMMON     2     2      0
                                             10 BANK0      1     0      1
                               _rand
 ---------------------------------------------------------------------------------
 (2) _rand                                                 6     4      2     316
                                              4 BANK0      6     4      2
                             ___lmul
 ---------------------------------------------------------------------------------
 (3) ___lmul                                              12     4      8     316
                                              1 COMMON     8     0      8
                                              0 BANK0      4     4      0
 ---------------------------------------------------------------------------------
 (1) _MemoryTest                                          13     8      5   10983
                                             15 BANK1     13     8      5
                             _printf
 ---------------------------------------------------------------------------------
 (1) _printf                                              12     4      8   10208
                                              5 BANK1     10     2      8
                           _vfprintf
 ---------------------------------------------------------------------------------
 (2) _vfprintf                                             8     5      3    9671
                                             77 BANK0      3     0      3
                                              0 BANK1      5     5      0
                          _vfpfcnvrt
 ---------------------------------------------------------------------------------
 (3) _vfpfcnvrt                                           43    41      2    9173
                                             55 BANK0     22    20      2
                               _atoi
                              _fputc
                            _isdigit
                               _xtoa
 ---------------------------------------------------------------------------------
 (4) _xtoa                                                38    29      9    4706
                                             17 BANK0     38    29      9
                            _isalpha
                            _isupper
                                _pad
                            _toupper
 ---------------------------------------------------------------------------------
 (5) _toupper                                              8     6      2     512
                                              7 COMMON     4     2      2
                                              0 BANK0      4     4      0
                            _islower
 ---------------------------------------------------------------------------------
 (6) _islower                                              6     4      2     191
                                              1 COMMON     6     4      2
 ---------------------------------------------------------------------------------
 (5) _pad                                                  9     6      3    2771
                                              8 BANK0      9     6      3
                              _fputc
                              _fputs
                             _strlen
 ---------------------------------------------------------------------------------
 (6) _strlen                                               5     3      2     123
                                              1 COMMON     5     3      2
 ---------------------------------------------------------------------------------
 (6) _fputs                                                8     7      1    1226
                                              0 BANK0      8     7      1
                              _fputc
 ---------------------------------------------------------------------------------
 (7) _fputc                                                8     5      3     834
                                              4 COMMON     8     5      3
                              _putch
 ---------------------------------------------------------------------------------
 (8) _putch                                                1     1      0      66
                                              3 COMMON     1     1      0
                      _EUSART1_Write
 ---------------------------------------------------------------------------------
 (9) _EUSART1_Write                                        2     2      0      44
                                              1 COMMON     2     2      0
 ---------------------------------------------------------------------------------
 (5) _isupper                                              6     4      2     161
                                              1 COMMON     6     4      2
 ---------------------------------------------------------------------------------
 (5) _isalpha                                              8     6      2     161
                                              1 COMMON     8     6      2
 ---------------------------------------------------------------------------------
 (4) _atoi                                                15    13      2    2151
                                              7 COMMON     2     0      2
                                              0 BANK0     13    13      0
                             ___wmul
                            _isdigit
                            _isspace
 ---------------------------------------------------------------------------------
 (5) _isspace                                              5     3      2     207
                                              1 COMMON     5     3      2
 ---------------------------------------------------------------------------------
 (4) _isdigit                                              6     4      2     237
                                              1 COMMON     6     4      2
 ---------------------------------------------------------------------------------
 (5) ___wmul                                               6     2      4    1144
                                              1 COMMON     6     2      4
 ---------------------------------------------------------------------------------
 (1) _EUSART1_is_rx_ready                                  0     0      0       0
 ---------------------------------------------------------------------------------
 (1) _EUSART1_Read                                         2     2      0      24
                                              1 COMMON     2     2      0
 ---------------------------------------------------------------------------------
 (1) _EE_WritePage                                        70    67      3  329546
                                             12 BANK0      4     1      3
                                              0 BANK1     66    66      0
                    _i2c_writeNBytes
                             _memcpy
 ---------------------------------------------------------------------------------
 (2) _memcpy                                               8     5      3     328
                                              1 COMMON     8     5      3
 ---------------------------------------------------------------------------------
 (1) _EE_Write                                             7     4      3  329218
                                             12 BANK0      7     4      3
                    _i2c_writeNBytes
 ---------------------------------------------------------------------------------
 (1) _EE_ReadPage                                          6     3      3  654310
                                             13 BANK0      6     3      3
                     _i2c_readNBytes
                    _i2c_writeNBytes
 ---------------------------------------------------------------------------------
 (2) _i2c_writeNBytes                                      4     1      3  328828
                                              8 BANK0      4     1      3
                         _I2C1_Close
                   _I2C1_MasterWrite
                          _I2C1_Open
        _I2C1_SetAddressNackCallback
                     _I2C1_SetBuffer
 ---------------------------------------------------------------------------------
 (3) _I2C1_SetAddressNackCallback                          4     1      3    3339
                                              6 COMMON     4     1      3
                   _I2C1_SetCallback
 ---------------------------------------------------------------------------------
 (3) _I2C1_MasterWrite                                     0     0      0  321389
               _I2C1_MasterOperation
 ---------------------------------------------------------------------------------
 (2) _i2c_readNBytes                                       5     1      4  325129
                                              8 BANK0      5     1      4
                         _I2C1_Close
                    _I2C1_MasterRead
                          _I2C1_Open
                     _I2C1_SetBuffer
 ---------------------------------------------------------------------------------
 (3) _I2C1_Open                                            3     3      0      68
                                              1 COMMON     3     3      0
                _I2C1_MasterClearIrq
                    _I2C1_MasterOpen
 ---------------------------------------------------------------------------------
 (4) _I2C1_MasterOpen                                      0     0      0       0
 ---------------------------------------------------------------------------------
 (3) _I2C1_MasterRead                                      0     0      0  321389
               _I2C1_MasterOperation
 ---------------------------------------------------------------------------------
 (4) _I2C1_MasterOperation                                 3     3      0  321389
                                             11 COMMON     1     1      0
                                              6 BANK0      2     2      0
                   _I2C1_MasterStart
                        _I2C1_Poller
 ---------------------------------------------------------------------------------
 (5) _I2C1_Poller                                          0     0      0  321321
                     _I2C1_MasterFsm
            _I2C1_MasterWaitForEvent
 ---------------------------------------------------------------------------------
 (6) _I2C1_MasterWaitForEvent                              0     0      0       0
 ---------------------------------------------------------------------------------
 (6) _I2C1_MasterFsm                                       3     3      0  321321
                                              3 BANK0      3     3      0
               _I2C1_DO_ADDRESS_NACK *
                       _I2C1_DO_IDLE *
                       _I2C1_DO_RCEN *
                      _I2C1_DO_RESET *
                         _I2C1_DO_RX *
                     _I2C1_DO_RX_ACK *
            _I2C1_DO_RX_NACK_RESTART *
               _I2C1_DO_RX_NACK_STOP *
              _I2C1_DO_SEND_ADR_READ *
             _I2C1_DO_SEND_ADR_WRITE *
               _I2C1_DO_SEND_RESTART *
          _I2C1_DO_SEND_RESTART_READ *
         _I2C1_DO_SEND_RESTART_WRITE *
                  _I2C1_DO_SEND_STOP *
                         _I2C1_DO_TX *
                   _I2C1_DO_TX_EMPTY *
                _I2C1_MasterClearIrq
                  _I2C1_MasterIsNack
 ---------------------------------------------------------------------------------
 (7) _I2C1_DO_TX_EMPTY                                     3     3      0   80307
                                              0 BANK0      3     3      0
                   Absolute function *
           _I2C1_CallbackReturnReset *
            _I2C1_CallbackReturnStop *
               _I2C1_DO_SEND_RESTART
                  _I2C1_DO_SEND_STOP
                  _I2C1_MasterSetIrq
              _rd1RegCompleteHandler *
_rd1RegCompleteHandler@i2c1_master_e *
              _rd2RegCompleteHandler *
_rd2RegCompleteHandler@i2c1_master_e *
            _rdBlkRegCompleteHandler *
_rdBlkRegCompleteHandler@i2c1_master *
              _wr1RegCompleteHandler *
_wr1RegCompleteHandler@i2c1_master_e *
              _wr2RegCompleteHandler *
_wr2RegCompleteHandler@i2c1_master_e *
 ---------------------------------------------------------------------------------
 (8) _I2C1_MasterSetIrq                                    0     0      0       0
 ---------------------------------------------------------------------------------
 (7) _I2C1_DO_TX                                           3     3      0   80338
                                              0 BANK0      3     3      0
                   Absolute function *
           _I2C1_CallbackReturnReset *
            _I2C1_CallbackReturnStop *
          _I2C1_DO_SEND_RESTART_READ
         _I2C1_DO_SEND_RESTART_WRITE
                  _I2C1_DO_SEND_STOP
                  _I2C1_MasterIsNack
              _I2C1_MasterSendTxData
              _rd1RegCompleteHandler *
_rd1RegCompleteHandler@i2c1_master_e *
              _rd2RegCompleteHandler *
_rd2RegCompleteHandler@i2c1_master_e *
            _rdBlkRegCompleteHandler *
_rdBlkRegCompleteHandler@i2c1_master *
              _wr1RegCompleteHandler *
_wr1RegCompleteHandler@i2c1_master_e *
              _wr2RegCompleteHandler *
_wr2RegCompleteHandler@i2c1_master_e *
 ---------------------------------------------------------------------------------
 (7) _I2C1_MasterIsNack                                    0     0      0       0
 ---------------------------------------------------------------------------------
 (8) _I2C1_DO_SEND_RESTART_WRITE                           0     0      0       0
           _I2C1_MasterEnableRestart
 ---------------------------------------------------------------------------------
 (8) _I2C1_DO_SEND_RESTART_READ                            0     0      0       0
           _I2C1_MasterEnableRestart
 ---------------------------------------------------------------------------------
 (7) _I2C1_DO_SEND_ADR_WRITE                               0     0      0      31
              _I2C1_MasterSendTxData
 ---------------------------------------------------------------------------------
 (7) _I2C1_DO_SEND_ADR_READ                                0     0      0      31
              _I2C1_MasterSendTxData
 ---------------------------------------------------------------------------------
 (8) _I2C1_MasterSendTxData                                1     1      0      31
                                              1 COMMON     1     1      0
 ---------------------------------------------------------------------------------
 (7) _I2C1_DO_RX_ACK                                       0     0      0       0
                 _I2C1_MasterSendAck
 ---------------------------------------------------------------------------------
 (7) _I2C1_DO_RX                                           3     3      0   80307
                                              0 BANK0      3     3      0
                   Absolute function *
           _I2C1_CallbackReturnReset *
            _I2C1_CallbackReturnStop *
            _I2C1_DO_RX_NACK_RESTART
               _I2C1_DO_RX_NACK_STOP
               _I2C1_MasterGetRxData
                 _I2C1_MasterSendAck
              _rd1RegCompleteHandler *
_rd1RegCompleteHandler@i2c1_master_e *
              _rd2RegCompleteHandler *
_rd2RegCompleteHandler@i2c1_master_e *
            _rdBlkRegCompleteHandler *
_rdBlkRegCompleteHandler@i2c1_master *
              _wr1RegCompleteHandler *
_wr1RegCompleteHandler@i2c1_master_e *
              _wr2RegCompleteHandler *
_wr2RegCompleteHandler@i2c1_master_e *
 ---------------------------------------------------------------------------------
 (8) _I2C1_MasterSendAck                                   0     0      0       0
 ---------------------------------------------------------------------------------
 (8) _I2C1_MasterGetRxData                                 0     0      0       0
 ---------------------------------------------------------------------------------
 (7) _I2C1_DO_RX_NACK_STOP                                 0     0      0       0
                _I2C1_MasterSendNack
 ---------------------------------------------------------------------------------
 (7) _I2C1_DO_RX_NACK_RESTART                              0     0      0       0
                _I2C1_MasterSendNack
 ---------------------------------------------------------------------------------
 (8) _I2C1_MasterSendNack                                  0     0      0       0
 ---------------------------------------------------------------------------------
 (7) _I2C1_DO_RESET                                        0     0      0       0
 ---------------------------------------------------------------------------------
 (7) _I2C1_DO_RCEN                                         0     0      0       0
                 _I2C1_MasterStartRx
 ---------------------------------------------------------------------------------
 (8) _I2C1_MasterStartRx                                   0     0      0       0
 ---------------------------------------------------------------------------------
 (7) _I2C1_DO_IDLE                                         0     0      0       0
 ---------------------------------------------------------------------------------
 (7) _I2C1_DO_ADDRESS_NACK                                 3     3      0   80307
                                              0 BANK0      3     3      0
                   Absolute function *
           _I2C1_CallbackReturnReset *
            _I2C1_CallbackReturnStop *
               _I2C1_DO_SEND_RESTART
                  _I2C1_DO_SEND_STOP
              _rd1RegCompleteHandler *
_rd1RegCompleteHandler@i2c1_master_e *
              _rd2RegCompleteHandler *
_rd2RegCompleteHandler@i2c1_master_e *
            _rdBlkRegCompleteHandler *
_rdBlkRegCompleteHandler@i2c1_master *
              _wr1RegCompleteHandler *
_wr1RegCompleteHandler@i2c1_master_e *
              _wr2RegCompleteHandler *
_wr2RegCompleteHandler@i2c1_master_e *
 ---------------------------------------------------------------------------------
 (8) _wr2RegCompleteHandler@i2c1_master_example$F166       1     0      1    7992
                                             10 COMMON     1     0      1
                     _I2C1_SetBuffer
       _I2C1_SetDataCompleteCallback
 ---------------------------------------------------------------------------------
 (8) _wr2RegCompleteHandler                                1     0      1    7992
                                             10 COMMON     1     0      1
                     _I2C1_SetBuffer
       _I2C1_SetDataCompleteCallback
 ---------------------------------------------------------------------------------
 (8) _wr1RegCompleteHandler@i2c1_master_example$F160       1     0      1    7992
                                             10 COMMON     1     0      1
                     _I2C1_SetBuffer
       _I2C1_SetDataCompleteCallback
 ---------------------------------------------------------------------------------
 (8) _wr1RegCompleteHandler                                1     0      1    7992
                                             10 COMMON     1     0      1
                     _I2C1_SetBuffer
       _I2C1_SetDataCompleteCallback
 ---------------------------------------------------------------------------------
 (8) _rdBlkRegCompleteHandler@i2c1_master_example$F177     1     0      1    8023
                                             10 COMMON     1     0      1
                     _I2C1_SetBuffer
       _I2C1_SetDataCompleteCallback
 ---------------------------------------------------------------------------------
 (8) _rdBlkRegCompleteHandler                              1     0      1    8023
                                             10 COMMON     1     0      1
                     _I2C1_SetBuffer
       _I2C1_SetDataCompleteCallback
 ---------------------------------------------------------------------------------
 (8) _rd2RegCompleteHandler@i2c1_master_example$F154       1     0      1    7992
                                             10 COMMON     1     0      1
                     _I2C1_SetBuffer
       _I2C1_SetDataCompleteCallback
 ---------------------------------------------------------------------------------
 (8) _rd2RegCompleteHandler                                1     0      1    7992
                                             10 COMMON     1     0      1
                     _I2C1_SetBuffer
       _I2C1_SetDataCompleteCallback
 ---------------------------------------------------------------------------------
 (8) _rd1RegCompleteHandler@i2c1_master_example$F143       1     0      1    7992
                                             10 COMMON     1     0      1
                     _I2C1_SetBuffer
       _I2C1_SetDataCompleteCallback
 ---------------------------------------------------------------------------------
 (8) _rd1RegCompleteHandler                                1     0      1    7992
                                             10 COMMON     1     0      1
                     _I2C1_SetBuffer
       _I2C1_SetDataCompleteCallback
 ---------------------------------------------------------------------------------
 (9) _I2C1_SetDataCompleteCallback                         4     1      3    4779
                                              6 COMMON     4     1      3
                   _I2C1_SetCallback
 ---------------------------------------------------------------------------------
 (4) _I2C1_SetCallback                                     5     2      3    1117
                                              1 COMMON     5     2      3
 ---------------------------------------------------------------------------------
 (3) _I2C1_SetBuffer                                       4     0      4    3182
                                              1 COMMON     4     0      4
 ---------------------------------------------------------------------------------
 (8) _I2C1_DO_SEND_STOP                                    0     0      0       0
                    _I2C1_MasterStop
 ---------------------------------------------------------------------------------
 (9) _I2C1_MasterStop                                      0     0      0       0
 ---------------------------------------------------------------------------------
 (8) _I2C1_DO_SEND_RESTART                                 0     0      0       0
           _I2C1_MasterEnableRestart
 ---------------------------------------------------------------------------------
 (9) _I2C1_MasterEnableRestart                             0     0      0       0
 ---------------------------------------------------------------------------------
 (8) _I2C1_CallbackReturnStop                              1     0      1       0
                                             10 COMMON     1     0      1
 ---------------------------------------------------------------------------------
 (8) _I2C1_CallbackReturnReset                             1     0      1     325
                                             10 COMMON     1     0      1
 ---------------------------------------------------------------------------------
 (13) Absolute function(Fake)                              1     0      1       0
 ---------------------------------------------------------------------------------
 (5) _I2C1_MasterStart                                     0     0      0       0
 ---------------------------------------------------------------------------------
 (3) _I2C1_Close                                           2     2      0      37
                                              1 COMMON     2     2      0
                _I2C1_MasterClearIrq
                   _I2C1_MasterClose
              _I2C1_MasterDisableIrq
 ---------------------------------------------------------------------------------
 (4) _I2C1_MasterDisableIrq                                0     0      0       0
 ---------------------------------------------------------------------------------
 (4) _I2C1_MasterClose                                     0     0      0       0
 ---------------------------------------------------------------------------------
 (4) _I2C1_MasterClearIrq                                  0     0      0       0
 ---------------------------------------------------------------------------------
 Estimated maximum stack depth 13
 ---------------------------------------------------------------------------------
 (Depth) Function   	        Calls       Base Space   Used Autos Params    Refs
 ---------------------------------------------------------------------------------
 (11) _INTERRUPT_InterruptManager                          0     0      0       0
                   Absolute function *
                _EUSART1_Receive_ISR *
               _EUSART1_Transmit_ISR *
 ---------------------------------------------------------------------------------
 (12) _EUSART1_Transmit_ISR                                1     1      0       0
                                              0 COMMON     1     1      0
 ---------------------------------------------------------------------------------
 (12) _EUSART1_Receive_ISR                                 0     0      0       0
                   Absolute function *
        _EUSART1_DefaultErrorHandler *
 _EUSART1_DefaultFramingErrorHandler *
 _EUSART1_DefaultOverrunErrorHandler *
              _EUSART1_RxDataHandler
 ---------------------------------------------------------------------------------
 (13) _EUSART1_DefaultOverrunErrorHandler                  0     0      0       0
 ---------------------------------------------------------------------------------
 (13) _EUSART1_DefaultFramingErrorHandler                  0     0      0       0
 ---------------------------------------------------------------------------------
 (13) _EUSART1_DefaultErrorHandler                         0     0      0       0
              _EUSART1_RxDataHandler
 ---------------------------------------------------------------------------------
 (13) _EUSART1_RxDataHandler                               1     1      0       0
                                              0 COMMON     1     1      0
 ---------------------------------------------------------------------------------
 (13) Absolute function(Fake)                              1     0      1       0
 ---------------------------------------------------------------------------------
 Estimated maximum stack depth 13
 ---------------------------------------------------------------------------------

 Call Graph Graphs:

 _main (ROOT)
   _EE_ReadPage
     _i2c_readNBytes
       _I2C1_Close
         _I2C1_MasterClearIrq
         _I2C1_MasterClose
         _I2C1_MasterDisableIrq
       _I2C1_MasterRead
         _I2C1_MasterOperation
           _I2C1_MasterStart
           _I2C1_Poller
             _I2C1_MasterFsm
               _I2C1_DO_ADDRESS_NACK *
                 Absolute function(Fake) *
                 _I2C1_CallbackReturnReset *
                 _I2C1_CallbackReturnStop *
                 _I2C1_DO_SEND_RESTART *
                   _I2C1_MasterEnableRestart
                 _I2C1_DO_SEND_STOP *
                   _I2C1_MasterStop
                 _rd1RegCompleteHandler *
                   _I2C1_SetBuffer
                   _I2C1_SetDataCompleteCallback
                     _I2C1_SetCallback
                 _rd1RegCompleteHandler@i2c1_master_example$F143 *
                   _I2C1_SetBuffer
                   _I2C1_SetDataCompleteCallback
                 _rd2RegCompleteHandler *
                   _I2C1_SetBuffer
                   _I2C1_SetDataCompleteCallback
                 _rd2RegCompleteHandler@i2c1_master_example$F154 *
                   _I2C1_SetBuffer
                   _I2C1_SetDataCompleteCallback
                 _rdBlkRegCompleteHandler *
                   _I2C1_SetBuffer
                   _I2C1_SetDataCompleteCallback
                 _rdBlkRegCompleteHandler@i2c1_master_example$F177 *
                   _I2C1_SetBuffer
                   _I2C1_SetDataCompleteCallback
                 _wr1RegCompleteHandler *
                   _I2C1_SetBuffer
                   _I2C1_SetDataCompleteCallback
                 _wr1RegCompleteHandler@i2c1_master_example$F160 *
                   _I2C1_SetBuffer
                   _I2C1_SetDataCompleteCallback
                 _wr2RegCompleteHandler *
                   _I2C1_SetBuffer
                   _I2C1_SetDataCompleteCallback
                 _wr2RegCompleteHandler@i2c1_master_example$F166 *
                   _I2C1_SetBuffer
                   _I2C1_SetDataCompleteCallback
               _I2C1_DO_IDLE *
               _I2C1_DO_RCEN *
                 _I2C1_MasterStartRx
               _I2C1_DO_RESET *
               _I2C1_DO_RX *
                 Absolute function(Fake) *
                 _I2C1_CallbackReturnReset *
                 _I2C1_CallbackReturnStop *
                 _I2C1_DO_RX_NACK_RESTART *
                   _I2C1_MasterSendNack
                 _I2C1_DO_RX_NACK_STOP *
                   _I2C1_MasterSendNack
                 _I2C1_MasterGetRxData *
                 _I2C1_MasterSendAck *
                 _rd1RegCompleteHandler *
                 _rd1RegCompleteHandler@i2c1_master_example$F143 *
                 _rd2RegCompleteHandler *
                 _rd2RegCompleteHandler@i2c1_master_example$F154 *
                 _rdBlkRegCompleteHandler *
                 _rdBlkRegCompleteHandler@i2c1_master_example$F177 *
                 _wr1RegCompleteHandler *
                 _wr1RegCompleteHandler@i2c1_master_example$F160 *
                 _wr2RegCompleteHandler *
                 _wr2RegCompleteHandler@i2c1_master_example$F166 *
               _I2C1_DO_RX_ACK *
                 _I2C1_MasterSendAck
               _I2C1_DO_RX_NACK_RESTART *
               _I2C1_DO_RX_NACK_STOP *
               _I2C1_DO_SEND_ADR_READ *
                 _I2C1_MasterSendTxData
               _I2C1_DO_SEND_ADR_WRITE *
                 _I2C1_MasterSendTxData
               _I2C1_DO_SEND_RESTART *
               _I2C1_DO_SEND_RESTART_READ *
                 _I2C1_MasterEnableRestart
               _I2C1_DO_SEND_RESTART_WRITE *
                 _I2C1_MasterEnableRestart
               _I2C1_DO_SEND_STOP *
               _I2C1_DO_TX *
                 Absolute function(Fake) *
                 _I2C1_CallbackReturnReset *
                 _I2C1_CallbackReturnStop *
                 _I2C1_DO_SEND_RESTART_READ *
                 _I2C1_DO_SEND_RESTART_WRITE *
                 _I2C1_DO_SEND_STOP *
                 _I2C1_MasterIsNack *
                 _I2C1_MasterSendTxData *
                 _rd1RegCompleteHandler *
                 _rd1RegCompleteHandler@i2c1_master_example$F143 *
                 _rd2RegCompleteHandler *
                 _rd2RegCompleteHandler@i2c1_master_example$F154 *
                 _rdBlkRegCompleteHandler *
                 _rdBlkRegCompleteHandler@i2c1_master_example$F177 *
                 _wr1RegCompleteHandler *
                 _wr1RegCompleteHandler@i2c1_master_example$F160 *
                 _wr2RegCompleteHandler *
                 _wr2RegCompleteHandler@i2c1_master_example$F166 *
               _I2C1_DO_TX_EMPTY *
                 Absolute function(Fake) *
                 _I2C1_CallbackReturnReset *
                 _I2C1_CallbackReturnStop *
                 _I2C1_DO_SEND_RESTART *
                 _I2C1_DO_SEND_STOP *
                 _I2C1_MasterSetIrq *
                 _rd1RegCompleteHandler *
                 _rd1RegCompleteHandler@i2c1_master_example$F143 *
                 _rd2RegCompleteHandler *
                 _rd2RegCompleteHandler@i2c1_master_example$F154 *
                 _rdBlkRegCompleteHandler *
                 _rdBlkRegCompleteHandler@i2c1_master_example$F177 *
                 _wr1RegCompleteHandler *
                 _wr1RegCompleteHandler@i2c1_master_example$F160 *
                 _wr2RegCompleteHandler *
                 _wr2RegCompleteHandler@i2c1_master_example$F166 *
               _I2C1_MasterClearIrq *
               _I2C1_MasterIsNack *
             _I2C1_MasterWaitForEvent
       _I2C1_Open
         _I2C1_MasterClearIrq
         _I2C1_MasterOpen
       _I2C1_SetBuffer
     _i2c_writeNBytes
       _I2C1_Close
       _I2C1_MasterWrite
         _I2C1_MasterOperation
       _I2C1_Open
       _I2C1_SetAddressNackCallback
         _I2C1_SetCallback
       _I2C1_SetBuffer
   _EE_Write
     _i2c_writeNBytes
   _EE_WritePage
     _i2c_writeNBytes
     _memcpy
   _EUSART1_Read
   _EUSART1_is_rx_ready
   _I2C1_Initialize
   _MemoryTest
     _printf
       _vfprintf
         _vfpfcnvrt
           _atoi
             ___wmul
             _isdigit
             _isspace
           _fputc
             _putch
               _EUSART1_Write
           _isdigit
           _xtoa
             _isalpha
             _isupper
             _pad
               _fputc
               _fputs
                 _fputc
               _strlen
             _toupper
               _islower
   _RandomArray
     _rand
       ___lmul
   _SYSTEM_Initialize
     _EUSART1_Initialize
       _EUSART1_SetErrorHandler
       _EUSART1_SetFramingErrorHandler
       _EUSART1_SetOverrunErrorHandler
       _EUSART1_SetRxInterruptHandler
       _EUSART1_SetTxInterruptHandler
     _I2C1_Initialize
     _OSCILLATOR_Initialize
     _PIN_MANAGER_Initialize
     _PMD_Initialize
   _printf

 _INTERRUPT_InterruptManager (ROOT)
   Absolute function(Fake) *
   _EUSART1_Receive_ISR *
     Absolute function(Fake) *
     _EUSART1_DefaultErrorHandler *
       _EUSART1_RxDataHandler
     _EUSART1_DefaultFramingErrorHandler *
     _EUSART1_DefaultOverrunErrorHandler *
     _EUSART1_RxDataHandler *
   _EUSART1_Transmit_ISR *

 Address spaces:
Name               Size   Autos  Total    Cost      Usage
BIGRAM             7F0      0       0       0        0.0%
NULL                 0      0       0       0        0.0%
CODE                 0      0       0       0        0.0%
BITCOMMON            E      0       0       1        0.0%
BITSFR0              0      0       0       1        0.0%
SFR0                 0      0       0       1        0.0%
COMMON               E      C       D       2       92.9%
BITSFR1              0      0       0       2        0.0%
SFR1                 0      0       0       2        0.0%
BITSFR2              0      0       0       3        0.0%
SFR2                 0      0       0       3        0.0%
STACK                0      0       0       3        0.0%
BITBANK0            50      0       0       4        0.0%
BITSFR3              0      0       0       4        0.0%
SFR3                 0      0       0       4        0.0%
BANK0               50     50      50       5      100.0%
BITSFR4              0      0       0       5        0.0%
SFR4                 0      0       0       5        0.0%
BITBANK1            50      0       0       6        0.0%
BITSFR5              0      0       0       6        0.0%
SFR5                 0      0       0       6        0.0%
BANK1               50     48      50       7      100.0%
BITSFR6              0      0       0       7        0.0%
SFR6                 0      0       0       7        0.0%
BITSFR7              0      0       0       8        0.0%
SFR7                 0      0       0       8        0.0%
ABS                  0      0     1D8       8        0.0%
BITBANK2            50      0       0       9        0.0%
BITSFR8              0      0       0       9        0.0%
SFR8                 0      0       0       9        0.0%
BANK2               50     40      4F      10       98.8%
BITSFR9              0      0       0      10        0.0%
SFR9                 0      0       0      10        0.0%
BITBANK3            50      0       0      11        0.0%
BITSFR10             0      0       0      11        0.0%
SFR10                0      0       0      11        0.0%
BANK3               50     40      50      12      100.0%
BITSFR11             0      0       0      12        0.0%
SFR11                0      0       0      12        0.0%
BITBANK4            50      0       0      13        0.0%
BITSFR12             0      0       0      13        0.0%
SFR12                0      0       0      13        0.0%
BANK4               50      0      4C      14       95.0%
BITSFR13             0      0       0      14        0.0%
SFR13                0      0       0      14        0.0%
BITBANK5            50      0       0      15        0.0%
BITSFR14             0      0       0      15        0.0%
SFR14                0      0       0      15        0.0%
BANK5               50      0      40      16       80.0%
BITSFR15             0      0       0      16        0.0%
SFR15                0      0       0      16        0.0%
BITBANK6            50      0       0      17        0.0%
BITSFR16             0      0       0      17        0.0%
SFR16                0      0       0      17        0.0%
BANK6               50      0       0      18        0.0%
BITSFR17             0      0       0      18        0.0%
SFR17                0      0       0      18        0.0%
BITBANK7            50      0       0      19        0.0%
BITSFR18             0      0       0      19        0.0%
SFR18                0      0       0      19        0.0%
BANK7               50      0       0      20        0.0%
BITSFR19             0      0       0      20        0.0%
SFR19                0      0       0      20        0.0%
BITBANK8            50      0       0      21        0.0%
BITSFR20             0      0       0      21        0.0%
SFR20                0      0       0      21        0.0%
BANK8               50      0       0      22        0.0%
BITSFR21             0      0       0      22        0.0%
SFR21                0      0       0      22        0.0%
BITBANK9            50      0       0      23        0.0%
BITSFR22             0      0       0      23        0.0%
SFR22                0      0       0      23        0.0%
BANK9               50      0       0      24        0.0%
BITSFR23             0      0       0      24        0.0%
SFR23                0      0       0      24        0.0%
BITBANK10           50      0       0      25        0.0%
BITSFR24             0      0       0      25        0.0%
SFR24                0      0       0      25        0.0%
BANK10              50      0       0      26        0.0%
BITSFR25             0      0       0      26        0.0%
SFR25                0      0       0      26        0.0%
BITBANK11           50      0       0      27        0.0%
BITSFR26             0      0       0      27        0.0%
SFR26                0      0       0      27        0.0%
BANK11              50      0       0      28        0.0%
BITSFR27             0      0       0      28        0.0%
SFR27                0      0       0      28        0.0%
BITBANK12           50      0       0      29        0.0%
BITSFR28             0      0       0      29        0.0%
SFR28                0      0       0      29        0.0%
BANK12              50      0       0      30        0.0%
BITSFR29             0      0       0      30        0.0%
SFR29                0      0       0      30        0.0%
BITBANK13           50      0       0      31        0.0%
BITSFR30             0      0       0      31        0.0%
SFR30                0      0       0      31        0.0%
BANK13              50      0       0      32        0.0%
BITSFR31             0      0       0      32        0.0%
SFR31                0      0       0      32        0.0%
BITBANK14           50      0       0      33        0.0%
BITSFR32             0      0       0      33        0.0%
SFR32                0      0       0      33        0.0%
BANK14              50      0       0      34        0.0%
BITSFR33             0      0       0      34        0.0%
SFR33                0      0       0      34        0.0%
BITBANK15           50      0       0      35        0.0%
BITSFR34             0      0       0      35        0.0%
SFR34                0      0       0      35        0.0%
BANK15              50      0       0      36        0.0%
BITSFR35             0      0       0      36        0.0%
SFR35                0      0       0      36        0.0%
BITBANK16           50      0       0      37        0.0%
BITSFR36             0      0       0      37        0.0%
SFR36                0      0       0      37        0.0%
BANK16              50      0       0      38        0.0%
BITSFR37             0      0       0      38        0.0%
SFR37                0      0       0      38        0.0%
BITBANK17           50      0       0      39        0.0%
BITSFR38             0      0       0      39        0.0%
SFR38                0      0       0      39        0.0%
BANK17              50      0       0      40        0.0%
BITSFR39             0      0       0      40        0.0%
SFR39                0      0       0      40        0.0%
BITBANK18           50      0       0      41        0.0%
BITSFR40             0      0       0      41        0.0%
SFR40                0      0       0      41        0.0%
BANK18              50      0       0      42        0.0%
BITSFR41             0      0       0      42        0.0%
SFR41                0      0       0      42        0.0%
BITBANK19           50      0       0      43        0.0%
BITSFR42             0      0       0      43        0.0%
SFR42                0      0       0      43        0.0%
BANK19              50      0       0      44        0.0%
BITSFR43             0      0       0      44        0.0%
SFR43                0      0       0      44        0.0%
BITBANK20           50      0       0      45        0.0%
BITSFR44             0      0       0      45        0.0%
SFR44                0      0       0      45        0.0%
BANK20              50      0       0      46        0.0%
BITSFR45             0      0       0      46        0.0%
SFR45                0      0       0      46        0.0%
BITBANK21           50      0       0      47        0.0%
BITSFR46             0      0       0      47        0.0%
SFR46                0      0       0      47        0.0%
BANK21              50      0       0      48        0.0%
BITSFR47             0      0       0      48        0.0%
SFR47                0      0       0      48        0.0%
BITBANK22           50      0       0      49        0.0%
BITSFR48             0      0       0      49        0.0%
SFR48                0      0       0      49        0.0%
BANK22              50      0       0      50        0.0%
BITSFR49             0      0       0      50        0.0%
SFR49                0      0       0      50        0.0%
BITBANK23           50      0       0      51        0.0%
BITSFR50             0      0       0      51        0.0%
SFR50                0      0       0      51        0.0%
BANK23              50      0       0      52        0.0%
BITSFR51             0      0       0      52        0.0%
SFR51                0      0       0      52        0.0%
BITBANK24           50      0       0      53        0.0%
BITSFR52             0      0       0      53        0.0%
SFR52                0      0       0      53        0.0%
BANK24              50      0       0      54        0.0%
BITSFR53             0      0       0      54        0.0%
SFR53                0      0       0      54        0.0%
BITBANK25           20      0       0      55        0.0%
BITSFR54             0      0       0      55        0.0%
SFR54                0      0       0      55        0.0%
BANK25              20      0       0      56        0.0%
BITSFR55             0      0       0      56        0.0%
SFR55                0      0       0      56        0.0%
BITSFR56             0      0       0      57        0.0%
SFR56                0      0       0      57        0.0%
DATA                 0      0     1D8      57        0.0%
BITSFR57             0      0       0      58        0.0%
SFR57                0      0       0      58        0.0%
BITSFR58             0      0       0      59        0.0%
SFR58                0      0       0      59        0.0%
BITSFR59             0      0       0      60        0.0%
SFR59                0      0       0      60        0.0%
BITSFR60             0      0       0      61        0.0%
SFR60                0      0       0      61        0.0%
BITSFR61             0      0       0      62        0.0%
SFR61                0      0       0      62        0.0%
BITSFR62             0      0       0      63        0.0%
SFR62                0      0       0      63        0.0%
BITSFR63             0      0       0      64        0.0%
SFR63                0      0       0      64        0.0%


Microchip Technology PIC Macro Assembler V2.32 build 20210201212658 
Symbol Table                                                                                   Fri Aug 13 18:33:52 2021

                                 _eusart1TxBufferRemaining 016E  
                                                       l17 0B36  
                                                       l35 0E72  
                                                       l53 0B62  
                                                       l38 0B4C  
                                                       l65 0B78  
                                                       l77 0C69  
                                                       l95 0D83  
                                      ___wmul@multiplicand 0073  
                                             ?_EE_ReadPage 002D  
                                                      l310 0CBB  
                                                      l302 0AA4  
                                                      l305 07D0  
                                                      l306 07D1  
                                                      l322 0A36  
                                                      l332 0AC4  
                                                      l316 0D3C  
                                                      l501 09FA  
                                                      l405 0F5D  
                                                      l191 0BBA  
                                                      l423 0A09  
                                                      l319 0A31  
                                                      l504 09F6  
                                                      l432 0A18  
                                                      l329 0AFA  
                                                      l185 0B8E  
                                                      l441 0A27  
                                                      l522 09D2  
                                                      l194 0B20  
                                                      l362 0A04  
                                                      l426 0A0E  
                                                      l450 0F2B  
                                                      l338 0AEB  
                                                      l371 0533  
                                                      l435 0A1D  
                                                      l355 0AD1  
                                                      l188 0BA4  
                                                      l444 0A2C  
                                                      l532 0A42  
                                                      l349 0E47  
                                                      l197 0C84  
                                                      l461 0003  
                                                      l525 09EA  
                                                      l365 0A92  
                                                      l429 0A13  
                                                      l613 0A9B  
                                                      l374 0557  
                                                      l438 0A22  
                                                      l519 09D8  
                                                      l359 0ECC  
                                                      l471 0ADE  
                                                      l631 0E7A  
                                                      l607 06DF  
                                                      l480 09FF  
                                                      l368 0A81  
                                                      l528 0A3D  
                                                      l632 0E83  
                                                      l641 0A48  
                                                      l474 09D5  
                                                      l458 09CF  
                                                      l626 07FF  
                                                      l483 09DE  
                                                      l387 0671  
                                                      l635 0E9E  
                                                      l492 09DB  
                                                      l388 069C  
                                                      l477 09E7  
                                                      l670 0A54  
                                                      l495 09E1  
                                                      l399 0A79  
                                                      l831 0AB7  
                                                      l489 09E4  
                                                      l673 0A5A  
                                                      l498 0A3C  
                                                      l682 0A60  
                                                      l834 0A89  
                                                      l676 0A4E  
                                                      l828 0B0A  
                                                      l679 0A66  
                                                      l788 064F  
                                    ?_I2C1_MasterOperation 0070  
                                                      _pad 0558  
                                  __size_of_PMD_Initialize 0008  
                                                      wreg 0009  
                                   ?_I2C1_MasterSendTxData 0070  
                        __size_of_I2C1_MasterEnableRestart 0003  
                                     _I2C1_DO_RX_NACK_STOP 0A1E  
                                ?_I2C1_MasterEnableRestart 0070  
                                     I2C1_SetBuffer@buffer 0071  
                                              main@dataout 0120  
                                                     l1036 0DCE  
                                  ??_rd2RegCompleteHandler 007B  
                                                     l1046 0F90  
                                                     l1062 0601  
                                                     l1055 0C9F  
                                                     l1049 0D5F  
                                                     l1161 0FC6  
                                                     l1147 0CE4  
                                                     l1068 0439  
                                                     l1149 0CF8  
                                                     l1700 00D4  
                                                     l1606 0EEE  
                                                     l4110 0BD2  
                                                     l4120 0D11  
                                                     l4032 0C1B  
                                                     l1616 0BD1  
                                                     l1609 0EFA  
                                                     l4122 0D12  
                                                     l4114 0CF9  
                                                     l4034 0C20  
                                                     l1722 0FFF  
                                                     l1651 0574  
                                                     l1715 0215  
                                                     l4060 0CDC  
                                                     l4116 0CFB  
                                                     l1740 0486  
                                                     l4036 0C24  
                                                     l1813 0C33  
                                                     l4062 0CE0  
                                                     l4118 0D02  
                                                     l4038 0C2D  
                                                     l1654 0596  
                                                     l1655 05A4  
                                                     l1823 0DF4  
                                                     l1663 023E  
                                                     l1807 0797  
                                                     l6000 0ADD  
                                                     l4064 0CE9  
                                                     l1656 05B0  
                                                     l1753 04F7  
                                                     l6010 0D23  
                                                     l4066 0CEE  
                                                     l4058 0CDA  
                                                     l1762 0BE9  
                                                     l1770 0D19  
                                                     l1818 0DF4  
                                                     l1659 0221  
                                                     l6004 09D6  
                                                     l6020 0D34  
                                                     l6012 0D24  
                                                     l4068 0CF4  
                                                     l1756 0CD9  
                                                     l4092 0BEA  
                                                     l3700 0E9C  
                                                     l1684 0359  
                                                     l6100 01E1  
                                                     l1829 0C19  
                                                     l1693 008D  
                                                     l6006 09D3  
                                                     l6022 0D37  
                                                     l6014 0D26  
                                                     l1686 038C  
                                                     l6030 0077  
                                                     l6110 01F2  
                                                     l1791 071E  
                                                     l1695 0099  
                                                     l6016 0D2B  
                                                     l6024 0D3A  
                                                     l6008 0D1C  
                                                     l4096 0CBC  
                                                     l1776 0C01  
                                                     l6112 020B  
                                                     l6104 01E7  
                                                     l1696 009C  
                                                     l6032 007F  
                                                     l6200 0FD5  
                                                     l4600 060E  
                                                     l1697 009F  
                                                     l6018 0D2F  
                                                     l6130 07A6  
                                                     l6122 0799  
                                                     l6210 0E4A  
                                                     l6106 01EF  
                                                     l1698 00A2  
                                                     l6034 0085  
                                                     l6202 0FED  
                                                     l4610 0619  
                                                     l4602 0610  
                                                     l6140 07BE  
                                                     l6132 07AF  
                                                     l6124 07A0  
                                                     l6220 0D62  
                                                     l6212 0E54  
                                                     l3716 0A44  
                                                     l6060 00EF  
                                                     l6052 00AA  
                                                     l6036 0089  
                                                     l6028 0066  
                                                     l6204 0FF7  
                                                     l6300 05FA  
                                                     l4460 0A4F  
                                                     l4620 0626  
                                                     l4612 061B  
                                                     l4604 0612  
                                                     l5510 0E38  
                                                     l6150 07CF  
                                                     l6142 07C3  
                                                     l6134 07B4  
                                                     l6126 07A4  
                                                     l6222 0D62  
                                                     l6214 0E60  
                                                     l4710 0ECE  
                                                     l6062 00F7  
                                                     l6070 0111  
                                                     l6038 008F  
                                                     l6054 00CE  
                                                     l6302 0600  
                                                     l6230 075C  
                                                     l4462 0A55  
                                                     l4550 0AA0  
                                                     l4630 0AAE  
                                                     l4622 0627  
                                                     l4614 061D  
                                                     l4606 0614  
                                                     ?_pad 0028  
                                                     l1799 0E1D  
                                                     l6160 0CA0  
                                                     l5520 09DC  
                                                     l5512 0AEC  
                                                     l6144 07C4  
                                                     l6136 07B5  
                                                     l6128 07A5  
                                                     l6224 0D6C  
                                                     l6216 0E67  
                                                     l6208 0E4A  
                                                     l4712 0ED7  
                                                     l6072 0121  
                                                     l6080 0153  
                                                     l6064 0104  
                                                     l6056 00D9  
                                                     l6048 00A5  
                                                     l6232 077D  
                                                     l4464 0A49  
                                                     l4456 0A5B  
                                                     l4560 06AF  
                                                     l4552 0AA3  
                                                     l4632 0AB1  
                                                     l4624 0628  
                                                     l4616 0623  
                                                     l4608 0617  
                                                     l6170 0CB2  
                                                     l6162 0CA7  
                                                     l5522 09DF  
                                                     l5514 0AF1  
                                                     l5506 0E1F  
                                                     l5530 0B35  
                                                     l5602 0A37  
                                                     l5610 0A08  
                                                     l6146 07C9  
                                                     l6138 07BA  
                                                     l6226 0D78  
                                                     l6154 0ADF  
                                                     l6218 0E6A  
                                                     l6250 0DB7  
                                                     l6242 0DA9  
                                                     l4714 0EDF  
                                                     l4730 0A93  
                                                     l3690 0E84  
                                                     l6090 019F  
                                                     l6082 0165  
                                                     l6074 0129  
                                                     l6066 0108  
                                                     l6058 00DD  
                                                     l4458 0A61  
                                                     l4570 06BA  
                                                     l4562 06B2  
                                                     l4554 069D  
                                                     l4546 0A9C  
                                                     l4634 0AB2  
                                                     l4626 0629  
                                                     l4618 0625  
                                                     l6172 0CB5  
                                                     l6164 0CA8  
                                                     l5516 0AF9  
                                                     l5508 0E25  
                                                     l5524 09F3  
                                                     l5700 0509  
                                                     l5620 0A14  
                                                     l6148 07CC  
                                                     l6228 0D7B  
                                                     l6156 0A32  
                                                     l6252 0DC3  
                                                     l6244 0DAE  
                                                     l4716 0EE3  
                                                     l6260 0F6A  
                                                     l4740 07EC  
                                                     l3692 0E8E  
                                                     l3684 0E74  
                                                     l3860 06EF  
                                                     l6084 0176  
                                                     l6068 010A  
                                                     l6236 0BBB  
                                                     l4580 06D3  
                                                     l4572 06C1  
                                                     l4564 06B4  
                                                     l4556 069F  
                                                     l4548 0A9E  
                                                     l4636 0AB5  
                                                     l4628 0A82  
                                                     l6166 0CAC  
                                                     l6174 0CBA  
                                                     l5518 0AB8  
                                                     l5526 0B21  
                                                     l5534 0B37  
                                                     l5542 0B4D  
                                                     l5550 0B63  
                                                     l5630 09F7  
                                                     l5606 09FC  
                                                     l5710 0549  
                                                     l5614 0A0A  
                                                     l5622 0A17  
                                                     l6270 0D3D  
                                                     l6254 0DCC  
                                                     l6246 0DB2  
                                                     l6262 0F77  
                                                     l4750 07FC  
                                                     l4742 07F0  
                                                     l4734 07D2  
                                                     l3694 0E92  
                                                     l3686 0E74  
                                                     l3862 06F9  
                                                     l3854 06E0  
                                                     l6086 0185  
                                                     l6094 01BD  
                                                     l6078 014D  
                                                     l6238 0BC0  
                                                     l6190 0FAE  
                                                     l6182 0F91  
                                                     l4582 06D4  
                                                     l4574 06C8  
                                                     l4566 06B6  
                                                     l4558 06A6  
                                                     l4638 0AB6  
                                                     l4590 0602  
                                                     l6168 0CAF  
                                                     l5528 0B2E  
                                                     l5536 0B44  
                                                     l5544 0B5A  
                                                     l5552 0B70  
                                                     l5560 0C68  
                                                     l5712 0554  
                                                     l5608 0A05  
                                                     l5616 0A0D  
                                                     l5640 0A21  
                                                     l5632 0A23  
                                                     l5800 0EFD  
                                                     l6272 0D42  
                                                     l6248 0DB6  
                                                     l6264 0F79  
                                                     l6256 0F5E  
                                                     l4752 07FE  
                                                     l4744 07F6  
                                                     l4736 07D2  
                                                     l3696 0E98  
                                                     l3688 0E7F  
                                                     l3864 0716  
                                                     l3856 06E5  
                                                     l6096 01CE  
                                                     l6088 018D  
                                                     l6192 0FBD  
                                                     l6184 0F9A  
                                                     l6280 0C87  
                                                     l4584 06DD  
                                                     l4576 06CF  
                                                     l4568 06B8  
                                                     l4592 0606  
                                                     l5538 0B4B  
                                                     l5546 0B61  
                                                     l5554 0B77  
                                                     l5626 09E5  
                                                     l5714 0556  
                                                     l5706 050D  
                                                     l5730 066F  
                                                     l5722 0650  
                                                     l5634 0A26  
                                                     l5802 0F04  
                                                     l6178 0A2D  
                                                     l6274 0D46  
                                                     l6266 0F85  
                                                     l6258 0F64  
                                                     l4746 07F7  
                                                     l4738 07D8  
                                                     l3698 0E99  
                                                     l3858 06EA  
                                                     l6098 01D6  
                                                     l6290 05B4  
                                                     l6186 0F9E  
                                                     l6282 0C93  
                                                     l4578 06D1  
                                                     l4594 0608  
                                                     l6530 038F  
                                                     l5564 0B79  
                                                     l5572 0B8F  
                                                     l5580 0BA5  
                                                     l5644 09E2  
                                                     l5652 09E8  
                                                     l5708 0535  
                                                     l5740 0677  
                                                     l5724 065D  
                                                     l5812 0F0C  
                                                     l6276 0D52  
                                                     l6268 0F8E  
                                                     l4748 07F9  
                                                     l5820 0DFA  
                                                     l5900 0280  
                                                     l6196 0FC9  
                                                     l6292 05B6  
                                                     l6188 0FA7  
                                                     l6284 0C97  
                                                     l4596 060A  
                                                     l6540 039F  
                                                     l6532 0392  
                                                     l5662 09D0  
                                                     l5590 0B18  
                                                     l5558 0C4F  
                                                     l5566 0B86  
                                                     l5574 0B9C  
                                                     l5582 0BB2  
                                                     l5654 09CE  
                                                     l5726 0662  
                                                     l5646 0A0F  
                                                     l5638 0A1E  
                                                     l5806 0F08  
                                                     l5822 0E08  
                                                     l5910 02AD  
                                                     l5902 0288  
                                                     l6198 0FD1  
                                                     l6294 05CA  
                                                     l6286 0C99  
                                                     l6278 0C86  
                                                     l4598 060C  
                                                     l4790 0AFE  
                                                     l6542 03AC  
                                                     l6534 0395  
                                                     l5592 0B1F  
                                                     l5568 0B8D  
                                                     l5576 0BA3  
                                                     l5584 0BB9  
                                                     l5760 0F2C  
                                                     l5664 0A00  
                                                     l5672 0A8A  
                                                     l5680 0A7A  
                                                     l5736 0673  
                                                     l5728 066C  
                                                     l5752 0A73  
                                                     l5648 0A12  
                                                     l5840 0EB5  
                                                     l5832 0E9F  
                                                     l5824 0E0D  
                                                     l5920 02E5  
                                                     l5904 028F  
                                                     l6296 05CB  
                                                     l6288 05B1  
                                                     l4792 0B01  
                                                     l6560 0404  
                                                     l6552 03C0  
                                                     l6544 03B6  
                                                     l6536 0396  
                                                     l6528 038D  
                                                     l5658 0002  
                                                     l5762 0F2F  
                                                     l5666 0A02  
                                                     l5674 0A8C  
                                                     l5682 0A7C  
                                                     l5746 067B  
                                                     l5754 0A75  
                                                     l5834 0EA2  
                                                     l5818 0DF7  
                                                     l5850 0572  
                                                     l5842 055A  
                                                     l5826 0C02  
                                                     l5930 0339  
                                                     l5922 02E9  
                                                     l5914 02CA  
                                                     l6298 05F5  
                                                     l4794 0B04  
                                                     l6570 0426  
                                                     l6562 040C  
                                                     l6554 03C9  
                                                     l6546 03BD  
                                                     l6538 0397  
                                                     l5588 0B0B  
                                                     l5596 0C6A  
                                                     l5772 0F38  
                                                     l5668 0A03  
                                                     l5676 0A91  
                                                     l5684 0A80  
                                                     l5692 0501  
                                                     l5756 0A78  
                                                     l5836 0EA7  
                                                     l5852 0577  
                                                     l5844 055F  
                                                     l5940 036C  
                                                     l5932 0346  
                                                     l5924 02ED  
                                                     l5916 02D0  
                                                     l5908 02A7  
                                                     l4796 0B07  
                                                     l4788 0AFB  
                                                     l6572 042E  
                                                     l6564 0411  
                                                     l6556 03DA  
                                                     l5598 0C83  
                                                     l5766 0F33  
                                                     l5790 0A28  
                                                     l5838 0EAF  
                                                     l6750 0497  
                                                     l5950 0453  
                                                     l5854 0583  
                                                     l5846 0568  
                                                     l5862 0DCF  
                                                     l5942 0379  
                                                     l5934 0354  
                                                     l5918 02DC  
                                                     l5926 031E  
                                                     l6574 0436  
                                                     l6566 041A  
                                                     l6558 03EB  
                                                     l5872 09D9  
                                                     l5768 0F36  
                                                     l5696 0505  
                                                     l5688 04F8  
                                                     l5784 0A19  
                                                     l5792 0A2A  
                                                     l6752 0F23  
                                                     l5880 0ACC  
                                                     l5952 0455  
                                                     l5856 0588  
                                                     l5848 056D  
                                                     l5936 035E  
                                                     l5928 032C  
                                                     l6568 041E  
                                                     l5778 0F3C  
                                                     l6754 068E  
                                                     l5786 0A1C  
                                                     l5794 0A2B  
                                                     l5874 0AC5  
                                                     l5962 047B  
                                                     l5954 045F  
                                                     l5946 0449  
                                                     l5858 059B  
                                                     l5866 0DE7  
                                                     l5938 0363  
                                                     l5890 0246  
                                                     l5882 0218  
                                                     l6746 0442  
                                                     l6578 0439  
                                                     l6756 0525  
                                                     l5876 0AC6  
                                                     l5980 04E7  
                                                     l5972 04BF  
                                                     l5964 0482  
                                                     l5956 0473  
                                                     l5948 044F  
                                                     l5868 0DED  
                                                     l5892 024B  
                                                     l5884 021D  
                                                     l6748 00BD  
                                                     l6758 0F4F  
                                                     l5798 0EFB  
                                                     l5878 0AC9  
                                                     l5982 04F3  
                                                     l5966 048B  
                                                     l5958 0474  
                                                     l5894 0250  
                                                     l5886 0230  
                                                     l5992 0AD2  
                                                     l5976 04DB  
                                                     l5968 049F  
                                                     l5896 0265  
                                                     l5888 0236  
                                                     l5994 0AD7  
                                                     l5978 04E1  
                                                     l5898 0268  
                                                     l5996 0AD8  
                                                     l5998 0ADA  
                                                     STR_1 103E  
                                                     STR_2 1058  
                                                     STR_3 106E  
                                                     STR_4 107B  
                                                     STR_5 1020  
                                                     u2010 0BE2  
                                                     u2011 0BE0  
                                                     u2020 0BE3  
                                                     u2030 0D02  
                                                     u2031 0D01  
                                                     u2040 0D11  
                                                     u2041 0D10  
                                                     _LATA 0018  
                                                     _LATB 0019  
                                                     _LATC 001A  
                                                     u4000 0D83  
                                                     _LATD 001B  
                                                     u4001 0D82  
                                                     _LATE 001C  
                                                     u4010 0791  
                                                     u1700 0E98  
                                                     u4020 0C9F  
                                                     u1701 0E97  
                                                     u4021 0C9E  
                                                     u4030 05CA  
                                                     u4031 05C9  
                                                     u4015 078D  
                                                     u1720 06E5  
                                                     u1800 0C2D  
                                                     u3400 0C13  
                                                     u4040 0600  
                                                     u1721 06E4  
                                                     u1801 0C2C  
                                                     u4041 05FF  
                                                     u3330 0E25  
                                                     u3410 0A42  
                                                     u1730 06EA  
                                                     u3331 0E24  
                                                     u3411 0A41  
                                                     u1731 06E9  
                                                     u3340 0AF1  
                                                     u3420 0EA7  
                                                     u1740 06F9  
                                                     u3500 0DED  
                                                     u3341 0AF0  
                                                     u3421 0EA6  
                                                     u1741 06F8  
                                                     u3501 0DEC  
                                                     u3350 0500  
                                                     u3430 0EAF  
                                                     u3510 0AD1  
                                                     u2710 0A9A  
                                                     u1750 0716  
                                                     u3351 04FF  
                                                     u3431 0EAE  
                                                     u3511 0AD0  
                                                     u2711 0A98  
                                                     u1751 0715  
                                                     u3360 0554  
                                                     u2720 0A9B  
                                                     u1680 0E7A  
                                                     u3440 055F  
                                                     u3600 02C4  
                                                     u3520 021D  
                                                     u4320 0404  
                                                     u3361 0553  
                                                     u1681 0E79  
                                                     u3441 055E  
                                                     u3521 021C  
                                                     u4321 0403  
                                                     u3370 066C  
                                                     u2730 07D8  
                                                     u1690 0E7F  
                                                     u3450 056D  
                                                     u3610 02D0  
                                                     u3530 0230  
                                                     u4330 041A  
                                                     u3371 066B  
                                                     u2731 07D7  
                                                     u1691 0E7E  
                                                     u1755 0712  
                                                     u3451 056C  
                                                     u3611 02CF  
                                                     u3531 022F  
                                                     u4331 0419  
                                                     u2740 07F6  
                                                     u1860 0CE0  
                                                     u3700 0473  
                                                     u1940 0BFA  
                                                     u3380 0E1D  
                                                     u3460 0596  
                                                     u3620 030B  
                                                     u3540 024B  
                                                     u4340 042E  
                                                     u2741 07F5  
                                                     u1861 0CDF  
                                                     u3701 0472  
                                                     u1941 0BF8  
                                                     u3381 0E1C  
                                                     u3461 0595  
                                                     u3541 024A  
                                                     u4341 042D  
                                                     u3710 0481  
                                                     u1950 0BFB  
                                                     u3470 059B  
                                                     u3390 0C12  
                                                     u3630 032C  
                                                     u3550 0280  
                                                     u4350 0436  
                                                     u3711 0480  
                                                     u3471 059A  
                                                     u3391 0C10  
                                                     u3631 032B  
                                                     u3551 027F  
                                                     u3535 022C  
                                                     u4351 0435  
                                                     u3720 04D4  
                                                     u1960 0CD2  
                                                     u3480 0DE0  
                                                     u3640 0339  
                                                     u3560 02A0  
                                                     u3800 00D4  
                                                     u3721 04D2  
                                                     u1961 0CD0  
                                                     u3465 0592  
                                                     u3481 0DDE  
                                                     u3641 0338  
                                                     u3625 0302  
                                                     u3561 029E  
                                                     u3801 00D3  
                                                     u2690 0EFA  
                                                     u1890 0CF4  
                                                     u3730 04D5  
                                                     u1970 0CD3  
                                                     u3490 0DE1  
                                                     u3650 0346  
                                                     u3570 02A1  
                                                     u3810 00D9  
                                                     u2691 0EF9  
                                                     u1891 0CF3  
                                                     u1875 0CE5  
                                                     u3651 0345  
                                                     u3635 0328  
                                                     u3555 027C  
                                                     u3811 00D8  
                                                     u3900 07A0  
                                                     u3740 04E1  
                                                     u3660 0354  
                                                     u3580 02AD  
                                                     u3820 00EF  
                                                     _PMD0 0796  
                                                     u3901 079F  
                                                     u1885 0CEA  
                                                     u3741 04E0  
                                                     u3661 0353  
                                                     u3581 02AC  
                                                     u3821 00EE  
                                                     _PMD1 0797  
                                                     u3910 0CA7  
                                                     u3750 04E7  
                                                     u3670 0359  
                                                     u3590 02C3  
                                                     u3830 0108  
                                                     _PMD2 0798  
                                                     u3911 0CA6  
                                                     u3751 04E6  
                                                     u3671 0358  
                                                     u3655 0342  
                                                     u3591 02C1  
                                                     u3831 0107  
                                                     u4367 03B0  
                                                     _PMD3 0799  
                                                     u3760 0AD7  
                                                     u3680 035E  
                                                     u3840 0146  
                                                     u3920 0F9E  
                                                     _PMD4 079A  
                                                     u3761 0AD6  
                                                     u4377 0F89  
                                                     u3681 035D  
                                                     u3665 0350  
                                                     u3841 0144  
                                                     u3921 0F9D  
                                                     _PMD5 079B  
                                                     u3770 0D23  
                                                     u3690 045F  
                                                     u3850 0147  
                                                     u3771 0D22  
                                                     u4387 0DC7  
                                                     u3691 045E  
                                                     u3780 0D2B  
                                                     u3860 0153  
                                                     u3781 0D2A  
                                                     u3861 0152  
                                                     u3870 0165  
                                                     u3790 0077  
                                                     u3950 0FBD  
                                                     u3871 0164  
                                                     u3791 0076  
                                                     u3951 0FBC  
                                                     u3935 0FA8  
                                                     u3880 0176  
                                                     u3960 0FF7  
                                                     u3881 0175  
                                                     u3961 0FF6  
                                                     u3945 0FAF  
                                                     u3970 0E54  
                                                     u3890 01CE  
                                                     u3971 0E53  
                                                     u3891 01CD  
                                                     u3980 0E72  
                                                     u3981 0E71  
                                                     u3990 0D6C  
                                                     u3991 0D6B  
                                                     _WPUA 1F39  
                                                     _WPUB 1F44  
                                                     _WPUC 1F4F  
                                                     _WPUD 1F5A  
                                                     _WPUE 1F65  
                                  ??_wr2RegCompleteHandler 007B  
                                         ??_I2C1_MasterFsm 0023  
                                            _EUSART1_Write 0E73  
                         __size_of_I2C1_DO_RX_NACK_RESTART 0005  
                                ??_I2C1_CallbackReturnStop 007B  
                                                     _dbuf 0246  
                                                     _atoi 0449  
                                                     _main 038D  
                                                     _rand 075C  
                                                     _seed 01E8  
                                            ?_EUSART1_Read 0070  
                                                     _prec 00E8  
                                                     _nout 0169  
                                                     pad@i 002C  
                                                     pad@p 0029  
                                                     fsr0h 0005  
                                                     fsr1h 0007  
                                                     indf0 0000  
                                                     fsr0l 0004  
                                                     indf1 0001  
                                                     fsr1l 0006  
                                                     pad@w 002E  
                                                     btemp 007E  
                                                     _xtoa 0216  
                                 __size_of_i2c_writeNBytes 002B  
                                                     start 002B  
                                         ??_I2C1_SetBuffer 0075  
                         __size_of_rdBlkRegCompleteHandler 001B  
                            I2C1_CallbackReturnStop@funPtr 007A  
                                                    ??_pad 002B  
                           __size_of_OSCILLATOR_Initialize 000A  
                            __end_of_OSCILLATOR_Initialize 0AB8  
                                         __end_of_EE_Write 0DCF  
                                    _eusart1RxStatusBuffer 01E0  
                                        __end_of_I2C1_Open 07D2  
                                                    ?_atoi 0077  
                                                    ?_main 0070  
                                                    ?_rand 0024  
                                           _i2c_readNBytes 0D60  
                                                    ?_xtoa 0031  
                                                    i1l703 0029  
                                                    i1l644 0DA6  
                                                    i1l661 09CD  
                                                    i1l654 075B  
                                                    i1l647 0DA8  
                                                    i1l664 09F2  
                                                    i1l658 0C4E  
                                                    i1l667 09EE  
                                                    i1l698 001A  
                                                    i1l699 0029  
                               __end_of_i2c1_fsmStateTable 1020  
                                                    _OSCEN 0891  
                                             vfpfcnvrt@fmt 0057  
                                             vfpfcnvrt@llu 005F  
                                                    _TRISA 0012  
                                                    _TRISB 0013  
                                                    _TRISC 0014  
                                                    _TRISD 0015  
                                                    _TRISE 0016  
                                   ??_I2C1_MasterGetRxData 0071  
                                    ?_I2C1_DO_RX_NACK_STOP 0070  
                                      ___lmul@multiplicand 0075  
                                        ??_I2C1_MasterRead 007C  
                               ??_I2C1_CallbackReturnReset 007B  
                                        ??_I2C1_MasterOpen 0071  
                                     _EUSART1_Transmit_ISR 0D84  
                                        ??_I2C1_MasterStop 0071  
                                        ??_I2C1_Initialize 0071  
                                            ?_EE_WritePage 002C  
                                                    _flags 00EA  
                                                    _fputc 06E0  
                                          __end_of_isalpha 0CDA  
                                                    _fputs 0DF5  
                                          __end_of_isdigit 0BEA  
                                                    atoi@n 002B  
                                                    pad@fp 0030  
                                                    atoi@s 0077  
                                                    _width 016B  
                                                    _putch 0A43  
                                          __end_of_islower 0C1A  
                                          __end_of_isspace 0D1A  
                                           ?_EUSART1_Write 0070  
        rd1RegCompleteHandler@i2c1_master_example$F143@ptr 007A  
        wr1RegCompleteHandler@i2c1_master_example$F160@ptr 007A  
        rd2RegCompleteHandler@i2c1_master_example$F154@ptr 007A  
                                          __end_of_isupper 0C02  
                                                    pclath 000A  
        wr2RegCompleteHandler@i2c1_master_example$F166@ptr 007A  
      rdBlkRegCompleteHandler@i2c1_master_example$F177@ptr 007A  
                                           ??_EUSART1_Read 0071  
                                                    status 0003  
                              __size_of_I2C1_MasterSendAck 0004  
                                                    wtemp0 007E  
                                             ??_I2C1_DO_RX 0020  
                                                    xtoa@c 0055  
                                             ??_I2C1_DO_TX 0020  
                                                    xtoa@d 0031  
                                                    xtoa@i 0053  
                                                    xtoa@n 004B  
                                                    xtoa@p 0047  
                                                    xtoa@w 0049  
                                                    xtoa@x 0039  
                                            ??_RandomArray 0079  
                                          __end_of_toupper 0DF5  
               __end_of_EUSART1_DefaultFramingErrorHandler 09CE  
              __size_of_EUSART1_DefaultFramingErrorHandler 0001  
                     ??_EUSART1_DefaultFramingErrorHandler 0070  
                      ?_EUSART1_DefaultFramingErrorHandler 0070  
                       _EUSART1_DefaultFramingErrorHandler 09CD  
                                   ??_I2C1_DO_ADDRESS_NACK 0020  
                                             ??_I2C1_Close 0071  
                              __size_of_I2C1_MasterStartRx 0003  
                                             _toupper$2210 0079  
                                          __initialization 002D  
                                             __end_of_atoi 04F8  
                               __end_of_EUSART1_Initialize 06E0  
                                             __end_of_main 0449  
                                          EE_ReadPage@addr 002D  
                                             __end_of_rand 0798  
                                             __end_of_xtoa 038D  
                                   __end_of_i2c_readNBytes 0D84  
                              ?_INTERRUPT_InterruptManager 0070  
                                                   ??_atoi 0020  
                                               _MemoryTest 05B1  
                                   ??_I2C1_MasterOperation 007B  
                                                   ??_main 00E2  
                                                   ??_rand 0026  
                                                   ??_xtoa 003A  
                                    ?_EUSART1_Transmit_ISR 0070  
                            __size_of_I2C1_DO_SEND_RESTART 0005  
                                       __end_of_I2C1_DO_RX 069D  
                                       __end_of_I2C1_DO_TX 0558  
                                           ??_EE_WritePage 002F  
                                       __end_of_I2C1_Close 0CBC  
                                               _Sw_I2c_Cxt 0160  
                                                   ?_fputc 0074  
                                                   ?_fputs 0020  
                                                   _ANSELA 1F38  
                                                   ?_putch 0070  
                                                   _ANSELB 1F43  
                                                   _ANSELC 1F4E  
                                                   _ANSELD 1F59  
                                                   _ANSELE 1F64  
                                              MemoryTest@i 00BB  
                                                   _RC1REG 0119  
                                                   _RC1STA 011D  
                                                   _RC2PPS 1F22  
                                                   _RC4PPS 1F24  
                                                   _ODCONA 1F3A  
                                                   _ODCONB 1F45  
                                                   _ODCONC 1F50  
                                                   _RC6PPS 1F26  
                                                   _ODCOND 1F5B  
                                                   _ODCONE 1F66  
                             __size_of_EUSART1_is_rx_ready 0009  
                                                   i1l5180 0006  
                                                   i1l4470 0C42  
                                                   i1l5190 0022  
                                                   i1l5182 000A  
                                                   i1l4472 0C48  
                                                   i1l5184 000F  
                                                   i1l4474 0C49  
                                                   i1l4466 0C34  
                                                   i1l5186 0013  
                                                   i1l4468 0C3E  
                                                   i1l5188 001E  
                                                   i1l4760 0D94  
                                                   i1l4586 09EF  
                                                   i1l4770 0725  
                                                   i1l4762 0D99  
                     __size_of_I2C1_SetAddressNackCallback 000D  
                                                   i1l4588 09EB  
                                                   i1l4780 0741  
                                                   i1l4772 072A  
                                                   i1l4764 0D9F  
                                                   i1l4756 0D84  
                                                   i1l4782 0747  
                                                   i1l4774 0730  
                                                   i1l4766 0DA0  
                                                   i1l4758 0D8B  
                                                   i1l4784 0751  
                                                   i1l4776 0736  
                                                   i1l4768 071F  
                                                   i1l4786 0758  
                                                   i1l4778 073B  
                                                   u320_20 000F  
                                                   u320_21 000E  
                                                   _INLVLA 1F3C  
                                                   _INLVLB 1F47  
                                                   _INLVLC 1F52  
                                                   _INLVLD 1F5D  
                                                   _INLVLE 1F68  
                                                   u321_20 0013  
                                                   u321_21 0012  
                                                   u322_20 001E  
                                                   u322_21 001D  
                                                   u323_20 0022  
                                                   u323_21 0021  
                                                   u252_20 0C48  
                                                   u252_21 0C47  
                                                   u319_20 000A  
                                                   u319_21 0009  
                                                   u275_20 0D8B  
                                                   u275_21 0D8A  
                                                   u276_20 0D9F  
                                                   u276_21 0D9E  
                                                   u277_20 072A  
                                                   u277_21 0729  
                                                   u278_20 073B  
                                                   u278_21 073A  
                                                   u279_20 0751  
                                                   u279_21 0750  
                                                   _OSCFRQ 0893  
                                            vfpfcnvrt@done 0068  
                                                   _TX1REG 011A  
                                                   _TX1STA 011E  
                                        ?_I2C1_MasterClose 0070  
                                 rdBlkRegCompleteHandler@p 007A  
                                  ??_I2C1_MasterDisableIrq 0071  
                                        ?_I2C1_MasterStart 0070  
                                        ?_I2C1_MasterWrite 0070  
                                 ?_I2C1_MasterWaitForEvent 0070  
                                       ??_I2C1_MasterClose 0071  
                                         _I2C1_DO_TX_EMPTY 0F2C  
                                       ??_I2C1_MasterStart 0071  
                                       ??_I2C1_MasterWrite 007C  
                                             vfprintf@cfmt 00A3  
                                                   ___lmul 0F91  
                                                   ___wmul 0CDA  
                                      __end_of_RandomArray 0CA0  
                                        ??_i2c_writeNBytes 007C  
                                 ?_EUSART1_SetErrorHandler 0071  
                             __size_of_I2C1_MasterClearIrq 0003  
                                          ?_i2c_readNBytes 0028  
                                                   _memcpy 0ECD  
                                                   _printf 0BBB  
                                                   pad@buf 0028  
                         ??_EUSART1_SetOverrunErrorHandler 0073  
                          ?_EUSART1_SetOverrunErrorHandler 0071  
                                 ??_I2C1_DO_SEND_ADR_WRITE 0072  
                                                   _strlen 0C1A  
                                        ?_I2C1_SetCallback 0071  
                                   ??_I2C1_DO_RX_NACK_STOP 0071  
                                    _I2C1_DO_SEND_ADR_READ 0A8A  
                                                   fputc@c 0074  
                                           _PMD_Initialize 0A82  
                                                   fputs@c 0024  
                                                   fputs@i 0025  
                                                   fputs@s 0027  
                                                ??_isalpha 0073  
                                                ??_isdigit 0073  
                                     __size_of_EE_ReadPage 0023  
                            ?_I2C1_SetDataCompleteCallback 0076  
                                       ??_I2C1_SetCallback 0074  
                                                ??_islower 0073  
                                                ??_isspace 0073  
                                                ??_isupper 0073  
                                         __end_of_vfprintf 1000  
                                          ??_EUSART1_Write 0071  
                             __size_of_I2C1_MasterSendNack 0004  
                                                   xtoa@fp 0046  
                                          _eusart1RxBuffer 023E  
                                                ??_toupper 0020  
                                  _I2C1_DO_RX_NACK_RESTART 0A23  
                                          _eusart1TxBuffer 02A0  
                                        _SYSTEM_Initialize 0AFB  
                           I2C1_SetDataCompleteCallback@cb 0076  
                                  __end_of__initialization 0060  
                          I2C1_MasterOperation@returnValue 0027  
                                       ?_SYSTEM_Initialize 0070  
                                                ?_EE_Write 002C  
                                            ??_I2C1_Poller 007B  
                           __size_of_EUSART1_RxDataHandler 001B  
                            __end_of_EUSART1_RxDataHandler 0C4F  
                                  _rdBlkRegCompleteHandler 0C4F  
                                           __pcstackCOMMON 0070  
                                             __pidataBANK2 0AA5  
                                      ??_SYSTEM_Initialize 0074  
                         __end_of_I2C1_MasterEnableRestart 09DF  
                                             EE_Write@addr 002C  
                                         EE_ReadPage@pData 002F  
                                             EE_Write@data 002E  
                                            __end_of_fputc 071F  
                                            __end_of_fputs 0E1E  
                                            __end_of_putch 0A49  
                                         EE_ReadPage@frame 0031  
                                   __end_of_PMD_Initialize 0A8A  
                             ??_I2C1_DO_SEND_RESTART_WRITE 0071  
                                              ?_MemoryTest 00AF  
                                  ??_I2C1_MasterSendTxData 0071  
                                     __end_of_EUSART1_Read 0800  
                                   ??_EUSART1_Transmit_ISR 0070  
                              __end_of_EUSART1_Receive_ISR 075C  
                                    __end_of_I2C1_DO_RESET 0A2D  
                                                  ??_fputc 0077  
                                __end_of_SYSTEM_Initialize 0B0B  
                                                  ??_fputs 0021  
                                                  ??_putch 0073  
                                            _eusart1RxHead 007C  
                                            _eusart1TxHead 00EF  
                                            _eusart1RxTail 00ED  
                                               __pbssBANK1 00E8  
                                               __pbssBANK2 0169  
                                               __pbssBANK3 01E0  
                                               __pbssBANK4 0220  
                                               __pbssBANK5 02A0  
                                            _eusart1TxTail 00EE  
                          __end_of_I2C1_MasterWaitForEvent 0A43  
                        _EUSART1_TxDefaultInterruptHandler 01EE  
                          ??_EUSART1_SetRxInterruptHandler 0073  
                           __size_of_rd2RegCompleteHandler 0016  
                            __end_of_rd2RegCompleteHandler 0B63  
                                     I2C1_Open@returnValue 0073  
                           __size_of_wr2RegCompleteHandler 0016  
                            __end_of_wr2RegCompleteHandler 0B79  
                                               ??_EE_Write 002F  
                                              _RandomArray 0C85  
                                    _rd1RegCompleteHandler 0B37  
                                        _I2C1_DO_SEND_STOP 0A14  
                                    _wr1RegCompleteHandler 0B21  
                          __end_of_EUSART1_SetErrorHandler 0A4F  
                      __size_of_I2C1_DO_SEND_RESTART_WRITE 0005  
                                               __pmaintext 038D  
                                    i2c_readNBytes@address 002C  
                                     __end_of_EE_WritePage 0F91  
                                                  ?___lmul 0071  
                                       ?_I2C1_DO_SEND_STOP 0070  
                                                  ?___wmul 0071  
                                          _I2C1_MasterRead 0A2D  
                                          _I2C1_MasterOpen 0AD2  
                                               __pintentry 0004  
                                          _I2C1_MasterStop 09DF  
                                          _I2C1_Initialize 0A9C  
                                      __end_of_I2C1_Poller 0AD2  
                                                  ?_memcpy 0071  
                                           ___lmul@product 0020  
                                  __size_of_I2C1_DO_RX_ACK 0005  
                                                  ?_printf 00A5  
                                          ?_PMD_Initialize 0070  
                                   ?_I2C1_DO_SEND_ADR_READ 0070  
                                      ??_I2C1_DO_SEND_STOP 0071  
                                                  ?_strlen 0071  
                   __end_of_EUSART1_SetFramingErrorHandler 0A55  
                  __size_of_EUSART1_SetFramingErrorHandler 0006  
                           _EUSART1_SetFramingErrorHandler 0A4F  
                          __size_of_I2C1_DO_SEND_ADR_WRITE 0008  
                             ?_EUSART1_DefaultErrorHandler 0070  
                                        _I2C1_MasterIsNack 0A37  
                                                  _SP1BRGH 011C  
                                                  _SP1BRGL 011B  
                                                  _OSCCON1 088D  
                                                  _OSCCON3 088F  
                                                _I2C1_Open 0798  
                                       __size_of_vfpfcnvrt 01B2  
                                ??_I2C1_DO_RX_NACK_RESTART 0071  
                                                  _OSCSTAT 0890  
                                                  _OSCTUNE 0892  
                                        _I2C1_MasterSetIrq 09E8  
                       __size_of_I2C1_DO_SEND_RESTART_READ 0005  
                                                  _SSP1ADD 018D  
                                                  _SLRCONA 1F3B  
                                                  _SLRCONB 1F46  
                                                  _SLRCONC 1F51  
                                                  _SLRCOND 1F5C  
                                                  _SLRCONE 1F67  
                                                  _SSP1BUF 018C  
                                       ?_I2C1_MasterIsNack 0070  
                               ?_I2C1_DO_SEND_RESTART_READ 0070  
                           ??_I2C1_SetDataCompleteCallback 0079  
                                       ?_I2C1_MasterSetIrq 0070  
                                       _i2c1_fsmStateTable 1000  
                                      ??_I2C1_MasterIsNack 0071  
   __end_of_rd1RegCompleteHandler@i2c1_master_example$F143 0B8F  
  __size_of_rd1RegCompleteHandler@i2c1_master_example$F143 0016  
           _rd1RegCompleteHandler@i2c1_master_example$F143 0B79  
   __end_of_wr1RegCompleteHandler@i2c1_master_example$F160 0BBB  
  __size_of_wr1RegCompleteHandler@i2c1_master_example$F160 0016  
           _wr1RegCompleteHandler@i2c1_master_example$F160 0BA5  
   __end_of_rd2RegCompleteHandler@i2c1_master_example$F154 0BA5  
  __size_of_rd2RegCompleteHandler@i2c1_master_example$F154 0016  
           _rd2RegCompleteHandler@i2c1_master_example$F154 0B8F  
   __end_of_wr2RegCompleteHandler@i2c1_master_example$F166 0B21  
  __size_of_wr2RegCompleteHandler@i2c1_master_example$F166 0016  
           _wr2RegCompleteHandler@i2c1_master_example$F166 0B0B  
 __end_of_rdBlkRegCompleteHandler@i2c1_master_example$F177 0C85  
__size_of_rdBlkRegCompleteHandler@i2c1_master_example$F177 001B  
         _rdBlkRegCompleteHandler@i2c1_master_example$F177 0C6A  
                                __end_of_I2C1_DO_SEND_STOP 0A19  
                                ??_rdBlkRegCompleteHandler 007B  
                                       I2C1_SetCallback@cb 0071  
                                      __size_of_MemoryTest 0051  
                                      ??_I2C1_MasterSetIrq 0071  
                                          __size_of___lmul 0036  
                                          __size_of___wmul 001F  
                                                ?_vfprintf 006D  
                                      _EUSART1_is_rx_ready 0A93  
                                          __size_of_memcpy 002E  
                                            ?_I2C1_DO_IDLE 0070  
                                            ?_I2C1_DO_RCEN 0070  
                                   i2c_writeNBytes@address 002B  
                                       i2c_readNBytes@data 0028  
                                                  __ptext1 0AFB  
                                                  __ptext2 0A82  
                                                  __ptext3 0602  
                                                  __ptext4 0AAE  
                                                  __ptext5 0A9C  
                                                  __ptext6 069D  
                                                  __ptext7 0A61  
                                                  __ptext8 0A5B  
                                                  __ptext9 0A55  
                                           MemoryTest@addr 00AF  
                                 _I2C1_MasterEnableRestart 09DC  
                                          __size_of_printf 0017  
                                __end_of_I2C1_MasterIsNack 0A3D  
                             ?_I2C1_SetAddressNackCallback 0076  
                                          __size_of_strlen 001A  
                                           MemoryTest@rslt 00BA  
                                    _OSCILLATOR_Initialize 0AAE  
                                             __size_of_pad 0059  
                                                  _isalpha 0CBC  
                                                  _isdigit 0BD2  
                                __end_of_I2C1_MasterSetIrq 09EB  
                                 __end_of_I2C1_DO_TX_EMPTY 0F5E  
                                       _EUSART1_Initialize 069D  
                                                  _islower 0C02  
                                 ??_PIN_MANAGER_Initialize 0071  
                                                  _isspace 0CF9  
                                               ?_I2C1_Open 0070  
                                                  _isupper 0BEA  
                            __size_of_I2C1_MasterGetRxData 0003  
                            ??_EUSART1_DefaultErrorHandler 0071  
                                                  atoi@neg 0024  
                                 ?_I2C1_CallbackReturnStop 007A  
                               __size_of_SYSTEM_Initialize 0010  
                                                  clrloop0 0A68  
                                                  _toupper 0DCF  
                        __end_of_I2C1_DO_SEND_RESTART_READ 0A0A  
                                     end_of_initialization 0060  
                               __end_of_I2C1_MasterSendAck 09FB  
                                     ?_EUSART1_is_rx_ready 0070  
                                      _I2C1_MasterClearIrq 09D0  
                                      ?_EUSART1_Initialize 0070  
                                                  memcpy@d 0077  
                                                  memcpy@n 0072  
                                                  memcpy@s 0078  
                                                  fputc@fp 0076  
                                                  init_ram 0A6D  
                               __end_of_I2C1_MasterStartRx 09E5  
                              _EUSART1_OverrunErrorHandler 0268  
                                                  fputs@fp 0020  
                                   ?_rd1RegCompleteHandler 007A  
                                                  initloop 0A6E  
                                          _i2c_writeNBytes 0E48  
                                   _I2C1_DO_SEND_ADR_WRITE 0A7A  
                             __end_of_I2C1_DO_SEND_RESTART 0A14  
                                  __end_of_I2C1_MasterRead 0A32  
                                  __end_of_I2C1_MasterOpen 0ADF  
                                   ?_wr1RegCompleteHandler 007A  
                                  __end_of_I2C1_MasterStop 09E2  
                                  __end_of_I2C1_Initialize 0AA5  
                    __end_of_EUSART1_SetRxInterruptHandler 0A61  
                   __size_of_EUSART1_SetRxInterruptHandler 0006  
                            _EUSART1_SetRxInterruptHandler 0A5B  
                        __size_of_I2C1_CallbackReturnReset 0002  
                                              _I2C1_Poller 0AC5  
                           __size_of_I2C1_MasterDisableIrq 0003  
                                ?_I2C1_CallbackReturnReset 007A  
                            __end_of_I2C1_MasterDisableIrq 09D9  
                                         ??_i2c_readNBytes 007C  
                                              _I2C1_Status 0220  
                            __size_of_I2C1_DO_ADDRESS_NACK 0031  
                                        __end_of_vfpfcnvrt 0216  
                                    __size_of_EUSART1_Read 002E  
                                  __size_of_I2C1_MasterFsm 002E  
                                      _I2C1_MasterSendNack 09F3  
                      __end_of_I2C1_SetAddressNackCallback 0AEC  
                              _I2C1_SetAddressNackCallback 0ADF  
                                               ??_vfprintf 00A0  
                                     ?_I2C1_MasterClearIrq 0070  
                                           ??_I2C1_DO_IDLE 0071  
                                     ??_EUSART1_Initialize 0073  
                                           ??_I2C1_DO_RCEN 0071  
                       __end_of_I2C1_DO_SEND_RESTART_WRITE 0A0F  
                               _I2C1_DO_SEND_RESTART_WRITE 0A0A  
                                                  strlen@a 0074  
                                                  strlen@s 0075  
                                         EE_WritePage@addr 002C  
                                __size_of_I2C1_MasterClose 0003  
                                                _PORTCbits 000E  
                                  __size_of_I2C1_SetBuffer 000F  
                          __end_of_rdBlkRegCompleteHandler 0C6A  
                         __size_of_I2C1_MasterWaitForEvent 0006  
                                __size_of_I2C1_MasterStart 0003  
                                __size_of_I2C1_MasterWrite 0005  
                            __size_of_I2C1_MasterOperation 0023  
                            ??_I2C1_SetAddressNackCallback 0079  
                                                _TRISCbits 0014  
                          I2C1_SetDataCompleteCallback@ptr 0078  
                                               main@DoNext 00E5  
                           I2C1_CallbackReturnReset@funPtr 007A  
                         __size_of_EUSART1_SetErrorHandler 0006  
                                     ?_I2C1_MasterSendNack 0070  
                                      EUSART1_Write@txData 0072  
                                    ??_EUSART1_is_rx_ready 0071  
                                               main@datain 01A0  
                                __size_of_I2C1_SetCallback 002A  
                               __size_of_I2C1_DO_SEND_STOP 0005  
                                             _EUSART1_Read 07D2  
                                    __size_of_EE_WritePage 0033  
                     __size_of_EUSART1_DefaultErrorHandler 0004  
                                        __size_of_EE_Write 0026  
                                    ??_I2C1_MasterClearIrq 0071  
                                           __end_of___lmul 0FC7  
                                              vfpfcnvrt@ap 0058  
                                              vfpfcnvrt@fp 006C  
                                           __end_of___wmul 0CF9  
                                           _I2C1_DO_RX_ACK 0A19  
                                            ??_EE_ReadPage 0030  
                                             ??_MemoryTest 00B4  
                                           __end_of_memcpy 0EFB  
                                   ?_OSCILLATOR_Initialize 0070  
                               __size_of_I2C1_MasterIsNack 0006  
                                            EE_Write@frame 0030  
                          __end_of_I2C1_CallbackReturnStop 09D0  
                                           __end_of_printf 0BD2  
                           __size_of_I2C1_MasterSendTxData 0005  
                            __end_of_I2C1_MasterSendTxData 0A00  
                               __size_of_I2C1_MasterSetIrq 0003  
                                           __end_of_strlen 0C34  
                                      start_initialization 002D  
                                              ??_I2C1_Open 0071  
                            __size_of_I2C1_DO_RX_NACK_STOP 0005  
                          __size_of_PIN_MANAGER_Initialize 004E  
                                              __end_of_pad 05B1  
                                    ??_I2C1_MasterSendNack 0071  
                                  __end_of_i2c_writeNBytes 0E73  
                                             _EE_WritePage 0F5E  
            EUSART1_SetRxInterruptHandler@interruptHandler 0071  
            EUSART1_SetTxInterruptHandler@interruptHandler 0071  
                                              putch@txData 0073  
                                    __end_of_EUSART1_Write 0E9F  
                                   rd1RegCompleteHandler@p 007A  
                                             ?_RandomArray 002A  
                                 I2C1_SetBuffer@bufferSize 0073  
                                         ?_I2C1_MasterRead 0070  
                                       __end_of_MemoryTest 0602  
                                         ?_I2C1_MasterOpen 0070  
                                         ?_I2C1_MasterStop 0070  
                                         ?_I2C1_Initialize 0070  
                                              vfprintf@fmt 006D  
                                         ??_PMD_Initialize 0071  
                                                 ??___lmul 0079  
                                   __end_of_I2C1_DO_RX_ACK 0A1E  
                                                 ??___wmul 0075  
                                   wr1RegCompleteHandler@p 007A  
                                    _EUSART1_RxDataHandler 0C34  
                                  ??_I2C1_DO_SEND_ADR_READ 0071  
                           ?_EUSART1_SetRxInterruptHandler 0071  
                                              __pdataBANK2 0160  
                                                 ??_memcpy 0074  
                                                 ??_printf 00AD  
                                                 ??_strlen 0073  
                                         I2C1_Open@address 0072  
                                           _eusart1RxCount 00EC  
                                              __pbssCOMMON 007C  
                                     _I2C1_DO_SEND_RESTART 0A0F  
                        _EUSART1_RxDefaultInterruptHandler 01EC  
                                                ___latbits 0003  
                            __size_of_EUSART1_Transmit_ISR 0025  
                                            __pcstackBANK0 0020  
                                            __pcstackBANK1 00A0  
                                            __pcstackBANK2 0120  
                                            __pcstackBANK3 01A0  
                                      __end_of_EE_ReadPage 0D60  
                              ??_I2C1_DO_SEND_RESTART_READ 0071  
                          ??_EUSART1_SetTxInterruptHandler 0073  
                                     __end_of_I2C1_DO_IDLE 0A05  
                         ??_EUSART1_SetFramingErrorHandler 0073  
                          ?_EUSART1_SetFramingErrorHandler 0071  
                                     __end_of_I2C1_DO_RCEN 0A7A  
                             __size_of_EUSART1_Receive_ISR 003D  
                            I2C1_SetAddressNackCallback@cb 0076  
                                                _atoi$2130 0026  
                                                _atoi$2131 002A  
                                                _atoi$2132 0028  
                                                __pnvBANK2 016E  
                                                __pnvBANK3 01EC  
                                                __pnvBANK4 0266  
                                    _rd2RegCompleteHandler 0B4D  
                                   _PIN_MANAGER_Initialize 0602  
                                    _wr2RegCompleteHandler 0B63  
                               ??_I2C1_MasterEnableRestart 0071  
                                           _I2C1_MasterFsm 0E9F  
                                   __size_of_I2C1_DO_RESET 0005  
                                          ?_I2C1_DO_RX_ACK 0070  
                                                __ptext100 09CD  
                                                __ptext101 09EB  
                                                __ptext102 0C34  
                                  _I2C1_MasterWaitForEvent 0A3D  
                                         _I2C1_MasterClose 09D3  
                                           _I2C1_SetBuffer 0AEC  
                             ??_INTERRUPT_InterruptManager 0071  
                                         MemoryTest@pdata1 00B1  
                                         MemoryTest@pdata2 00B2  
                                         _I2C1_MasterStart 09D9  
                                        __size_of_vfprintf 0039  
                                         _I2C1_MasterWrite 0A32  
                                                 _BAUD1CON 011F  
               __end_of_EUSART1_DefaultOverrunErrorHandler 09F3  
              __size_of_EUSART1_DefaultOverrunErrorHandler 0004  
                     ??_EUSART1_DefaultOverrunErrorHandler 0070  
                      ?_EUSART1_DefaultOverrunErrorHandler 0070  
                       _EUSART1_DefaultOverrunErrorHandler 09EF  
                                                 ?_isalpha 0071  
                                                 ?_isdigit 0071  
                                    ?_I2C1_DO_SEND_RESTART 0070  
                                     _EUSART1_ErrorHandler 0266  
                                                 ?_islower 0071  
                                                 ?_isspace 0071  
                                        ?_I2C1_DO_TX_EMPTY 0070  
                                                 ?_isupper 0071  
                                  _EUSART1_SetErrorHandler 0A49  
                         __end_of_I2C1_CallbackReturnReset 0004  
                                         ?_i2c_writeNBytes 0028  
                                       ??_I2C1_DO_TX_EMPTY 0020  
                                           __size_of_fputc 003F  
                                           __size_of_fputs 0029  
                                  ??_rd1RegCompleteHandler 007B  
                                                 ?_toupper 0077  
                                        i2c_readNBytes@len 002A  
                                  ?_I2C1_DO_SEND_ADR_WRITE 0070  
                                I2C1_MasterSendTxData@data 0071  
                                            MemoryTest@len 00B3  
                                           __size_of_putch 0006  
                                  ??_wr1RegCompleteHandler 007B  
                                         _I2C1_SetCallback 0E1E  
                                           ___wmul@product 0075  
                  EUSART1_SetErrorHandler@interruptHandler 0071  
                                                 _LATBbits 0019  
                                                 _LATCbits 001A  
                                               _I2C1_DO_RX 0650  
                                               _I2C1_DO_TX 04F8  
                                           RandomArray@len 002A  
                                                 _EE_Write 0DA9  
                                                clear_ram0 0A67  
                                                 _PIE3bits 0719  
                                               _I2C1_Close 0CA0  
                                             ?_I2C1_Poller 0070  
                                   __end_of_I2C1_MasterFsm 0ECD  
                      __size_of_INTERRUPT_InterruptManager 0027  
                             __end_of_I2C1_MasterGetRxData 09E8  
                         __size_of_I2C1_CallbackReturnStop 0002  
                                                 _PIR3bits 070F  
                                                 _RX1DTPPS 1ECB  
                                   ?_EUSART1_RxDataHandler 0070  
                                       _I2C1_MasterSendAck 09F7  
                                _I2C1_DO_SEND_RESTART_READ 0A05  
                                                 _SSP1CON1 0190  
                                                 _SSP1CON2 0191  
                                   __end_of_I2C1_SetBuffer 0AFB  
                                                 _SSP1STAT 018F  
                     __end_of_I2C1_SetDataCompleteCallback 0AC5  
                    __size_of_I2C1_SetDataCompleteCallback 000D  
                             _I2C1_SetDataCompleteCallback 0AB8  
                                       _I2C1_MasterStartRx 09E2  
                                                _vfpfcnvrt 0064  
                              ?_I2C1_DO_SEND_RESTART_WRITE 0070  
                                                _xtoa$2096 0042  
                                                _xtoa$2097 0044  
                                              _EE_ReadPage 0D3D  
                                      ?_I2C1_MasterSendAck 0070  
                                        ___wmul@multiplier 0071  
                                 ?_I2C1_DO_RX_NACK_RESTART 0070  
                                      ?_I2C1_MasterStartRx 0070  
                             __end_of_I2C1_DO_ADDRESS_NACK 0F2C  
                                             _isspace$2157 0075  
                           __end_of_I2C1_DO_SEND_ADR_WRITE 0A82  
                                            _I2C1_DO_RESET 0A28  
                                               vfpfcnvrt@c 0067  
                                        ___lmul@multiplier 0071  
                                    I2C1_Close@returnValue 0072  
                                 ?_rdBlkRegCompleteHandler 007A  
                                      I2C1_SetCallback@idx 0075  
                                      I2C1_SetCallback@ptr 0073  
                                     ??_I2C1_MasterSendAck 0071  
                                    EUSART1_Read@readValue 0072  
                                   ?_rd2RegCompleteHandler 007A  
                             __end_of_I2C1_MasterOperation 0D3D  
                                   ?_wr2RegCompleteHandler 007A  
                                     ??_I2C1_MasterStartRx 0071  
                    __end_of_EUSART1_SetTxInterruptHandler 0A67  
                   __size_of_EUSART1_SetTxInterruptHandler 0006  
                            _EUSART1_SetTxInterruptHandler 0A61  
                                          ?_I2C1_MasterFsm 0070  
                                     __size_of_RandomArray 001B  
                                                memcpy@tmp 0075  
                                               vfprintf@ap 006F  
                                               vfprintf@fp 00A2  
                                      i2c_writeNBytes@data 0028  
                                ??_I2C1_MasterWaitForEvent 0071  
                                    _I2C1_MasterDisableIrq 09D6  
                                  ??_OSCILLATOR_Initialize 0071  
                                          ?_I2C1_SetBuffer 0071  
                              __size_of_EUSART1_Initialize 0043  
                                               ?_vfpfcnvrt 0057  
                                   ??_I2C1_DO_SEND_RESTART 0071  
                                ??_EUSART1_SetErrorHandler 0073  
                      __end_of_EUSART1_DefaultErrorHandler 09EF  
                              _EUSART1_DefaultErrorHandler 09EB  
                              __end_of_EUSART1_is_rx_ready 0A9C  
                                         __size_of_isalpha 001E  
                                         __size_of_isdigit 0018  
                                           ?_I2C1_DO_RESET 0070  
                                    __size_of_I2C1_DO_IDLE 0005  
                                         __size_of_islower 0018  
                                    __size_of_I2C1_DO_RCEN 0007  
                                         __size_of_isspace 0021  
                                                 __ptext10 0A4F  
                                                 __ptext11 0A49  
                                                 __ptext20 0DCF  
                                                 __ptext12 0C85  
                                                 __ptext21 0C02  
                                                 __ptext13 075C  
                                                 __ptext30 0449  
                                                 __ptext22 0558  
                                                 __ptext14 0F91  
                                                 __ptext31 0CF9  
                                                 __ptext23 0C1A  
                                                 __ptext15 05B1  
                                                 __ptext40 0E48  
                                                 __ptext32 0BD2  
                                                 __ptext24 0DF5  
                                                 __ptext16 0BBB  
                                                 __ptext41 0ADF  
                                                 __ptext33 0CDA  
                                                 __ptext25 06E0  
                                                 __ptext17 0FC7  
                                                 __ptext50 0E9F  
                                                 __ptext42 0A32  
                                                 __ptext34 0A93  
                                                 __ptext26 0A43  
                                                 __ptext18 0064  
                                                 __ptext51 0EFB  
                                                 __ptext43 0D60  
                                                 __ptext35 07D2  
                                                 __ptext27 0E73  
                                                 __ptext19 0216  
                                                 __ptext60 0A73  
                                                 __ptext52 0A28  
                                                 __ptext44 0798  
                                                 __ptext36 0F5E  
                                                 __ptext28 0BEA  
                                                 __ptext61 0650  
                                                 __ptext53 0A23  
                                                 __ptext45 0AD2  
                                                 __ptext37 0ECD  
                                                 __ptext29 0CBC  
                                                 __ptext70 09F7  
                                                 __ptext62 04F8  
                                                 __ptext54 0A1E  
                                                 __ptext46 0A2D  
                                                 __ptext38 0DA9  
                                                 __ptext71 09E5  
                                                 __ptext63 0A7A  
                                                 __ptext55 0A19  
                                                 __ptext47 0D1A  
                                                 __ptext39 0D3D  
                                                 __ptext80 0C4F  
                                                 __ptext72 09F3  
                                                 __ptext64 0A8A  
                                                 __ptext56 0A14  
                                                 __ptext48 0AC5  
                                                 __ptext81 0B63  
                                                 __ptext73 09E2  
                                                 __ptext65 0A00  
                                                 __ptext57 0A0F  
                                                 __ptext49 0A3D  
                                                 __ptext90 09DC  
                                                 __ptext82 0B4D  
                                                 __ptext74 0002  
                                                 __ptext66 0F2C  
                                                 __ptext58 0A0A  
                                                 __ptext91 09D9  
                                                 __ptext83 0B37  
                                                 __ptext75 09CE  
                                                 __ptext67 09E8  
                                                 __ptext59 0A05  
                                                 __ptext92 0CA0  
                                                 __ptext84 0B21  
                                                 __ptext76 0C6A  
                                                 __ptext68 0A37  
                                                 __ptext93 09D6  
                                                 __ptext85 0B0B  
                                                 __ptext77 0BA5  
                                                 __ptext69 09FB  
                                                 __ptext94 09D3  
                                                 __ptext86 0AB8  
                                                 __ptext78 0B8F  
                                                 __ptext95 09D0  
                                                 __ptext87 0E1E  
                                                 __ptext79 0B79  
                                                 __ptext88 0AEC  
                                                 __ptext97 0D84  
                                                 __ptext89 09DF  
                                                 __ptext98 071F  
                                                 __ptext99 09EF  
                                         __size_of_isupper 0018  
                                             _SSP1CON1bits 0190  
                                             _SSP1CON2bits 0191  
                                         __size_of_toupper 0026  
                                 _I2C1_CallbackReturnReset 0002  
                                            __size_of_atoi 00AF  
                                            __size_of_main 00BC  
                                            __size_of_rand 003C  
                                              ?_I2C1_DO_RX 0070  
                                              ?_I2C1_DO_TX 0070  
                                            __size_of_xtoa 0177  
                              __end_of_I2C1_MasterClearIrq 09D3  
                             __end_of_I2C1_DO_RX_NACK_STOP 0A23  
                                              ?_I2C1_Close 0070  
                                            RandomArray@pD 007A  
                                               _RC1STAbits 011D  
           EUSART1_SetOverrunErrorHandler@interruptHandler 0071  
                                                 int$flags 007E  
                          __end_of_I2C1_DO_RX_NACK_RESTART 0A28  
                                               _ODCONCbits 1F50  
                                 I2C1_MasterOperation@read 0026  
                                                 _vfprintf 0FC7  
                       __end_of_INTERRUPT_InterruptManager 002B  
                               _INTERRUPT_InterruptManager 0004  
                                                 main@addr 00E6  
                                                printf@fmt 00A5  
                                             _SSP1STATbits 018F  
                           __size_of_I2C1_DO_SEND_ADR_READ 0009  
                            __end_of_I2C1_DO_SEND_ADR_READ 0A93  
                              _EUSART1_FramingErrorHandler 026A  
                                             _I2C1_DO_IDLE 0A00  
                                      _EUSART1_Receive_ISR 071F  
                                             _I2C1_DO_RCEN 0A73  
                              __end_of_I2C1_MasterSendNack 09F7  
                                  __size_of_i2c_readNBytes 0024  
                                           _vfpfcnvrt$2112 006A  
                                               _INTCONbits 000B  
                                                 memcpy@d1 0076  
                                                 memcpy@s1 0071  
                           I2C1_SetAddressNackCallback@ptr 0078  
                                       i2c_writeNBytes@len 0029  
                                     _I2C1_MasterGetRxData 09E5  
                                    _I2C1_MasterSendTxData 09FB  
                                                 isalpha@c 0071  
                                                 isdigit@c 0071  
                                                 intlevel1 0000  
                                 __end_of_I2C1_MasterClose 09D6  
                                     ?_EUSART1_Receive_ISR 0070  
                                   rd2RegCompleteHandler@p 007A  
                                                 islower@c 0071  
                                                 isspace@c 0071  
                                  ?_PIN_MANAGER_Initialize 0070  
                                 __end_of_I2C1_MasterStart 09DC  
                                 __end_of_I2C1_MasterWrite 0A37  
                   __end_of_EUSART1_SetOverrunErrorHandler 0A5B  
                  __size_of_EUSART1_SetOverrunErrorHandler 0006  
                           _EUSART1_SetOverrunErrorHandler 0A55  
                                         ??_I2C1_DO_RX_ACK 0071  
                                                 isupper@c 0071  
                                  _I2C1_CallbackReturnStop 09CE  
                             __end_of_EUSART1_Transmit_ISR 0DA9  
                                     _I2C1_DO_ADDRESS_NACK 0EFB  
                                   ?_I2C1_MasterDisableIrq 0070  
                                     __size_of_I2C1_Poller 000D  
                                                 printf@ap 00AE  
                                   wr2RegCompleteHandler@p 007A  
           EUSART1_SetFramingErrorHandler@interruptHandler 0071  
                           ?_EUSART1_SetTxInterruptHandler 0071  
                                              ??_vfpfcnvrt 0059  
                                 __size_of_I2C1_MasterRead 0005  
                                 __size_of_I2C1_MasterOpen 000D  
                                 __size_of_I2C1_MasterStop 0003  
                                 __size_of_I2C1_Initialize 0009  
                                   __size_of_EUSART1_Write 002C  
                                       _eusart1RxLastError 016D  
                                            __pstringtext1 1000  
                                            __pstringtext2 1020  
                                            __pstringtext3 103E  
                                            __pstringtext4 1058  
                                            __pstringtext5 106E  
                                            __pstringtext6 107B  
                                            __pstringtext7 0000  
                                 __end_of_I2C1_SetCallback 0E48  
                     ?_rd1RegCompleteHandler@islower$F2231 007A  
                     ?_wr1RegCompleteHandler@islower$F2223 007A  
                    ??_rd1RegCompleteHandler@islower$F2233 007B  
                    ??_wr1RegCompleteHandler@islower$F2225 007B  
                  ??_rdBlkRegCompleteHandler@islower$F2251 007B  
                     ?_wr2RegCompleteHandler@islower$F2243 007A  
                    ??_wr2RegCompleteHandler@islower$F2245 007B  
                     ?_rd2RegCompleteHandler@islower$F2237 007A  
                    ??_rd2RegCompleteHandler@islower$F2239 007B  
                   ?_rdBlkRegCompleteHandler@islower$F2249 007A  
                                               _SSP1DATPPS 1EC6  
                                               _SSP1CLKPPS 1EC5  
                                      __size_of_I2C1_DO_RX 004D  
                                      __size_of_I2C1_DO_TX 0060  
                                          ??_I2C1_DO_RESET 0071  
                                     _I2C1_MasterOperation 0D1A  
                                                 toupper@c 0077  
                                      __size_of_I2C1_Close 001C  
                                        EE_WritePage@frame 00A0  
                                    ?_I2C1_MasterGetRxData 0070  
                                        EE_WritePage@pdata 002E  
                                               _TX1STAbits 011E  
                                    ??_EUSART1_Receive_ISR 0071  
                           __end_of_PIN_MANAGER_Initialize 0650  
                           __size_of_rd1RegCompleteHandler 0016  
                            __end_of_rd1RegCompleteHandler 0B4D  
                                       __size_of_I2C1_Open 003A  
                           __size_of_wr1RegCompleteHandler 0016  
                            __end_of_wr1RegCompleteHandler 0B37  
                                  ??_EUSART1_RxDataHandler 0070  
                                __size_of_I2C1_DO_TX_EMPTY 0032  
                                    ?_I2C1_DO_ADDRESS_NACK 0070  
