

Microchip MPLAB XC8 Assembler V2.32 build 20210201212658 
                                                                                               Fri Aug 13 20:12:57 2021

Microchip MPLAB XC8 C Compiler v2.32 (Free license) build 20210201212658 Og1 
     1                           	processor	16LF15376
     2                           	pagewidth 120
     3                           	opt	flic
     4                           	psect	idataBANK1,global,class=CODE,delta=2,noexec
     5                           	psect	stringtext1,global,class=STRCODE,delta=2,noexec
     6                           	psect	nvBANK1,global,class=BANK1,space=1,delta=1,noexec
     7                           	psect	nvBANK2,global,class=BANK2,space=1,delta=1,noexec
     8                           	psect	stringtext2,global,class=STRCODE,delta=2,noexec
     9                           	psect	stringtext3,global,class=STRCODE,delta=2,noexec
    10                           	psect	stringtext4,global,class=STRCODE,delta=2,noexec
    11                           	psect	stringtext5,global,class=STRCODE,delta=2,noexec
    12                           	psect	stringtext6,global,class=STRCODE,delta=2,noexec
    13                           	psect	stringtext7,global,class=STRCODE,delta=2,noexec
    14                           	psect	cinit,global,class=CODE,merge=1,delta=2
    15                           	psect	bssCOMMON,global,class=COMMON,space=1,delta=1,noexec
    16                           	psect	bssBANK1,global,class=BANK1,space=1,delta=1,noexec
    17                           	psect	dataBANK1,global,class=BANK1,space=1,delta=1,noexec
    18                           	psect	bssBANK4,global,class=BANK4,space=1,delta=1,noexec
    19                           	psect	bssBANK5,global,class=BANK5,space=1,delta=1,noexec
    20                           	psect	inittext,global,class=CODE,delta=2
    21                           	psect	clrtext,global,class=CODE,delta=2
    22                           	psect	cstackBANK3,global,class=BANK3,space=1,delta=1,noexec
    23                           	psect	cstackBANK2,global,class=BANK2,space=1,delta=1,noexec
    24                           	psect	cstackBANK1,global,class=BANK1,space=1,delta=1,noexec
    25                           	psect	cstackCOMMON,global,class=COMMON,space=1,delta=1,noexec
    26                           	psect	cstackBANK0,global,class=BANK0,space=1,delta=1,noexec
    27                           	psect	maintext,global,class=CODE,merge=1,split=1,delta=2
    28                           	psect	text1,local,class=CODE,merge=1,delta=2
    29                           	psect	text2,local,class=CODE,merge=1,delta=2
    30                           	psect	text3,local,class=CODE,merge=1,delta=2
    31                           	psect	text4,local,class=CODE,merge=1,delta=2
    32                           	psect	text5,local,class=CODE,merge=1,delta=2
    33                           	psect	text6,local,class=CODE,merge=1,delta=2
    34                           	psect	text7,local,class=CODE,merge=1,delta=2
    35                           	psect	text8,local,class=CODE,merge=1,delta=2
    36                           	psect	text9,local,class=CODE,merge=1,delta=2
    37                           	psect	text10,local,class=CODE,merge=1,delta=2
    38                           	psect	text11,local,class=CODE,merge=1,delta=2
    39                           	psect	text12,local,class=CODE,merge=1,delta=2
    40                           	psect	text13,local,class=CODE,merge=1,delta=2,group=3
    41                           	psect	text14,local,class=CODE,merge=1,delta=2,group=2
    42                           	psect	text15,local,class=CODE,merge=1,delta=2
    43                           	psect	text16,local,class=CODE,merge=1,delta=2,group=3
    44                           	psect	text17,local,class=CODE,merge=1,delta=2,group=1
    45                           	psect	text18,local,class=CODE,merge=1,delta=2,group=1
    46                           	psect	text19,local,class=CODE,merge=1,delta=2,group=1
    47                           	psect	text20,local,class=CODE,merge=1,delta=2,group=3
    48                           	psect	text21,local,class=CODE,merge=1,delta=2,group=3
    49                           	psect	text22,local,class=CODE,merge=1,delta=2,group=1
    50                           	psect	text23,local,class=CODE,merge=1,delta=2,group=3
    51                           	psect	text24,local,class=CODE,merge=1,delta=2,group=3
    52                           	psect	text25,local,class=CODE,merge=1,delta=2,group=3
    53                           	psect	text26,local,class=CODE,merge=1,delta=2
    54                           	psect	text27,local,class=CODE,merge=1,delta=2
    55                           	psect	text28,local,class=CODE,merge=1,delta=2,group=3
    56                           	psect	text29,local,class=CODE,merge=1,delta=2,group=3
    57                           	psect	text30,local,class=CODE,merge=1,delta=2,group=3
    58                           	psect	text31,local,class=CODE,merge=1,delta=2,group=3
    59                           	psect	text32,local,class=CODE,merge=1,delta=2,group=3
    60                           	psect	text33,local,class=CODE,merge=1,delta=2,group=2
    61                           	psect	text34,local,class=CODE,merge=1,delta=2
    62                           	psect	text35,local,class=CODE,merge=1,delta=2
    63                           	psect	text36,local,class=CODE,merge=1,delta=2
    64                           	psect	text37,local,class=CODE,merge=1,delta=2,group=3
    65                           	psect	text38,local,class=CODE,merge=1,delta=2
    66                           	psect	text39,local,class=CODE,merge=1,delta=2
    67                           	psect	text40,local,class=CODE,merge=1,delta=2
    68                           	psect	text41,local,class=CODE,merge=1,delta=2
    69                           	psect	text42,local,class=CODE,merge=1,delta=2
    70                           	psect	text43,local,class=CODE,merge=1,delta=2
    71                           	psect	text44,local,class=CODE,merge=1,delta=2
    72                           	psect	text45,local,class=CODE,merge=1,delta=2
    73                           	psect	text46,local,class=CODE,merge=1,delta=2
    74                           	psect	text47,local,class=CODE,merge=1,delta=2
    75                           	psect	text48,local,class=CODE,merge=1,delta=2
    76                           	psect	text49,local,class=CODE,merge=1,delta=2
    77                           	psect	text50,local,class=CODE,merge=1,delta=2
    78                           	psect	text51,local,class=CODE,merge=1,delta=2
    79                           	psect	intentry,global,class=CODE,delta=2
    80                           	psect	text53,local,class=CODE,merge=1,delta=2
    81                           	psect	text54,local,class=CODE,merge=1,delta=2
    82                           	psect	text55,local,class=CODE,merge=1,delta=2
    83                           	psect	text56,local,class=CODE,merge=1,delta=2
    84                           	psect	text57,local,class=CODE,merge=1,delta=2
    85                           	psect	text58,local,class=CODE,merge=1,delta=2
    86                           	psect	config,global,abs,ovrld,class=CONFIG,space=4,delta=2,noexec
    87                           	dabs	1,0x7E,2
    88  0000                     
    89                           ; Version 2.30
    90                           ; Generated 15/09/2020 GMT
    91                           ; 
    92                           ; Copyright © 2020, Microchip Technology Inc. and its subsidiaries ("Microchip")
    93                           ; All rights reserved.
    94                           ; 
    95                           ; This software is developed by Microchip Technology Inc. and its subsidiaries ("Microch
      +                          ip").
    96                           ; 
    97                           ; Redistribution and use in source and binary forms, with or without modification, are
    98                           ; permitted provided that the following conditions are met:
    99                           ; 
   100                           ;     1. Redistributions of source code must retain the above copyright notice, this lis
      +                          t of
   101                           ;        conditions and the following disclaimer.
   102                           ; 
   103                           ;     2. Redistributions in binary form must reproduce the above copyright notice, this 
      +                          list
   104                           ;        of conditions and the following disclaimer in the documentation and/or other
   105                           ;        materials provided with the distribution. Publication is not required when
   106                           ;        this file is used in an embedded application.
   107                           ; 
   108                           ;     3. Microchip's name may not be used to endorse or promote products derived from th
      +                          is
   109                           ;        software without specific prior written permission.
   110                           ; 
   111                           ; THIS SOFTWARE IS PROVIDED BY MICROCHIP "AS IS" AND ANY EXPRESS OR IMPLIED WARRANTIES,
   112                           ; INCLUDING, BUT NOT LIMITED TO, THE IMPLIED WARRANTIES OF MERCHANTABILITY AND FITNESS F
      +                          OR
   113                           ; PURPOSE ARE DISCLAIMED.  IN NO EVENT SHALL MICROCHIP BE LIABLE FOR ANY DIRECT, INDIREC
      +                          T,
   114                           ; INCIDENTAL, SPECIAL, EXEMPLARY, OR CONSEQUENTIAL DAMAGES (INCLUDING BUT NOT LIMITED TO
   115                           ; PROCUREMENT OF SUBSTITUTE GOODS OR SERVICES; LOSS OF USE, DATA OR PROFITS; OR BUSINESS
   116                           ; INTERRUPTION) HOWSOEVER CAUSED AND ON ANY THEORY OF LIABILITY, WHETHER IN CONTRACT, ST
      +                          RICT
   117                           ; LIABILITY, OR TORT (INCLUDING NEGLIGENCE OR OTHERWISE) ARISING IN ANY WAY OUT OF THE U
      +                          SE OF
   118                           ; THIS SOFTWARE, EVEN IF ADVISED OF THE POSSIBILITY OF SUCH DAMAGE.
   119                           ; 
   120                           ; 
   121                           ; Code-generator required, PIC16LF15376 Definitions
   122                           ; 
   123                           ; SFR Addresses
   124  0000                     	;# 
   125  0001                     	;# 
   126  0002                     	;# 
   127  0003                     	;# 
   128  0004                     	;# 
   129  0005                     	;# 
   130  0006                     	;# 
   131  0007                     	;# 
   132  0008                     	;# 
   133  0009                     	;# 
   134  000A                     	;# 
   135  000B                     	;# 
   136  000C                     	;# 
   137  000D                     	;# 
   138  000E                     	;# 
   139  000F                     	;# 
   140  0010                     	;# 
   141  0012                     	;# 
   142  0013                     	;# 
   143  0014                     	;# 
   144  0015                     	;# 
   145  0016                     	;# 
   146  0018                     	;# 
   147  0019                     	;# 
   148  001A                     	;# 
   149  001B                     	;# 
   150  001C                     	;# 
   151  009B                     	;# 
   152  009B                     	;# 
   153  009C                     	;# 
   154  009D                     	;# 
   155  009E                     	;# 
   156  009F                     	;# 
   157  0119                     	;# 
   158  0119                     	;# 
   159  0119                     	;# 
   160  011A                     	;# 
   161  011A                     	;# 
   162  011A                     	;# 
   163  011B                     	;# 
   164  011B                     	;# 
   165  011B                     	;# 
   166  011B                     	;# 
   167  011B                     	;# 
   168  011C                     	;# 
   169  011C                     	;# 
   170  011C                     	;# 
   171  011D                     	;# 
   172  011D                     	;# 
   173  011D                     	;# 
   174  011E                     	;# 
   175  011E                     	;# 
   176  011E                     	;# 
   177  011F                     	;# 
   178  011F                     	;# 
   179  011F                     	;# 
   180  011F                     	;# 
   181  011F                     	;# 
   182  018C                     	;# 
   183  018D                     	;# 
   184  018E                     	;# 
   185  018F                     	;# 
   186  0190                     	;# 
   187  0191                     	;# 
   188  0192                     	;# 
   189  0196                     	;# 
   190  0197                     	;# 
   191  0198                     	;# 
   192  0199                     	;# 
   193  019A                     	;# 
   194  019B                     	;# 
   195  019C                     	;# 
   196  020C                     	;# 
   197  020C                     	;# 
   198  020D                     	;# 
   199  020E                     	;# 
   200  020F                     	;# 
   201  020F                     	;# 
   202  0210                     	;# 
   203  0210                     	;# 
   204  0211                     	;# 
   205  0211                     	;# 
   206  028C                     	;# 
   207  028C                     	;# 
   208  028D                     	;# 
   209  028D                     	;# 
   210  028E                     	;# 
   211  028F                     	;# 
   212  0290                     	;# 
   213  0291                     	;# 
   214  030C                     	;# 
   215  030C                     	;# 
   216  030D                     	;# 
   217  030E                     	;# 
   218  030F                     	;# 
   219  0310                     	;# 
   220  0310                     	;# 
   221  0311                     	;# 
   222  0312                     	;# 
   223  0313                     	;# 
   224  0314                     	;# 
   225  0314                     	;# 
   226  0315                     	;# 
   227  0316                     	;# 
   228  0318                     	;# 
   229  0318                     	;# 
   230  0319                     	;# 
   231  031A                     	;# 
   232  031C                     	;# 
   233  031C                     	;# 
   234  031D                     	;# 
   235  031E                     	;# 
   236  038C                     	;# 
   237  038C                     	;# 
   238  038D                     	;# 
   239  038E                     	;# 
   240  058C                     	;# 
   241  058C                     	;# 
   242  058D                     	;# 
   243  058E                     	;# 
   244  058F                     	;# 
   245  058F                     	;# 
   246  0590                     	;# 
   247  0591                     	;# 
   248  0592                     	;# 
   249  0593                     	;# 
   250  059C                     	;# 
   251  059C                     	;# 
   252  059D                     	;# 
   253  059D                     	;# 
   254  059E                     	;# 
   255  059F                     	;# 
   256  060C                     	;# 
   257  060D                     	;# 
   258  060E                     	;# 
   259  060F                     	;# 
   260  0610                     	;# 
   261  0611                     	;# 
   262  0612                     	;# 
   263  0613                     	;# 
   264  0614                     	;# 
   265  070C                     	;# 
   266  070D                     	;# 
   267  070E                     	;# 
   268  070F                     	;# 
   269  0710                     	;# 
   270  0711                     	;# 
   271  0712                     	;# 
   272  0713                     	;# 
   273  0716                     	;# 
   274  0717                     	;# 
   275  0718                     	;# 
   276  0719                     	;# 
   277  071A                     	;# 
   278  071B                     	;# 
   279  071C                     	;# 
   280  071D                     	;# 
   281  0796                     	;# 
   282  0797                     	;# 
   283  0798                     	;# 
   284  0799                     	;# 
   285  079A                     	;# 
   286  079B                     	;# 
   287  080C                     	;# 
   288  080D                     	;# 
   289  080E                     	;# 
   290  080F                     	;# 
   291  0810                     	;# 
   292  0811                     	;# 
   293  0813                     	;# 
   294  0814                     	;# 
   295  081A                     	;# 
   296  081A                     	;# 
   297  081B                     	;# 
   298  081C                     	;# 
   299  081C                     	;# 
   300  081D                     	;# 
   301  081E                     	;# 
   302  081F                     	;# 
   303  088C                     	;# 
   304  088D                     	;# 
   305  088E                     	;# 
   306  088F                     	;# 
   307  0890                     	;# 
   308  0891                     	;# 
   309  0892                     	;# 
   310  0893                     	;# 
   311  0895                     	;# 
   312  0896                     	;# 
   313  090C                     	;# 
   314  090E                     	;# 
   315  090F                     	;# 
   316  091F                     	;# 
   317  098F                     	;# 
   318  098F                     	;# 
   319  0990                     	;# 
   320  0991                     	;# 
   321  0992                     	;# 
   322  0993                     	;# 
   323  0994                     	;# 
   324  0995                     	;# 
   325  0996                     	;# 
   326  0997                     	;# 
   327  0A19                     	;# 
   328  0A19                     	;# 
   329  0A1A                     	;# 
   330  0A1A                     	;# 
   331  0A1B                     	;# 
   332  0A1B                     	;# 
   333  0A1B                     	;# 
   334  0A1C                     	;# 
   335  0A1C                     	;# 
   336  0A1D                     	;# 
   337  0A1D                     	;# 
   338  0A1E                     	;# 
   339  0A1E                     	;# 
   340  0A1F                     	;# 
   341  0A1F                     	;# 
   342  0A1F                     	;# 
   343  1E0F                     	;# 
   344  1E10                     	;# 
   345  1E11                     	;# 
   346  1E12                     	;# 
   347  1E13                     	;# 
   348  1E14                     	;# 
   349  1E15                     	;# 
   350  1E16                     	;# 
   351  1E17                     	;# 
   352  1E18                     	;# 
   353  1E19                     	;# 
   354  1E1A                     	;# 
   355  1E1B                     	;# 
   356  1E1C                     	;# 
   357  1E1D                     	;# 
   358  1E1E                     	;# 
   359  1E1F                     	;# 
   360  1E20                     	;# 
   361  1E21                     	;# 
   362  1E22                     	;# 
   363  1E23                     	;# 
   364  1E24                     	;# 
   365  1E25                     	;# 
   366  1E26                     	;# 
   367  1E27                     	;# 
   368  1E28                     	;# 
   369  1E29                     	;# 
   370  1E2A                     	;# 
   371  1E2B                     	;# 
   372  1E2C                     	;# 
   373  1E2D                     	;# 
   374  1E2E                     	;# 
   375  1E2F                     	;# 
   376  1E30                     	;# 
   377  1E31                     	;# 
   378  1E32                     	;# 
   379  1E33                     	;# 
   380  1E34                     	;# 
   381  1E35                     	;# 
   382  1E36                     	;# 
   383  1E37                     	;# 
   384  1E8F                     	;# 
   385  1E90                     	;# 
   386  1E91                     	;# 
   387  1E92                     	;# 
   388  1E93                     	;# 
   389  1E9C                     	;# 
   390  1EA1                     	;# 
   391  1EA2                     	;# 
   392  1EB1                     	;# 
   393  1EBB                     	;# 
   394  1EBC                     	;# 
   395  1EBD                     	;# 
   396  1EBE                     	;# 
   397  1EC3                     	;# 
   398  1EC5                     	;# 
   399  1EC6                     	;# 
   400  1EC7                     	;# 
   401  1EC8                     	;# 
   402  1EC9                     	;# 
   403  1ECA                     	;# 
   404  1ECB                     	;# 
   405  1ECC                     	;# 
   406  1ECD                     	;# 
   407  1ECE                     	;# 
   408  1F10                     	;# 
   409  1F11                     	;# 
   410  1F12                     	;# 
   411  1F13                     	;# 
   412  1F14                     	;# 
   413  1F15                     	;# 
   414  1F16                     	;# 
   415  1F17                     	;# 
   416  1F18                     	;# 
   417  1F19                     	;# 
   418  1F1A                     	;# 
   419  1F1B                     	;# 
   420  1F1C                     	;# 
   421  1F1D                     	;# 
   422  1F1E                     	;# 
   423  1F1F                     	;# 
   424  1F20                     	;# 
   425  1F21                     	;# 
   426  1F22                     	;# 
   427  1F23                     	;# 
   428  1F24                     	;# 
   429  1F25                     	;# 
   430  1F26                     	;# 
   431  1F27                     	;# 
   432  1F28                     	;# 
   433  1F29                     	;# 
   434  1F2A                     	;# 
   435  1F2B                     	;# 
   436  1F2C                     	;# 
   437  1F2D                     	;# 
   438  1F2E                     	;# 
   439  1F2F                     	;# 
   440  1F30                     	;# 
   441  1F31                     	;# 
   442  1F32                     	;# 
   443  1F38                     	;# 
   444  1F39                     	;# 
   445  1F3A                     	;# 
   446  1F3B                     	;# 
   447  1F3C                     	;# 
   448  1F3D                     	;# 
   449  1F3E                     	;# 
   450  1F3F                     	;# 
   451  1F43                     	;# 
   452  1F44                     	;# 
   453  1F45                     	;# 
   454  1F46                     	;# 
   455  1F47                     	;# 
   456  1F48                     	;# 
   457  1F49                     	;# 
   458  1F4A                     	;# 
   459  1F4E                     	;# 
   460  1F4F                     	;# 
   461  1F50                     	;# 
   462  1F51                     	;# 
   463  1F52                     	;# 
   464  1F53                     	;# 
   465  1F54                     	;# 
   466  1F55                     	;# 
   467  1F59                     	;# 
   468  1F5A                     	;# 
   469  1F5B                     	;# 
   470  1F5C                     	;# 
   471  1F5D                     	;# 
   472  1F64                     	;# 
   473  1F65                     	;# 
   474  1F66                     	;# 
   475  1F67                     	;# 
   476  1F68                     	;# 
   477  1F69                     	;# 
   478  1F6A                     	;# 
   479  1F6B                     	;# 
   480  1FE4                     	;# 
   481  1FE5                     	;# 
   482  1FE6                     	;# 
   483  1FE7                     	;# 
   484  1FE8                     	;# 
   485  1FE8                     	;# 
   486  1FE9                     	;# 
   487  1FEA                     	;# 
   488  1FEB                     	;# 
   489  1FED                     	;# 
   490  1FEE                     	;# 
   491  1FEF                     	;# 
   492  0000                     	;# 
   493  0001                     	;# 
   494  0002                     	;# 
   495  0003                     	;# 
   496  0004                     	;# 
   497  0005                     	;# 
   498  0006                     	;# 
   499  0007                     	;# 
   500  0008                     	;# 
   501  0009                     	;# 
   502  000A                     	;# 
   503  000B                     	;# 
   504  000C                     	;# 
   505  000D                     	;# 
   506  000E                     	;# 
   507  000F                     	;# 
   508  0010                     	;# 
   509  0012                     	;# 
   510  0013                     	;# 
   511  0014                     	;# 
   512  0015                     	;# 
   513  0016                     	;# 
   514  0018                     	;# 
   515  0019                     	;# 
   516  001A                     	;# 
   517  001B                     	;# 
   518  001C                     	;# 
   519  009B                     	;# 
   520  009B                     	;# 
   521  009C                     	;# 
   522  009D                     	;# 
   523  009E                     	;# 
   524  009F                     	;# 
   525  0119                     	;# 
   526  0119                     	;# 
   527  0119                     	;# 
   528  011A                     	;# 
   529  011A                     	;# 
   530  011A                     	;# 
   531  011B                     	;# 
   532  011B                     	;# 
   533  011B                     	;# 
   534  011B                     	;# 
   535  011B                     	;# 
   536  011C                     	;# 
   537  011C                     	;# 
   538  011C                     	;# 
   539  011D                     	;# 
   540  011D                     	;# 
   541  011D                     	;# 
   542  011E                     	;# 
   543  011E                     	;# 
   544  011E                     	;# 
   545  011F                     	;# 
   546  011F                     	;# 
   547  011F                     	;# 
   548  011F                     	;# 
   549  011F                     	;# 
   550  018C                     	;# 
   551  018D                     	;# 
   552  018E                     	;# 
   553  018F                     	;# 
   554  0190                     	;# 
   555  0191                     	;# 
   556  0192                     	;# 
   557  0196                     	;# 
   558  0197                     	;# 
   559  0198                     	;# 
   560  0199                     	;# 
   561  019A                     	;# 
   562  019B                     	;# 
   563  019C                     	;# 
   564  020C                     	;# 
   565  020C                     	;# 
   566  020D                     	;# 
   567  020E                     	;# 
   568  020F                     	;# 
   569  020F                     	;# 
   570  0210                     	;# 
   571  0210                     	;# 
   572  0211                     	;# 
   573  0211                     	;# 
   574  028C                     	;# 
   575  028C                     	;# 
   576  028D                     	;# 
   577  028D                     	;# 
   578  028E                     	;# 
   579  028F                     	;# 
   580  0290                     	;# 
   581  0291                     	;# 
   582  030C                     	;# 
   583  030C                     	;# 
   584  030D                     	;# 
   585  030E                     	;# 
   586  030F                     	;# 
   587  0310                     	;# 
   588  0310                     	;# 
   589  0311                     	;# 
   590  0312                     	;# 
   591  0313                     	;# 
   592  0314                     	;# 
   593  0314                     	;# 
   594  0315                     	;# 
   595  0316                     	;# 
   596  0318                     	;# 
   597  0318                     	;# 
   598  0319                     	;# 
   599  031A                     	;# 
   600  031C                     	;# 
   601  031C                     	;# 
   602  031D                     	;# 
   603  031E                     	;# 
   604  038C                     	;# 
   605  038C                     	;# 
   606  038D                     	;# 
   607  038E                     	;# 
   608  058C                     	;# 
   609  058C                     	;# 
   610  058D                     	;# 
   611  058E                     	;# 
   612  058F                     	;# 
   613  058F                     	;# 
   614  0590                     	;# 
   615  0591                     	;# 
   616  0592                     	;# 
   617  0593                     	;# 
   618  059C                     	;# 
   619  059C                     	;# 
   620  059D                     	;# 
   621  059D                     	;# 
   622  059E                     	;# 
   623  059F                     	;# 
   624  060C                     	;# 
   625  060D                     	;# 
   626  060E                     	;# 
   627  060F                     	;# 
   628  0610                     	;# 
   629  0611                     	;# 
   630  0612                     	;# 
   631  0613                     	;# 
   632  0614                     	;# 
   633  070C                     	;# 
   634  070D                     	;# 
   635  070E                     	;# 
   636  070F                     	;# 
   637  0710                     	;# 
   638  0711                     	;# 
   639  0712                     	;# 
   640  0713                     	;# 
   641  0716                     	;# 
   642  0717                     	;# 
   643  0718                     	;# 
   644  0719                     	;# 
   645  071A                     	;# 
   646  071B                     	;# 
   647  071C                     	;# 
   648  071D                     	;# 
   649  0796                     	;# 
   650  0797                     	;# 
   651  0798                     	;# 
   652  0799                     	;# 
   653  079A                     	;# 
   654  079B                     	;# 
   655  080C                     	;# 
   656  080D                     	;# 
   657  080E                     	;# 
   658  080F                     	;# 
   659  0810                     	;# 
   660  0811                     	;# 
   661  0813                     	;# 
   662  0814                     	;# 
   663  081A                     	;# 
   664  081A                     	;# 
   665  081B                     	;# 
   666  081C                     	;# 
   667  081C                     	;# 
   668  081D                     	;# 
   669  081E                     	;# 
   670  081F                     	;# 
   671  088C                     	;# 
   672  088D                     	;# 
   673  088E                     	;# 
   674  088F                     	;# 
   675  0890                     	;# 
   676  0891                     	;# 
   677  0892                     	;# 
   678  0893                     	;# 
   679  0895                     	;# 
   680  0896                     	;# 
   681  090C                     	;# 
   682  090E                     	;# 
   683  090F                     	;# 
   684  091F                     	;# 
   685  098F                     	;# 
   686  098F                     	;# 
   687  0990                     	;# 
   688  0991                     	;# 
   689  0992                     	;# 
   690  0993                     	;# 
   691  0994                     	;# 
   692  0995                     	;# 
   693  0996                     	;# 
   694  0997                     	;# 
   695  0A19                     	;# 
   696  0A19                     	;# 
   697  0A1A                     	;# 
   698  0A1A                     	;# 
   699  0A1B                     	;# 
   700  0A1B                     	;# 
   701  0A1B                     	;# 
   702  0A1C                     	;# 
   703  0A1C                     	;# 
   704  0A1D                     	;# 
   705  0A1D                     	;# 
   706  0A1E                     	;# 
   707  0A1E                     	;# 
   708  0A1F                     	;# 
   709  0A1F                     	;# 
   710  0A1F                     	;# 
   711  1E0F                     	;# 
   712  1E10                     	;# 
   713  1E11                     	;# 
   714  1E12                     	;# 
   715  1E13                     	;# 
   716  1E14                     	;# 
   717  1E15                     	;# 
   718  1E16                     	;# 
   719  1E17                     	;# 
   720  1E18                     	;# 
   721  1E19                     	;# 
   722  1E1A                     	;# 
   723  1E1B                     	;# 
   724  1E1C                     	;# 
   725  1E1D                     	;# 
   726  1E1E                     	;# 
   727  1E1F                     	;# 
   728  1E20                     	;# 
   729  1E21                     	;# 
   730  1E22                     	;# 
   731  1E23                     	;# 
   732  1E24                     	;# 
   733  1E25                     	;# 
   734  1E26                     	;# 
   735  1E27                     	;# 
   736  1E28                     	;# 
   737  1E29                     	;# 
   738  1E2A                     	;# 
   739  1E2B                     	;# 
   740  1E2C                     	;# 
   741  1E2D                     	;# 
   742  1E2E                     	;# 
   743  1E2F                     	;# 
   744  1E30                     	;# 
   745  1E31                     	;# 
   746  1E32                     	;# 
   747  1E33                     	;# 
   748  1E34                     	;# 
   749  1E35                     	;# 
   750  1E36                     	;# 
   751  1E37                     	;# 
   752  1E8F                     	;# 
   753  1E90                     	;# 
   754  1E91                     	;# 
   755  1E92                     	;# 
   756  1E93                     	;# 
   757  1E9C                     	;# 
   758  1EA1                     	;# 
   759  1EA2                     	;# 
   760  1EB1                     	;# 
   761  1EBB                     	;# 
   762  1EBC                     	;# 
   763  1EBD                     	;# 
   764  1EBE                     	;# 
   765  1EC3                     	;# 
   766  1EC5                     	;# 
   767  1EC6                     	;# 
   768  1EC7                     	;# 
   769  1EC8                     	;# 
   770  1EC9                     	;# 
   771  1ECA                     	;# 
   772  1ECB                     	;# 
   773  1ECC                     	;# 
   774  1ECD                     	;# 
   775  1ECE                     	;# 
   776  1F10                     	;# 
   777  1F11                     	;# 
   778  1F12                     	;# 
   779  1F13                     	;# 
   780  1F14                     	;# 
   781  1F15                     	;# 
   782  1F16                     	;# 
   783  1F17                     	;# 
   784  1F18                     	;# 
   785  1F19                     	;# 
   786  1F1A                     	;# 
   787  1F1B                     	;# 
   788  1F1C                     	;# 
   789  1F1D                     	;# 
   790  1F1E                     	;# 
   791  1F1F                     	;# 
   792  1F20                     	;# 
   793  1F21                     	;# 
   794  1F22                     	;# 
   795  1F23                     	;# 
   796  1F24                     	;# 
   797  1F25                     	;# 
   798  1F26                     	;# 
   799  1F27                     	;# 
   800  1F28                     	;# 
   801  1F29                     	;# 
   802  1F2A                     	;# 
   803  1F2B                     	;# 
   804  1F2C                     	;# 
   805  1F2D                     	;# 
   806  1F2E                     	;# 
   807  1F2F                     	;# 
   808  1F30                     	;# 
   809  1F31                     	;# 
   810  1F32                     	;# 
   811  1F38                     	;# 
   812  1F39                     	;# 
   813  1F3A                     	;# 
   814  1F3B                     	;# 
   815  1F3C                     	;# 
   816  1F3D                     	;# 
   817  1F3E                     	;# 
   818  1F3F                     	;# 
   819  1F43                     	;# 
   820  1F44                     	;# 
   821  1F45                     	;# 
   822  1F46                     	;# 
   823  1F47                     	;# 
   824  1F48                     	;# 
   825  1F49                     	;# 
   826  1F4A                     	;# 
   827  1F4E                     	;# 
   828  1F4F                     	;# 
   829  1F50                     	;# 
   830  1F51                     	;# 
   831  1F52                     	;# 
   832  1F53                     	;# 
   833  1F54                     	;# 
   834  1F55                     	;# 
   835  1F59                     	;# 
   836  1F5A                     	;# 
   837  1F5B                     	;# 
   838  1F5C                     	;# 
   839  1F5D                     	;# 
   840  1F64                     	;# 
   841  1F65                     	;# 
   842  1F66                     	;# 
   843  1F67                     	;# 
   844  1F68                     	;# 
   845  1F69                     	;# 
   846  1F6A                     	;# 
   847  1F6B                     	;# 
   848  1FE4                     	;# 
   849  1FE5                     	;# 
   850  1FE6                     	;# 
   851  1FE7                     	;# 
   852  1FE8                     	;# 
   853  1FE8                     	;# 
   854  1FE9                     	;# 
   855  1FEA                     	;# 
   856  1FEB                     	;# 
   857  1FED                     	;# 
   858  1FEE                     	;# 
   859  1FEF                     	;# 
   860  0000                     	;# 
   861  0001                     	;# 
   862  0002                     	;# 
   863  0003                     	;# 
   864  0004                     	;# 
   865  0005                     	;# 
   866  0006                     	;# 
   867  0007                     	;# 
   868  0008                     	;# 
   869  0009                     	;# 
   870  000A                     	;# 
   871  000B                     	;# 
   872  000C                     	;# 
   873  000D                     	;# 
   874  000E                     	;# 
   875  000F                     	;# 
   876  0010                     	;# 
   877  0012                     	;# 
   878  0013                     	;# 
   879  0014                     	;# 
   880  0015                     	;# 
   881  0016                     	;# 
   882  0018                     	;# 
   883  0019                     	;# 
   884  001A                     	;# 
   885  001B                     	;# 
   886  001C                     	;# 
   887  009B                     	;# 
   888  009B                     	;# 
   889  009C                     	;# 
   890  009D                     	;# 
   891  009E                     	;# 
   892  009F                     	;# 
   893  0119                     	;# 
   894  0119                     	;# 
   895  0119                     	;# 
   896  011A                     	;# 
   897  011A                     	;# 
   898  011A                     	;# 
   899  011B                     	;# 
   900  011B                     	;# 
   901  011B                     	;# 
   902  011B                     	;# 
   903  011B                     	;# 
   904  011C                     	;# 
   905  011C                     	;# 
   906  011C                     	;# 
   907  011D                     	;# 
   908  011D                     	;# 
   909  011D                     	;# 
   910  011E                     	;# 
   911  011E                     	;# 
   912  011E                     	;# 
   913  011F                     	;# 
   914  011F                     	;# 
   915  011F                     	;# 
   916  011F                     	;# 
   917  011F                     	;# 
   918  018C                     	;# 
   919  018D                     	;# 
   920  018E                     	;# 
   921  018F                     	;# 
   922  0190                     	;# 
   923  0191                     	;# 
   924  0192                     	;# 
   925  0196                     	;# 
   926  0197                     	;# 
   927  0198                     	;# 
   928  0199                     	;# 
   929  019A                     	;# 
   930  019B                     	;# 
   931  019C                     	;# 
   932  020C                     	;# 
   933  020C                     	;# 
   934  020D                     	;# 
   935  020E                     	;# 
   936  020F                     	;# 
   937  020F                     	;# 
   938  0210                     	;# 
   939  0210                     	;# 
   940  0211                     	;# 
   941  0211                     	;# 
   942  028C                     	;# 
   943  028C                     	;# 
   944  028D                     	;# 
   945  028D                     	;# 
   946  028E                     	;# 
   947  028F                     	;# 
   948  0290                     	;# 
   949  0291                     	;# 
   950  030C                     	;# 
   951  030C                     	;# 
   952  030D                     	;# 
   953  030E                     	;# 
   954  030F                     	;# 
   955  0310                     	;# 
   956  0310                     	;# 
   957  0311                     	;# 
   958  0312                     	;# 
   959  0313                     	;# 
   960  0314                     	;# 
   961  0314                     	;# 
   962  0315                     	;# 
   963  0316                     	;# 
   964  0318                     	;# 
   965  0318                     	;# 
   966  0319                     	;# 
   967  031A                     	;# 
   968  031C                     	;# 
   969  031C                     	;# 
   970  031D                     	;# 
   971  031E                     	;# 
   972  038C                     	;# 
   973  038C                     	;# 
   974  038D                     	;# 
   975  038E                     	;# 
   976  058C                     	;# 
   977  058C                     	;# 
   978  058D                     	;# 
   979  058E                     	;# 
   980  058F                     	;# 
   981  058F                     	;# 
   982  0590                     	;# 
   983  0591                     	;# 
   984  0592                     	;# 
   985  0593                     	;# 
   986  059C                     	;# 
   987  059C                     	;# 
   988  059D                     	;# 
   989  059D                     	;# 
   990  059E                     	;# 
   991  059F                     	;# 
   992  060C                     	;# 
   993  060D                     	;# 
   994  060E                     	;# 
   995  060F                     	;# 
   996  0610                     	;# 
   997  0611                     	;# 
   998  0612                     	;# 
   999  0613                     	;# 
  1000  0614                     	;# 
  1001  070C                     	;# 
  1002  070D                     	;# 
  1003  070E                     	;# 
  1004  070F                     	;# 
  1005  0710                     	;# 
  1006  0711                     	;# 
  1007  0712                     	;# 
  1008  0713                     	;# 
  1009  0716                     	;# 
  1010  0717                     	;# 
  1011  0718                     	;# 
  1012  0719                     	;# 
  1013  071A                     	;# 
  1014  071B                     	;# 
  1015  071C                     	;# 
  1016  071D                     	;# 
  1017  0796                     	;# 
  1018  0797                     	;# 
  1019  0798                     	;# 
  1020  0799                     	;# 
  1021  079A                     	;# 
  1022  079B                     	;# 
  1023  080C                     	;# 
  1024  080D                     	;# 
  1025  080E                     	;# 
  1026  080F                     	;# 
  1027  0810                     	;# 
  1028  0811                     	;# 
  1029  0813                     	;# 
  1030  0814                     	;# 
  1031  081A                     	;# 
  1032  081A                     	;# 
  1033  081B                     	;# 
  1034  081C                     	;# 
  1035  081C                     	;# 
  1036  081D                     	;# 
  1037  081E                     	;# 
  1038  081F                     	;# 
  1039  088C                     	;# 
  1040  088D                     	;# 
  1041  088E                     	;# 
  1042  088F                     	;# 
  1043  0890                     	;# 
  1044  0891                     	;# 
  1045  0892                     	;# 
  1046  0893                     	;# 
  1047  0895                     	;# 
  1048  0896                     	;# 
  1049  090C                     	;# 
  1050  090E                     	;# 
  1051  090F                     	;# 
  1052  091F                     	;# 
  1053  098F                     	;# 
  1054  098F                     	;# 
  1055  0990                     	;# 
  1056  0991                     	;# 
  1057  0992                     	;# 
  1058  0993                     	;# 
  1059  0994                     	;# 
  1060  0995                     	;# 
  1061  0996                     	;# 
  1062  0997                     	;# 
  1063  0A19                     	;# 
  1064  0A19                     	;# 
  1065  0A1A                     	;# 
  1066  0A1A                     	;# 
  1067  0A1B                     	;# 
  1068  0A1B                     	;# 
  1069  0A1B                     	;# 
  1070  0A1C                     	;# 
  1071  0A1C                     	;# 
  1072  0A1D                     	;# 
  1073  0A1D                     	;# 
  1074  0A1E                     	;# 
  1075  0A1E                     	;# 
  1076  0A1F                     	;# 
  1077  0A1F                     	;# 
  1078  0A1F                     	;# 
  1079  1E0F                     	;# 
  1080  1E10                     	;# 
  1081  1E11                     	;# 
  1082  1E12                     	;# 
  1083  1E13                     	;# 
  1084  1E14                     	;# 
  1085  1E15                     	;# 
  1086  1E16                     	;# 
  1087  1E17                     	;# 
  1088  1E18                     	;# 
  1089  1E19                     	;# 
  1090  1E1A                     	;# 
  1091  1E1B                     	;# 
  1092  1E1C                     	;# 
  1093  1E1D                     	;# 
  1094  1E1E                     	;# 
  1095  1E1F                     	;# 
  1096  1E20                     	;# 
  1097  1E21                     	;# 
  1098  1E22                     	;# 
  1099  1E23                     	;# 
  1100  1E24                     	;# 
  1101  1E25                     	;# 
  1102  1E26                     	;# 
  1103  1E27                     	;# 
  1104  1E28                     	;# 
  1105  1E29                     	;# 
  1106  1E2A                     	;# 
  1107  1E2B                     	;# 
  1108  1E2C                     	;# 
  1109  1E2D                     	;# 
  1110  1E2E                     	;# 
  1111  1E2F                     	;# 
  1112  1E30                     	;# 
  1113  1E31                     	;# 
  1114  1E32                     	;# 
  1115  1E33                     	;# 
  1116  1E34                     	;# 
  1117  1E35                     	;# 
  1118  1E36                     	;# 
  1119  1E37                     	;# 
  1120  1E8F                     	;# 
  1121  1E90                     	;# 
  1122  1E91                     	;# 
  1123  1E92                     	;# 
  1124  1E93                     	;# 
  1125  1E9C                     	;# 
  1126  1EA1                     	;# 
  1127  1EA2                     	;# 
  1128  1EB1                     	;# 
  1129  1EBB                     	;# 
  1130  1EBC                     	;# 
  1131  1EBD                     	;# 
  1132  1EBE                     	;# 
  1133  1EC3                     	;# 
  1134  1EC5                     	;# 
  1135  1EC6                     	;# 
  1136  1EC7                     	;# 
  1137  1EC8                     	;# 
  1138  1EC9                     	;# 
  1139  1ECA                     	;# 
  1140  1ECB                     	;# 
  1141  1ECC                     	;# 
  1142  1ECD                     	;# 
  1143  1ECE                     	;# 
  1144  1F10                     	;# 
  1145  1F11                     	;# 
  1146  1F12                     	;# 
  1147  1F13                     	;# 
  1148  1F14                     	;# 
  1149  1F15                     	;# 
  1150  1F16                     	;# 
  1151  1F17                     	;# 
  1152  1F18                     	;# 
  1153  1F19                     	;# 
  1154  1F1A                     	;# 
  1155  1F1B                     	;# 
  1156  1F1C                     	;# 
  1157  1F1D                     	;# 
  1158  1F1E                     	;# 
  1159  1F1F                     	;# 
  1160  1F20                     	;# 
  1161  1F21                     	;# 
  1162  1F22                     	;# 
  1163  1F23                     	;# 
  1164  1F24                     	;# 
  1165  1F25                     	;# 
  1166  1F26                     	;# 
  1167  1F27                     	;# 
  1168  1F28                     	;# 
  1169  1F29                     	;# 
  1170  1F2A                     	;# 
  1171  1F2B                     	;# 
  1172  1F2C                     	;# 
  1173  1F2D                     	;# 
  1174  1F2E                     	;# 
  1175  1F2F                     	;# 
  1176  1F30                     	;# 
  1177  1F31                     	;# 
  1178  1F32                     	;# 
  1179  1F38                     	;# 
  1180  1F39                     	;# 
  1181  1F3A                     	;# 
  1182  1F3B                     	;# 
  1183  1F3C                     	;# 
  1184  1F3D                     	;# 
  1185  1F3E                     	;# 
  1186  1F3F                     	;# 
  1187  1F43                     	;# 
  1188  1F44                     	;# 
  1189  1F45                     	;# 
  1190  1F46                     	;# 
  1191  1F47                     	;# 
  1192  1F48                     	;# 
  1193  1F49                     	;# 
  1194  1F4A                     	;# 
  1195  1F4E                     	;# 
  1196  1F4F                     	;# 
  1197  1F50                     	;# 
  1198  1F51                     	;# 
  1199  1F52                     	;# 
  1200  1F53                     	;# 
  1201  1F54                     	;# 
  1202  1F55                     	;# 
  1203  1F59                     	;# 
  1204  1F5A                     	;# 
  1205  1F5B                     	;# 
  1206  1F5C                     	;# 
  1207  1F5D                     	;# 
  1208  1F64                     	;# 
  1209  1F65                     	;# 
  1210  1F66                     	;# 
  1211  1F67                     	;# 
  1212  1F68                     	;# 
  1213  1F69                     	;# 
  1214  1F6A                     	;# 
  1215  1F6B                     	;# 
  1216  1FE4                     	;# 
  1217  1FE5                     	;# 
  1218  1FE6                     	;# 
  1219  1FE7                     	;# 
  1220  1FE8                     	;# 
  1221  1FE8                     	;# 
  1222  1FE9                     	;# 
  1223  1FEA                     	;# 
  1224  1FEB                     	;# 
  1225  1FED                     	;# 
  1226  1FEE                     	;# 
  1227  1FEF                     	;# 
  1228  0000                     	;# 
  1229  0001                     	;# 
  1230  0002                     	;# 
  1231  0003                     	;# 
  1232  0004                     	;# 
  1233  0005                     	;# 
  1234  0006                     	;# 
  1235  0007                     	;# 
  1236  0008                     	;# 
  1237  0009                     	;# 
  1238  000A                     	;# 
  1239  000B                     	;# 
  1240  000C                     	;# 
  1241  000D                     	;# 
  1242  000E                     	;# 
  1243  000F                     	;# 
  1244  0010                     	;# 
  1245  0012                     	;# 
  1246  0013                     	;# 
  1247  0014                     	;# 
  1248  0015                     	;# 
  1249  0016                     	;# 
  1250  0018                     	;# 
  1251  0019                     	;# 
  1252  001A                     	;# 
  1253  001B                     	;# 
  1254  001C                     	;# 
  1255  009B                     	;# 
  1256  009B                     	;# 
  1257  009C                     	;# 
  1258  009D                     	;# 
  1259  009E                     	;# 
  1260  009F                     	;# 
  1261  0119                     	;# 
  1262  0119                     	;# 
  1263  0119                     	;# 
  1264  011A                     	;# 
  1265  011A                     	;# 
  1266  011A                     	;# 
  1267  011B                     	;# 
  1268  011B                     	;# 
  1269  011B                     	;# 
  1270  011B                     	;# 
  1271  011B                     	;# 
  1272  011C                     	;# 
  1273  011C                     	;# 
  1274  011C                     	;# 
  1275  011D                     	;# 
  1276  011D                     	;# 
  1277  011D                     	;# 
  1278  011E                     	;# 
  1279  011E                     	;# 
  1280  011E                     	;# 
  1281  011F                     	;# 
  1282  011F                     	;# 
  1283  011F                     	;# 
  1284  011F                     	;# 
  1285  011F                     	;# 
  1286  018C                     	;# 
  1287  018D                     	;# 
  1288  018E                     	;# 
  1289  018F                     	;# 
  1290  0190                     	;# 
  1291  0191                     	;# 
  1292  0192                     	;# 
  1293  0196                     	;# 
  1294  0197                     	;# 
  1295  0198                     	;# 
  1296  0199                     	;# 
  1297  019A                     	;# 
  1298  019B                     	;# 
  1299  019C                     	;# 
  1300  020C                     	;# 
  1301  020C                     	;# 
  1302  020D                     	;# 
  1303  020E                     	;# 
  1304  020F                     	;# 
  1305  020F                     	;# 
  1306  0210                     	;# 
  1307  0210                     	;# 
  1308  0211                     	;# 
  1309  0211                     	;# 
  1310  028C                     	;# 
  1311  028C                     	;# 
  1312  028D                     	;# 
  1313  028D                     	;# 
  1314  028E                     	;# 
  1315  028F                     	;# 
  1316  0290                     	;# 
  1317  0291                     	;# 
  1318  030C                     	;# 
  1319  030C                     	;# 
  1320  030D                     	;# 
  1321  030E                     	;# 
  1322  030F                     	;# 
  1323  0310                     	;# 
  1324  0310                     	;# 
  1325  0311                     	;# 
  1326  0312                     	;# 
  1327  0313                     	;# 
  1328  0314                     	;# 
  1329  0314                     	;# 
  1330  0315                     	;# 
  1331  0316                     	;# 
  1332  0318                     	;# 
  1333  0318                     	;# 
  1334  0319                     	;# 
  1335  031A                     	;# 
  1336  031C                     	;# 
  1337  031C                     	;# 
  1338  031D                     	;# 
  1339  031E                     	;# 
  1340  038C                     	;# 
  1341  038C                     	;# 
  1342  038D                     	;# 
  1343  038E                     	;# 
  1344  058C                     	;# 
  1345  058C                     	;# 
  1346  058D                     	;# 
  1347  058E                     	;# 
  1348  058F                     	;# 
  1349  058F                     	;# 
  1350  0590                     	;# 
  1351  0591                     	;# 
  1352  0592                     	;# 
  1353  0593                     	;# 
  1354  059C                     	;# 
  1355  059C                     	;# 
  1356  059D                     	;# 
  1357  059D                     	;# 
  1358  059E                     	;# 
  1359  059F                     	;# 
  1360  060C                     	;# 
  1361  060D                     	;# 
  1362  060E                     	;# 
  1363  060F                     	;# 
  1364  0610                     	;# 
  1365  0611                     	;# 
  1366  0612                     	;# 
  1367  0613                     	;# 
  1368  0614                     	;# 
  1369  070C                     	;# 
  1370  070D                     	;# 
  1371  070E                     	;# 
  1372  070F                     	;# 
  1373  0710                     	;# 
  1374  0711                     	;# 
  1375  0712                     	;# 
  1376  0713                     	;# 
  1377  0716                     	;# 
  1378  0717                     	;# 
  1379  0718                     	;# 
  1380  0719                     	;# 
  1381  071A                     	;# 
  1382  071B                     	;# 
  1383  071C                     	;# 
  1384  071D                     	;# 
  1385  0796                     	;# 
  1386  0797                     	;# 
  1387  0798                     	;# 
  1388  0799                     	;# 
  1389  079A                     	;# 
  1390  079B                     	;# 
  1391  080C                     	;# 
  1392  080D                     	;# 
  1393  080E                     	;# 
  1394  080F                     	;# 
  1395  0810                     	;# 
  1396  0811                     	;# 
  1397  0813                     	;# 
  1398  0814                     	;# 
  1399  081A                     	;# 
  1400  081A                     	;# 
  1401  081B                     	;# 
  1402  081C                     	;# 
  1403  081C                     	;# 
  1404  081D                     	;# 
  1405  081E                     	;# 
  1406  081F                     	;# 
  1407  088C                     	;# 
  1408  088D                     	;# 
  1409  088E                     	;# 
  1410  088F                     	;# 
  1411  0890                     	;# 
  1412  0891                     	;# 
  1413  0892                     	;# 
  1414  0893                     	;# 
  1415  0895                     	;# 
  1416  0896                     	;# 
  1417  090C                     	;# 
  1418  090E                     	;# 
  1419  090F                     	;# 
  1420  091F                     	;# 
  1421  098F                     	;# 
  1422  098F                     	;# 
  1423  0990                     	;# 
  1424  0991                     	;# 
  1425  0992                     	;# 
  1426  0993                     	;# 
  1427  0994                     	;# 
  1428  0995                     	;# 
  1429  0996                     	;# 
  1430  0997                     	;# 
  1431  0A19                     	;# 
  1432  0A19                     	;# 
  1433  0A1A                     	;# 
  1434  0A1A                     	;# 
  1435  0A1B                     	;# 
  1436  0A1B                     	;# 
  1437  0A1B                     	;# 
  1438  0A1C                     	;# 
  1439  0A1C                     	;# 
  1440  0A1D                     	;# 
  1441  0A1D                     	;# 
  1442  0A1E                     	;# 
  1443  0A1E                     	;# 
  1444  0A1F                     	;# 
  1445  0A1F                     	;# 
  1446  0A1F                     	;# 
  1447  1E0F                     	;# 
  1448  1E10                     	;# 
  1449  1E11                     	;# 
  1450  1E12                     	;# 
  1451  1E13                     	;# 
  1452  1E14                     	;# 
  1453  1E15                     	;# 
  1454  1E16                     	;# 
  1455  1E17                     	;# 
  1456  1E18                     	;# 
  1457  1E19                     	;# 
  1458  1E1A                     	;# 
  1459  1E1B                     	;# 
  1460  1E1C                     	;# 
  1461  1E1D                     	;# 
  1462  1E1E                     	;# 
  1463  1E1F                     	;# 
  1464  1E20                     	;# 
  1465  1E21                     	;# 
  1466  1E22                     	;# 
  1467  1E23                     	;# 
  1468  1E24                     	;# 
  1469  1E25                     	;# 
  1470  1E26                     	;# 
  1471  1E27                     	;# 
  1472  1E28                     	;# 
  1473  1E29                     	;# 
  1474  1E2A                     	;# 
  1475  1E2B                     	;# 
  1476  1E2C                     	;# 
  1477  1E2D                     	;# 
  1478  1E2E                     	;# 
  1479  1E2F                     	;# 
  1480  1E30                     	;# 
  1481  1E31                     	;# 
  1482  1E32                     	;# 
  1483  1E33                     	;# 
  1484  1E34                     	;# 
  1485  1E35                     	;# 
  1486  1E36                     	;# 
  1487  1E37                     	;# 
  1488  1E8F                     	;# 
  1489  1E90                     	;# 
  1490  1E91                     	;# 
  1491  1E92                     	;# 
  1492  1E93                     	;# 
  1493  1E9C                     	;# 
  1494  1EA1                     	;# 
  1495  1EA2                     	;# 
  1496  1EB1                     	;# 
  1497  1EBB                     	;# 
  1498  1EBC                     	;# 
  1499  1EBD                     	;# 
  1500  1EBE                     	;# 
  1501  1EC3                     	;# 
  1502  1EC5                     	;# 
  1503  1EC6                     	;# 
  1504  1EC7                     	;# 
  1505  1EC8                     	;# 
  1506  1EC9                     	;# 
  1507  1ECA                     	;# 
  1508  1ECB                     	;# 
  1509  1ECC                     	;# 
  1510  1ECD                     	;# 
  1511  1ECE                     	;# 
  1512  1F10                     	;# 
  1513  1F11                     	;# 
  1514  1F12                     	;# 
  1515  1F13                     	;# 
  1516  1F14                     	;# 
  1517  1F15                     	;# 
  1518  1F16                     	;# 
  1519  1F17                     	;# 
  1520  1F18                     	;# 
  1521  1F19                     	;# 
  1522  1F1A                     	;# 
  1523  1F1B                     	;# 
  1524  1F1C                     	;# 
  1525  1F1D                     	;# 
  1526  1F1E                     	;# 
  1527  1F1F                     	;# 
  1528  1F20                     	;# 
  1529  1F21                     	;# 
  1530  1F22                     	;# 
  1531  1F23                     	;# 
  1532  1F24                     	;# 
  1533  1F25                     	;# 
  1534  1F26                     	;# 
  1535  1F27                     	;# 
  1536  1F28                     	;# 
  1537  1F29                     	;# 
  1538  1F2A                     	;# 
  1539  1F2B                     	;# 
  1540  1F2C                     	;# 
  1541  1F2D                     	;# 
  1542  1F2E                     	;# 
  1543  1F2F                     	;# 
  1544  1F30                     	;# 
  1545  1F31                     	;# 
  1546  1F32                     	;# 
  1547  1F38                     	;# 
  1548  1F39                     	;# 
  1549  1F3A                     	;# 
  1550  1F3B                     	;# 
  1551  1F3C                     	;# 
  1552  1F3D                     	;# 
  1553  1F3E                     	;# 
  1554  1F3F                     	;# 
  1555  1F43                     	;# 
  1556  1F44                     	;# 
  1557  1F45                     	;# 
  1558  1F46                     	;# 
  1559  1F47                     	;# 
  1560  1F48                     	;# 
  1561  1F49                     	;# 
  1562  1F4A                     	;# 
  1563  1F4E                     	;# 
  1564  1F4F                     	;# 
  1565  1F50                     	;# 
  1566  1F51                     	;# 
  1567  1F52                     	;# 
  1568  1F53                     	;# 
  1569  1F54                     	;# 
  1570  1F55                     	;# 
  1571  1F59                     	;# 
  1572  1F5A                     	;# 
  1573  1F5B                     	;# 
  1574  1F5C                     	;# 
  1575  1F5D                     	;# 
  1576  1F64                     	;# 
  1577  1F65                     	;# 
  1578  1F66                     	;# 
  1579  1F67                     	;# 
  1580  1F68                     	;# 
  1581  1F69                     	;# 
  1582  1F6A                     	;# 
  1583  1F6B                     	;# 
  1584  1FE4                     	;# 
  1585  1FE5                     	;# 
  1586  1FE6                     	;# 
  1587  1FE7                     	;# 
  1588  1FE8                     	;# 
  1589  1FE8                     	;# 
  1590  1FE9                     	;# 
  1591  1FEA                     	;# 
  1592  1FEB                     	;# 
  1593  1FED                     	;# 
  1594  1FEE                     	;# 
  1595  1FEF                     	;# 
  1596  0000                     	;# 
  1597  0001                     	;# 
  1598  0002                     	;# 
  1599  0003                     	;# 
  1600  0004                     	;# 
  1601  0005                     	;# 
  1602  0006                     	;# 
  1603  0007                     	;# 
  1604  0008                     	;# 
  1605  0009                     	;# 
  1606  000A                     	;# 
  1607  000B                     	;# 
  1608  000C                     	;# 
  1609  000D                     	;# 
  1610  000E                     	;# 
  1611  000F                     	;# 
  1612  0010                     	;# 
  1613  0012                     	;# 
  1614  0013                     	;# 
  1615  0014                     	;# 
  1616  0015                     	;# 
  1617  0016                     	;# 
  1618  0018                     	;# 
  1619  0019                     	;# 
  1620  001A                     	;# 
  1621  001B                     	;# 
  1622  001C                     	;# 
  1623  009B                     	;# 
  1624  009B                     	;# 
  1625  009C                     	;# 
  1626  009D                     	;# 
  1627  009E                     	;# 
  1628  009F                     	;# 
  1629  0119                     	;# 
  1630  0119                     	;# 
  1631  0119                     	;# 
  1632  011A                     	;# 
  1633  011A                     	;# 
  1634  011A                     	;# 
  1635  011B                     	;# 
  1636  011B                     	;# 
  1637  011B                     	;# 
  1638  011B                     	;# 
  1639  011B                     	;# 
  1640  011C                     	;# 
  1641  011C                     	;# 
  1642  011C                     	;# 
  1643  011D                     	;# 
  1644  011D                     	;# 
  1645  011D                     	;# 
  1646  011E                     	;# 
  1647  011E                     	;# 
  1648  011E                     	;# 
  1649  011F                     	;# 
  1650  011F                     	;# 
  1651  011F                     	;# 
  1652  011F                     	;# 
  1653  011F                     	;# 
  1654  018C                     	;# 
  1655  018D                     	;# 
  1656  018E                     	;# 
  1657  018F                     	;# 
  1658  0190                     	;# 
  1659  0191                     	;# 
  1660  0192                     	;# 
  1661  0196                     	;# 
  1662  0197                     	;# 
  1663  0198                     	;# 
  1664  0199                     	;# 
  1665  019A                     	;# 
  1666  019B                     	;# 
  1667  019C                     	;# 
  1668  020C                     	;# 
  1669  020C                     	;# 
  1670  020D                     	;# 
  1671  020E                     	;# 
  1672  020F                     	;# 
  1673  020F                     	;# 
  1674  0210                     	;# 
  1675  0210                     	;# 
  1676  0211                     	;# 
  1677  0211                     	;# 
  1678  028C                     	;# 
  1679  028C                     	;# 
  1680  028D                     	;# 
  1681  028D                     	;# 
  1682  028E                     	;# 
  1683  028F                     	;# 
  1684  0290                     	;# 
  1685  0291                     	;# 
  1686  030C                     	;# 
  1687  030C                     	;# 
  1688  030D                     	;# 
  1689  030E                     	;# 
  1690  030F                     	;# 
  1691  0310                     	;# 
  1692  0310                     	;# 
  1693  0311                     	;# 
  1694  0312                     	;# 
  1695  0313                     	;# 
  1696  0314                     	;# 
  1697  0314                     	;# 
  1698  0315                     	;# 
  1699  0316                     	;# 
  1700  0318                     	;# 
  1701  0318                     	;# 
  1702  0319                     	;# 
  1703  031A                     	;# 
  1704  031C                     	;# 
  1705  031C                     	;# 
  1706  031D                     	;# 
  1707  031E                     	;# 
  1708  038C                     	;# 
  1709  038C                     	;# 
  1710  038D                     	;# 
  1711  038E                     	;# 
  1712  058C                     	;# 
  1713  058C                     	;# 
  1714  058D                     	;# 
  1715  058E                     	;# 
  1716  058F                     	;# 
  1717  058F                     	;# 
  1718  0590                     	;# 
  1719  0591                     	;# 
  1720  0592                     	;# 
  1721  0593                     	;# 
  1722  059C                     	;# 
  1723  059C                     	;# 
  1724  059D                     	;# 
  1725  059D                     	;# 
  1726  059E                     	;# 
  1727  059F                     	;# 
  1728  060C                     	;# 
  1729  060D                     	;# 
  1730  060E                     	;# 
  1731  060F                     	;# 
  1732  0610                     	;# 
  1733  0611                     	;# 
  1734  0612                     	;# 
  1735  0613                     	;# 
  1736  0614                     	;# 
  1737  070C                     	;# 
  1738  070D                     	;# 
  1739  070E                     	;# 
  1740  070F                     	;# 
  1741  0710                     	;# 
  1742  0711                     	;# 
  1743  0712                     	;# 
  1744  0713                     	;# 
  1745  0716                     	;# 
  1746  0717                     	;# 
  1747  0718                     	;# 
  1748  0719                     	;# 
  1749  071A                     	;# 
  1750  071B                     	;# 
  1751  071C                     	;# 
  1752  071D                     	;# 
  1753  0796                     	;# 
  1754  0797                     	;# 
  1755  0798                     	;# 
  1756  0799                     	;# 
  1757  079A                     	;# 
  1758  079B                     	;# 
  1759  080C                     	;# 
  1760  080D                     	;# 
  1761  080E                     	;# 
  1762  080F                     	;# 
  1763  0810                     	;# 
  1764  0811                     	;# 
  1765  0813                     	;# 
  1766  0814                     	;# 
  1767  081A                     	;# 
  1768  081A                     	;# 
  1769  081B                     	;# 
  1770  081C                     	;# 
  1771  081C                     	;# 
  1772  081D                     	;# 
  1773  081E                     	;# 
  1774  081F                     	;# 
  1775  088C                     	;# 
  1776  088D                     	;# 
  1777  088E                     	;# 
  1778  088F                     	;# 
  1779  0890                     	;# 
  1780  0891                     	;# 
  1781  0892                     	;# 
  1782  0893                     	;# 
  1783  0895                     	;# 
  1784  0896                     	;# 
  1785  090C                     	;# 
  1786  090E                     	;# 
  1787  090F                     	;# 
  1788  091F                     	;# 
  1789  098F                     	;# 
  1790  098F                     	;# 
  1791  0990                     	;# 
  1792  0991                     	;# 
  1793  0992                     	;# 
  1794  0993                     	;# 
  1795  0994                     	;# 
  1796  0995                     	;# 
  1797  0996                     	;# 
  1798  0997                     	;# 
  1799  0A19                     	;# 
  1800  0A19                     	;# 
  1801  0A1A                     	;# 
  1802  0A1A                     	;# 
  1803  0A1B                     	;# 
  1804  0A1B                     	;# 
  1805  0A1B                     	;# 
  1806  0A1C                     	;# 
  1807  0A1C                     	;# 
  1808  0A1D                     	;# 
  1809  0A1D                     	;# 
  1810  0A1E                     	;# 
  1811  0A1E                     	;# 
  1812  0A1F                     	;# 
  1813  0A1F                     	;# 
  1814  0A1F                     	;# 
  1815  1E0F                     	;# 
  1816  1E10                     	;# 
  1817  1E11                     	;# 
  1818  1E12                     	;# 
  1819  1E13                     	;# 
  1820  1E14                     	;# 
  1821  1E15                     	;# 
  1822  1E16                     	;# 
  1823  1E17                     	;# 
  1824  1E18                     	;# 
  1825  1E19                     	;# 
  1826  1E1A                     	;# 
  1827  1E1B                     	;# 
  1828  1E1C                     	;# 
  1829  1E1D                     	;# 
  1830  1E1E                     	;# 
  1831  1E1F                     	;# 
  1832  1E20                     	;# 
  1833  1E21                     	;# 
  1834  1E22                     	;# 
  1835  1E23                     	;# 
  1836  1E24                     	;# 
  1837  1E25                     	;# 
  1838  1E26                     	;# 
  1839  1E27                     	;# 
  1840  1E28                     	;# 
  1841  1E29                     	;# 
  1842  1E2A                     	;# 
  1843  1E2B                     	;# 
  1844  1E2C                     	;# 
  1845  1E2D                     	;# 
  1846  1E2E                     	;# 
  1847  1E2F                     	;# 
  1848  1E30                     	;# 
  1849  1E31                     	;# 
  1850  1E32                     	;# 
  1851  1E33                     	;# 
  1852  1E34                     	;# 
  1853  1E35                     	;# 
  1854  1E36                     	;# 
  1855  1E37                     	;# 
  1856  1E8F                     	;# 
  1857  1E90                     	;# 
  1858  1E91                     	;# 
  1859  1E92                     	;# 
  1860  1E93                     	;# 
  1861  1E9C                     	;# 
  1862  1EA1                     	;# 
  1863  1EA2                     	;# 
  1864  1EB1                     	;# 
  1865  1EBB                     	;# 
  1866  1EBC                     	;# 
  1867  1EBD                     	;# 
  1868  1EBE                     	;# 
  1869  1EC3                     	;# 
  1870  1EC5                     	;# 
  1871  1EC6                     	;# 
  1872  1EC7                     	;# 
  1873  1EC8                     	;# 
  1874  1EC9                     	;# 
  1875  1ECA                     	;# 
  1876  1ECB                     	;# 
  1877  1ECC                     	;# 
  1878  1ECD                     	;# 
  1879  1ECE                     	;# 
  1880  1F10                     	;# 
  1881  1F11                     	;# 
  1882  1F12                     	;# 
  1883  1F13                     	;# 
  1884  1F14                     	;# 
  1885  1F15                     	;# 
  1886  1F16                     	;# 
  1887  1F17                     	;# 
  1888  1F18                     	;# 
  1889  1F19                     	;# 
  1890  1F1A                     	;# 
  1891  1F1B                     	;# 
  1892  1F1C                     	;# 
  1893  1F1D                     	;# 
  1894  1F1E                     	;# 
  1895  1F1F                     	;# 
  1896  1F20                     	;# 
  1897  1F21                     	;# 
  1898  1F22                     	;# 
  1899  1F23                     	;# 
  1900  1F24                     	;# 
  1901  1F25                     	;# 
  1902  1F26                     	;# 
  1903  1F27                     	;# 
  1904  1F28                     	;# 
  1905  1F29                     	;# 
  1906  1F2A                     	;# 
  1907  1F2B                     	;# 
  1908  1F2C                     	;# 
  1909  1F2D                     	;# 
  1910  1F2E                     	;# 
  1911  1F2F                     	;# 
  1912  1F30                     	;# 
  1913  1F31                     	;# 
  1914  1F32                     	;# 
  1915  1F38                     	;# 
  1916  1F39                     	;# 
  1917  1F3A                     	;# 
  1918  1F3B                     	;# 
  1919  1F3C                     	;# 
  1920  1F3D                     	;# 
  1921  1F3E                     	;# 
  1922  1F3F                     	;# 
  1923  1F43                     	;# 
  1924  1F44                     	;# 
  1925  1F45                     	;# 
  1926  1F46                     	;# 
  1927  1F47                     	;# 
  1928  1F48                     	;# 
  1929  1F49                     	;# 
  1930  1F4A                     	;# 
  1931  1F4E                     	;# 
  1932  1F4F                     	;# 
  1933  1F50                     	;# 
  1934  1F51                     	;# 
  1935  1F52                     	;# 
  1936  1F53                     	;# 
  1937  1F54                     	;# 
  1938  1F55                     	;# 
  1939  1F59                     	;# 
  1940  1F5A                     	;# 
  1941  1F5B                     	;# 
  1942  1F5C                     	;# 
  1943  1F5D                     	;# 
  1944  1F64                     	;# 
  1945  1F65                     	;# 
  1946  1F66                     	;# 
  1947  1F67                     	;# 
  1948  1F68                     	;# 
  1949  1F69                     	;# 
  1950  1F6A                     	;# 
  1951  1F6B                     	;# 
  1952  1FE4                     	;# 
  1953  1FE5                     	;# 
  1954  1FE6                     	;# 
  1955  1FE7                     	;# 
  1956  1FE8                     	;# 
  1957  1FE8                     	;# 
  1958  1FE9                     	;# 
  1959  1FEA                     	;# 
  1960  1FEB                     	;# 
  1961  1FED                     	;# 
  1962  1FEE                     	;# 
  1963  1FEF                     	;# 
  1964  0000                     	;# 
  1965  0001                     	;# 
  1966  0002                     	;# 
  1967  0003                     	;# 
  1968  0004                     	;# 
  1969  0005                     	;# 
  1970  0006                     	;# 
  1971  0007                     	;# 
  1972  0008                     	;# 
  1973  0009                     	;# 
  1974  000A                     	;# 
  1975  000B                     	;# 
  1976  000C                     	;# 
  1977  000D                     	;# 
  1978  000E                     	;# 
  1979  000F                     	;# 
  1980  0010                     	;# 
  1981  0012                     	;# 
  1982  0013                     	;# 
  1983  0014                     	;# 
  1984  0015                     	;# 
  1985  0016                     	;# 
  1986  0018                     	;# 
  1987  0019                     	;# 
  1988  001A                     	;# 
  1989  001B                     	;# 
  1990  001C                     	;# 
  1991  009B                     	;# 
  1992  009B                     	;# 
  1993  009C                     	;# 
  1994  009D                     	;# 
  1995  009E                     	;# 
  1996  009F                     	;# 
  1997  0119                     	;# 
  1998  0119                     	;# 
  1999  0119                     	;# 
  2000  011A                     	;# 
  2001  011A                     	;# 
  2002  011A                     	;# 
  2003  011B                     	;# 
  2004  011B                     	;# 
  2005  011B                     	;# 
  2006  011B                     	;# 
  2007  011B                     	;# 
  2008  011C                     	;# 
  2009  011C                     	;# 
  2010  011C                     	;# 
  2011  011D                     	;# 
  2012  011D                     	;# 
  2013  011D                     	;# 
  2014  011E                     	;# 
  2015  011E                     	;# 
  2016  011E                     	;# 
  2017  011F                     	;# 
  2018  011F                     	;# 
  2019  011F                     	;# 
  2020  011F                     	;# 
  2021  011F                     	;# 
  2022  018C                     	;# 
  2023  018D                     	;# 
  2024  018E                     	;# 
  2025  018F                     	;# 
  2026  0190                     	;# 
  2027  0191                     	;# 
  2028  0192                     	;# 
  2029  0196                     	;# 
  2030  0197                     	;# 
  2031  0198                     	;# 
  2032  0199                     	;# 
  2033  019A                     	;# 
  2034  019B                     	;# 
  2035  019C                     	;# 
  2036  020C                     	;# 
  2037  020C                     	;# 
  2038  020D                     	;# 
  2039  020E                     	;# 
  2040  020F                     	;# 
  2041  020F                     	;# 
  2042  0210                     	;# 
  2043  0210                     	;# 
  2044  0211                     	;# 
  2045  0211                     	;# 
  2046  028C                     	;# 
  2047  028C                     	;# 
  2048  028D                     	;# 
  2049  028D                     	;# 
  2050  028E                     	;# 
  2051  028F                     	;# 
  2052  0290                     	;# 
  2053  0291                     	;# 
  2054  030C                     	;# 
  2055  030C                     	;# 
  2056  030D                     	;# 
  2057  030E                     	;# 
  2058  030F                     	;# 
  2059  0310                     	;# 
  2060  0310                     	;# 
  2061  0311                     	;# 
  2062  0312                     	;# 
  2063  0313                     	;# 
  2064  0314                     	;# 
  2065  0314                     	;# 
  2066  0315                     	;# 
  2067  0316                     	;# 
  2068  0318                     	;# 
  2069  0318                     	;# 
  2070  0319                     	;# 
  2071  031A                     	;# 
  2072  031C                     	;# 
  2073  031C                     	;# 
  2074  031D                     	;# 
  2075  031E                     	;# 
  2076  038C                     	;# 
  2077  038C                     	;# 
  2078  038D                     	;# 
  2079  038E                     	;# 
  2080  058C                     	;# 
  2081  058C                     	;# 
  2082  058D                     	;# 
  2083  058E                     	;# 
  2084  058F                     	;# 
  2085  058F                     	;# 
  2086  0590                     	;# 
  2087  0591                     	;# 
  2088  0592                     	;# 
  2089  0593                     	;# 
  2090  059C                     	;# 
  2091  059C                     	;# 
  2092  059D                     	;# 
  2093  059D                     	;# 
  2094  059E                     	;# 
  2095  059F                     	;# 
  2096  060C                     	;# 
  2097  060D                     	;# 
  2098  060E                     	;# 
  2099  060F                     	;# 
  2100  0610                     	;# 
  2101  0611                     	;# 
  2102  0612                     	;# 
  2103  0613                     	;# 
  2104  0614                     	;# 
  2105  070C                     	;# 
  2106  070D                     	;# 
  2107  070E                     	;# 
  2108  070F                     	;# 
  2109  0710                     	;# 
  2110  0711                     	;# 
  2111  0712                     	;# 
  2112  0713                     	;# 
  2113  0716                     	;# 
  2114  0717                     	;# 
  2115  0718                     	;# 
  2116  0719                     	;# 
  2117  071A                     	;# 
  2118  071B                     	;# 
  2119  071C                     	;# 
  2120  071D                     	;# 
  2121  0796                     	;# 
  2122  0797                     	;# 
  2123  0798                     	;# 
  2124  0799                     	;# 
  2125  079A                     	;# 
  2126  079B                     	;# 
  2127  080C                     	;# 
  2128  080D                     	;# 
  2129  080E                     	;# 
  2130  080F                     	;# 
  2131  0810                     	;# 
  2132  0811                     	;# 
  2133  0813                     	;# 
  2134  0814                     	;# 
  2135  081A                     	;# 
  2136  081A                     	;# 
  2137  081B                     	;# 
  2138  081C                     	;# 
  2139  081C                     	;# 
  2140  081D                     	;# 
  2141  081E                     	;# 
  2142  081F                     	;# 
  2143  088C                     	;# 
  2144  088D                     	;# 
  2145  088E                     	;# 
  2146  088F                     	;# 
  2147  0890                     	;# 
  2148  0891                     	;# 
  2149  0892                     	;# 
  2150  0893                     	;# 
  2151  0895                     	;# 
  2152  0896                     	;# 
  2153  090C                     	;# 
  2154  090E                     	;# 
  2155  090F                     	;# 
  2156  091F                     	;# 
  2157  098F                     	;# 
  2158  098F                     	;# 
  2159  0990                     	;# 
  2160  0991                     	;# 
  2161  0992                     	;# 
  2162  0993                     	;# 
  2163  0994                     	;# 
  2164  0995                     	;# 
  2165  0996                     	;# 
  2166  0997                     	;# 
  2167  0A19                     	;# 
  2168  0A19                     	;# 
  2169  0A1A                     	;# 
  2170  0A1A                     	;# 
  2171  0A1B                     	;# 
  2172  0A1B                     	;# 
  2173  0A1B                     	;# 
  2174  0A1C                     	;# 
  2175  0A1C                     	;# 
  2176  0A1D                     	;# 
  2177  0A1D                     	;# 
  2178  0A1E                     	;# 
  2179  0A1E                     	;# 
  2180  0A1F                     	;# 
  2181  0A1F                     	;# 
  2182  0A1F                     	;# 
  2183  1E0F                     	;# 
  2184  1E10                     	;# 
  2185  1E11                     	;# 
  2186  1E12                     	;# 
  2187  1E13                     	;# 
  2188  1E14                     	;# 
  2189  1E15                     	;# 
  2190  1E16                     	;# 
  2191  1E17                     	;# 
  2192  1E18                     	;# 
  2193  1E19                     	;# 
  2194  1E1A                     	;# 
  2195  1E1B                     	;# 
  2196  1E1C                     	;# 
  2197  1E1D                     	;# 
  2198  1E1E                     	;# 
  2199  1E1F                     	;# 
  2200  1E20                     	;# 
  2201  1E21                     	;# 
  2202  1E22                     	;# 
  2203  1E23                     	;# 
  2204  1E24                     	;# 
  2205  1E25                     	;# 
  2206  1E26                     	;# 
  2207  1E27                     	;# 
  2208  1E28                     	;# 
  2209  1E29                     	;# 
  2210  1E2A                     	;# 
  2211  1E2B                     	;# 
  2212  1E2C                     	;# 
  2213  1E2D                     	;# 
  2214  1E2E                     	;# 
  2215  1E2F                     	;# 
  2216  1E30                     	;# 
  2217  1E31                     	;# 
  2218  1E32                     	;# 
  2219  1E33                     	;# 
  2220  1E34                     	;# 
  2221  1E35                     	;# 
  2222  1E36                     	;# 
  2223  1E37                     	;# 
  2224  1E8F                     	;# 
  2225  1E90                     	;# 
  2226  1E91                     	;# 
  2227  1E92                     	;# 
  2228  1E93                     	;# 
  2229  1E9C                     	;# 
  2230  1EA1                     	;# 
  2231  1EA2                     	;# 
  2232  1EB1                     	;# 
  2233  1EBB                     	;# 
  2234  1EBC                     	;# 
  2235  1EBD                     	;# 
  2236  1EBE                     	;# 
  2237  1EC3                     	;# 
  2238  1EC5                     	;# 
  2239  1EC6                     	;# 
  2240  1EC7                     	;# 
  2241  1EC8                     	;# 
  2242  1EC9                     	;# 
  2243  1ECA                     	;# 
  2244  1ECB                     	;# 
  2245  1ECC                     	;# 
  2246  1ECD                     	;# 
  2247  1ECE                     	;# 
  2248  1F10                     	;# 
  2249  1F11                     	;# 
  2250  1F12                     	;# 
  2251  1F13                     	;# 
  2252  1F14                     	;# 
  2253  1F15                     	;# 
  2254  1F16                     	;# 
  2255  1F17                     	;# 
  2256  1F18                     	;# 
  2257  1F19                     	;# 
  2258  1F1A                     	;# 
  2259  1F1B                     	;# 
  2260  1F1C                     	;# 
  2261  1F1D                     	;# 
  2262  1F1E                     	;# 
  2263  1F1F                     	;# 
  2264  1F20                     	;# 
  2265  1F21                     	;# 
  2266  1F22                     	;# 
  2267  1F23                     	;# 
  2268  1F24                     	;# 
  2269  1F25                     	;# 
  2270  1F26                     	;# 
  2271  1F27                     	;# 
  2272  1F28                     	;# 
  2273  1F29                     	;# 
  2274  1F2A                     	;# 
  2275  1F2B                     	;# 
  2276  1F2C                     	;# 
  2277  1F2D                     	;# 
  2278  1F2E                     	;# 
  2279  1F2F                     	;# 
  2280  1F30                     	;# 
  2281  1F31                     	;# 
  2282  1F32                     	;# 
  2283  1F38                     	;# 
  2284  1F39                     	;# 
  2285  1F3A                     	;# 
  2286  1F3B                     	;# 
  2287  1F3C                     	;# 
  2288  1F3D                     	;# 
  2289  1F3E                     	;# 
  2290  1F3F                     	;# 
  2291  1F43                     	;# 
  2292  1F44                     	;# 
  2293  1F45                     	;# 
  2294  1F46                     	;# 
  2295  1F47                     	;# 
  2296  1F48                     	;# 
  2297  1F49                     	;# 
  2298  1F4A                     	;# 
  2299  1F4E                     	;# 
  2300  1F4F                     	;# 
  2301  1F50                     	;# 
  2302  1F51                     	;# 
  2303  1F52                     	;# 
  2304  1F53                     	;# 
  2305  1F54                     	;# 
  2306  1F55                     	;# 
  2307  1F59                     	;# 
  2308  1F5A                     	;# 
  2309  1F5B                     	;# 
  2310  1F5C                     	;# 
  2311  1F5D                     	;# 
  2312  1F64                     	;# 
  2313  1F65                     	;# 
  2314  1F66                     	;# 
  2315  1F67                     	;# 
  2316  1F68                     	;# 
  2317  1F69                     	;# 
  2318  1F6A                     	;# 
  2319  1F6B                     	;# 
  2320  1FE4                     	;# 
  2321  1FE5                     	;# 
  2322  1FE6                     	;# 
  2323  1FE7                     	;# 
  2324  1FE8                     	;# 
  2325  1FE8                     	;# 
  2326  1FE9                     	;# 
  2327  1FEA                     	;# 
  2328  1FEB                     	;# 
  2329  1FED                     	;# 
  2330  1FEE                     	;# 
  2331  1FEF                     	;# 
  2332  0000                     	;# 
  2333  0001                     	;# 
  2334  0002                     	;# 
  2335  0003                     	;# 
  2336  0004                     	;# 
  2337  0005                     	;# 
  2338  0006                     	;# 
  2339  0007                     	;# 
  2340  0008                     	;# 
  2341  0009                     	;# 
  2342  000A                     	;# 
  2343  000B                     	;# 
  2344  000C                     	;# 
  2345  000D                     	;# 
  2346  000E                     	;# 
  2347  000F                     	;# 
  2348  0010                     	;# 
  2349  0012                     	;# 
  2350  0013                     	;# 
  2351  0014                     	;# 
  2352  0015                     	;# 
  2353  0016                     	;# 
  2354  0018                     	;# 
  2355  0019                     	;# 
  2356  001A                     	;# 
  2357  001B                     	;# 
  2358  001C                     	;# 
  2359  009B                     	;# 
  2360  009B                     	;# 
  2361  009C                     	;# 
  2362  009D                     	;# 
  2363  009E                     	;# 
  2364  009F                     	;# 
  2365  0119                     	;# 
  2366  0119                     	;# 
  2367  0119                     	;# 
  2368  011A                     	;# 
  2369  011A                     	;# 
  2370  011A                     	;# 
  2371  011B                     	;# 
  2372  011B                     	;# 
  2373  011B                     	;# 
  2374  011B                     	;# 
  2375  011B                     	;# 
  2376  011C                     	;# 
  2377  011C                     	;# 
  2378  011C                     	;# 
  2379  011D                     	;# 
  2380  011D                     	;# 
  2381  011D                     	;# 
  2382  011E                     	;# 
  2383  011E                     	;# 
  2384  011E                     	;# 
  2385  011F                     	;# 
  2386  011F                     	;# 
  2387  011F                     	;# 
  2388  011F                     	;# 
  2389  011F                     	;# 
  2390  018C                     	;# 
  2391  018D                     	;# 
  2392  018E                     	;# 
  2393  018F                     	;# 
  2394  0190                     	;# 
  2395  0191                     	;# 
  2396  0192                     	;# 
  2397  0196                     	;# 
  2398  0197                     	;# 
  2399  0198                     	;# 
  2400  0199                     	;# 
  2401  019A                     	;# 
  2402  019B                     	;# 
  2403  019C                     	;# 
  2404  020C                     	;# 
  2405  020C                     	;# 
  2406  020D                     	;# 
  2407  020E                     	;# 
  2408  020F                     	;# 
  2409  020F                     	;# 
  2410  0210                     	;# 
  2411  0210                     	;# 
  2412  0211                     	;# 
  2413  0211                     	;# 
  2414  028C                     	;# 
  2415  028C                     	;# 
  2416  028D                     	;# 
  2417  028D                     	;# 
  2418  028E                     	;# 
  2419  028F                     	;# 
  2420  0290                     	;# 
  2421  0291                     	;# 
  2422  030C                     	;# 
  2423  030C                     	;# 
  2424  030D                     	;# 
  2425  030E                     	;# 
  2426  030F                     	;# 
  2427  0310                     	;# 
  2428  0310                     	;# 
  2429  0311                     	;# 
  2430  0312                     	;# 
  2431  0313                     	;# 
  2432  0314                     	;# 
  2433  0314                     	;# 
  2434  0315                     	;# 
  2435  0316                     	;# 
  2436  0318                     	;# 
  2437  0318                     	;# 
  2438  0319                     	;# 
  2439  031A                     	;# 
  2440  031C                     	;# 
  2441  031C                     	;# 
  2442  031D                     	;# 
  2443  031E                     	;# 
  2444  038C                     	;# 
  2445  038C                     	;# 
  2446  038D                     	;# 
  2447  038E                     	;# 
  2448  058C                     	;# 
  2449  058C                     	;# 
  2450  058D                     	;# 
  2451  058E                     	;# 
  2452  058F                     	;# 
  2453  058F                     	;# 
  2454  0590                     	;# 
  2455  0591                     	;# 
  2456  0592                     	;# 
  2457  0593                     	;# 
  2458  059C                     	;# 
  2459  059C                     	;# 
  2460  059D                     	;# 
  2461  059D                     	;# 
  2462  059E                     	;# 
  2463  059F                     	;# 
  2464  060C                     	;# 
  2465  060D                     	;# 
  2466  060E                     	;# 
  2467  060F                     	;# 
  2468  0610                     	;# 
  2469  0611                     	;# 
  2470  0612                     	;# 
  2471  0613                     	;# 
  2472  0614                     	;# 
  2473  070C                     	;# 
  2474  070D                     	;# 
  2475  070E                     	;# 
  2476  070F                     	;# 
  2477  0710                     	;# 
  2478  0711                     	;# 
  2479  0712                     	;# 
  2480  0713                     	;# 
  2481  0716                     	;# 
  2482  0717                     	;# 
  2483  0718                     	;# 
  2484  0719                     	;# 
  2485  071A                     	;# 
  2486  071B                     	;# 
  2487  071C                     	;# 
  2488  071D                     	;# 
  2489  0796                     	;# 
  2490  0797                     	;# 
  2491  0798                     	;# 
  2492  0799                     	;# 
  2493  079A                     	;# 
  2494  079B                     	;# 
  2495  080C                     	;# 
  2496  080D                     	;# 
  2497  080E                     	;# 
  2498  080F                     	;# 
  2499  0810                     	;# 
  2500  0811                     	;# 
  2501  0813                     	;# 
  2502  0814                     	;# 
  2503  081A                     	;# 
  2504  081A                     	;# 
  2505  081B                     	;# 
  2506  081C                     	;# 
  2507  081C                     	;# 
  2508  081D                     	;# 
  2509  081E                     	;# 
  2510  081F                     	;# 
  2511  088C                     	;# 
  2512  088D                     	;# 
  2513  088E                     	;# 
  2514  088F                     	;# 
  2515  0890                     	;# 
  2516  0891                     	;# 
  2517  0892                     	;# 
  2518  0893                     	;# 
  2519  0895                     	;# 
  2520  0896                     	;# 
  2521  090C                     	;# 
  2522  090E                     	;# 
  2523  090F                     	;# 
  2524  091F                     	;# 
  2525  098F                     	;# 
  2526  098F                     	;# 
  2527  0990                     	;# 
  2528  0991                     	;# 
  2529  0992                     	;# 
  2530  0993                     	;# 
  2531  0994                     	;# 
  2532  0995                     	;# 
  2533  0996                     	;# 
  2534  0997                     	;# 
  2535  0A19                     	;# 
  2536  0A19                     	;# 
  2537  0A1A                     	;# 
  2538  0A1A                     	;# 
  2539  0A1B                     	;# 
  2540  0A1B                     	;# 
  2541  0A1B                     	;# 
  2542  0A1C                     	;# 
  2543  0A1C                     	;# 
  2544  0A1D                     	;# 
  2545  0A1D                     	;# 
  2546  0A1E                     	;# 
  2547  0A1E                     	;# 
  2548  0A1F                     	;# 
  2549  0A1F                     	;# 
  2550  0A1F                     	;# 
  2551  1E0F                     	;# 
  2552  1E10                     	;# 
  2553  1E11                     	;# 
  2554  1E12                     	;# 
  2555  1E13                     	;# 
  2556  1E14                     	;# 
  2557  1E15                     	;# 
  2558  1E16                     	;# 
  2559  1E17                     	;# 
  2560  1E18                     	;# 
  2561  1E19                     	;# 
  2562  1E1A                     	;# 
  2563  1E1B                     	;# 
  2564  1E1C                     	;# 
  2565  1E1D                     	;# 
  2566  1E1E                     	;# 
  2567  1E1F                     	;# 
  2568  1E20                     	;# 
  2569  1E21                     	;# 
  2570  1E22                     	;# 
  2571  1E23                     	;# 
  2572  1E24                     	;# 
  2573  1E25                     	;# 
  2574  1E26                     	;# 
  2575  1E27                     	;# 
  2576  1E28                     	;# 
  2577  1E29                     	;# 
  2578  1E2A                     	;# 
  2579  1E2B                     	;# 
  2580  1E2C                     	;# 
  2581  1E2D                     	;# 
  2582  1E2E                     	;# 
  2583  1E2F                     	;# 
  2584  1E30                     	;# 
  2585  1E31                     	;# 
  2586  1E32                     	;# 
  2587  1E33                     	;# 
  2588  1E34                     	;# 
  2589  1E35                     	;# 
  2590  1E36                     	;# 
  2591  1E37                     	;# 
  2592  1E8F                     	;# 
  2593  1E90                     	;# 
  2594  1E91                     	;# 
  2595  1E92                     	;# 
  2596  1E93                     	;# 
  2597  1E9C                     	;# 
  2598  1EA1                     	;# 
  2599  1EA2                     	;# 
  2600  1EB1                     	;# 
  2601  1EBB                     	;# 
  2602  1EBC                     	;# 
  2603  1EBD                     	;# 
  2604  1EBE                     	;# 
  2605  1EC3                     	;# 
  2606  1EC5                     	;# 
  2607  1EC6                     	;# 
  2608  1EC7                     	;# 
  2609  1EC8                     	;# 
  2610  1EC9                     	;# 
  2611  1ECA                     	;# 
  2612  1ECB                     	;# 
  2613  1ECC                     	;# 
  2614  1ECD                     	;# 
  2615  1ECE                     	;# 
  2616  1F10                     	;# 
  2617  1F11                     	;# 
  2618  1F12                     	;# 
  2619  1F13                     	;# 
  2620  1F14                     	;# 
  2621  1F15                     	;# 
  2622  1F16                     	;# 
  2623  1F17                     	;# 
  2624  1F18                     	;# 
  2625  1F19                     	;# 
  2626  1F1A                     	;# 
  2627  1F1B                     	;# 
  2628  1F1C                     	;# 
  2629  1F1D                     	;# 
  2630  1F1E                     	;# 
  2631  1F1F                     	;# 
  2632  1F20                     	;# 
  2633  1F21                     	;# 
  2634  1F22                     	;# 
  2635  1F23                     	;# 
  2636  1F24                     	;# 
  2637  1F25                     	;# 
  2638  1F26                     	;# 
  2639  1F27                     	;# 
  2640  1F28                     	;# 
  2641  1F29                     	;# 
  2642  1F2A                     	;# 
  2643  1F2B                     	;# 
  2644  1F2C                     	;# 
  2645  1F2D                     	;# 
  2646  1F2E                     	;# 
  2647  1F2F                     	;# 
  2648  1F30                     	;# 
  2649  1F31                     	;# 
  2650  1F32                     	;# 
  2651  1F38                     	;# 
  2652  1F39                     	;# 
  2653  1F3A                     	;# 
  2654  1F3B                     	;# 
  2655  1F3C                     	;# 
  2656  1F3D                     	;# 
  2657  1F3E                     	;# 
  2658  1F3F                     	;# 
  2659  1F43                     	;# 
  2660  1F44                     	;# 
  2661  1F45                     	;# 
  2662  1F46                     	;# 
  2663  1F47                     	;# 
  2664  1F48                     	;# 
  2665  1F49                     	;# 
  2666  1F4A                     	;# 
  2667  1F4E                     	;# 
  2668  1F4F                     	;# 
  2669  1F50                     	;# 
  2670  1F51                     	;# 
  2671  1F52                     	;# 
  2672  1F53                     	;# 
  2673  1F54                     	;# 
  2674  1F55                     	;# 
  2675  1F59                     	;# 
  2676  1F5A                     	;# 
  2677  1F5B                     	;# 
  2678  1F5C                     	;# 
  2679  1F5D                     	;# 
  2680  1F64                     	;# 
  2681  1F65                     	;# 
  2682  1F66                     	;# 
  2683  1F67                     	;# 
  2684  1F68                     	;# 
  2685  1F69                     	;# 
  2686  1F6A                     	;# 
  2687  1F6B                     	;# 
  2688  1FE4                     	;# 
  2689  1FE5                     	;# 
  2690  1FE6                     	;# 
  2691  1FE7                     	;# 
  2692  1FE8                     	;# 
  2693  1FE8                     	;# 
  2694  1FE9                     	;# 
  2695  1FEA                     	;# 
  2696  1FEB                     	;# 
  2697  1FED                     	;# 
  2698  1FEE                     	;# 
  2699  1FEF                     	;# 
  2700                           
  2701 ;; Function _wr1RegCompleteHandler is unused but had its address taken
  2702  0000                     
  2703 ;; Function _rd1RegCompleteHandler is unused but had its address taken
  2704  0000                     
  2705 ;; Function _rd2RegCompleteHandler is unused but had its address taken
  2706  0000                     
  2707 ;; Function _wr2RegCompleteHandler is unused but had its address taken
  2708  0000                     
  2709 ;; Function _rdBlkRegCompleteHandler is unused but had its address taken
  2710  0000                     
  2711 ;; Function _rd1RegCompleteHandler@i2c1_master_example$F143 is unused but had its address taken
  2712  0000                     
  2713 ;; Function _rd2RegCompleteHandler@i2c1_master_example$F154 is unused but had its address taken
  2714  0000                     
  2715 ;; Function _wr1RegCompleteHandler@i2c1_master_example$F160 is unused but had its address taken
  2716  0000                     
  2717 ;; Function _wr2RegCompleteHandler@i2c1_master_example$F166 is unused but had its address taken
  2718  0000                     
  2719 ;; Function _rdBlkRegCompleteHandler@i2c1_master_example$F177 is unused but had its address taken
  2720  0000                     
  2721 ;; Function _I2C1_DO_IDLE is unused but had its address taken
  2722  0000                     
  2723 ;; Function _I2C1_DO_SEND_ADR_READ is unused but had its address taken
  2724  0000                     
  2725 ;; Function _I2C1_DO_SEND_ADR_WRITE is unused but had its address taken
  2726  0000                     
  2727 ;; Function _I2C1_DO_TX is unused but had its address taken
  2728  0000                     
  2729 ;; Function _I2C1_DO_RX is unused but had its address taken
  2730  0000                     
  2731 ;; Function _I2C1_DO_RCEN is unused but had its address taken
  2732  0000                     
  2733 ;; Function _I2C1_DO_TX_EMPTY is unused but had its address taken
  2734  0000                     
  2735 ;; Function _I2C1_DO_SEND_RESTART_READ is unused but had its address taken
  2736  0000                     
  2737 ;; Function _I2C1_DO_SEND_RESTART_WRITE is unused but had its address taken
  2738  0000                     
  2739 ;; Function _I2C1_DO_SEND_RESTART is unused but had its address taken
  2740  0000                     
  2741 ;; Function _I2C1_DO_SEND_STOP is unused but had its address taken
  2742  0000                     
  2743 ;; Function _I2C1_DO_RX_ACK is unused but had its address taken
  2744  0000                     
  2745 ;; Function _I2C1_DO_RX_NACK_STOP is unused but had its address taken
  2746  0000                     
  2747 ;; Function _I2C1_DO_RX_NACK_RESTART is unused but had its address taken
  2748  0000                     
  2749 ;; Function _I2C1_DO_RESET is unused but had its address taken
  2750  0000                     
  2751 ;; Function _I2C1_DO_ADDRESS_NACK is unused but had its address taken
  2752  0000                     
  2753 ;; Function _I2C1_CallbackReturnStop is unused but had its address taken
  2754  0000                     
  2755 ;; Function _I2C1_CallbackReturnReset is unused but had its address taken
  2756  0000                     
  2757                           	psect	idataBANK1
  2758  0CB9                     __pidataBANK1:
  2759                           
  2760                           ;initializer for _Sw_I2c_Cxt
  2761  0CB9  3400               	retlw	0
  2762  0CBA  3400               	retlw	0
  2763  0CBB  3400               	retlw	0
  2764  0CBC  3400               	retlw	0
  2765  0CBD  3400               	retlw	0
  2766  0CBE  3400               	retlw	0
  2767  0CBF  3400               	retlw	0
  2768  0CC0  3400               	retlw	0
  2769  0CC1  34FF               	retlw	-1
  2770                           
  2771                           	psect	stringtext1
  2772  1000                     __pstringtext1:
  2773  1000                     _i2c1_fsmStateTable:
  2774  1000  3400               	retlw	0
  2775  1001  3400               	retlw	0
  2776  1002  3400               	retlw	0
  2777  1003  3400               	retlw	0
  2778  1004  3400               	retlw	0
  2779  1005  3400               	retlw	0
  2780  1006  3400               	retlw	0
  2781  1007  3400               	retlw	0
  2782  1008  3400               	retlw	0
  2783  1009  3400               	retlw	0
  2784  100A  3400               	retlw	0
  2785  100B  3400               	retlw	0
  2786  100C  3400               	retlw	0
  2787  100D  3400               	retlw	0
  2788  100E  3400               	retlw	0
  2789  100F  3400               	retlw	0
  2790  1010  3400               	retlw	0
  2791  1011  3400               	retlw	0
  2792  1012  3400               	retlw	0
  2793  1013  3400               	retlw	0
  2794  1014  3400               	retlw	0
  2795  1015  3400               	retlw	0
  2796  1016  3400               	retlw	0
  2797  1017  3400               	retlw	0
  2798  1018  3400               	retlw	0
  2799  1019  3400               	retlw	0
  2800  101A  3400               	retlw	0
  2801  101B  3400               	retlw	0
  2802  101C  3400               	retlw	0
  2803  101D  3400               	retlw	0
  2804  101E  3400               	retlw	0
  2805  101F  3400               	retlw	0
  2806  1020                     __end_of_i2c1_fsmStateTable:
  2807                           
  2808                           	psect	nvBANK1
  2809  00EA                     __pnvBANK1:
  2810  00EA                     _EUSART1_RxDefaultInterruptHandler:
  2811  00EA                     	ds	2
  2812  00EC                     _EUSART1_TxDefaultInterruptHandler:
  2813  00EC                     	ds	2
  2814  00EE                     _eusart1TxBufferRemaining:
  2815  00EE                     	ds	1
  2816                           
  2817                           	psect	nvBANK2
  2818  0162                     __pnvBANK2:
  2819  0162                     _EUSART1_ErrorHandler:
  2820  0162                     	ds	2
  2821  0164                     _EUSART1_OverrunErrorHandler:
  2822  0164                     	ds	2
  2823  0166                     _EUSART1_FramingErrorHandler:
  2824  0166                     	ds	2
  2825  0019                     _LATBbits	set	25
  2826  000E                     _PORTCbits	set	14
  2827  0014                     _TRISCbits	set	20
  2828  001A                     _LATCbits	set	26
  2829  0015                     _TRISD	set	21
  2830  0014                     _TRISC	set	20
  2831  0013                     _TRISB	set	19
  2832  0012                     _TRISA	set	18
  2833  0016                     _TRISE	set	22
  2834  001A                     _LATC	set	26
  2835  0019                     _LATB	set	25
  2836  0018                     _LATA	set	24
  2837  001B                     _LATD	set	27
  2838  001C                     _LATE	set	28
  2839  000B                     _INTCONbits	set	11
  2840  0119                     _RC1REG	set	281
  2841  011D                     _RC1STAbits	set	285
  2842  011A                     _TX1REG	set	282
  2843  011E                     _TX1STAbits	set	286
  2844  011C                     _SP1BRGH	set	284
  2845  011B                     _SP1BRGL	set	283
  2846  011E                     _TX1STA	set	286
  2847  011D                     _RC1STA	set	285
  2848  011F                     _BAUD1CON	set	287
  2849  018F                     _SSP1STATbits	set	399
  2850  0191                     _SSP1CON2bits	set	401
  2851  018C                     _SSP1BUF	set	396
  2852  0190                     _SSP1CON1bits	set	400
  2853  018D                     _SSP1ADD	set	397
  2854  0191                     _SSP1CON2	set	401
  2855  0190                     _SSP1CON1	set	400
  2856  018F                     _SSP1STAT	set	399
  2857  0719                     _PIE3bits	set	1817
  2858  070F                     _PIR3bits	set	1807
  2859  079B                     _PMD5	set	1947
  2860  079A                     _PMD4	set	1946
  2861  0799                     _PMD3	set	1945
  2862  0798                     _PMD2	set	1944
  2863  0797                     _PMD1	set	1943
  2864  0796                     _PMD0	set	1942
  2865  0892                     _OSCTUNE	set	2194
  2866  0890                     _OSCSTAT	set	2192
  2867  0893                     _OSCFRQ	set	2195
  2868  0891                     _OSCEN	set	2193
  2869  088F                     _OSCCON3	set	2191
  2870  088D                     _OSCCON1	set	2189
  2871  1ECB                     _RX1DTPPS	set	7883
  2872  1F50                     _ODCONCbits	set	8016
  2873  1F22                     _RC2PPS	set	7970
  2874  1F68                     _INLVLE	set	8040
  2875  1F5D                     _INLVLD	set	8029
  2876  1F52                     _INLVLC	set	8018
  2877  1F47                     _INLVLB	set	8007
  2878  1F3C                     _INLVLA	set	7996
  2879  1F67                     _SLRCONE	set	8039
  2880  1F5C                     _SLRCOND	set	8028
  2881  1F51                     _SLRCONC	set	8017
  2882  1F46                     _SLRCONB	set	8006
  2883  1F3B                     _SLRCONA	set	7995
  2884  1F5B                     _ODCOND	set	8027
  2885  1F50                     _ODCONC	set	8016
  2886  1F45                     _ODCONB	set	8005
  2887  1F3A                     _ODCONA	set	7994
  2888  1F66                     _ODCONE	set	8038
  2889  1F4F                     _WPUC	set	8015
  2890  1F39                     _WPUA	set	7993
  2891  1F44                     _WPUB	set	8004
  2892  1F65                     _WPUE	set	8037
  2893  1F5A                     _WPUD	set	8026
  2894  1F38                     _ANSELA	set	7992
  2895  1F64                     _ANSELE	set	8036
  2896  1F43                     _ANSELB	set	8003
  2897  1F4E                     _ANSELC	set	8014
  2898  1F59                     _ANSELD	set	8025
  2899                           
  2900                           	psect	stringtext2
  2901  1020                     __pstringtext2:
  2902  1020                     STR_5:
  2903  1020  3444               	retlw	68	;'D'
  2904  1021  346F               	retlw	111	;'o'
  2905  1022  346E               	retlw	110	;'n'
  2906  1023  3465               	retlw	101	;'e'
  2907  1024  340A               	retlw	10
  2908  1025  3450               	retlw	80	;'P'
  2909  1026  3472               	retlw	114	;'r'
  2910  1027  3465               	retlw	101	;'e'
  2911  1028  3473               	retlw	115	;'s'
  2912  1029  3473               	retlw	115	;'s'
  2913  102A  3420               	retlw	32	;' '
  2914  102B  3427               	retlw	39	;'''
  2915  102C  3454               	retlw	84	;'T'
  2916  102D  3427               	retlw	39	;'''
  2917  102E  3420               	retlw	32	;' '
  2918  102F  3474               	retlw	116	;'t'
  2919  1030  346F               	retlw	111	;'o'
  2920  1031  3420               	retlw	32	;' '
  2921  1032  3474               	retlw	116	;'t'
  2922  1033  3465               	retlw	101	;'e'
  2923  1034  3473               	retlw	115	;'s'
  2924  1035  3474               	retlw	116	;'t'
  2925  1036  3420               	retlw	32	;' '
  2926  1037  3461               	retlw	97	;'a'
  2927  1038  3467               	retlw	103	;'g'
  2928  1039  3461               	retlw	97	;'a'
  2929  103A  3469               	retlw	105	;'i'
  2930  103B  346E               	retlw	110	;'n'
  2931  103C  340A               	retlw	10
  2932  103D  3400               	retlw	0
  2933                           
  2934                           	psect	stringtext3
  2935  103E                     __pstringtext3:
  2936  103E                     STR_1:
  2937  103E  340A               	retlw	10
  2938  103F  3445               	retlw	69	;'E'
  2939  1040  3472               	retlw	114	;'r'
  2940  1041  3472               	retlw	114	;'r'
  2941  1042  346F               	retlw	111	;'o'
  2942  1043  3472               	retlw	114	;'r'
  2943  1044  3420               	retlw	32	;' '
  2944  1045  3440               	retlw	64	;'@'
  2945  1046  3425               	retlw	37	;'%'
  2946  1047  3430               	retlw	48	;'0'
  2947  1048  3434               	retlw	52	;'4'
  2948  1049  3458               	retlw	88	;'X'
  2949  104A  343A               	retlw	58	;':'
  2950  104B  3420               	retlw	32	;' '
  2951  104C  3425               	retlw	37	;'%'
  2952  104D  3430               	retlw	48	;'0'
  2953  104E  3432               	retlw	50	;'2'
  2954  104F  3458               	retlw	88	;'X'
  2955  1050  3420               	retlw	32	;' '
  2956  1051  3423               	retlw	35	;'#'
  2957  1052  3420               	retlw	32	;' '
  2958  1053  3425               	retlw	37	;'%'
  2959  1054  3430               	retlw	48	;'0'
  2960  1055  3432               	retlw	50	;'2'
  2961  1056  3458               	retlw	88	;'X'
  2962  1057  3400               	retlw	0
  2963                           
  2964                           	psect	stringtext4
  2965  1058                     __pstringtext4:
  2966  1058                     STR_2:
  2967  1058  340A               	retlw	10
  2968  1059  3445               	retlw	69	;'E'
  2969  105A  3445               	retlw	69	;'E'
  2970  105B  3450               	retlw	80	;'P'
  2971  105C  3452               	retlw	82	;'R'
  2972  105D  344F               	retlw	79	;'O'
  2973  105E  344D               	retlw	77	;'M'
  2974  105F  3420               	retlw	32	;' '
  2975  1060  3432               	retlw	50	;'2'
  2976  1061  3434               	retlw	52	;'4'
  2977  1062  3441               	retlw	65	;'A'
  2978  1063  3441               	retlw	65	;'A'
  2979  1064  3431               	retlw	49	;'1'
  2980  1065  3432               	retlw	50	;'2'
  2981  1066  3438               	retlw	56	;'8'
  2982  1067  3420               	retlw	32	;' '
  2983  1068  3454               	retlw	84	;'T'
  2984  1069  3445               	retlw	69	;'E'
  2985  106A  3453               	retlw	83	;'S'
  2986  106B  3454               	retlw	84	;'T'
  2987  106C  340A               	retlw	10
  2988  106D  3400               	retlw	0
  2989                           
  2990                           	psect	stringtext5
  2991  106E                     __pstringtext5:
  2992  106E                     STR_3:
  2993  106E  340A               	retlw	10
  2994  106F  3453               	retlw	83	;'S'
  2995  1070  3474               	retlw	116	;'t'
  2996  1071  3461               	retlw	97	;'a'
  2997  1072  3472               	retlw	114	;'r'
  2998  1073  3474               	retlw	116	;'t'
  2999  1074  3420               	retlw	32	;' '
  3000  1075  3454               	retlw	84	;'T'
  3001  1076  3465               	retlw	101	;'e'
  3002  1077  3473               	retlw	115	;'s'
  3003  1078  3474               	retlw	116	;'t'
  3004  1079  343A               	retlw	58	;':'
  3005  107A  3400               	retlw	0
  3006                           
  3007                           	psect	stringtext6
  3008  107B                     __pstringtext6:
  3009  107B                     STR_4:
  3010  107B  342E               	retlw	46	;'.'
  3011  107C  3400               	retlw	0
  3012                           
  3013                           	psect	stringtext7
  3014  0000                     __pstringtext7:
  3015                           
  3016                           	psect	cinit
  3017  002D                     start_initialization:	
  3018                           ; #config settings
  3019                           
  3020  002D                     __initialization:
  3021                           
  3022                           ; Initialize objects allocated to BANK1
  3023  002D  30B9               	movlw	low __pidataBANK1
  3024  002E  0084               	movwf	4
  3025  002F  308C               	movlw	(high __pidataBANK1)| (0+128)
  3026  0030  0085               	movwf	5
  3027  0031  30E1               	movlw	low __pdataBANK1
  3028  0032  0086               	movwf	6
  3029  0033  3000               	movlw	high __pdataBANK1
  3030  0034  0087               	movwf	7
  3031  0035  3009               	movlw	9
  3032  0036  318C  24A2  3180   	fcall	init_ram
  3033                           
  3034                           ; Clear objects allocated to COMMON
  3035  0039  01FC               	clrf	__pbssCOMMON& (0+127)
  3036                           
  3037                           ; Clear objects allocated to BANK1
  3038  003A  30A0               	movlw	low __pbssBANK1
  3039  003B  0084               	movwf	4
  3040  003C  3000               	movlw	high __pbssBANK1
  3041  003D  0085               	movwf	5
  3042  003E  3021               	movlw	33
  3043  003F  318C  249C  3180   	fcall	clear_ram0
  3044                           
  3045                           ; Clear objects allocated to BANK4
  3046  0042  3020               	movlw	low __pbssBANK4
  3047  0043  0084               	movwf	4
  3048  0044  3002               	movlw	high __pbssBANK4
  3049  0045  0085               	movwf	5
  3050  0046  303D               	movlw	61
  3051  0047  318C  249C  3180   	fcall	clear_ram0
  3052                           
  3053                           ; Clear objects allocated to BANK5
  3054  004A  30A0               	movlw	low __pbssBANK5
  3055  004B  0084               	movwf	4
  3056  004C  3002               	movlw	high __pbssBANK5
  3057  004D  0085               	movwf	5
  3058  004E  3040               	movlw	64
  3059  004F  318C  249C  3180   	fcall	clear_ram0
  3060  0052                     end_of_initialization:	
  3061                           ;End of C runtime variable initialization code
  3062                           
  3063  0052                     __end_of__initialization:
  3064  0052  107E               	bcf	int$flags,0	;clear compiler interrupt flag (level 1)
  3065  0053  0140               	movlb	0
  3066  0054  3183  2B7C         	ljmp	_main	;jump to C main() function
  3067                           
  3068                           	psect	bssCOMMON
  3069  007C                     __pbssCOMMON:
  3070  007C                     _eusart1RxHead:
  3071  007C                     	ds	1
  3072                           
  3073                           	psect	bssBANK1
  3074  00A0                     __pbssBANK1:
  3075  00A0                     _eusart1RxStatusBuffer:
  3076  00A0                     	ds	8
  3077  00A8                     _eusart1RxBuffer:
  3078  00A8                     	ds	8
  3079  00B0                     _nout:
  3080  00B0                     	ds	2
  3081  00B2                     _width:
  3082  00B2                     	ds	2
  3083  00B4                     _prec:
  3084  00B4                     	ds	2
  3085  00B6                     _flags:
  3086  00B6                     	ds	2
  3087  00B8                     _eusart1RxLastError:
  3088  00B8                     	ds	1
  3089  00B9                     _eusart1RxCount:
  3090  00B9                     	ds	1
  3091  00BA                     _eusart1RxTail:
  3092  00BA                     	ds	1
  3093  00BB                     _eusart1TxTail:
  3094  00BB                     	ds	1
  3095  00BC                     _eusart1TxHead:
  3096  00BC                     	ds	1
  3097  00BD                     _seed:
  3098  00BD                     	ds	4
  3099                           
  3100                           	psect	dataBANK1
  3101  00E1                     __pdataBANK1:
  3102  00E1                     _Sw_I2c_Cxt:
  3103  00E1                     	ds	9
  3104                           
  3105                           	psect	bssBANK4
  3106  0220                     __pbssBANK4:
  3107  0220                     _I2C1_Status:
  3108  0220                     	ds	29
  3109  023D                     _dbuf:
  3110  023D                     	ds	32
  3111                           
  3112                           	psect	bssBANK5
  3113  02A0                     __pbssBANK5:
  3114  02A0                     _eusart1TxBuffer:
  3115  02A0                     	ds	64
  3116                           
  3117                           	psect	inittext
  3118  0CA2                     init_ram:
  3119  0CA2  00FE               	movwf	btemp
  3120  0CA3                     initloop:
  3121  0CA3  0012               	moviw fsr0++
  3122  0CA4  001E               	movwi fsr1++
  3123  0CA5  0BFE               	decfsz	btemp,f
  3124  0CA6  2CA3               	goto	initloop
  3125  0CA7  3400               	retlw	0
  3126                           
  3127                           	psect	clrtext
  3128  0C9C                     clear_ram0:	
  3129                           ;	Called with FSR0 containing the base address, and
  3130                           ;	WREG with the size to clear
  3131                           
  3132  0C9C  0064               	clrwdt	;clear the watchdog before getting into this loop
  3133  0C9D                     clrloop0:
  3134  0C9D  0180               	clrf	0	;clear RAM location pointed to by FSR
  3135  0C9E  3101               	addfsr 0,1
  3136  0C9F  0B89               	decfsz	9,f	;Have we reached the end of clearing yet?
  3137  0CA0  2C9D               	goto	clrloop0	;have we reached the end yet?
  3138  0CA1  3400               	retlw	0	;all done for this memory range, return
  3139                           
  3140                           	psect	cstackBANK3
  3141  01A0                     __pcstackBANK3:
  3142  01A0                     main@datain:
  3143                           
  3144                           ; 64 bytes @ 0x0
  3145  01A0                     	ds	64
  3146                           
  3147                           	psect	cstackBANK2
  3148  0120                     __pcstackBANK2:
  3149  0120                     main@dataout:
  3150                           
  3151                           ; 64 bytes @ 0x0
  3152  0120                     	ds	64
  3153  0160                     main@addr:
  3154                           
  3155                           ; 2 bytes @ 0x40
  3156  0160                     	ds	2
  3157                           
  3158                           	psect	cstackBANK1
  3159  00C1                     __pcstackBANK1:
  3160  00C1                     ??_vfprintf:
  3161                           
  3162                           ; 1 bytes @ 0x0
  3163  00C1                     	ds	2
  3164  00C3                     vfprintf@fp:
  3165                           
  3166                           ; 1 bytes @ 0x2
  3167  00C3                     	ds	1
  3168  00C4                     vfprintf@cfmt:
  3169                           
  3170                           ; 2 bytes @ 0x3
  3171  00C4                     	ds	2
  3172  00C6                     ?_printf:
  3173  00C6                     printf@fmt:	
  3174                           ; 2 bytes @ 0x5
  3175                           
  3176                           
  3177                           ; 2 bytes @ 0x5
  3178  00C6                     	ds	8
  3179  00CE                     ??_printf:
  3180                           
  3181                           ; 1 bytes @ 0xD
  3182  00CE                     	ds	1
  3183  00CF                     printf@ap:
  3184                           
  3185                           ; 1 bytes @ 0xE
  3186  00CF                     	ds	1
  3187  00D0                     ?_MemoryTest:
  3188  00D0                     MemoryTest@addr:	
  3189                           ; 1 bytes @ 0xF
  3190                           
  3191                           
  3192                           ; 2 bytes @ 0xF
  3193  00D0                     	ds	2
  3194  00D2                     MemoryTest@pdata1:
  3195                           
  3196                           ; 1 bytes @ 0x11
  3197  00D2                     	ds	1
  3198  00D3                     MemoryTest@pdata2:
  3199                           
  3200                           ; 1 bytes @ 0x12
  3201  00D3                     	ds	1
  3202  00D4                     MemoryTest@len:
  3203                           
  3204                           ; 1 bytes @ 0x13
  3205  00D4                     	ds	1
  3206  00D5                     ??_MemoryTest:
  3207                           
  3208                           ; 1 bytes @ 0x14
  3209  00D5                     	ds	6
  3210  00DB                     MemoryTest@rslt:
  3211                           
  3212                           ; 1 bytes @ 0x1A
  3213  00DB                     	ds	1
  3214  00DC                     MemoryTest@i:
  3215                           
  3216                           ; 1 bytes @ 0x1B
  3217  00DC                     	ds	1
  3218  00DD                     ??_main:
  3219                           
  3220                           ; 1 bytes @ 0x1C
  3221  00DD                     	ds	3
  3222  00E0                     main@DoNext:
  3223                           
  3224                           ; 1 bytes @ 0x1F
  3225  00E0                     	ds	1
  3226                           
  3227                           	psect	cstackCOMMON
  3228  0070                     __pcstackCOMMON:
  3229  0070                     ?_EUSART1_Receive_ISR:
  3230  0070                     ?_EUSART1_Transmit_ISR:	
  3231                           ; 1 bytes @ 0x0
  3232                           
  3233  0070                     ??_EUSART1_Transmit_ISR:	
  3234                           ; 1 bytes @ 0x0
  3235                           
  3236  0070                     ?_EUSART1_DefaultFramingErrorHandler:	
  3237                           ; 1 bytes @ 0x0
  3238                           
  3239  0070                     ??_EUSART1_DefaultFramingErrorHandler:	
  3240                           ; 1 bytes @ 0x0
  3241                           
  3242  0070                     ?_EUSART1_DefaultOverrunErrorHandler:	
  3243                           ; 1 bytes @ 0x0
  3244                           
  3245  0070                     ??_EUSART1_DefaultOverrunErrorHandler:	
  3246                           ; 1 bytes @ 0x0
  3247                           
  3248  0070                     ?_EUSART1_DefaultErrorHandler:	
  3249                           ; 1 bytes @ 0x0
  3250                           
  3251  0070                     ?_EUSART1_RxDataHandler:	
  3252                           ; 1 bytes @ 0x0
  3253                           
  3254  0070                     ??_EUSART1_RxDataHandler:	
  3255                           ; 1 bytes @ 0x0
  3256                           
  3257  0070                     ?_PMD_Initialize:	
  3258                           ; 1 bytes @ 0x0
  3259                           
  3260  0070                     ?_OSCILLATOR_Initialize:	
  3261                           ; 1 bytes @ 0x0
  3262                           
  3263  0070                     ?_EUSART1_Initialize:	
  3264                           ; 1 bytes @ 0x0
  3265                           
  3266  0070                     ?_EUSART1_is_rx_ready:	
  3267                           ; 1 bytes @ 0x0
  3268                           
  3269  0070                     ?_EUSART1_Read:	
  3270                           ; 1 bytes @ 0x0
  3271                           
  3272  0070                     ?_EUSART1_Write:	
  3273                           ; 1 bytes @ 0x0
  3274                           
  3275  0070                     ?_putch:	
  3276                           ; 1 bytes @ 0x0
  3277                           
  3278  0070                     ?_INTERRUPT_InterruptManager:	
  3279                           ; 1 bytes @ 0x0
  3280                           
  3281  0070                     ?_PIN_MANAGER_Initialize:	
  3282                           ; 1 bytes @ 0x0
  3283                           
  3284  0070                     ?_SYSTEM_Initialize:	
  3285                           ; 1 bytes @ 0x0
  3286                           
  3287  0070                     ?_SW_I2C_Init:	
  3288                           ; 1 bytes @ 0x0
  3289                           
  3290  0070                     ?_SW_I2C_SCL_Pulse:	
  3291                           ; 1 bytes @ 0x0
  3292                           
  3293  0070                     ?_SW_I2C_SDA_Pulse:	
  3294                           ; 1 bytes @ 0x0
  3295                           
  3296  0070                     ?_SW_I2C_WriteBit:	
  3297                           ; 1 bytes @ 0x0
  3298                           
  3299  0070                     ?_SW_I2C_ReadBit:	
  3300                           ; 1 bytes @ 0x0
  3301                           
  3302  0070                     ?_SW_I2C_Start:	
  3303                           ; 1 bytes @ 0x0
  3304                           
  3305  0070                     ?_SW_I2C_Stop:	
  3306                           ; 1 bytes @ 0x0
  3307                           
  3308  0070                     ?_SW_I2C_ReadByte:	
  3309                           ; 1 bytes @ 0x0
  3310                           
  3311  0070                     ?_SW_I2C_SendAck:	
  3312                           ; 1 bytes @ 0x0
  3313                           
  3314  0070                     ?_SW_I2C_Read:	
  3315                           ; 1 bytes @ 0x0
  3316                           
  3317  0070                     ?_SW_I2C_Write:	
  3318                           ; 1 bytes @ 0x0
  3319                           
  3320  0070                     ?_main:	
  3321                           ; 1 bytes @ 0x0
  3322                           
  3323                           
  3324                           ; 1 bytes @ 0x0
  3325  0070                     	ds	1
  3326  0071                     ?_EUSART1_SetRxInterruptHandler:
  3327  0071                     ??_EUSART1_Receive_ISR:	
  3328                           ; 1 bytes @ 0x1
  3329                           
  3330  0071                     ?_EUSART1_SetTxInterruptHandler:	
  3331                           ; 1 bytes @ 0x1
  3332                           
  3333  0071                     ?_EUSART1_SetFramingErrorHandler:	
  3334                           ; 1 bytes @ 0x1
  3335                           
  3336  0071                     ?_EUSART1_SetOverrunErrorHandler:	
  3337                           ; 1 bytes @ 0x1
  3338                           
  3339  0071                     ?_EUSART1_SetErrorHandler:	
  3340                           ; 1 bytes @ 0x1
  3341                           
  3342  0071                     ??_EUSART1_DefaultErrorHandler:	
  3343                           ; 1 bytes @ 0x1
  3344                           
  3345  0071                     ??_PMD_Initialize:	
  3346                           ; 1 bytes @ 0x1
  3347                           
  3348  0071                     ??_OSCILLATOR_Initialize:	
  3349                           ; 1 bytes @ 0x1
  3350                           
  3351  0071                     ?_memcpy:	
  3352                           ; 1 bytes @ 0x1
  3353                           
  3354  0071                     ??_EUSART1_is_rx_ready:	
  3355                           ; 1 bytes @ 0x1
  3356                           
  3357  0071                     ??_EUSART1_Read:	
  3358                           ; 1 bytes @ 0x1
  3359                           
  3360  0071                     ??_EUSART1_Write:	
  3361                           ; 1 bytes @ 0x1
  3362                           
  3363  0071                     ??_INTERRUPT_InterruptManager:	
  3364                           ; 1 bytes @ 0x1
  3365                           
  3366  0071                     ??_PIN_MANAGER_Initialize:	
  3367                           ; 1 bytes @ 0x1
  3368                           
  3369  0071                     ??_SW_I2C_Init:	
  3370                           ; 1 bytes @ 0x1
  3371                           
  3372  0071                     ??_SW_I2C_SCL_Pulse:	
  3373                           ; 1 bytes @ 0x1
  3374                           
  3375  0071                     ??_SW_I2C_SDA_Pulse:	
  3376                           ; 1 bytes @ 0x1
  3377                           
  3378  0071                     ?_strlen:	
  3379                           ; 1 bytes @ 0x1
  3380                           
  3381  0071                     ?_isupper:	
  3382                           ; 2 bytes @ 0x1
  3383                           
  3384  0071                     ?_isalpha:	
  3385                           ; 2 bytes @ 0x1
  3386                           
  3387  0071                     ?_isdigit:	
  3388                           ; 2 bytes @ 0x1
  3389                           
  3390  0071                     ?_isspace:	
  3391                           ; 2 bytes @ 0x1
  3392                           
  3393  0071                     ?_islower:	
  3394                           ; 2 bytes @ 0x1
  3395                           
  3396  0071                     ?___wmul:	
  3397                           ; 2 bytes @ 0x1
  3398                           
  3399  0071                     ?___lmul:	
  3400                           ; 2 bytes @ 0x1
  3401                           
  3402  0071                     memcpy@s1:	
  3403                           ; 4 bytes @ 0x1
  3404                           
  3405  0071                     EUSART1_SetFramingErrorHandler@interruptHandler:	
  3406                           ; 1 bytes @ 0x1
  3407                           
  3408  0071                     EUSART1_SetOverrunErrorHandler@interruptHandler:	
  3409                           ; 2 bytes @ 0x1
  3410                           
  3411  0071                     EUSART1_SetErrorHandler@interruptHandler:	
  3412                           ; 2 bytes @ 0x1
  3413                           
  3414  0071                     EUSART1_SetTxInterruptHandler@interruptHandler:	
  3415                           ; 2 bytes @ 0x1
  3416                           
  3417  0071                     EUSART1_SetRxInterruptHandler@interruptHandler:	
  3418                           ; 2 bytes @ 0x1
  3419                           
  3420  0071                     ___wmul@multiplier:	
  3421                           ; 2 bytes @ 0x1
  3422                           
  3423  0071                     isalpha@c:	
  3424                           ; 2 bytes @ 0x1
  3425                           
  3426  0071                     isdigit@c:	
  3427                           ; 2 bytes @ 0x1
  3428                           
  3429  0071                     isspace@c:	
  3430                           ; 2 bytes @ 0x1
  3431                           
  3432  0071                     isupper@c:	
  3433                           ; 2 bytes @ 0x1
  3434                           
  3435  0071                     islower@c:	
  3436                           ; 2 bytes @ 0x1
  3437                           
  3438  0071                     ___lmul@multiplier:	
  3439                           ; 2 bytes @ 0x1
  3440                           
  3441                           
  3442                           ; 4 bytes @ 0x1
  3443  0071                     	ds	1
  3444  0072                     EUSART1_Read@readValue:
  3445  0072                     EUSART1_Write@txData:	
  3446                           ; 1 bytes @ 0x2
  3447                           
  3448  0072                     SW_I2C_SCL_Pulse@Count:	
  3449                           ; 1 bytes @ 0x2
  3450                           
  3451  0072                     SW_I2C_SDA_Pulse@Count:	
  3452                           ; 1 bytes @ 0x2
  3453                           
  3454  0072                     memcpy@n:	
  3455                           ; 1 bytes @ 0x2
  3456                           
  3457                           
  3458                           ; 2 bytes @ 0x2
  3459  0072                     	ds	1
  3460  0073                     ??_EUSART1_SetRxInterruptHandler:
  3461  0073                     ??_EUSART1_SetTxInterruptHandler:	
  3462                           ; 1 bytes @ 0x3
  3463                           
  3464  0073                     ??_EUSART1_SetFramingErrorHandler:	
  3465                           ; 1 bytes @ 0x3
  3466                           
  3467  0073                     ??_EUSART1_SetOverrunErrorHandler:	
  3468                           ; 1 bytes @ 0x3
  3469                           
  3470  0073                     ??_EUSART1_SetErrorHandler:	
  3471                           ; 1 bytes @ 0x3
  3472                           
  3473  0073                     ??_strlen:	
  3474                           ; 1 bytes @ 0x3
  3475                           
  3476  0073                     ??_isupper:	
  3477                           ; 1 bytes @ 0x3
  3478                           
  3479  0073                     ??_isalpha:	
  3480                           ; 1 bytes @ 0x3
  3481                           
  3482  0073                     ??_isdigit:	
  3483                           ; 1 bytes @ 0x3
  3484                           
  3485  0073                     ??_isspace:	
  3486                           ; 1 bytes @ 0x3
  3487                           
  3488  0073                     ??_islower:	
  3489                           ; 1 bytes @ 0x3
  3490                           
  3491  0073                     ??_EUSART1_Initialize:	
  3492                           ; 1 bytes @ 0x3
  3493                           
  3494  0073                     ??_putch:	
  3495                           ; 1 bytes @ 0x3
  3496                           
  3497  0073                     putch@txData:	
  3498                           ; 1 bytes @ 0x3
  3499                           
  3500  0073                     SW_I2C_SCL_Pulse@x:	
  3501                           ; 1 bytes @ 0x3
  3502                           
  3503  0073                     SW_I2C_SDA_Pulse@x:	
  3504                           ; 1 bytes @ 0x3
  3505                           
  3506  0073                     ___wmul@multiplicand:	
  3507                           ; 1 bytes @ 0x3
  3508                           
  3509                           
  3510                           ; 2 bytes @ 0x3
  3511  0073                     	ds	1
  3512  0074                     ??_memcpy:
  3513  0074                     ??_SYSTEM_Initialize:	
  3514                           ; 1 bytes @ 0x4
  3515                           
  3516  0074                     ??_SW_I2C_WriteBit:	
  3517                           ; 1 bytes @ 0x4
  3518                           
  3519  0074                     ??_SW_I2C_ReadBit:	
  3520                           ; 1 bytes @ 0x4
  3521                           
  3522  0074                     ??_SW_I2C_Start:	
  3523                           ; 1 bytes @ 0x4
  3524                           
  3525  0074                     ??_SW_I2C_Stop:	
  3526                           ; 1 bytes @ 0x4
  3527                           
  3528  0074                     ??_SW_I2C_ReadByte:	
  3529                           ; 1 bytes @ 0x4
  3530                           
  3531  0074                     ?_fputc:	
  3532                           ; 1 bytes @ 0x4
  3533                           
  3534  0074                     SW_I2C_WriteBit@x:	
  3535                           ; 2 bytes @ 0x4
  3536                           
  3537  0074                     strlen@a:	
  3538                           ; 1 bytes @ 0x4
  3539                           
  3540  0074                     fputc@c:	
  3541                           ; 1 bytes @ 0x4
  3542                           
  3543                           
  3544                           ; 2 bytes @ 0x4
  3545  0074                     	ds	1
  3546  0075                     ??_SW_I2C_SendAck:
  3547  0075                     ??_SW_I2C_Write:	
  3548                           ; 1 bytes @ 0x5
  3549                           
  3550  0075                     ??___wmul:	
  3551                           ; 1 bytes @ 0x5
  3552                           
  3553  0075                     SW_I2C_ReadByte@data_in:	
  3554                           ; 1 bytes @ 0x5
  3555                           
  3556  0075                     SW_I2C_SendAck@ack:	
  3557                           ; 1 bytes @ 0x5
  3558                           
  3559  0075                     memcpy@tmp:	
  3560                           ; 1 bytes @ 0x5
  3561                           
  3562  0075                     _isspace$2152:	
  3563                           ; 1 bytes @ 0x5
  3564                           
  3565  0075                     strlen@s:	
  3566                           ; 1 bytes @ 0x5
  3567                           
  3568  0075                     ___wmul@product:	
  3569                           ; 1 bytes @ 0x5
  3570                           
  3571  0075                     ___lmul@multiplicand:	
  3572                           ; 2 bytes @ 0x5
  3573                           
  3574                           
  3575                           ; 4 bytes @ 0x5
  3576  0075                     	ds	1
  3577  0076                     SW_I2C_ReadByte@i:
  3578  0076                     SW_I2C_Write@data_out:	
  3579                           ; 1 bytes @ 0x6
  3580                           
  3581  0076                     memcpy@d1:	
  3582                           ; 1 bytes @ 0x6
  3583                           
  3584  0076                     fputc@fp:	
  3585                           ; 1 bytes @ 0x6
  3586                           
  3587                           
  3588                           ; 1 bytes @ 0x6
  3589  0076                     	ds	1
  3590  0077                     ??_fputc:
  3591  0077                     ??_SW_I2C_Read:	
  3592                           ; 1 bytes @ 0x7
  3593                           
  3594  0077                     ?_toupper:	
  3595                           ; 1 bytes @ 0x7
  3596                           
  3597  0077                     ?_atoi:	
  3598                           ; 2 bytes @ 0x7
  3599                           
  3600  0077                     SW_I2C_Write@i:	
  3601                           ; 2 bytes @ 0x7
  3602                           
  3603  0077                     memcpy@d:	
  3604                           ; 1 bytes @ 0x7
  3605                           
  3606  0077                     atoi@s:	
  3607                           ; 1 bytes @ 0x7
  3608                           
  3609  0077                     toupper@c:	
  3610                           ; 2 bytes @ 0x7
  3611                           
  3612                           
  3613                           ; 2 bytes @ 0x7
  3614  0077                     	ds	1
  3615  0078                     ?_SW_I2C_WriteNBytes:
  3616  0078                     SW_I2C_Read@ack:	
  3617                           ; 1 bytes @ 0x8
  3618                           
  3619  0078                     SW_I2C_WriteNBytes@data:	
  3620                           ; 1 bytes @ 0x8
  3621                           
  3622  0078                     memcpy@s:	
  3623                           ; 1 bytes @ 0x8
  3624                           
  3625                           
  3626                           ; 1 bytes @ 0x8
  3627  0078                     	ds	1
  3628  0079                     ??_RandomArray:
  3629  0079                     ??___lmul:	
  3630                           ; 1 bytes @ 0x9
  3631                           
  3632  0079                     SW_I2C_Read@data_in:	
  3633                           ; 1 bytes @ 0x9
  3634                           
  3635  0079                     SW_I2C_WriteNBytes@len:	
  3636                           ; 1 bytes @ 0x9
  3637                           
  3638  0079                     _toupper$2205:	
  3639                           ; 2 bytes @ 0x9
  3640                           
  3641                           
  3642                           ; 2 bytes @ 0x9
  3643  0079                     	ds	1
  3644  007A                     SW_I2C_ReadNBytes@address:
  3645  007A                     RandomArray@pD:	
  3646                           ; 1 bytes @ 0xA
  3647                           
  3648                           
  3649                           ; 1 bytes @ 0xA
  3650  007A                     	ds	1
  3651  007B                     ??_EE_Write:
  3652  007B                     ??_EE_WritePage:	
  3653                           ; 1 bytes @ 0xB
  3654                           
  3655  007B                     SW_I2C_ReadNBytes@i:	
  3656                           ; 1 bytes @ 0xB
  3657                           
  3658                           
  3659                           ; 1 bytes @ 0xB
  3660  007B                     	ds	1
  3661                           
  3662                           	psect	cstackBANK0
  3663  0020                     __pcstackBANK0:
  3664  0020                     ??_toupper:
  3665  0020                     ??_atoi:	
  3666                           ; 1 bytes @ 0x0
  3667                           
  3668  0020                     ?_SW_I2C_ReadNBytes:	
  3669                           ; 1 bytes @ 0x0
  3670                           
  3671  0020                     ??_SW_I2C_WriteNBytes:	
  3672                           ; 1 bytes @ 0x0
  3673                           
  3674  0020                     ?_fputs:	
  3675                           ; 1 bytes @ 0x0
  3676                           
  3677  0020                     fputs@fp:	
  3678                           ; 2 bytes @ 0x0
  3679                           
  3680  0020                     SW_I2C_ReadNBytes@data:	
  3681                           ; 1 bytes @ 0x0
  3682                           
  3683  0020                     ___lmul@product:	
  3684                           ; 2 bytes @ 0x0
  3685                           
  3686                           
  3687                           ; 4 bytes @ 0x0
  3688  0020                     	ds	1
  3689  0021                     ??_fputs:
  3690                           
  3691                           ; 1 bytes @ 0x1
  3692  0021                     	ds	1
  3693  0022                     SW_I2C_WriteNBytes@address:
  3694  0022                     SW_I2C_ReadNBytes@len:	
  3695                           ; 1 bytes @ 0x2
  3696                           
  3697                           
  3698                           ; 2 bytes @ 0x2
  3699  0022                     	ds	1
  3700  0023                     SW_I2C_WriteNBytes@i:
  3701                           
  3702                           ; 1 bytes @ 0x3
  3703  0023                     	ds	1
  3704  0024                     ??_SW_I2C_ReadNBytes:
  3705  0024                     ?_EE_Write:	
  3706                           ; 1 bytes @ 0x4
  3707                           
  3708  0024                     ?_EE_WritePage:	
  3709                           ; 1 bytes @ 0x4
  3710                           
  3711  0024                     ?_rand:	
  3712                           ; 1 bytes @ 0x4
  3713                           
  3714  0024                     fputs@c:	
  3715                           ; 2 bytes @ 0x4
  3716                           
  3717  0024                     EE_Write@addr:	
  3718                           ; 1 bytes @ 0x4
  3719                           
  3720  0024                     EE_WritePage@addr:	
  3721                           ; 2 bytes @ 0x4
  3722                           
  3723  0024                     atoi@neg:	
  3724                           ; 2 bytes @ 0x4
  3725                           
  3726                           
  3727                           ; 2 bytes @ 0x4
  3728  0024                     	ds	1
  3729  0025                     fputs@i:
  3730                           
  3731                           ; 2 bytes @ 0x5
  3732  0025                     	ds	1
  3733  0026                     ??_rand:
  3734  0026                     EE_Write@data:	
  3735                           ; 1 bytes @ 0x6
  3736                           
  3737  0026                     EE_WritePage@pdata:	
  3738                           ; 1 bytes @ 0x6
  3739                           
  3740  0026                     _atoi$2125:	
  3741                           ; 1 bytes @ 0x6
  3742                           
  3743                           
  3744                           ; 2 bytes @ 0x6
  3745  0026                     	ds	1
  3746  0027                     fputs@s:
  3747  0027                     EE_Write@frame:	
  3748                           ; 1 bytes @ 0x7
  3749                           
  3750  0027                     EE_WritePage@frame:	
  3751                           ; 3 bytes @ 0x7
  3752                           
  3753                           
  3754                           ; 66 bytes @ 0x7
  3755  0027                     	ds	1
  3756  0028                     ?_EE_ReadPage:
  3757  0028                     ?_pad:	
  3758                           ; 1 bytes @ 0x8
  3759                           
  3760  0028                     pad@buf:	
  3761                           ; 2 bytes @ 0x8
  3762                           
  3763  0028                     EE_ReadPage@addr:	
  3764                           ; 1 bytes @ 0x8
  3765                           
  3766  0028                     _atoi$2127:	
  3767                           ; 2 bytes @ 0x8
  3768                           
  3769                           
  3770                           ; 2 bytes @ 0x8
  3771  0028                     	ds	1
  3772  0029                     pad@p:
  3773                           
  3774                           ; 2 bytes @ 0x9
  3775  0029                     	ds	1
  3776  002A                     ?_RandomArray:
  3777  002A                     EE_ReadPage@pData:	
  3778                           ; 1 bytes @ 0xA
  3779                           
  3780  002A                     RandomArray@len:	
  3781                           ; 1 bytes @ 0xA
  3782                           
  3783  002A                     _atoi$2126:	
  3784                           ; 1 bytes @ 0xA
  3785                           
  3786                           
  3787                           ; 1 bytes @ 0xA
  3788  002A                     	ds	1
  3789  002B                     ??_EE_ReadPage:
  3790  002B                     ??_pad:	
  3791                           ; 1 bytes @ 0xB
  3792                           
  3793  002B                     atoi@n:	
  3794                           ; 1 bytes @ 0xB
  3795                           
  3796                           
  3797                           ; 2 bytes @ 0xB
  3798  002B                     	ds	1
  3799  002C                     EE_ReadPage@frame:
  3800  002C                     pad@i:	
  3801                           ; 2 bytes @ 0xC
  3802                           
  3803                           
  3804                           ; 2 bytes @ 0xC
  3805  002C                     	ds	2
  3806  002E                     pad@w:
  3807                           
  3808                           ; 2 bytes @ 0xE
  3809  002E                     	ds	2
  3810  0030                     pad@fp:
  3811                           
  3812                           ; 1 bytes @ 0x10
  3813  0030                     	ds	1
  3814  0031                     ?_xtoa:
  3815  0031                     xtoa@d:	
  3816                           ; 2 bytes @ 0x11
  3817                           
  3818                           
  3819                           ; 8 bytes @ 0x11
  3820  0031                     	ds	8
  3821  0039                     xtoa@x:
  3822                           
  3823                           ; 1 bytes @ 0x19
  3824  0039                     	ds	1
  3825  003A                     ??_xtoa:
  3826                           
  3827                           ; 1 bytes @ 0x1A
  3828  003A                     	ds	8
  3829  0042                     _xtoa$2091:
  3830                           
  3831                           ; 2 bytes @ 0x22
  3832  0042                     	ds	2
  3833  0044                     _xtoa$2092:
  3834                           
  3835                           ; 2 bytes @ 0x24
  3836  0044                     	ds	2
  3837  0046                     xtoa@fp:
  3838                           
  3839                           ; 1 bytes @ 0x26
  3840  0046                     	ds	1
  3841  0047                     xtoa@p:
  3842                           
  3843                           ; 2 bytes @ 0x27
  3844  0047                     	ds	2
  3845  0049                     xtoa@w:
  3846                           
  3847                           ; 2 bytes @ 0x29
  3848  0049                     	ds	2
  3849  004B                     xtoa@n:
  3850                           
  3851                           ; 8 bytes @ 0x2B
  3852  004B                     	ds	8
  3853  0053                     xtoa@i:
  3854                           
  3855                           ; 2 bytes @ 0x33
  3856  0053                     	ds	2
  3857  0055                     xtoa@c:
  3858                           
  3859                           ; 2 bytes @ 0x35
  3860  0055                     	ds	2
  3861  0057                     ?_vfpfcnvrt:
  3862  0057                     vfpfcnvrt@fmt:	
  3863                           ; 2 bytes @ 0x37
  3864                           
  3865                           
  3866                           ; 1 bytes @ 0x37
  3867  0057                     	ds	1
  3868  0058                     vfpfcnvrt@ap:
  3869                           
  3870                           ; 1 bytes @ 0x38
  3871  0058                     	ds	1
  3872  0059                     ??_vfpfcnvrt:
  3873                           
  3874                           ; 1 bytes @ 0x39
  3875  0059                     	ds	6
  3876  005F                     vfpfcnvrt@llu:
  3877                           
  3878                           ; 8 bytes @ 0x3F
  3879  005F                     	ds	8
  3880  0067                     vfpfcnvrt@c:
  3881                           
  3882                           ; 1 bytes @ 0x47
  3883  0067                     	ds	1
  3884  0068                     vfpfcnvrt@done:
  3885                           
  3886                           ; 2 bytes @ 0x48
  3887  0068                     	ds	2
  3888  006A                     _vfpfcnvrt$2107:
  3889                           
  3890                           ; 2 bytes @ 0x4A
  3891  006A                     	ds	2
  3892  006C                     vfpfcnvrt@fp:
  3893                           
  3894                           ; 1 bytes @ 0x4C
  3895  006C                     	ds	1
  3896  006D                     ?_vfprintf:
  3897  006D                     vfprintf@fmt:	
  3898                           ; 2 bytes @ 0x4D
  3899                           
  3900                           
  3901                           ; 2 bytes @ 0x4D
  3902  006D                     	ds	2
  3903  006F                     vfprintf@ap:
  3904                           
  3905                           ; 1 bytes @ 0x4F
  3906  006F                     	ds	1
  3907                           
  3908                           	psect	maintext
  3909  037C                     __pmaintext:	
  3910 ;;
  3911 ;;Main: autosize = 0, tempsize = 3, incstack = 0, save=0
  3912 ;;
  3913 ;; *************** function _main *****************
  3914 ;; Defined at:
  3915 ;;		line 85 in file "main.c"
  3916 ;; Parameters:    Size  Location     Type
  3917 ;;		None
  3918 ;; Auto vars:     Size  Location     Type
  3919 ;;  datain         64    0[BANK3 ] unsigned char [64]
  3920 ;;  dataout        64    0[BANK2 ] unsigned char [64]
  3921 ;;  addr            2   64[BANK2 ] unsigned short 
  3922 ;;  DoNext          1   31[BANK1 ] unsigned char 
  3923 ;;  a               1    0        unsigned char 
  3924 ;; Return value:  Size  Location     Type
  3925 ;;                  1    wreg      void 
  3926 ;; Registers used:
  3927 ;;		wreg, fsr0l, fsr0h, fsr1l, fsr1h, status,2, status,0, pclath, cstack
  3928 ;; Tracked objects:
  3929 ;;		On entry : B3F/0
  3930 ;;		On exit  : 0/0
  3931 ;;		Unchanged: 0/0
  3932 ;; Data sizes:     COMMON   BANK0   BANK1   BANK2   BANK3   BANK4   BANK5   BANK6   BANK7   BANK8   BANK9  BANK10  BANK1
      +1  BANK12  BANK13  BANK14  BANK15  BANK16  BANK17  BANK18  BANK19  BANK20  BANK21  BANK22  BANK23  BANK24  BANK25
  3933 ;;      Params:         0       0       0       0       0       0       0       0       0       0       0       0       
      +0       0       0       0       0       0       0       0       0       0       0       0       0       0       0
  3934 ;;      Locals:         0       0       1      66      64       0       0       0       0       0       0       0       
      +0       0       0       0       0       0       0       0       0       0       0       0       0       0       0
  3935 ;;      Temps:          0       0       3       0       0       0       0       0       0       0       0       0       
      +0       0       0       0       0       0       0       0       0       0       0       0       0       0       0
  3936 ;;      Totals:         0       0       4      66      64       0       0       0       0       0       0       0       
      +0       0       0       0       0       0       0       0       0       0       0       0       0       0       0
  3937 ;;Total ram usage:      134 bytes
  3938 ;; Hardware stack levels required when called: 14
  3939 ;; This function calls:
  3940 ;;		_EE_ReadPage
  3941 ;;		_EE_Write
  3942 ;;		_EE_WritePage
  3943 ;;		_EUSART1_Read
  3944 ;;		_EUSART1_is_rx_ready
  3945 ;;		_MemoryTest
  3946 ;;		_RandomArray
  3947 ;;		_SW_I2C_Init
  3948 ;;		_SYSTEM_Initialize
  3949 ;;		_printf
  3950 ;; This function is called by:
  3951 ;;		Startup code after reset
  3952 ;; This function uses a non-reentrant model
  3953 ;;
  3954                           
  3955                           
  3956                           ;psect for function _main
  3957  037C                     _main:
  3958  037C                     l6160:	
  3959                           ;incstack = 0
  3960                           ; Regs used in _main: [wreg-fsr1h+status,2+status,0+pclath+cstack]
  3961                           
  3962                           
  3963                           ;main.c: 90:     uint8_t DoNext = 0;
  3964  037C  0141               	movlb	1	; select bank1
  3965  037D  01E0               	clrf	main@DoNext^(0+128)
  3966  037E                     l6162:
  3967                           
  3968                           ;main.c: 92:     SYSTEM_Initialize();
  3969  037E  318C  24D9  3183   	fcall	_SYSTEM_Initialize
  3970  0381                     l6164:
  3971                           
  3972                           ;main.c: 95:     SW_I2C_Init();
  3973  0381  318C  24E6  3183   	fcall	_SW_I2C_Init
  3974  0384                     l6166:
  3975                           
  3976                           ;main.c: 99:     (INTCONbits.GIE = 1);
  3977  0384  178B               	bsf	11,7	;volatile
  3978  0385                     l6168:
  3979                           
  3980                           ;main.c: 100:     (INTCONbits.PEIE = 1);
  3981  0385  170B               	bsf	11,6	;volatile
  3982  0386                     l6170:
  3983                           
  3984                           ;main.c: 101:     printf("\nEEPROM 24AA128 TEST\n");
  3985  0386  3058               	movlw	low (STR_2| (0+32768))
  3986  0387  0141               	movlb	1	; select bank1
  3987  0388  00C6               	movwf	printf@fmt^(0+128)
  3988  0389  3090               	movlw	high (STR_2| (0+32768))
  3989  038A  00C7               	movwf	(printf@fmt^(0+128)+1)
  3990  038B  318D  2545  3183   	fcall	_printf
  3991  038E                     l6172:
  3992                           
  3993                           ;main.c: 102:     EE_Write(0x00, 0xAA);
  3994  038E  3000               	movlw	0
  3995  038F  0140               	movlb	0	; select bank0
  3996  0390  00A4               	movwf	EE_Write@addr
  3997  0391  00A5               	movwf	EE_Write@addr+1
  3998  0392  30AA               	movlw	170
  3999  0393  0141               	movlb	1	; select bank1
  4000  0394  00DD               	movwf	??_main^(0+128)
  4001  0395  085D               	movf	??_main^(0+128),w
  4002  0396  0140               	movlb	0	; select bank0
  4003  0397  00A6               	movwf	EE_Write@data
  4004  0398  318F  2711  3183   	fcall	_EE_Write
  4005  039B                     l6174:
  4006                           
  4007                           ;main.c: 103:     _delay((unsigned long)((5)*(32000000/4000.0)));
  4008  039B  3034               	movlw	52
  4009  039C  0141               	movlb	1	; select bank1
  4010  039D  00DD               	movwf	??_main^(0+128)
  4011  039E  30F1               	movlw	241
  4012  039F                     u4427:
  4013  039F  0B89               	decfsz	9,f
  4014  03A0  2B9F               	goto	u4427
  4015  03A1  0BDD               	decfsz	??_main^(0+128),f
  4016  03A2  2B9F               	goto	u4427
  4017  03A3  3200               	nop2
  4018  03A4  2C2D               	goto	l6206
  4019  03A5                     l6176:
  4020                           
  4021                           ;main.c: 110:                 printf("\nStart Test:");
  4022  03A5  306E               	movlw	low (STR_3| (0+32768))
  4023  03A6  00C6               	movwf	printf@fmt^(0+128)
  4024  03A7  3090               	movlw	high (STR_3| (0+32768))
  4025  03A8  00C7               	movwf	(printf@fmt^(0+128)+1)
  4026  03A9  318D  2545  3183   	fcall	_printf
  4027  03AC                     l6178:
  4028                           
  4029                           ;main.c: 112:                 for (addr = 0; addr < 0x4000; addr += 64) {
  4030  03AC  0142               	movlb	2	; select bank2
  4031  03AD  01E0               	clrf	main@addr^(0+256)
  4032  03AE  01E1               	clrf	(main@addr+1)^(0+256)
  4033  03AF                     l6184:
  4034                           
  4035                           ;main.c: 113:                     RandomArray(datain, 64);
  4036  03AF  3040               	movlw	64
  4037  03B0  0141               	movlb	1	; select bank1
  4038  03B1  00DD               	movwf	??_main^(0+128)
  4039  03B2  085D               	movf	??_main^(0+128),w
  4040  03B3  0140               	movlb	0	; select bank0
  4041  03B4  00AA               	movwf	RandomArray@len
  4042  03B5  30A0               	movlw	(low (main@datain| (0+256)))& (0+255)
  4043  03B6  318D  25F0  3183   	fcall	_RandomArray
  4044                           
  4045                           ;main.c: 114:                     EE_WritePage(addr, datain);
  4046  03B9  0142               	movlb	2	; select bank2
  4047  03BA  0861               	movf	(main@addr+1)^(0+256),w
  4048  03BB  0140               	movlb	0	; select bank0
  4049  03BC  00A5               	movwf	EE_WritePage@addr+1
  4050  03BD  0142               	movlb	2	; select bank2
  4051  03BE  0860               	movf	main@addr^(0+256),w
  4052  03BF  0140               	movlb	0	; select bank0
  4053  03C0  00A4               	movwf	EE_WritePage@addr
  4054  03C1  30A0               	movlw	(low (main@datain| (0+256)))& (0+255)
  4055  03C2  0141               	movlb	1	; select bank1
  4056  03C3  00DD               	movwf	??_main^(0+128)
  4057  03C4  085D               	movf	??_main^(0+128),w
  4058  03C5  0140               	movlb	0	; select bank0
  4059  03C6  00A6               	movwf	EE_WritePage@pdata
  4060  03C7  318F  27D3  3183   	fcall	_EE_WritePage
  4061                           
  4062                           ;main.c: 115:                     EE_ReadPage(addr, dataout);
  4063  03CA  0142               	movlb	2	; select bank2
  4064  03CB  0861               	movf	(main@addr+1)^(0+256),w
  4065  03CC  0140               	movlb	0	; select bank0
  4066  03CD  00A9               	movwf	EE_ReadPage@addr+1
  4067  03CE  0142               	movlb	2	; select bank2
  4068  03CF  0860               	movf	main@addr^(0+256),w
  4069  03D0  0140               	movlb	0	; select bank0
  4070  03D1  00A8               	movwf	EE_ReadPage@addr
  4071  03D2  3020               	movlw	(low (main@dataout| (0+256)))& (0+255)
  4072  03D3  0141               	movlb	1	; select bank1
  4073  03D4  00DD               	movwf	??_main^(0+128)
  4074  03D5  085D               	movf	??_main^(0+128),w
  4075  03D6  0140               	movlb	0	; select bank0
  4076  03D7  00AA               	movwf	EE_ReadPage@pData
  4077  03D8  318E  26EE  3183   	fcall	_EE_ReadPage
  4078  03DB                     l6186:
  4079                           
  4080                           ;main.c: 117:                     if (MemoryTest(addr, datain, dataout, 64))
  4081  03DB  0142               	movlb	2	; select bank2
  4082  03DC  0861               	movf	(main@addr+1)^(0+256),w
  4083  03DD  0141               	movlb	1	; select bank1
  4084  03DE  00D1               	movwf	(MemoryTest@addr+1)^(0+128)
  4085  03DF  0142               	movlb	2	; select bank2
  4086  03E0  0860               	movf	main@addr^(0+256),w
  4087  03E1  0141               	movlb	1	; select bank1
  4088  03E2  00D0               	movwf	MemoryTest@addr^(0+128)
  4089  03E3  30A0               	movlw	(low (main@datain| (0+256)))& (0+255)
  4090  03E4  00DD               	movwf	??_main^(0+128)
  4091  03E5  085D               	movf	??_main^(0+128),w
  4092  03E6  00D2               	movwf	MemoryTest@pdata1^(0+128)
  4093  03E7  3020               	movlw	(low (main@dataout| (0+256)))& (0+255)
  4094  03E8  00DE               	movwf	(??_main+1)^(0+128)
  4095  03E9  085E               	movf	(??_main+1)^(0+128),w
  4096  03EA  00D3               	movwf	MemoryTest@pdata2^(0+128)
  4097  03EB  3040               	movlw	64
  4098  03EC  00DF               	movwf	(??_main+2)^(0+128)
  4099  03ED  085F               	movf	(??_main+2)^(0+128),w
  4100  03EE  00D4               	movwf	MemoryTest@len^(0+128)
  4101  03EF  3185  2545  3183   	fcall	_MemoryTest
  4102  03F2  3A00               	xorlw	0
  4103  03F3  1903               	skipnz
  4104  03F4  2BF6               	goto	u4381
  4105  03F5  2BF7               	goto	u4380
  4106  03F6                     u4381:
  4107  03F6  2BFF               	goto	l6190
  4108  03F7                     u4380:
  4109  03F7                     l6188:
  4110                           
  4111                           ;main.c: 118:                         printf(".");
  4112  03F7  307B               	movlw	low (STR_4| (0+32768))
  4113  03F8  0141               	movlb	1	; select bank1
  4114  03F9  00C6               	movwf	printf@fmt^(0+128)
  4115  03FA  3090               	movlw	high (STR_4| (0+32768))
  4116  03FB  00C7               	movwf	(printf@fmt^(0+128)+1)
  4117  03FC  318D  2545  3183   	fcall	_printf
  4118  03FF                     l6190:
  4119                           
  4120                           ;main.c: 119:                 }
  4121  03FF  3040               	movlw	64
  4122  0400  0142               	movlb	2	; select bank2
  4123  0401  07E0               	addwf	main@addr^(0+256),f
  4124  0402  3000               	movlw	0
  4125  0403  3DE1               	addwfc	(main@addr+1)^(0+256),f
  4126  0404                     l6192:
  4127  0404  3040               	movlw	64
  4128  0405  0261               	subwf	(main@addr+1)^(0+256),w
  4129  0406  3000               	movlw	0
  4130  0407  1903               	skipnz
  4131  0408  0260               	subwf	main@addr^(0+256),w
  4132  0409  1C03               	skipc
  4133  040A  2C0C               	goto	u4391
  4134  040B  2C0D               	goto	u4390
  4135  040C                     u4391:
  4136  040C  2BAF               	goto	l6184
  4137  040D                     u4390:
  4138  040D                     l6194:
  4139                           
  4140                           ;main.c: 121:                 DoNext++;
  4141  040D  3001               	movlw	1
  4142  040E  0141               	movlb	1	; select bank1
  4143  040F  00DD               	movwf	??_main^(0+128)
  4144  0410  085D               	movf	??_main^(0+128),w
  4145  0411  07E0               	addwf	main@DoNext^(0+128),f
  4146  0412                     l6196:
  4147                           
  4148                           ;main.c: 122:                 printf("Done\nPress 'T' to test again\n");
  4149  0412  3020               	movlw	low (STR_5| (0+32768))
  4150  0413  00C6               	movwf	printf@fmt^(0+128)
  4151  0414  3090               	movlw	high (STR_5| (0+32768))
  4152  0415  00C7               	movwf	(printf@fmt^(0+128)+1)
  4153  0416  318D  2545  3183   	fcall	_printf
  4154                           
  4155                           ;main.c: 123:                 break;
  4156  0419  2C2D               	goto	l6206
  4157  041A                     l6198:
  4158                           
  4159                           ;main.c: 126:                 if (EUSART1_is_rx_ready()) {
  4160  041A  318C  24B0  3183   	fcall	_EUSART1_is_rx_ready
  4161  041D  3A00               	xorlw	0
  4162  041E  1903               	skipnz
  4163  041F  2C21               	goto	u4401
  4164  0420  2C22               	goto	u4400
  4165  0421                     u4401:
  4166  0421  2C2D               	goto	l6206
  4167  0422                     u4400:
  4168  0422                     l6200:
  4169                           
  4170                           ;main.c: 127:                     if (EUSART1_Read() == 'T')
  4171  0422  318F  27A9  3183   	fcall	_EUSART1_Read
  4172  0425  3A54               	xorlw	84
  4173  0426  1D03               	skipz
  4174  0427  2C29               	goto	u4411
  4175  0428  2C2A               	goto	u4410
  4176  0429                     u4411:
  4177  0429  2C2D               	goto	l1058
  4178  042A                     u4410:
  4179  042A                     l6202:
  4180                           
  4181                           ;main.c: 128:                         DoNext = 0;
  4182  042A  0141               	movlb	1	; select bank1
  4183  042B  01E0               	clrf	main@DoNext^(0+128)
  4184  042C  2C2D               	goto	l6206
  4185  042D                     l1058:
  4186  042D                     l6206:
  4187  042D  0141               	movlb	1	; select bank1
  4188  042E  0860               	movf	main@DoNext^(0+128),w
  4189  042F  00DD               	movwf	??_main^(0+128)
  4190  0430  01DE               	clrf	(??_main^(0+128)+1)
  4191                           
  4192                           ; Switch on 2 bytes has been partitioned into a top level switch of size 1, and 1 sub-sw
      +                          itches
  4193                           ; Switch size 1, requested type "simple"
  4194                           ; Number of cases is 1, Range of values is 0 to 0
  4195                           ; switch strategies available:
  4196                           ; Name         Instructions Cycles
  4197                           ; simple_byte            4     3 (average)
  4198                           ; direct_byte            8     6 (fixed)
  4199                           ; jumptable            260     6 (fixed)
  4200                           ;	Chosen strategy is simple_byte
  4201  0431  085E               	movf	(??_main+1)^(0+128),w
  4202  0432  3A00               	xorlw	0	; case 0
  4203  0433  1903               	skipnz
  4204  0434  2C36               	goto	l6294
  4205  0435  2C1A               	goto	l6198
  4206  0436                     l6294:
  4207                           
  4208                           ; Switch size 1, requested type "simple"
  4209                           ; Number of cases is 1, Range of values is 0 to 0
  4210                           ; switch strategies available:
  4211                           ; Name         Instructions Cycles
  4212                           ; simple_byte            4     3 (average)
  4213                           ; direct_byte            8     6 (fixed)
  4214                           ; jumptable            260     6 (fixed)
  4215                           ;	Chosen strategy is simple_byte
  4216  0436  085D               	movf	??_main^(0+128),w
  4217  0437  3A00               	xorlw	0	; case 0
  4218  0438  1903               	skipnz
  4219  0439  2BA5               	goto	l6176
  4220  043A  2C1A               	goto	l6198
  4221  043B  3180  282B         	ljmp	start
  4222  043D                     __end_of_main:
  4223                           
  4224                           	psect	text1
  4225  0CD9                     __ptext1:	
  4226 ;; *************** function _SYSTEM_Initialize *****************
  4227 ;; Defined at:
  4228 ;;		line 49 in file "mcc_generated_files/mcc.c"
  4229 ;; Parameters:    Size  Location     Type
  4230 ;;		None
  4231 ;; Auto vars:     Size  Location     Type
  4232 ;;		None
  4233 ;; Return value:  Size  Location     Type
  4234 ;;                  1    wreg      void 
  4235 ;; Registers used:
  4236 ;;		wreg, status,2, status,0, pclath, cstack
  4237 ;; Tracked objects:
  4238 ;;		On entry : 0/0
  4239 ;;		On exit  : 0/0
  4240 ;;		Unchanged: 0/0
  4241 ;; Data sizes:     COMMON   BANK0   BANK1   BANK2   BANK3   BANK4   BANK5   BANK6   BANK7   BANK8   BANK9  BANK10  BANK1
      +1  BANK12  BANK13  BANK14  BANK15  BANK16  BANK17  BANK18  BANK19  BANK20  BANK21  BANK22  BANK23  BANK24  BANK25
  4242 ;;      Params:         0       0       0       0       0       0       0       0       0       0       0       0       
      +0       0       0       0       0       0       0       0       0       0       0       0       0       0       0
  4243 ;;      Locals:         0       0       0       0       0       0       0       0       0       0       0       0       
      +0       0       0       0       0       0       0       0       0       0       0       0       0       0       0
  4244 ;;      Temps:          0       0       0       0       0       0       0       0       0       0       0       0       
      +0       0       0       0       0       0       0       0       0       0       0       0       0       0       0
  4245 ;;      Totals:         0       0       0       0       0       0       0       0       0       0       0       0       
      +0       0       0       0       0       0       0       0       0       0       0       0       0       0       0
  4246 ;;Total ram usage:        0 bytes
  4247 ;; Hardware stack levels used: 1
  4248 ;; Hardware stack levels required when called: 6
  4249 ;; This function calls:
  4250 ;;		_EUSART1_Initialize
  4251 ;;		_OSCILLATOR_Initialize
  4252 ;;		_PIN_MANAGER_Initialize
  4253 ;;		_PMD_Initialize
  4254 ;; This function is called by:
  4255 ;;		_main
  4256 ;; This function uses a non-reentrant model
  4257 ;;
  4258                           
  4259                           
  4260                           ;psect for function _SYSTEM_Initialize
  4261  0CD9                     _SYSTEM_Initialize:
  4262  0CD9                     l5948:	
  4263                           ;incstack = 0
  4264                           ; Regs used in _SYSTEM_Initialize: [wreg+status,2+status,0+pclath+cstack]
  4265                           
  4266                           
  4267                           ;mcc_generated_files/mcc.c: 50:     PMD_Initialize();
  4268  0CD9  318C  24A8  318C   	fcall	_PMD_Initialize
  4269  0CDC                     l5950:
  4270                           
  4271                           ;mcc_generated_files/mcc.c: 54:     PIN_MANAGER_Initialize();
  4272  0CDC  3185  25D9  318C   	fcall	_PIN_MANAGER_Initialize
  4273  0CDF                     l5952:
  4274                           
  4275                           ;mcc_generated_files/mcc.c: 55:     OSCILLATOR_Initialize();
  4276  0CDF  318C  24C2  318C   	fcall	_OSCILLATOR_Initialize
  4277  0CE2                     l5954:
  4278                           
  4279                           ;mcc_generated_files/mcc.c: 56:     EUSART1_Initialize();
  4280  0CE2  3186  261B  318C   	fcall	_EUSART1_Initialize
  4281  0CE5                     l818:
  4282  0CE5  0008               	return
  4283  0CE6                     __end_of_SYSTEM_Initialize:
  4284                           
  4285                           	psect	text2
  4286  0CA8                     __ptext2:	
  4287 ;; *************** function _PMD_Initialize *****************
  4288 ;; Defined at:
  4289 ;;		line 74 in file "mcc_generated_files/mcc.c"
  4290 ;; Parameters:    Size  Location     Type
  4291 ;;		None
  4292 ;; Auto vars:     Size  Location     Type
  4293 ;;		None
  4294 ;; Return value:  Size  Location     Type
  4295 ;;                  1    wreg      void 
  4296 ;; Registers used:
  4297 ;;		status,2
  4298 ;; Tracked objects:
  4299 ;;		On entry : 0/0
  4300 ;;		On exit  : 0/0
  4301 ;;		Unchanged: 0/0
  4302 ;; Data sizes:     COMMON   BANK0   BANK1   BANK2   BANK3   BANK4   BANK5   BANK6   BANK7   BANK8   BANK9  BANK10  BANK1
      +1  BANK12  BANK13  BANK14  BANK15  BANK16  BANK17  BANK18  BANK19  BANK20  BANK21  BANK22  BANK23  BANK24  BANK25
  4303 ;;      Params:         0       0       0       0       0       0       0       0       0       0       0       0       
      +0       0       0       0       0       0       0       0       0       0       0       0       0       0       0
  4304 ;;      Locals:         0       0       0       0       0       0       0       0       0       0       0       0       
      +0       0       0       0       0       0       0       0       0       0       0       0       0       0       0
  4305 ;;      Temps:          0       0       0       0       0       0       0       0       0       0       0       0       
      +0       0       0       0       0       0       0       0       0       0       0       0       0       0       0
  4306 ;;      Totals:         0       0       0       0       0       0       0       0       0       0       0       0       
      +0       0       0       0       0       0       0       0       0       0       0       0       0       0       0
  4307 ;;Total ram usage:        0 bytes
  4308 ;; Hardware stack levels used: 1
  4309 ;; Hardware stack levels required when called: 4
  4310 ;; This function calls:
  4311 ;;		Nothing
  4312 ;; This function is called by:
  4313 ;;		_SYSTEM_Initialize
  4314 ;; This function uses a non-reentrant model
  4315 ;;
  4316                           
  4317                           
  4318                           ;psect for function _PMD_Initialize
  4319  0CA8                     _PMD_Initialize:
  4320  0CA8                     l5860:	
  4321                           ;incstack = 0
  4322                           ; Regs used in _PMD_Initialize: [status,2]
  4323                           
  4324                           
  4325                           ;mcc_generated_files/mcc.c: 76:     PMD0 = 0x00;
  4326  0CA8  014F               	movlb	15	; select bank15
  4327  0CA9  0196               	clrf	22	;volatile
  4328                           
  4329                           ;mcc_generated_files/mcc.c: 78:     PMD1 = 0x00;
  4330  0CAA  0197               	clrf	23	;volatile
  4331                           
  4332                           ;mcc_generated_files/mcc.c: 80:     PMD2 = 0x00;
  4333  0CAB  0198               	clrf	24	;volatile
  4334                           
  4335                           ;mcc_generated_files/mcc.c: 82:     PMD3 = 0x00;
  4336  0CAC  0199               	clrf	25	;volatile
  4337                           
  4338                           ;mcc_generated_files/mcc.c: 84:     PMD4 = 0x00;
  4339  0CAD  019A               	clrf	26	;volatile
  4340                           
  4341                           ;mcc_generated_files/mcc.c: 86:     PMD5 = 0x00;
  4342  0CAE  019B               	clrf	27	;volatile
  4343  0CAF                     l824:
  4344  0CAF  0008               	return
  4345  0CB0                     __end_of_PMD_Initialize:
  4346                           
  4347                           	psect	text3
  4348  05D9                     __ptext3:	
  4349 ;; *************** function _PIN_MANAGER_Initialize *****************
  4350 ;; Defined at:
  4351 ;;		line 51 in file "mcc_generated_files/pin_manager.c"
  4352 ;; Parameters:    Size  Location     Type
  4353 ;;		None
  4354 ;; Auto vars:     Size  Location     Type
  4355 ;;		None
  4356 ;; Return value:  Size  Location     Type
  4357 ;;                  1    wreg      void 
  4358 ;; Registers used:
  4359 ;;		wreg, status,2
  4360 ;; Tracked objects:
  4361 ;;		On entry : 0/0
  4362 ;;		On exit  : 0/0
  4363 ;;		Unchanged: 0/0
  4364 ;; Data sizes:     COMMON   BANK0   BANK1   BANK2   BANK3   BANK4   BANK5   BANK6   BANK7   BANK8   BANK9  BANK10  BANK1
      +1  BANK12  BANK13  BANK14  BANK15  BANK16  BANK17  BANK18  BANK19  BANK20  BANK21  BANK22  BANK23  BANK24  BANK25
  4365 ;;      Params:         0       0       0       0       0       0       0       0       0       0       0       0       
      +0       0       0       0       0       0       0       0       0       0       0       0       0       0       0
  4366 ;;      Locals:         0       0       0       0       0       0       0       0       0       0       0       0       
      +0       0       0       0       0       0       0       0       0       0       0       0       0       0       0
  4367 ;;      Temps:          0       0       0       0       0       0       0       0       0       0       0       0       
      +0       0       0       0       0       0       0       0       0       0       0       0       0       0       0
  4368 ;;      Totals:         0       0       0       0       0       0       0       0       0       0       0       0       
      +0       0       0       0       0       0       0       0       0       0       0       0       0       0       0
  4369 ;;Total ram usage:        0 bytes
  4370 ;; Hardware stack levels used: 1
  4371 ;; Hardware stack levels required when called: 4
  4372 ;; This function calls:
  4373 ;;		Nothing
  4374 ;; This function is called by:
  4375 ;;		_SYSTEM_Initialize
  4376 ;; This function uses a non-reentrant model
  4377 ;;
  4378                           
  4379                           
  4380                           ;psect for function _PIN_MANAGER_Initialize
  4381  05D9                     _PIN_MANAGER_Initialize:
  4382  05D9                     l5822:	
  4383                           ;incstack = 0
  4384                           ; Regs used in _PIN_MANAGER_Initialize: [wreg+status,2]
  4385                           
  4386                           
  4387                           ;mcc_generated_files/pin_manager.c: 55:     LATE = 0x00;
  4388  05D9  0140               	movlb	0	; select bank0
  4389  05DA  019C               	clrf	28	;volatile
  4390                           
  4391                           ;mcc_generated_files/pin_manager.c: 56:     LATD = 0x00;
  4392  05DB  019B               	clrf	27	;volatile
  4393                           
  4394                           ;mcc_generated_files/pin_manager.c: 57:     LATA = 0x00;
  4395  05DC  0198               	clrf	24	;volatile
  4396  05DD                     l5824:
  4397                           
  4398                           ;mcc_generated_files/pin_manager.c: 58:     LATB = 0x01;
  4399  05DD  3001               	movlw	1
  4400  05DE  0099               	movwf	25	;volatile
  4401  05DF                     l5826:
  4402                           
  4403                           ;mcc_generated_files/pin_manager.c: 59:     LATC = 0x54;
  4404  05DF  3054               	movlw	84
  4405  05E0  009A               	movwf	26	;volatile
  4406  05E1                     l5828:
  4407                           
  4408                           ;mcc_generated_files/pin_manager.c: 64:     TRISE = 0x0F;
  4409  05E1  300F               	movlw	15
  4410  05E2  0096               	movwf	22	;volatile
  4411  05E3                     l5830:
  4412                           
  4413                           ;mcc_generated_files/pin_manager.c: 65:     TRISA = 0xFF;
  4414  05E3  30FF               	movlw	255
  4415  05E4  0092               	movwf	18	;volatile
  4416  05E5                     l5832:
  4417                           
  4418                           ;mcc_generated_files/pin_manager.c: 66:     TRISB = 0xF8;
  4419  05E5  30F8               	movlw	248
  4420  05E6  0093               	movwf	19	;volatile
  4421  05E7                     l5834:
  4422                           
  4423                           ;mcc_generated_files/pin_manager.c: 67:     TRISC = 0xFB;
  4424  05E7  30FB               	movlw	251
  4425  05E8  0094               	movwf	20	;volatile
  4426  05E9                     l5836:
  4427                           
  4428                           ;mcc_generated_files/pin_manager.c: 68:     TRISD = 0x7F;
  4429  05E9  307F               	movlw	127
  4430  05EA  0095               	movwf	21	;volatile
  4431  05EB                     l5838:
  4432                           
  4433                           ;mcc_generated_files/pin_manager.c: 73:     ANSELD = 0x7F;
  4434  05EB  307F               	movlw	127
  4435  05EC  017E               	movlb	62	; select bank62
  4436  05ED  00D9               	movwf	89	;volatile
  4437  05EE                     l5840:
  4438                           
  4439                           ;mcc_generated_files/pin_manager.c: 74:     ANSELC = 0xA9;
  4440  05EE  30A9               	movlw	169
  4441  05EF  00CE               	movwf	78	;volatile
  4442  05F0                     l5842:
  4443                           
  4444                           ;mcc_generated_files/pin_manager.c: 75:     ANSELB = 0xF8;
  4445  05F0  30F8               	movlw	248
  4446  05F1  00C3               	movwf	67	;volatile
  4447  05F2                     l5844:
  4448                           
  4449                           ;mcc_generated_files/pin_manager.c: 76:     ANSELE = 0x07;
  4450  05F2  3007               	movlw	7
  4451  05F3  00E4               	movwf	100	;volatile
  4452  05F4                     l5846:
  4453                           
  4454                           ;mcc_generated_files/pin_manager.c: 77:     ANSELA = 0xFF;
  4455  05F4  30FF               	movlw	255
  4456  05F5  00B8               	movwf	56	;volatile
  4457                           
  4458                           ;mcc_generated_files/pin_manager.c: 82:     WPUD = 0x00;
  4459  05F6  01DA               	clrf	90	;volatile
  4460                           
  4461                           ;mcc_generated_files/pin_manager.c: 83:     WPUE = 0x00;
  4462  05F7  01E5               	clrf	101	;volatile
  4463                           
  4464                           ;mcc_generated_files/pin_manager.c: 84:     WPUB = 0x00;
  4465  05F8  01C4               	clrf	68	;volatile
  4466                           
  4467                           ;mcc_generated_files/pin_manager.c: 85:     WPUA = 0x00;
  4468  05F9  01B9               	clrf	57	;volatile
  4469  05FA                     l5848:
  4470                           
  4471                           ;mcc_generated_files/pin_manager.c: 86:     WPUC = 0x50;
  4472  05FA  3050               	movlw	80
  4473  05FB  00CF               	movwf	79	;volatile
  4474  05FC                     l5850:
  4475                           
  4476                           ;mcc_generated_files/pin_manager.c: 91:     ODCONE = 0x00;
  4477  05FC  01E6               	clrf	102	;volatile
  4478  05FD                     l5852:
  4479                           
  4480                           ;mcc_generated_files/pin_manager.c: 92:     ODCONA = 0x00;
  4481  05FD  01BA               	clrf	58	;volatile
  4482  05FE                     l5854:
  4483                           
  4484                           ;mcc_generated_files/pin_manager.c: 93:     ODCONB = 0x00;
  4485  05FE  01C5               	clrf	69	;volatile
  4486  05FF                     l5856:
  4487                           
  4488                           ;mcc_generated_files/pin_manager.c: 94:     ODCONC = 0x00;
  4489  05FF  01D0               	clrf	80	;volatile
  4490  0600                     l5858:
  4491                           
  4492                           ;mcc_generated_files/pin_manager.c: 95:     ODCOND = 0x00;
  4493  0600  01DB               	clrf	91	;volatile
  4494                           
  4495                           ;mcc_generated_files/pin_manager.c: 100:     SLRCONA = 0xFF;
  4496  0601  30FF               	movlw	255
  4497  0602  00BB               	movwf	59	;volatile
  4498                           
  4499                           ;mcc_generated_files/pin_manager.c: 101:     SLRCONB = 0xFF;
  4500  0603  30FF               	movlw	255
  4501  0604  00C6               	movwf	70	;volatile
  4502                           
  4503                           ;mcc_generated_files/pin_manager.c: 102:     SLRCONC = 0xFF;
  4504  0605  30FF               	movlw	255
  4505  0606  00D1               	movwf	81	;volatile
  4506                           
  4507                           ;mcc_generated_files/pin_manager.c: 103:     SLRCOND = 0xFF;
  4508  0607  30FF               	movlw	255
  4509  0608  00DC               	movwf	92	;volatile
  4510                           
  4511                           ;mcc_generated_files/pin_manager.c: 104:     SLRCONE = 0x07;
  4512  0609  3007               	movlw	7
  4513  060A  00E7               	movwf	103	;volatile
  4514                           
  4515                           ;mcc_generated_files/pin_manager.c: 109:     INLVLA = 0xFF;
  4516  060B  30FF               	movlw	255
  4517  060C  00BC               	movwf	60	;volatile
  4518                           
  4519                           ;mcc_generated_files/pin_manager.c: 110:     INLVLB = 0xFF;
  4520  060D  30FF               	movlw	255
  4521  060E  00C7               	movwf	71	;volatile
  4522                           
  4523                           ;mcc_generated_files/pin_manager.c: 111:     INLVLC = 0xFF;
  4524  060F  30FF               	movlw	255
  4525  0610  00D2               	movwf	82	;volatile
  4526                           
  4527                           ;mcc_generated_files/pin_manager.c: 112:     INLVLD = 0xFF;
  4528  0611  30FF               	movlw	255
  4529  0612  00DD               	movwf	93	;volatile
  4530                           
  4531                           ;mcc_generated_files/pin_manager.c: 113:     INLVLE = 0x0F;
  4532  0613  300F               	movlw	15
  4533  0614  00E8               	movwf	104	;volatile
  4534                           
  4535                           ;mcc_generated_files/pin_manager.c: 127:     RC2PPS = 0x0F;
  4536  0615  300F               	movlw	15
  4537  0616  00A2               	movwf	34	;volatile
  4538                           
  4539                           ;mcc_generated_files/pin_manager.c: 129:     RX1DTPPS = 0x11;
  4540  0617  3011               	movlw	17
  4541  0618  017D               	movlb	61	; select bank61
  4542  0619  00CB               	movwf	75	;volatile
  4543  061A                     l780:
  4544  061A  0008               	return
  4545  061B                     __end_of_PIN_MANAGER_Initialize:
  4546                           
  4547                           	psect	text4
  4548  0CC2                     __ptext4:	
  4549 ;; *************** function _OSCILLATOR_Initialize *****************
  4550 ;; Defined at:
  4551 ;;		line 59 in file "mcc_generated_files/mcc.c"
  4552 ;; Parameters:    Size  Location     Type
  4553 ;;		None
  4554 ;; Auto vars:     Size  Location     Type
  4555 ;;		None
  4556 ;; Return value:  Size  Location     Type
  4557 ;;                  1    wreg      void 
  4558 ;; Registers used:
  4559 ;;		wreg, status,2
  4560 ;; Tracked objects:
  4561 ;;		On entry : 0/0
  4562 ;;		On exit  : 0/0
  4563 ;;		Unchanged: 0/0
  4564 ;; Data sizes:     COMMON   BANK0   BANK1   BANK2   BANK3   BANK4   BANK5   BANK6   BANK7   BANK8   BANK9  BANK10  BANK1
      +1  BANK12  BANK13  BANK14  BANK15  BANK16  BANK17  BANK18  BANK19  BANK20  BANK21  BANK22  BANK23  BANK24  BANK25
  4565 ;;      Params:         0       0       0       0       0       0       0       0       0       0       0       0       
      +0       0       0       0       0       0       0       0       0       0       0       0       0       0       0
  4566 ;;      Locals:         0       0       0       0       0       0       0       0       0       0       0       0       
      +0       0       0       0       0       0       0       0       0       0       0       0       0       0       0
  4567 ;;      Temps:          0       0       0       0       0       0       0       0       0       0       0       0       
      +0       0       0       0       0       0       0       0       0       0       0       0       0       0       0
  4568 ;;      Totals:         0       0       0       0       0       0       0       0       0       0       0       0       
      +0       0       0       0       0       0       0       0       0       0       0       0       0       0       0
  4569 ;;Total ram usage:        0 bytes
  4570 ;; Hardware stack levels used: 1
  4571 ;; Hardware stack levels required when called: 4
  4572 ;; This function calls:
  4573 ;;		Nothing
  4574 ;; This function is called by:
  4575 ;;		_SYSTEM_Initialize
  4576 ;; This function uses a non-reentrant model
  4577 ;;
  4578                           
  4579                           
  4580                           ;psect for function _OSCILLATOR_Initialize
  4581  0CC2                     _OSCILLATOR_Initialize:
  4582  0CC2                     l5862:	
  4583                           ;incstack = 0
  4584                           ; Regs used in _OSCILLATOR_Initialize: [wreg+status,2]
  4585                           
  4586                           
  4587                           ;mcc_generated_files/mcc.c: 61:     OSCCON1 = 0x60;
  4588  0CC2  3060               	movlw	96
  4589  0CC3  0151               	movlb	17	; select bank17
  4590  0CC4  008D               	movwf	13	;volatile
  4591  0CC5                     l5864:
  4592                           
  4593                           ;mcc_generated_files/mcc.c: 63:     OSCCON3 = 0x00;
  4594  0CC5  018F               	clrf	15	;volatile
  4595  0CC6                     l5866:
  4596                           
  4597                           ;mcc_generated_files/mcc.c: 65:     OSCEN = 0x00;
  4598  0CC6  0191               	clrf	17	;volatile
  4599                           
  4600                           ;mcc_generated_files/mcc.c: 67:     OSCFRQ = 0x06;
  4601  0CC7  3006               	movlw	6
  4602  0CC8  0093               	movwf	19	;volatile
  4603  0CC9                     l5868:
  4604                           
  4605                           ;mcc_generated_files/mcc.c: 69:     OSCSTAT = 0x00;
  4606  0CC9  0190               	clrf	16	;volatile
  4607  0CCA                     l5870:
  4608                           
  4609                           ;mcc_generated_files/mcc.c: 71:     OSCTUNE = 0x00;
  4610  0CCA  0192               	clrf	18	;volatile
  4611  0CCB                     l821:
  4612  0CCB  0008               	return
  4613  0CCC                     __end_of_OSCILLATOR_Initialize:
  4614                           
  4615                           	psect	text5
  4616  061B                     __ptext5:	
  4617 ;; *************** function _EUSART1_Initialize *****************
  4618 ;; Defined at:
  4619 ;;		line 88 in file "mcc_generated_files/eusart1.c"
  4620 ;; Parameters:    Size  Location     Type
  4621 ;;		None
  4622 ;; Auto vars:     Size  Location     Type
  4623 ;;		None
  4624 ;; Return value:  Size  Location     Type
  4625 ;;                  1    wreg      void 
  4626 ;; Registers used:
  4627 ;;		wreg, status,2, status,0, pclath, cstack
  4628 ;; Tracked objects:
  4629 ;;		On entry : 0/0
  4630 ;;		On exit  : 0/0
  4631 ;;		Unchanged: 0/0
  4632 ;; Data sizes:     COMMON   BANK0   BANK1   BANK2   BANK3   BANK4   BANK5   BANK6   BANK7   BANK8   BANK9  BANK10  BANK1
      +1  BANK12  BANK13  BANK14  BANK15  BANK16  BANK17  BANK18  BANK19  BANK20  BANK21  BANK22  BANK23  BANK24  BANK25
  4633 ;;      Params:         0       0       0       0       0       0       0       0       0       0       0       0       
      +0       0       0       0       0       0       0       0       0       0       0       0       0       0       0
  4634 ;;      Locals:         0       0       0       0       0       0       0       0       0       0       0       0       
      +0       0       0       0       0       0       0       0       0       0       0       0       0       0       0
  4635 ;;      Temps:          1       0       0       0       0       0       0       0       0       0       0       0       
      +0       0       0       0       0       0       0       0       0       0       0       0       0       0       0
  4636 ;;      Totals:         1       0       0       0       0       0       0       0       0       0       0       0       
      +0       0       0       0       0       0       0       0       0       0       0       0       0       0       0
  4637 ;;Total ram usage:        1 bytes
  4638 ;; Hardware stack levels used: 1
  4639 ;; Hardware stack levels required when called: 5
  4640 ;; This function calls:
  4641 ;;		_EUSART1_SetErrorHandler
  4642 ;;		_EUSART1_SetFramingErrorHandler
  4643 ;;		_EUSART1_SetOverrunErrorHandler
  4644 ;;		_EUSART1_SetRxInterruptHandler
  4645 ;;		_EUSART1_SetTxInterruptHandler
  4646 ;; This function is called by:
  4647 ;;		_SYSTEM_Initialize
  4648 ;; This function uses a non-reentrant model
  4649 ;;
  4650                           
  4651                           
  4652                           ;psect for function _EUSART1_Initialize
  4653  061B                     _EUSART1_Initialize:
  4654  061B                     l5790:	
  4655                           ;incstack = 0
  4656                           ; Regs used in _EUSART1_Initialize: [wreg+status,2+status,0+pclath+cstack]
  4657                           
  4658                           
  4659                           ;mcc_generated_files/eusart1.c: 91:     PIE3bits.RC1IE = 0;
  4660  061B  014E               	movlb	14	; select bank14
  4661  061C  1299               	bcf	25,5	;volatile
  4662  061D                     l5792:
  4663                           
  4664                           ;mcc_generated_files/eusart1.c: 92:     EUSART1_SetRxInterruptHandler(EUSART1_Receive_IS
      +                          R);
  4665  061D  30D6               	movlw	low _EUSART1_Receive_ISR
  4666  061E  00F1               	movwf	EUSART1_SetRxInterruptHandler@interruptHandler
  4667  061F  3006               	movlw	high _EUSART1_Receive_ISR
  4668  0620  00F2               	movwf	EUSART1_SetRxInterruptHandler@interruptHandler+1
  4669  0621  318C  2490  3186   	fcall	_EUSART1_SetRxInterruptHandler
  4670  0624                     l5794:
  4671                           
  4672                           ;mcc_generated_files/eusart1.c: 93:     PIE3bits.TX1IE = 0;
  4673  0624  014E               	movlb	14	; select bank14
  4674  0625  1219               	bcf	25,4	;volatile
  4675                           
  4676                           ;mcc_generated_files/eusart1.c: 94:     EUSART1_SetTxInterruptHandler(EUSART1_Transmit_I
      +                          SR);
  4677  0626  30A8               	movlw	low _EUSART1_Transmit_ISR
  4678  0627  00F1               	movwf	EUSART1_SetTxInterruptHandler@interruptHandler
  4679  0628  300E               	movlw	high _EUSART1_Transmit_ISR
  4680  0629  00F2               	movwf	EUSART1_SetTxInterruptHandler@interruptHandler+1
  4681  062A  318C  2496  3186   	fcall	_EUSART1_SetTxInterruptHandler
  4682  062D                     l5796:
  4683                           
  4684                           ;mcc_generated_files/eusart1.c: 98:     BAUD1CON = 0x08;
  4685  062D  3008               	movlw	8
  4686  062E  0142               	movlb	2	; select bank2
  4687  062F  009F               	movwf	31	;volatile
  4688  0630                     l5798:
  4689                           
  4690                           ;mcc_generated_files/eusart1.c: 101:     RC1STA = 0x90;
  4691  0630  3090               	movlw	144
  4692  0631  009D               	movwf	29	;volatile
  4693  0632                     l5800:
  4694                           
  4695                           ;mcc_generated_files/eusart1.c: 104:     TX1STA = 0x24;
  4696  0632  3024               	movlw	36
  4697  0633  009E               	movwf	30	;volatile
  4698  0634                     l5802:
  4699                           
  4700                           ;mcc_generated_files/eusart1.c: 107:     SP1BRGL = 0x40;
  4701  0634  3040               	movlw	64
  4702  0635  009B               	movwf	27	;volatile
  4703  0636                     l5804:
  4704                           
  4705                           ;mcc_generated_files/eusart1.c: 110:     SP1BRGH = 0x03;
  4706  0636  3003               	movlw	3
  4707  0637  009C               	movwf	28	;volatile
  4708  0638                     l5806:
  4709                           
  4710                           ;mcc_generated_files/eusart1.c: 113:     EUSART1_SetFramingErrorHandler(EUSART1_DefaultF
      +                          ramingErrorHandler);
  4711  0638  3003               	movlw	low _EUSART1_DefaultFramingErrorHandler
  4712  0639  00F1               	movwf	EUSART1_SetFramingErrorHandler@interruptHandler
  4713  063A  3000               	movlw	high _EUSART1_DefaultFramingErrorHandler
  4714  063B  00F2               	movwf	EUSART1_SetFramingErrorHandler@interruptHandler+1
  4715  063C  318C  2484  3186   	fcall	_EUSART1_SetFramingErrorHandler
  4716  063F                     l5808:
  4717                           
  4718                           ;mcc_generated_files/eusart1.c: 114:     EUSART1_SetOverrunErrorHandler(EUSART1_DefaultO
      +                          verrunErrorHandler);
  4719  063F  3074               	movlw	low _EUSART1_DefaultOverrunErrorHandler
  4720  0640  00F1               	movwf	EUSART1_SetOverrunErrorHandler@interruptHandler
  4721  0641  300C               	movlw	high _EUSART1_DefaultOverrunErrorHandler
  4722  0642  00F2               	movwf	EUSART1_SetOverrunErrorHandler@interruptHandler+1
  4723  0643  318C  248A  3186   	fcall	_EUSART1_SetOverrunErrorHandler
  4724  0646                     l5810:
  4725                           
  4726                           ;mcc_generated_files/eusart1.c: 115:     EUSART1_SetErrorHandler(EUSART1_DefaultErrorHan
      +                          dler);
  4727  0646  3070               	movlw	low _EUSART1_DefaultErrorHandler
  4728  0647  00F1               	movwf	EUSART1_SetErrorHandler@interruptHandler
  4729  0648  300C               	movlw	high _EUSART1_DefaultErrorHandler
  4730  0649  00F2               	movwf	EUSART1_SetErrorHandler@interruptHandler+1
  4731  064A  318C  247E  3186   	fcall	_EUSART1_SetErrorHandler
  4732  064D                     l5812:
  4733                           
  4734                           ;mcc_generated_files/eusart1.c: 117:     eusart1RxLastError.status = 0;
  4735  064D  0141               	movlb	1	; select bank1
  4736  064E  01B8               	clrf	_eusart1RxLastError^(0+128)	;volatile
  4737  064F                     l5814:
  4738                           
  4739                           ;mcc_generated_files/eusart1.c: 120:     eusart1TxHead = 0;
  4740  064F  01BC               	clrf	_eusart1TxHead^(0+128)	;volatile
  4741  0650                     l5816:
  4742                           
  4743                           ;mcc_generated_files/eusart1.c: 121:     eusart1TxTail = 0;
  4744  0650  01BB               	clrf	_eusart1TxTail^(0+128)	;volatile
  4745  0651                     l5818:
  4746                           
  4747                           ;mcc_generated_files/eusart1.c: 122:     eusart1TxBufferRemaining = sizeof(eusart1TxBuff
      +                          er);
  4748  0651  3040               	movlw	64
  4749  0652  00F3               	movwf	??_EUSART1_Initialize
  4750  0653  0873               	movf	??_EUSART1_Initialize,w
  4751  0654  00EE               	movwf	_eusart1TxBufferRemaining^(0+128)	;volatile
  4752                           
  4753                           ;mcc_generated_files/eusart1.c: 124:     eusart1RxHead = 0;
  4754  0655  01FC               	clrf	_eusart1RxHead	;volatile
  4755                           
  4756                           ;mcc_generated_files/eusart1.c: 125:     eusart1RxTail = 0;
  4757  0656  01BA               	clrf	_eusart1RxTail^(0+128)	;volatile
  4758                           
  4759                           ;mcc_generated_files/eusart1.c: 126:     eusart1RxCount = 0;
  4760  0657  01B9               	clrf	_eusart1RxCount^(0+128)	;volatile
  4761  0658                     l5820:
  4762                           
  4763                           ;mcc_generated_files/eusart1.c: 129:     PIE3bits.RC1IE = 1;
  4764  0658  014E               	movlb	14	; select bank14
  4765  0659  1699               	bsf	25,5	;volatile
  4766  065A                     l607:
  4767  065A  0008               	return
  4768  065B                     __end_of_EUSART1_Initialize:
  4769                           
  4770                           	psect	text6
  4771  0C96                     __ptext6:	
  4772 ;; *************** function _EUSART1_SetTxInterruptHandler *****************
  4773 ;; Defined at:
  4774 ;;		line 285 in file "mcc_generated_files/eusart1.c"
  4775 ;; Parameters:    Size  Location     Type
  4776 ;;  interruptHan    2    1[COMMON] PTR FTN()void 
  4777 ;;		 -> EUSART1_Transmit_ISR(1), 
  4778 ;; Auto vars:     Size  Location     Type
  4779 ;;		None
  4780 ;; Return value:  Size  Location     Type
  4781 ;;                  1    wreg      void 
  4782 ;; Registers used:
  4783 ;;		wreg
  4784 ;; Tracked objects:
  4785 ;;		On entry : 0/0
  4786 ;;		On exit  : 0/0
  4787 ;;		Unchanged: 0/0
  4788 ;; Data sizes:     COMMON   BANK0   BANK1   BANK2   BANK3   BANK4   BANK5   BANK6   BANK7   BANK8   BANK9  BANK10  BANK1
      +1  BANK12  BANK13  BANK14  BANK15  BANK16  BANK17  BANK18  BANK19  BANK20  BANK21  BANK22  BANK23  BANK24  BANK25
  4789 ;;      Params:         2       0       0       0       0       0       0       0       0       0       0       0       
      +0       0       0       0       0       0       0       0       0       0       0       0       0       0       0
  4790 ;;      Locals:         0       0       0       0       0       0       0       0       0       0       0       0       
      +0       0       0       0       0       0       0       0       0       0       0       0       0       0       0
  4791 ;;      Temps:          0       0       0       0       0       0       0       0       0       0       0       0       
      +0       0       0       0       0       0       0       0       0       0       0       0       0       0       0
  4792 ;;      Totals:         2       0       0       0       0       0       0       0       0       0       0       0       
      +0       0       0       0       0       0       0       0       0       0       0       0       0       0       0
  4793 ;;Total ram usage:        2 bytes
  4794 ;; Hardware stack levels used: 1
  4795 ;; Hardware stack levels required when called: 4
  4796 ;; This function calls:
  4797 ;;		Nothing
  4798 ;; This function is called by:
  4799 ;;		_EUSART1_Initialize
  4800 ;; This function uses a non-reentrant model
  4801 ;;
  4802                           
  4803                           
  4804                           ;psect for function _EUSART1_SetTxInterruptHandler
  4805  0C96                     _EUSART1_SetTxInterruptHandler:
  4806  0C96                     l5714:	
  4807                           ;incstack = 0
  4808                           ; Regs used in _EUSART1_SetTxInterruptHandler: [wreg]
  4809                           
  4810                           
  4811                           ;mcc_generated_files/eusart1.c: 286:     EUSART1_TxDefaultInterruptHandler = interruptHa
      +                          ndler;
  4812  0C96  0872               	movf	EUSART1_SetTxInterruptHandler@interruptHandler+1,w
  4813  0C97  0141               	movlb	1	; select bank1
  4814  0C98  00ED               	movwf	(_EUSART1_TxDefaultInterruptHandler+1)^(0+128)
  4815  0C99  0871               	movf	EUSART1_SetTxInterruptHandler@interruptHandler,w
  4816  0C9A  00EC               	movwf	_EUSART1_TxDefaultInterruptHandler^(0+128)
  4817  0C9B                     l679:
  4818  0C9B  0008               	return
  4819  0C9C                     __end_of_EUSART1_SetTxInterruptHandler:
  4820                           
  4821                           	psect	text7
  4822  0C90                     __ptext7:	
  4823 ;; *************** function _EUSART1_SetRxInterruptHandler *****************
  4824 ;; Defined at:
  4825 ;;		line 289 in file "mcc_generated_files/eusart1.c"
  4826 ;; Parameters:    Size  Location     Type
  4827 ;;  interruptHan    2    1[COMMON] PTR FTN()void 
  4828 ;;		 -> EUSART1_Receive_ISR(1), 
  4829 ;; Auto vars:     Size  Location     Type
  4830 ;;		None
  4831 ;; Return value:  Size  Location     Type
  4832 ;;                  1    wreg      void 
  4833 ;; Registers used:
  4834 ;;		wreg
  4835 ;; Tracked objects:
  4836 ;;		On entry : 0/0
  4837 ;;		On exit  : 0/0
  4838 ;;		Unchanged: 0/0
  4839 ;; Data sizes:     COMMON   BANK0   BANK1   BANK2   BANK3   BANK4   BANK5   BANK6   BANK7   BANK8   BANK9  BANK10  BANK1
      +1  BANK12  BANK13  BANK14  BANK15  BANK16  BANK17  BANK18  BANK19  BANK20  BANK21  BANK22  BANK23  BANK24  BANK25
  4840 ;;      Params:         2       0       0       0       0       0       0       0       0       0       0       0       
      +0       0       0       0       0       0       0       0       0       0       0       0       0       0       0
  4841 ;;      Locals:         0       0       0       0       0       0       0       0       0       0       0       0       
      +0       0       0       0       0       0       0       0       0       0       0       0       0       0       0
  4842 ;;      Temps:          0       0       0       0       0       0       0       0       0       0       0       0       
      +0       0       0       0       0       0       0       0       0       0       0       0       0       0       0
  4843 ;;      Totals:         2       0       0       0       0       0       0       0       0       0       0       0       
      +0       0       0       0       0       0       0       0       0       0       0       0       0       0       0
  4844 ;;Total ram usage:        2 bytes
  4845 ;; Hardware stack levels used: 1
  4846 ;; Hardware stack levels required when called: 4
  4847 ;; This function calls:
  4848 ;;		Nothing
  4849 ;; This function is called by:
  4850 ;;		_EUSART1_Initialize
  4851 ;; This function uses a non-reentrant model
  4852 ;;
  4853                           
  4854                           
  4855                           ;psect for function _EUSART1_SetRxInterruptHandler
  4856  0C90                     _EUSART1_SetRxInterruptHandler:
  4857  0C90                     l5712:	
  4858                           ;incstack = 0
  4859                           ; Regs used in _EUSART1_SetRxInterruptHandler: [wreg]
  4860                           
  4861                           
  4862                           ;mcc_generated_files/eusart1.c: 290:     EUSART1_RxDefaultInterruptHandler = interruptHa
      +                          ndler;
  4863  0C90  0872               	movf	EUSART1_SetRxInterruptHandler@interruptHandler+1,w
  4864  0C91  0141               	movlb	1	; select bank1
  4865  0C92  00EB               	movwf	(_EUSART1_RxDefaultInterruptHandler+1)^(0+128)
  4866  0C93  0871               	movf	EUSART1_SetRxInterruptHandler@interruptHandler,w
  4867  0C94  00EA               	movwf	_EUSART1_RxDefaultInterruptHandler^(0+128)
  4868  0C95                     l682:
  4869  0C95  0008               	return
  4870  0C96                     __end_of_EUSART1_SetRxInterruptHandler:
  4871                           
  4872                           	psect	text8
  4873  0C8A                     __ptext8:	
  4874 ;; *************** function _EUSART1_SetOverrunErrorHandler *****************
  4875 ;; Defined at:
  4876 ;;		line 277 in file "mcc_generated_files/eusart1.c"
  4877 ;; Parameters:    Size  Location     Type
  4878 ;;  interruptHan    2    1[COMMON] PTR FTN()void 
  4879 ;;		 -> EUSART1_DefaultOverrunErrorHandler(1), 
  4880 ;; Auto vars:     Size  Location     Type
  4881 ;;		None
  4882 ;; Return value:  Size  Location     Type
  4883 ;;                  1    wreg      void 
  4884 ;; Registers used:
  4885 ;;		wreg
  4886 ;; Tracked objects:
  4887 ;;		On entry : 0/0
  4888 ;;		On exit  : 0/0
  4889 ;;		Unchanged: 0/0
  4890 ;; Data sizes:     COMMON   BANK0   BANK1   BANK2   BANK3   BANK4   BANK5   BANK6   BANK7   BANK8   BANK9  BANK10  BANK1
      +1  BANK12  BANK13  BANK14  BANK15  BANK16  BANK17  BANK18  BANK19  BANK20  BANK21  BANK22  BANK23  BANK24  BANK25
  4891 ;;      Params:         2       0       0       0       0       0       0       0       0       0       0       0       
      +0       0       0       0       0       0       0       0       0       0       0       0       0       0       0
  4892 ;;      Locals:         0       0       0       0       0       0       0       0       0       0       0       0       
      +0       0       0       0       0       0       0       0       0       0       0       0       0       0       0
  4893 ;;      Temps:          0       0       0       0       0       0       0       0       0       0       0       0       
      +0       0       0       0       0       0       0       0       0       0       0       0       0       0       0
  4894 ;;      Totals:         2       0       0       0       0       0       0       0       0       0       0       0       
      +0       0       0       0       0       0       0       0       0       0       0       0       0       0       0
  4895 ;;Total ram usage:        2 bytes
  4896 ;; Hardware stack levels used: 1
  4897 ;; Hardware stack levels required when called: 4
  4898 ;; This function calls:
  4899 ;;		Nothing
  4900 ;; This function is called by:
  4901 ;;		_EUSART1_Initialize
  4902 ;; This function uses a non-reentrant model
  4903 ;;
  4904                           
  4905                           
  4906                           ;psect for function _EUSART1_SetOverrunErrorHandler
  4907  0C8A                     _EUSART1_SetOverrunErrorHandler:
  4908  0C8A                     l5718:	
  4909                           ;incstack = 0
  4910                           ; Regs used in _EUSART1_SetOverrunErrorHandler: [wreg]
  4911                           
  4912                           
  4913                           ;mcc_generated_files/eusart1.c: 278:     EUSART1_OverrunErrorHandler = interruptHandler;
  4914  0C8A  0872               	movf	EUSART1_SetOverrunErrorHandler@interruptHandler+1,w
  4915  0C8B  0142               	movlb	2	; select bank2
  4916  0C8C  00E5               	movwf	(_EUSART1_OverrunErrorHandler+1)^(0+256)
  4917  0C8D  0871               	movf	EUSART1_SetOverrunErrorHandler@interruptHandler,w
  4918  0C8E  00E4               	movwf	_EUSART1_OverrunErrorHandler^(0+256)
  4919  0C8F                     l673:
  4920  0C8F  0008               	return
  4921  0C90                     __end_of_EUSART1_SetOverrunErrorHandler:
  4922                           
  4923                           	psect	text9
  4924  0C84                     __ptext9:	
  4925 ;; *************** function _EUSART1_SetFramingErrorHandler *****************
  4926 ;; Defined at:
  4927 ;;		line 273 in file "mcc_generated_files/eusart1.c"
  4928 ;; Parameters:    Size  Location     Type
  4929 ;;  interruptHan    2    1[COMMON] PTR FTN()void 
  4930 ;;		 -> EUSART1_DefaultFramingErrorHandler(1), 
  4931 ;; Auto vars:     Size  Location     Type
  4932 ;;		None
  4933 ;; Return value:  Size  Location     Type
  4934 ;;                  1    wreg      void 
  4935 ;; Registers used:
  4936 ;;		wreg
  4937 ;; Tracked objects:
  4938 ;;		On entry : 0/0
  4939 ;;		On exit  : 0/0
  4940 ;;		Unchanged: 0/0
  4941 ;; Data sizes:     COMMON   BANK0   BANK1   BANK2   BANK3   BANK4   BANK5   BANK6   BANK7   BANK8   BANK9  BANK10  BANK1
      +1  BANK12  BANK13  BANK14  BANK15  BANK16  BANK17  BANK18  BANK19  BANK20  BANK21  BANK22  BANK23  BANK24  BANK25
  4942 ;;      Params:         2       0       0       0       0       0       0       0       0       0       0       0       
      +0       0       0       0       0       0       0       0       0       0       0       0       0       0       0
  4943 ;;      Locals:         0       0       0       0       0       0       0       0       0       0       0       0       
      +0       0       0       0       0       0       0       0       0       0       0       0       0       0       0
  4944 ;;      Temps:          0       0       0       0       0       0       0       0       0       0       0       0       
      +0       0       0       0       0       0       0       0       0       0       0       0       0       0       0
  4945 ;;      Totals:         2       0       0       0       0       0       0       0       0       0       0       0       
      +0       0       0       0       0       0       0       0       0       0       0       0       0       0       0
  4946 ;;Total ram usage:        2 bytes
  4947 ;; Hardware stack levels used: 1
  4948 ;; Hardware stack levels required when called: 4
  4949 ;; This function calls:
  4950 ;;		Nothing
  4951 ;; This function is called by:
  4952 ;;		_EUSART1_Initialize
  4953 ;; This function uses a non-reentrant model
  4954 ;;
  4955                           
  4956                           
  4957                           ;psect for function _EUSART1_SetFramingErrorHandler
  4958  0C84                     _EUSART1_SetFramingErrorHandler:
  4959  0C84                     l5716:	
  4960                           ;incstack = 0
  4961                           ; Regs used in _EUSART1_SetFramingErrorHandler: [wreg]
  4962                           
  4963                           
  4964                           ;mcc_generated_files/eusart1.c: 274:     EUSART1_FramingErrorHandler = interruptHandler;
  4965  0C84  0872               	movf	EUSART1_SetFramingErrorHandler@interruptHandler+1,w
  4966  0C85  0142               	movlb	2	; select bank2
  4967  0C86  00E7               	movwf	(_EUSART1_FramingErrorHandler+1)^(0+256)
  4968  0C87  0871               	movf	EUSART1_SetFramingErrorHandler@interruptHandler,w
  4969  0C88  00E6               	movwf	_EUSART1_FramingErrorHandler^(0+256)
  4970  0C89                     l670:
  4971  0C89  0008               	return
  4972  0C8A                     __end_of_EUSART1_SetFramingErrorHandler:
  4973                           
  4974                           	psect	text10
  4975  0C7E                     __ptext10:	
  4976 ;; *************** function _EUSART1_SetErrorHandler *****************
  4977 ;; Defined at:
  4978 ;;		line 281 in file "mcc_generated_files/eusart1.c"
  4979 ;; Parameters:    Size  Location     Type
  4980 ;;  interruptHan    2    1[COMMON] PTR FTN()void 
  4981 ;;		 -> EUSART1_DefaultErrorHandler(1), 
  4982 ;; Auto vars:     Size  Location     Type
  4983 ;;		None
  4984 ;; Return value:  Size  Location     Type
  4985 ;;                  1    wreg      void 
  4986 ;; Registers used:
  4987 ;;		wreg
  4988 ;; Tracked objects:
  4989 ;;		On entry : 0/0
  4990 ;;		On exit  : 0/0
  4991 ;;		Unchanged: 0/0
  4992 ;; Data sizes:     COMMON   BANK0   BANK1   BANK2   BANK3   BANK4   BANK5   BANK6   BANK7   BANK8   BANK9  BANK10  BANK1
      +1  BANK12  BANK13  BANK14  BANK15  BANK16  BANK17  BANK18  BANK19  BANK20  BANK21  BANK22  BANK23  BANK24  BANK25
  4993 ;;      Params:         2       0       0       0       0       0       0       0       0       0       0       0       
      +0       0       0       0       0       0       0       0       0       0       0       0       0       0       0
  4994 ;;      Locals:         0       0       0       0       0       0       0       0       0       0       0       0       
      +0       0       0       0       0       0       0       0       0       0       0       0       0       0       0
  4995 ;;      Temps:          0       0       0       0       0       0       0       0       0       0       0       0       
      +0       0       0       0       0       0       0       0       0       0       0       0       0       0       0
  4996 ;;      Totals:         2       0       0       0       0       0       0       0       0       0       0       0       
      +0       0       0       0       0       0       0       0       0       0       0       0       0       0       0
  4997 ;;Total ram usage:        2 bytes
  4998 ;; Hardware stack levels used: 1
  4999 ;; Hardware stack levels required when called: 4
  5000 ;; This function calls:
  5001 ;;		Nothing
  5002 ;; This function is called by:
  5003 ;;		_EUSART1_Initialize
  5004 ;; This function uses a non-reentrant model
  5005 ;;
  5006                           
  5007                           
  5008                           ;psect for function _EUSART1_SetErrorHandler
  5009  0C7E                     _EUSART1_SetErrorHandler:
  5010  0C7E                     l5720:	
  5011                           ;incstack = 0
  5012                           ; Regs used in _EUSART1_SetErrorHandler: [wreg]
  5013                           
  5014                           
  5015                           ;mcc_generated_files/eusart1.c: 282:     EUSART1_ErrorHandler = interruptHandler;
  5016  0C7E  0872               	movf	EUSART1_SetErrorHandler@interruptHandler+1,w
  5017  0C7F  0142               	movlb	2	; select bank2
  5018  0C80  00E3               	movwf	(_EUSART1_ErrorHandler+1)^(0+256)
  5019  0C81  0871               	movf	EUSART1_SetErrorHandler@interruptHandler,w
  5020  0C82  00E2               	movwf	_EUSART1_ErrorHandler^(0+256)
  5021  0C83                     l676:
  5022  0C83  0008               	return
  5023  0C84                     __end_of_EUSART1_SetErrorHandler:
  5024                           
  5025                           	psect	text11
  5026  0CE6                     __ptext11:	
  5027 ;; *************** function _SW_I2C_Init *****************
  5028 ;; Defined at:
  5029 ;;		line 121 in file "mcc_generated_files/SW_I2C_Master.c"
  5030 ;; Parameters:    Size  Location     Type
  5031 ;;		None
  5032 ;; Auto vars:     Size  Location     Type
  5033 ;;		None
  5034 ;; Return value:  Size  Location     Type
  5035 ;;                  1    wreg      void 
  5036 ;; Registers used:
  5037 ;;		status,2
  5038 ;; Tracked objects:
  5039 ;;		On entry : 0/0
  5040 ;;		On exit  : 0/0
  5041 ;;		Unchanged: 0/0
  5042 ;; Data sizes:     COMMON   BANK0   BANK1   BANK2   BANK3   BANK4   BANK5   BANK6   BANK7   BANK8   BANK9  BANK10  BANK1
      +1  BANK12  BANK13  BANK14  BANK15  BANK16  BANK17  BANK18  BANK19  BANK20  BANK21  BANK22  BANK23  BANK24  BANK25
  5043 ;;      Params:         0       0       0       0       0       0       0       0       0       0       0       0       
      +0       0       0       0       0       0       0       0       0       0       0       0       0       0       0
  5044 ;;      Locals:         0       0       0       0       0       0       0       0       0       0       0       0       
      +0       0       0       0       0       0       0       0       0       0       0       0       0       0       0
  5045 ;;      Temps:          0       0       0       0       0       0       0       0       0       0       0       0       
      +0       0       0       0       0       0       0       0       0       0       0       0       0       0       0
  5046 ;;      Totals:         0       0       0       0       0       0       0       0       0       0       0       0       
      +0       0       0       0       0       0       0       0       0       0       0       0       0       0       0
  5047 ;;Total ram usage:        0 bytes
  5048 ;; Hardware stack levels used: 1
  5049 ;; Hardware stack levels required when called: 4
  5050 ;; This function calls:
  5051 ;;		Nothing
  5052 ;; This function is called by:
  5053 ;;		_main
  5054 ;; This function uses a non-reentrant model
  5055 ;;
  5056                           
  5057                           
  5058                           ;psect for function _SW_I2C_Init
  5059  0CE6                     _SW_I2C_Init:
  5060  0CE6                     l5956:	
  5061                           ;incstack = 0
  5062                           ; Regs used in _SW_I2C_Init: [status,2]
  5063                           
  5064                           
  5065                           ;mcc_generated_files/SW_I2C_Master.c: 123:     Sw_I2c_Cxt.State=(-1);
  5066  0CE6  0141               	movlb	1	; select bank1
  5067  0CE7  01E9               	clrf	(_Sw_I2c_Cxt^(0+128)+8)
  5068  0CE8  03E9               	decf	(_Sw_I2c_Cxt^(0+128)+8),f
  5069  0CE9                     l5958:
  5070                           
  5071                           ;mcc_generated_files/SW_I2C_Master.c: 124:     Sw_I2c_Cxt.DoNext=SW_I2C_IDLE;
  5072  0CE9  01E8               	clrf	(_Sw_I2c_Cxt^(0+128)+7)
  5073  0CEA                     l5960:
  5074  0CEA  0140               	movlb	0	; select bank0
  5075  0CEB  161A               	bsf	26,4	;volatile
  5076  0CEC                     l5962:
  5077  0CEC  171A               	bsf	26,6	;volatile
  5078  0CED                     l5964:
  5079  0CED  017E               	movlb	62	; select bank62
  5080  0CEE  1650               	bsf	80,4	;volatile
  5081  0CEF                     l5966:
  5082  0CEF  1750               	bsf	80,6	;volatile
  5083  0CF0                     l5968:
  5084  0CF0  0140               	movlb	0	; select bank0
  5085  0CF1  1614               	bsf	20,4	;volatile
  5086  0CF2                     l5970:
  5087  0CF2  1714               	bsf	20,6	;volatile
  5088  0CF3                     l851:
  5089  0CF3  0008               	return
  5090  0CF4                     __end_of_SW_I2C_Init:
  5091                           
  5092                           	psect	text12
  5093  0DF0                     __ptext12:	
  5094 ;; *************** function _RandomArray *****************
  5095 ;; Defined at:
  5096 ;;		line 61 in file "main.c"
  5097 ;; Parameters:    Size  Location     Type
  5098 ;;  pD              1    wreg     PTR unsigned char 
  5099 ;;		 -> main@datain(64), 
  5100 ;;  len             1   10[BANK0 ] unsigned char 
  5101 ;; Auto vars:     Size  Location     Type
  5102 ;;  pD              1   10[COMMON] PTR unsigned char 
  5103 ;;		 -> main@datain(64), 
  5104 ;; Return value:  Size  Location     Type
  5105 ;;                  1    wreg      void 
  5106 ;; Registers used:
  5107 ;;		wreg, fsr1l, fsr1h, status,2, status,0, pclath, cstack
  5108 ;; Tracked objects:
  5109 ;;		On entry : 0/0
  5110 ;;		On exit  : 0/0
  5111 ;;		Unchanged: 0/0
  5112 ;; Data sizes:     COMMON   BANK0   BANK1   BANK2   BANK3   BANK4   BANK5   BANK6   BANK7   BANK8   BANK9  BANK10  BANK1
      +1  BANK12  BANK13  BANK14  BANK15  BANK16  BANK17  BANK18  BANK19  BANK20  BANK21  BANK22  BANK23  BANK24  BANK25
  5113 ;;      Params:         0       1       0       0       0       0       0       0       0       0       0       0       
      +0       0       0       0       0       0       0       0       0       0       0       0       0       0       0
  5114 ;;      Locals:         1       0       0       0       0       0       0       0       0       0       0       0       
      +0       0       0       0       0       0       0       0       0       0       0       0       0       0       0
  5115 ;;      Temps:          1       0       0       0       0       0       0       0       0       0       0       0       
      +0       0       0       0       0       0       0       0       0       0       0       0       0       0       0
  5116 ;;      Totals:         2       1       0       0       0       0       0       0       0       0       0       0       
      +0       0       0       0       0       0       0       0       0       0       0       0       0       0       0
  5117 ;;Total ram usage:        3 bytes
  5118 ;; Hardware stack levels used: 1
  5119 ;; Hardware stack levels required when called: 6
  5120 ;; This function calls:
  5121 ;;		_rand
  5122 ;; This function is called by:
  5123 ;;		_main
  5124 ;; This function uses a non-reentrant model
  5125 ;;
  5126                           
  5127                           
  5128                           ;psect for function _RandomArray
  5129  0DF0                     _RandomArray:
  5130                           
  5131                           ;incstack = 0
  5132                           ; Regs used in _RandomArray: [wreg+fsr1l+fsr1h+status,2+status,0+pclath+cstack]
  5133                           ;RandomArray@pD stored from wreg
  5134  0DF0  00FA               	movwf	RandomArray@pD
  5135  0DF1                     l6094:
  5136                           
  5137                           ;main.c: 61: void RandomArray(uint8_t *pD, uint8_t len);main.c: 62: {;main.c: 63:     wh
      +                          ile (len > 0) {
  5138  0DF1  2E04               	goto	l6102
  5139  0DF2                     l6096:
  5140                           
  5141                           ;main.c: 64:         *pD = (uint8_t) rand();
  5142  0DF2  3186  269A  318D   	fcall	_rand
  5143  0DF5  0140               	movlb	0	; select bank0
  5144  0DF6  0824               	movf	?_rand,w
  5145  0DF7  00F9               	movwf	??_RandomArray
  5146  0DF8  087A               	movf	RandomArray@pD,w
  5147  0DF9  0086               	movwf	6
  5148  0DFA  3001               	movlw	1	; select bank2/3
  5149  0DFB  0087               	movwf	7
  5150  0DFC  0879               	movf	??_RandomArray,w
  5151  0DFD  0081               	movwf	1
  5152  0DFE                     l6098:
  5153                           
  5154                           ;main.c: 65:         pD++;
  5155  0DFE  3001               	movlw	1
  5156  0DFF  00F9               	movwf	??_RandomArray
  5157  0E00  0879               	movf	??_RandomArray,w
  5158  0E01  07FA               	addwf	RandomArray@pD,f
  5159  0E02                     l6100:
  5160                           
  5161                           ;main.c: 66:         len--;
  5162  0E02  3001               	movlw	1
  5163  0E03  02AA               	subwf	RandomArray@len,f
  5164  0E04                     l6102:
  5165                           
  5166                           ;main.c: 63:     while (len > 0) {
  5167  0E04  0140               	movlb	0	; select bank0
  5168  0E05  082A               	movf	RandomArray@len,w
  5169  0E06  1D03               	btfss	3,2
  5170  0E07  2E09               	goto	u4331
  5171  0E08  2E0A               	goto	u4330
  5172  0E09                     u4331:
  5173  0E09  2DF2               	goto	l6096
  5174  0E0A                     u4330:
  5175  0E0A                     l1045:
  5176  0E0A  0008               	return
  5177  0E0B                     __end_of_RandomArray:
  5178                           
  5179                           	psect	text13
  5180  069A                     __ptext13:	
  5181 ;; *************** function _rand *****************
  5182 ;; Defined at:
  5183 ;;		line 11 in file "C:\Program Files\Microchip\xc8\v2.32\pic\sources\c99\common\rand.c"
  5184 ;; Parameters:    Size  Location     Type
  5185 ;;		None
  5186 ;; Auto vars:     Size  Location     Type
  5187 ;;		None
  5188 ;; Return value:  Size  Location     Type
  5189 ;;                  2    4[BANK0 ] int 
  5190 ;; Registers used:
  5191 ;;		wreg, status,2, status,0, pclath, cstack
  5192 ;; Tracked objects:
  5193 ;;		On entry : 0/0
  5194 ;;		On exit  : 0/0
  5195 ;;		Unchanged: 0/0
  5196 ;; Data sizes:     COMMON   BANK0   BANK1   BANK2   BANK3   BANK4   BANK5   BANK6   BANK7   BANK8   BANK9  BANK10  BANK1
      +1  BANK12  BANK13  BANK14  BANK15  BANK16  BANK17  BANK18  BANK19  BANK20  BANK21  BANK22  BANK23  BANK24  BANK25
  5197 ;;      Params:         0       2       0       0       0       0       0       0       0       0       0       0       
      +0       0       0       0       0       0       0       0       0       0       0       0       0       0       0
  5198 ;;      Locals:         0       0       0       0       0       0       0       0       0       0       0       0       
      +0       0       0       0       0       0       0       0       0       0       0       0       0       0       0
  5199 ;;      Temps:          0       4       0       0       0       0       0       0       0       0       0       0       
      +0       0       0       0       0       0       0       0       0       0       0       0       0       0       0
  5200 ;;      Totals:         0       6       0       0       0       0       0       0       0       0       0       0       
      +0       0       0       0       0       0       0       0       0       0       0       0       0       0       0
  5201 ;;Total ram usage:        6 bytes
  5202 ;; Hardware stack levels used: 1
  5203 ;; Hardware stack levels required when called: 5
  5204 ;; This function calls:
  5205 ;;		___lmul
  5206 ;; This function is called by:
  5207 ;;		_RandomArray
  5208 ;; This function uses a non-reentrant model
  5209 ;;
  5210                           
  5211                           
  5212                           ;psect for function _rand
  5213  069A                     _rand:
  5214  069A                     l5910:	
  5215                           ;incstack = 0
  5216                           ; Regs used in _rand: [wreg+status,2+status,0+pclath+cstack]
  5217                           
  5218  069A  0141               	movlb	1	; select bank1
  5219  069B  0840               	movf	(_seed+3)^(0+128),w
  5220  069C  00F4               	movwf	___lmul@multiplier+3
  5221  069D  083F               	movf	(_seed+2)^(0+128),w
  5222  069E  00F3               	movwf	___lmul@multiplier+2
  5223  069F  083E               	movf	(_seed+1)^(0+128),w
  5224  06A0  00F2               	movwf	___lmul@multiplier+1
  5225  06A1  083D               	movf	_seed^(0+128),w
  5226  06A2  00F1               	movwf	___lmul@multiplier
  5227  06A3  304C               	movlw	76
  5228  06A4  00F8               	movwf	___lmul@multiplicand+3
  5229  06A5  3095               	movlw	149
  5230  06A6  00F7               	movwf	___lmul@multiplicand+2
  5231  06A7  307F               	movlw	127
  5232  06A8  00F6               	movwf	___lmul@multiplicand+1
  5233  06A9  302D               	movlw	45
  5234  06AA  00F5               	movwf	___lmul@multiplicand
  5235  06AB  3187  270D  3186   	fcall	___lmul
  5236  06AE  3001               	movlw	1
  5237  06AF  0771               	addwf	?___lmul,w
  5238  06B0  0141               	movlb	1	; select bank1
  5239  06B1  00BD               	movwf	_seed^(0+128)
  5240  06B2  3000               	movlw	0
  5241  06B3  3D72               	addwfc	?___lmul+1,w
  5242  06B4  00BE               	movwf	(_seed+1)^(0+128)
  5243  06B5  3000               	movlw	0
  5244  06B6  3D73               	addwfc	?___lmul+2,w
  5245  06B7  00BF               	movwf	(_seed+2)^(0+128)
  5246  06B8  3000               	movlw	0
  5247  06B9  3D74               	addwfc	?___lmul+3,w
  5248  06BA  00C0               	movwf	(_seed+3)^(0+128)
  5249  06BB                     l5912:
  5250  06BB  083D               	movf	_seed^(0+128),w
  5251  06BC  0140               	movlb	0	; select bank0
  5252  06BD  00A6               	movwf	??_rand
  5253  06BE  0141               	movlb	1	; select bank1
  5254  06BF  083E               	movf	(_seed+1)^(0+128),w
  5255  06C0  0140               	movlb	0	; select bank0
  5256  06C1  00A7               	movwf	??_rand+1
  5257  06C2  0141               	movlb	1	; select bank1
  5258  06C3  083F               	movf	(_seed+2)^(0+128),w
  5259  06C4  0140               	movlb	0	; select bank0
  5260  06C5  00A8               	movwf	??_rand+2
  5261  06C6  0141               	movlb	1	; select bank1
  5262  06C7  0840               	movf	(_seed+3)^(0+128),w
  5263  06C8  0140               	movlb	0	; select bank0
  5264  06C9  00A9               	movwf	??_rand+3
  5265  06CA  3011               	movlw	17
  5266  06CB                     u4195:
  5267  06CB  36A9               	lsrf	??_rand+3,f
  5268  06CC  0CA8               	rrf	??_rand+2,f
  5269  06CD  0CA7               	rrf	??_rand+1,f
  5270  06CE  0CA6               	rrf	??_rand,f
  5271  06CF                     u4190:
  5272  06CF  0B89               	decfsz	9,f
  5273  06D0  2ECB               	goto	u4195
  5274  06D1  0827               	movf	??_rand+1,w
  5275  06D2  00A5               	movwf	?_rand+1
  5276  06D3  0826               	movf	??_rand,w
  5277  06D4  00A4               	movwf	?_rand
  5278  06D5                     l1797:
  5279  06D5  0008               	return
  5280  06D6                     __end_of_rand:
  5281                           
  5282                           	psect	text14
  5283  070D                     __ptext14:	
  5284 ;; *************** function ___lmul *****************
  5285 ;; Defined at:
  5286 ;;		line 15 in file "C:\Program Files\Microchip\xc8\v2.32\pic\sources\c99\common\Umul32.c"
  5287 ;; Parameters:    Size  Location     Type
  5288 ;;  multiplier      4    1[COMMON] unsigned long 
  5289 ;;  multiplicand    4    5[COMMON] unsigned long 
  5290 ;; Auto vars:     Size  Location     Type
  5291 ;;  product         4    0[BANK0 ] unsigned long 
  5292 ;; Return value:  Size  Location     Type
  5293 ;;                  4    1[COMMON] unsigned long 
  5294 ;; Registers used:
  5295 ;;		wreg, status,2, status,0
  5296 ;; Tracked objects:
  5297 ;;		On entry : 0/0
  5298 ;;		On exit  : 0/0
  5299 ;;		Unchanged: 0/0
  5300 ;; Data sizes:     COMMON   BANK0   BANK1   BANK2   BANK3   BANK4   BANK5   BANK6   BANK7   BANK8   BANK9  BANK10  BANK1
      +1  BANK12  BANK13  BANK14  BANK15  BANK16  BANK17  BANK18  BANK19  BANK20  BANK21  BANK22  BANK23  BANK24  BANK25
  5301 ;;      Params:         8       0       0       0       0       0       0       0       0       0       0       0       
      +0       0       0       0       0       0       0       0       0       0       0       0       0       0       0
  5302 ;;      Locals:         0       4       0       0       0       0       0       0       0       0       0       0       
      +0       0       0       0       0       0       0       0       0       0       0       0       0       0       0
  5303 ;;      Temps:          0       0       0       0       0       0       0       0       0       0       0       0       
      +0       0       0       0       0       0       0       0       0       0       0       0       0       0       0
  5304 ;;      Totals:         8       4       0       0       0       0       0       0       0       0       0       0       
      +0       0       0       0       0       0       0       0       0       0       0       0       0       0       0
  5305 ;;Total ram usage:       12 bytes
  5306 ;; Hardware stack levels used: 1
  5307 ;; Hardware stack levels required when called: 4
  5308 ;; This function calls:
  5309 ;;		Nothing
  5310 ;; This function is called by:
  5311 ;;		_rand
  5312 ;; This function uses a non-reentrant model
  5313 ;;
  5314                           
  5315                           
  5316                           ;psect for function ___lmul
  5317  070D                     ___lmul:
  5318  070D                     l5764:	
  5319                           ;incstack = 0
  5320                           ; Regs used in ___lmul: [wreg+status,2+status,0]
  5321                           
  5322  070D  3000               	movlw	0
  5323  070E  0140               	movlb	0	; select bank0
  5324  070F  00A3               	movwf	___lmul@product+3
  5325  0710  3000               	movlw	0
  5326  0711  00A2               	movwf	___lmul@product+2
  5327  0712  3000               	movlw	0
  5328  0713  00A1               	movwf	___lmul@product+1
  5329  0714  3000               	movlw	0
  5330  0715  00A0               	movwf	___lmul@product
  5331  0716                     l5766:
  5332  0716  1C71               	btfss	___lmul@multiplier,0
  5333  0717  2F19               	goto	u4111
  5334  0718  2F1A               	goto	u4110
  5335  0719                     u4111:
  5336  0719  2F23               	goto	l5770
  5337  071A                     u4110:
  5338  071A                     l5768:
  5339  071A  0875               	movf	___lmul@multiplicand,w
  5340  071B  0140               	movlb	0	; select bank0
  5341  071C  07A0               	addwf	___lmul@product,f
  5342  071D  0876               	movf	___lmul@multiplicand+1,w
  5343  071E  3DA1               	addwfc	___lmul@product+1,f
  5344  071F  0877               	movf	___lmul@multiplicand+2,w
  5345  0720  3DA2               	addwfc	___lmul@product+2,f
  5346  0721  0878               	movf	___lmul@multiplicand+3,w
  5347  0722  3DA3               	addwfc	___lmul@product+3,f
  5348  0723                     l5770:
  5349  0723  3001               	movlw	1
  5350  0724                     u4125:
  5351  0724  35F5               	lslf	___lmul@multiplicand,f
  5352  0725  0DF6               	rlf	___lmul@multiplicand+1,f
  5353  0726  0DF7               	rlf	___lmul@multiplicand+2,f
  5354  0727  0DF8               	rlf	___lmul@multiplicand+3,f
  5355  0728  0B89               	decfsz	9,f
  5356  0729  2F24               	goto	u4125
  5357  072A                     l5772:
  5358  072A  3001               	movlw	1
  5359  072B                     u4135:
  5360  072B  36F4               	lsrf	___lmul@multiplier+3,f
  5361  072C  0CF3               	rrf	___lmul@multiplier+2,f
  5362  072D  0CF2               	rrf	___lmul@multiplier+1,f
  5363  072E  0CF1               	rrf	___lmul@multiplier,f
  5364  072F  0B89               	decfsz	9,f
  5365  0730  2F2B               	goto	u4135
  5366  0731  0874               	movf	___lmul@multiplier+3,w
  5367  0732  0473               	iorwf	___lmul@multiplier+2,w
  5368  0733  0472               	iorwf	___lmul@multiplier+1,w
  5369  0734  0471               	iorwf	___lmul@multiplier,w
  5370  0735  1D03               	skipz
  5371  0736  2F38               	goto	u4141
  5372  0737  2F39               	goto	u4140
  5373  0738                     u4141:
  5374  0738  2F16               	goto	l5766
  5375  0739                     u4140:
  5376  0739                     l5774:
  5377  0739  0140               	movlb	0	; select bank0
  5378  073A  0823               	movf	___lmul@product+3,w
  5379  073B  00F4               	movwf	?___lmul+3
  5380  073C  0822               	movf	___lmul@product+2,w
  5381  073D  00F3               	movwf	?___lmul+2
  5382  073E  0821               	movf	___lmul@product+1,w
  5383  073F  00F2               	movwf	?___lmul+1
  5384  0740  0820               	movf	___lmul@product,w
  5385  0741  00F1               	movwf	?___lmul
  5386  0742                     l1151:
  5387  0742  0008               	return
  5388  0743                     __end_of___lmul:
  5389                           
  5390                           	psect	text15
  5391  0545                     __ptext15:	
  5392 ;; *************** function _MemoryTest *****************
  5393 ;; Defined at:
  5394 ;;		line 70 in file "main.c"
  5395 ;; Parameters:    Size  Location     Type
  5396 ;;  addr            2   15[BANK1 ] unsigned short 
  5397 ;;  pdata1          1   17[BANK1 ] PTR const unsigned char 
  5398 ;;		 -> main@datain(64), 
  5399 ;;  pdata2          1   18[BANK1 ] PTR const unsigned char 
  5400 ;;		 -> main@dataout(64), 
  5401 ;;  len             1   19[BANK1 ] unsigned char 
  5402 ;; Auto vars:     Size  Location     Type
  5403 ;;  i               1   27[BANK1 ] unsigned char 
  5404 ;;  rslt            1   26[BANK1 ] _Bool 
  5405 ;; Return value:  Size  Location     Type
  5406 ;;                  1    wreg      _Bool 
  5407 ;; Registers used:
  5408 ;;		wreg, fsr0l, fsr0h, fsr1l, fsr1h, status,2, status,0, pclath, cstack
  5409 ;; Tracked objects:
  5410 ;;		On entry : 0/0
  5411 ;;		On exit  : 0/0
  5412 ;;		Unchanged: 0/0
  5413 ;; Data sizes:     COMMON   BANK0   BANK1   BANK2   BANK3   BANK4   BANK5   BANK6   BANK7   BANK8   BANK9  BANK10  BANK1
      +1  BANK12  BANK13  BANK14  BANK15  BANK16  BANK17  BANK18  BANK19  BANK20  BANK21  BANK22  BANK23  BANK24  BANK25
  5414 ;;      Params:         0       0       5       0       0       0       0       0       0       0       0       0       
      +0       0       0       0       0       0       0       0       0       0       0       0       0       0       0
  5415 ;;      Locals:         0       0       2       0       0       0       0       0       0       0       0       0       
      +0       0       0       0       0       0       0       0       0       0       0       0       0       0       0
  5416 ;;      Temps:          0       0       6       0       0       0       0       0       0       0       0       0       
      +0       0       0       0       0       0       0       0       0       0       0       0       0       0       0
  5417 ;;      Totals:         0       0      13       0       0       0       0       0       0       0       0       0       
      +0       0       0       0       0       0       0       0       0       0       0       0       0       0       0
  5418 ;;Total ram usage:       13 bytes
  5419 ;; Hardware stack levels used: 1
  5420 ;; Hardware stack levels required when called: 13
  5421 ;; This function calls:
  5422 ;;		_printf
  5423 ;; This function is called by:
  5424 ;;		_main
  5425 ;; This function uses a non-reentrant model
  5426 ;;
  5427                           
  5428                           
  5429                           ;psect for function _MemoryTest
  5430  0545                     _MemoryTest:
  5431  0545                     l6104:	
  5432                           ;incstack = 0
  5433                           ; Regs used in _MemoryTest: [wreg-fsr1h+status,2+status,0+pclath+cstack]
  5434                           
  5435                           
  5436                           ;main.c: 70: _Bool MemoryTest(uint16_t addr, const uint8_t *pdata1, const uint8_t *pdata
      +                          2, uint8_t len);main.c: 71: {;main.c: 72:     uint8_t i;;main.c: 73:     _Bool rslt = 1;
  5437  0545  0141               	movlb	1	; select bank1
  5438  0546  01DB               	clrf	MemoryTest@rslt^(0+128)
  5439  0547  0ADB               	incf	MemoryTest@rslt^(0+128),f
  5440  0548                     l6106:
  5441                           
  5442                           ;main.c: 75:     for (i = 0; i < len; i++) {
  5443  0548  01DC               	clrf	MemoryTest@i^(0+128)
  5444  0549  2D8E               	goto	l6116
  5445  054A                     l6108:
  5446                           
  5447                           ;main.c: 76:         if (pdata1[i] != pdata2[i]) {
  5448  054A  085C               	movf	MemoryTest@i^(0+128),w
  5449  054B  0753               	addwf	MemoryTest@pdata2^(0+128),w
  5450  054C  00D5               	movwf	??_MemoryTest^(0+128)
  5451  054D  0855               	movf	??_MemoryTest^(0+128),w
  5452  054E  0086               	movwf	6
  5453  054F  3001               	movlw	1	; select bank2/3
  5454  0550  0087               	movwf	7
  5455  0551  085C               	movf	MemoryTest@i^(0+128),w
  5456  0552  0752               	addwf	MemoryTest@pdata1^(0+128),w
  5457  0553  00D6               	movwf	(??_MemoryTest+1)^(0+128)
  5458  0554  0856               	movf	(??_MemoryTest+1)^(0+128),w
  5459  0555  0084               	movwf	4
  5460  0556  3001               	movlw	1	; select bank2/3
  5461  0557  0085               	movwf	5
  5462  0558  0800               	movf	0,w
  5463  0559  0601               	xorwf	1,w
  5464  055A  1903               	skipnz
  5465  055B  2D5D               	goto	u4341
  5466  055C  2D5E               	goto	u4340
  5467  055D                     u4341:
  5468  055D  2D89               	goto	l6114
  5469  055E                     u4340:
  5470  055E                     l6110:
  5471                           
  5472                           ;main.c: 77:             rslt = 0;
  5473  055E  01DB               	clrf	MemoryTest@rslt^(0+128)
  5474  055F                     l6112:
  5475                           
  5476                           ;main.c: 78:             printf("\nError @%04X: %02X # %02X", addr + i, pdata1[i], pdata
      +                          2[i]);
  5477  055F  303E               	movlw	low (STR_1| (0+32768))
  5478  0560  00C6               	movwf	printf@fmt^(0+128)
  5479  0561  3090               	movlw	high (STR_1| (0+32768))
  5480  0562  00C7               	movwf	(printf@fmt^(0+128)+1)
  5481  0563  085C               	movf	MemoryTest@i^(0+128),w
  5482  0564  0750               	addwf	MemoryTest@addr^(0+128),w
  5483  0565  00C8               	movwf	(?_printf^(0+128)+2)
  5484  0566  0851               	movf	(MemoryTest@addr+1)^(0+128),w
  5485  0567  1803               	skipnc
  5486  0568  0A51               	incf	(MemoryTest@addr+1)^(0+128),w
  5487  0569  00C9               	movwf	(?_printf^(0+128)+3)
  5488  056A  085C               	movf	MemoryTest@i^(0+128),w
  5489  056B  0752               	addwf	MemoryTest@pdata1^(0+128),w
  5490  056C  00D5               	movwf	??_MemoryTest^(0+128)
  5491  056D  0855               	movf	??_MemoryTest^(0+128),w
  5492  056E  0086               	movwf	6
  5493  056F  3001               	movlw	1	; select bank2/3
  5494  0570  0087               	movwf	7
  5495  0571  0801               	movf	1,w
  5496  0572  00D6               	movwf	(??_MemoryTest+1)^(0+128)
  5497  0573  01D7               	clrf	((??_MemoryTest+1)^(0+128)+1)
  5498  0574  0856               	movf	(??_MemoryTest+1)^(0+128),w
  5499  0575  00CA               	movwf	(?_printf^(0+128)+4)
  5500  0576  0857               	movf	(??_MemoryTest+2)^(0+128),w
  5501  0577  00CB               	movwf	((?_printf+1)^(0+128)+4)
  5502  0578  085C               	movf	MemoryTest@i^(0+128),w
  5503  0579  0753               	addwf	MemoryTest@pdata2^(0+128),w
  5504  057A  00D8               	movwf	(??_MemoryTest+3)^(0+128)
  5505  057B  0858               	movf	(??_MemoryTest+3)^(0+128),w
  5506  057C  0086               	movwf	6
  5507  057D  3001               	movlw	1	; select bank2/3
  5508  057E  0087               	movwf	7
  5509  057F  0801               	movf	1,w
  5510  0580  00D9               	movwf	(??_MemoryTest+4)^(0+128)
  5511  0581  01DA               	clrf	((??_MemoryTest+4)^(0+128)+1)
  5512  0582  0859               	movf	(??_MemoryTest+4)^(0+128),w
  5513  0583  00CC               	movwf	(?_printf^(0+128)+6)
  5514  0584  085A               	movf	(??_MemoryTest+5)^(0+128),w
  5515  0585  00CD               	movwf	((?_printf+1)^(0+128)+6)
  5516  0586  318D  2545  3185   	fcall	_printf
  5517  0589                     l6114:
  5518                           
  5519                           ;main.c: 80:     }
  5520  0589  3001               	movlw	1
  5521  058A  0141               	movlb	1	; select bank1
  5522  058B  00D5               	movwf	??_MemoryTest^(0+128)
  5523  058C  0855               	movf	??_MemoryTest^(0+128),w
  5524  058D  07DC               	addwf	MemoryTest@i^(0+128),f
  5525  058E                     l6116:
  5526  058E  0854               	movf	MemoryTest@len^(0+128),w
  5527  058F  025C               	subwf	MemoryTest@i^(0+128),w
  5528  0590  1C03               	skipc
  5529  0591  2D93               	goto	u4351
  5530  0592  2D94               	goto	u4350
  5531  0593                     u4351:
  5532  0593  2D4A               	goto	l6108
  5533  0594                     u4350:
  5534  0594                     l6118:
  5535                           
  5536                           ;main.c: 82:     return rslt;
  5537  0594  085B               	movf	MemoryTest@rslt^(0+128),w
  5538  0595                     l1052:
  5539  0595  0008               	return
  5540  0596                     __end_of_MemoryTest:
  5541                           
  5542                           	psect	text16
  5543  0D45                     __ptext16:	
  5544 ;; *************** function _printf *****************
  5545 ;; Defined at:
  5546 ;;		line 5 in file "C:\Program Files\Microchip\xc8\v2.32\pic\sources\c99\common\printf.c"
  5547 ;; Parameters:    Size  Location     Type
  5548 ;;  fmt             2    5[BANK1 ] PTR const unsigned char 
  5549 ;;		 -> STR_5(30), STR_4(2), STR_3(13), STR_2(22), 
  5550 ;;		 -> STR_1(26), 
  5551 ;; Auto vars:     Size  Location     Type
  5552 ;;  ret             2    0        int 
  5553 ;;  ap              1   14[BANK1 ] PTR void [1]
  5554 ;;		 -> ?_printf(2), 
  5555 ;; Return value:  Size  Location     Type
  5556 ;;                  2    5[BANK1 ] int 
  5557 ;; Registers used:
  5558 ;;		wreg, fsr0l, fsr0h, fsr1l, fsr1h, status,2, status,0, pclath, cstack
  5559 ;; Tracked objects:
  5560 ;;		On entry : 0/0
  5561 ;;		On exit  : 0/0
  5562 ;;		Unchanged: 0/0
  5563 ;; Data sizes:     COMMON   BANK0   BANK1   BANK2   BANK3   BANK4   BANK5   BANK6   BANK7   BANK8   BANK9  BANK10  BANK1
      +1  BANK12  BANK13  BANK14  BANK15  BANK16  BANK17  BANK18  BANK19  BANK20  BANK21  BANK22  BANK23  BANK24  BANK25
  5564 ;;      Params:         0       0       8       0       0       0       0       0       0       0       0       0       
      +0       0       0       0       0       0       0       0       0       0       0       0       0       0       0
  5565 ;;      Locals:         0       0       1       0       0       0       0       0       0       0       0       0       
      +0       0       0       0       0       0       0       0       0       0       0       0       0       0       0
  5566 ;;      Temps:          0       0       1       0       0       0       0       0       0       0       0       0       
      +0       0       0       0       0       0       0       0       0       0       0       0       0       0       0
  5567 ;;      Totals:         0       0      10       0       0       0       0       0       0       0       0       0       
      +0       0       0       0       0       0       0       0       0       0       0       0       0       0       0
  5568 ;;Total ram usage:       10 bytes
  5569 ;; Hardware stack levels used: 1
  5570 ;; Hardware stack levels required when called: 12
  5571 ;; This function calls:
  5572 ;;		_vfprintf
  5573 ;; This function is called by:
  5574 ;;		_MemoryTest
  5575 ;;		_main
  5576 ;; This function uses a non-reentrant model
  5577 ;;
  5578                           
  5579                           
  5580                           ;psect for function _printf
  5581  0D45                     _printf:
  5582  0D45                     l5916:	
  5583                           ;incstack = 0
  5584                           ; Regs used in _printf: [wreg-fsr1h+status,2+status,0+pclath+cstack]
  5585                           
  5586  0D45  30C8               	movlw	(low ((?_printf| 0+2)))& (0+255)
  5587  0D46  0141               	movlb	1	; select bank1
  5588  0D47  00CE               	movwf	??_printf^(0+128)
  5589  0D48  084E               	movf	??_printf^(0+128),w
  5590  0D49  00CF               	movwf	printf@ap^(0+128)
  5591  0D4A                     l5918:
  5592  0D4A  0847               	movf	(printf@fmt+1)^(0+128),w
  5593  0D4B  0140               	movlb	0	; select bank0
  5594  0D4C  00EE               	movwf	vfprintf@fmt+1
  5595  0D4D  0141               	movlb	1	; select bank1
  5596  0D4E  0846               	movf	printf@fmt^(0+128),w
  5597  0D4F  0140               	movlb	0	; select bank0
  5598  0D50  00ED               	movwf	vfprintf@fmt
  5599  0D51  30CF               	movlw	(low (printf@ap| 0))& (0+255)
  5600  0D52  0141               	movlb	1	; select bank1
  5601  0D53  00CE               	movwf	??_printf^(0+128)
  5602  0D54  084E               	movf	??_printf^(0+128),w
  5603  0D55  0140               	movlb	0	; select bank0
  5604  0D56  00EF               	movwf	vfprintf@ap
  5605  0D57  3000               	movlw	0
  5606  0D58  3187  2743  318D   	fcall	_vfprintf
  5607  0D5B                     l1606:
  5608  0D5B  0008               	return
  5609  0D5C                     __end_of_printf:
  5610                           
  5611                           	psect	text17
  5612  0743                     __ptext17:	
  5613 ;; *************** function _vfprintf *****************
  5614 ;; Defined at:
  5615 ;;		line 1390 in file "C:\Program Files\Microchip\xc8\v2.32\pic\sources\c99\common\doprnt.c"
  5616 ;; Parameters:    Size  Location     Type
  5617 ;;  fp              1    wreg     PTR struct _IO_FILE
  5618 ;;		 -> NULL(0), 
  5619 ;;  fmt             2   77[BANK0 ] PTR const unsigned char 
  5620 ;;		 -> STR_5(30), STR_4(2), STR_3(13), STR_2(22), 
  5621 ;;		 -> STR_1(26), 
  5622 ;;  ap              1   79[BANK0 ] PTR PTR void 
  5623 ;;		 -> printf@ap(1), 
  5624 ;; Auto vars:     Size  Location     Type
  5625 ;;  fp              1    2[BANK1 ] PTR struct _IO_FILE
  5626 ;;		 -> NULL(0), 
  5627 ;;  cfmt            2    3[BANK1 ] PTR unsigned char 
  5628 ;;		 -> STR_5(30), STR_4(2), STR_3(13), STR_2(22), 
  5629 ;;		 -> STR_1(26), 
  5630 ;; Return value:  Size  Location     Type
  5631 ;;                  2   77[BANK0 ] int 
  5632 ;; Registers used:
  5633 ;;		wreg, fsr0l, fsr0h, fsr1l, fsr1h, status,2, status,0, pclath, cstack
  5634 ;; Tracked objects:
  5635 ;;		On entry : 0/0
  5636 ;;		On exit  : 0/0
  5637 ;;		Unchanged: 0/0
  5638 ;; Data sizes:     COMMON   BANK0   BANK1   BANK2   BANK3   BANK4   BANK5   BANK6   BANK7   BANK8   BANK9  BANK10  BANK1
      +1  BANK12  BANK13  BANK14  BANK15  BANK16  BANK17  BANK18  BANK19  BANK20  BANK21  BANK22  BANK23  BANK24  BANK25
  5639 ;;      Params:         0       3       0       0       0       0       0       0       0       0       0       0       
      +0       0       0       0       0       0       0       0       0       0       0       0       0       0       0
  5640 ;;      Locals:         0       0       3       0       0       0       0       0       0       0       0       0       
      +0       0       0       0       0       0       0       0       0       0       0       0       0       0       0
  5641 ;;      Temps:          0       0       2       0       0       0       0       0       0       0       0       0       
      +0       0       0       0       0       0       0       0       0       0       0       0       0       0       0
  5642 ;;      Totals:         0       3       5       0       0       0       0       0       0       0       0       0       
      +0       0       0       0       0       0       0       0       0       0       0       0       0       0       0
  5643 ;;Total ram usage:        8 bytes
  5644 ;; Hardware stack levels used: 1
  5645 ;; Hardware stack levels required when called: 11
  5646 ;; This function calls:
  5647 ;;		_vfpfcnvrt
  5648 ;; This function is called by:
  5649 ;;		_printf
  5650 ;; This function uses a non-reentrant model
  5651 ;;
  5652                           
  5653                           
  5654                           ;psect for function _vfprintf
  5655  0743                     _vfprintf:
  5656                           
  5657                           ;incstack = 0
  5658                           ; Regs used in _vfprintf: [wreg-fsr1h+status,2+status,0+pclath+cstack]
  5659                           ;vfprintf@fp stored from wreg
  5660  0743  0141               	movlb	1	; select bank1
  5661  0744  00C3               	movwf	vfprintf@fp^(0+128)
  5662  0745                     l5778:
  5663                           
  5664                           ;C:\Program Files\Microchip\xc8\v2.32\pic\sources\c99\common\doprnt.c: 1390: int vfprint
      +                          f(FILE *fp, const char *fmt, va_list ap);C:\Program Files\Microchip\xc8\v2.32\pic\source
      +                          s\c99\common\doprnt.c: 1391: {;C:\Program Files\Microchip\xc8\v2.32\pic\sources\c99\comm
      +                          on\doprnt.c: 1393:     char *cfmt;;C:\Program Files\Microchip\xc8\v2.32\pic\sources\c99\
      +                          common\doprnt.c: 1395:     cfmt = (char *)fmt;
  5665  0745  0140               	movlb	0	; select bank0
  5666  0746  086E               	movf	vfprintf@fmt+1,w
  5667  0747  0141               	movlb	1	; select bank1
  5668  0748  00C5               	movwf	(vfprintf@cfmt+1)^(0+128)
  5669  0749  0140               	movlb	0	; select bank0
  5670  074A  086D               	movf	vfprintf@fmt,w
  5671  074B  0141               	movlb	1	; select bank1
  5672  074C  00C4               	movwf	vfprintf@cfmt^(0+128)
  5673  074D                     l5780:
  5674                           
  5675                           ;C:\Program Files\Microchip\xc8\v2.32\pic\sources\c99\common\doprnt.c: 1396:     nout = 
      +                          0;
  5676  074D  01B0               	clrf	_nout^(0+128)
  5677  074E  01B1               	clrf	(_nout+1)^(0+128)
  5678                           
  5679                           ;C:\Program Files\Microchip\xc8\v2.32\pic\sources\c99\common\doprnt.c: 1397:     while (
      +                          *cfmt) {
  5680  074F  2F68               	goto	l5784
  5681  0750                     l5782:
  5682                           
  5683                           ;C:\Program Files\Microchip\xc8\v2.32\pic\sources\c99\common\doprnt.c: 1398:         nou
      +                          t += vfpfcnvrt(fp, &cfmt, ap);
  5684  0750  30C4               	movlw	(low (vfprintf@cfmt| 0))& (0+255)
  5685  0751  00C1               	movwf	??_vfprintf^(0+128)
  5686  0752  0841               	movf	??_vfprintf^(0+128),w
  5687  0753  0140               	movlb	0	; select bank0
  5688  0754  00D7               	movwf	vfpfcnvrt@fmt
  5689  0755  086F               	movf	vfprintf@ap,w
  5690  0756  0141               	movlb	1	; select bank1
  5691  0757  00C2               	movwf	(??_vfprintf+1)^(0+128)
  5692  0758  0842               	movf	(??_vfprintf+1)^(0+128),w
  5693  0759  0140               	movlb	0	; select bank0
  5694  075A  00D8               	movwf	vfpfcnvrt@ap
  5695  075B  0141               	movlb	1	; select bank1
  5696  075C  0843               	movf	vfprintf@fp^(0+128),w
  5697  075D  3180  2056  3187   	fcall	_vfpfcnvrt
  5698  0760  0140               	movlb	0	; select bank0
  5699  0761  0857               	movf	?_vfpfcnvrt,w
  5700  0762  0141               	movlb	1	; select bank1
  5701  0763  07B0               	addwf	_nout^(0+128),f
  5702  0764  0140               	movlb	0	; select bank0
  5703  0765  0858               	movf	?_vfpfcnvrt+1,w
  5704  0766  0141               	movlb	1	; select bank1
  5705  0767  3DB1               	addwfc	(_nout+1)^(0+128),f
  5706  0768                     l5784:
  5707                           
  5708                           ;C:\Program Files\Microchip\xc8\v2.32\pic\sources\c99\common\doprnt.c: 1397:     while (
      +                          *cfmt) {
  5709  0768  0844               	movf	vfprintf@cfmt^(0+128),w
  5710  0769  0084               	movwf	4
  5711  076A  0845               	movf	(vfprintf@cfmt+1)^(0+128),w
  5712  076B  0085               	movwf	5
  5713  076C  0012               	moviw fsr0++
  5714  076D  1D03               	btfss	3,2
  5715  076E  2F70               	goto	u4151
  5716  076F  2F71               	goto	u4150
  5717  0770                     u4151:
  5718  0770  2F50               	goto	l5782
  5719  0771                     u4150:
  5720  0771                     l5786:
  5721                           
  5722                           ;C:\Program Files\Microchip\xc8\v2.32\pic\sources\c99\common\doprnt.c: 1400:     return 
      +                          nout;
  5723  0771  0831               	movf	(_nout+1)^(0+128),w
  5724  0772  0140               	movlb	0	; select bank0
  5725  0773  00EE               	movwf	?_vfprintf+1
  5726  0774  0141               	movlb	1	; select bank1
  5727  0775  0830               	movf	_nout^(0+128),w
  5728  0776  0140               	movlb	0	; select bank0
  5729  0777  00ED               	movwf	?_vfprintf
  5730  0778                     l1712:
  5731  0778  0008               	return
  5732  0779                     __end_of_vfprintf:
  5733                           
  5734                           	psect	text18
  5735  0056                     __ptext18:	
  5736 ;; *************** function _vfpfcnvrt *****************
  5737 ;; Defined at:
  5738 ;;		line 692 in file "C:\Program Files\Microchip\xc8\v2.32\pic\sources\c99\common\doprnt.c"
  5739 ;; Parameters:    Size  Location     Type
  5740 ;;  fp              1    wreg     PTR struct _IO_FILE
  5741 ;;		 -> NULL(0), 
  5742 ;;  fmt             1   55[BANK0 ] PTR PTR unsigned char 
  5743 ;;		 -> vfprintf@cfmt(2), 
  5744 ;;  ap              1   56[BANK0 ] PTR PTR void 
  5745 ;;		 -> printf@ap(1), 
  5746 ;; Auto vars:     Size  Location     Type
  5747 ;;  fp              1   76[BANK0 ] PTR struct _IO_FILE
  5748 ;;		 -> NULL(0), 
  5749 ;;  llu             8   63[BANK0 ] unsigned long long 
  5750 ;;  ll              8    0        long long 
  5751 ;;  f               4    0        long long 
  5752 ;;  ct              3    0        unsigned char [3]
  5753 ;;  done            2   72[BANK0 ] int 
  5754 ;;  vp              2    0        PTR void 
  5755 ;;  i               2    0        int 
  5756 ;;  cp              2    0        PTR unsigned char 
  5757 ;;  c               1   71[BANK0 ] unsigned char 
  5758 ;; Return value:  Size  Location     Type
  5759 ;;                  2   55[BANK0 ] int 
  5760 ;; Registers used:
  5761 ;;		wreg, fsr0l, fsr0h, fsr1l, fsr1h, status,2, status,0, pclath, cstack
  5762 ;; Tracked objects:
  5763 ;;		On entry : 0/0
  5764 ;;		On exit  : 0/0
  5765 ;;		Unchanged: 0/0
  5766 ;; Data sizes:     COMMON   BANK0   BANK1   BANK2   BANK3   BANK4   BANK5   BANK6   BANK7   BANK8   BANK9  BANK10  BANK1
      +1  BANK12  BANK13  BANK14  BANK15  BANK16  BANK17  BANK18  BANK19  BANK20  BANK21  BANK22  BANK23  BANK24  BANK25
  5767 ;;      Params:         0       2       0       0       0       0       0       0       0       0       0       0       
      +0       0       0       0       0       0       0       0       0       0       0       0       0       0       0
  5768 ;;      Locals:         0      14       0       0       0       0       0       0       0       0       0       0       
      +0       0       0       0       0       0       0       0       0       0       0       0       0       0       0
  5769 ;;      Temps:          0       6       0       0       0       0       0       0       0       0       0       0       
      +0       0       0       0       0       0       0       0       0       0       0       0       0       0       0
  5770 ;;      Totals:         0      22       0       0       0       0       0       0       0       0       0       0       
      +0       0       0       0       0       0       0       0       0       0       0       0       0       0       0
  5771 ;;Total ram usage:       22 bytes
  5772 ;; Hardware stack levels used: 1
  5773 ;; Hardware stack levels required when called: 10
  5774 ;; This function calls:
  5775 ;;		_atoi
  5776 ;;		_fputc
  5777 ;;		_isdigit
  5778 ;;		_xtoa
  5779 ;; This function is called by:
  5780 ;;		_vfprintf
  5781 ;; This function uses a non-reentrant model
  5782 ;;
  5783                           
  5784                           
  5785                           ;psect for function _vfpfcnvrt
  5786  0056                     _vfpfcnvrt:
  5787                           
  5788                           ;incstack = 0
  5789                           ; Regs used in _vfpfcnvrt: [wreg-fsr1h+status,2+status,0+pclath+cstack]
  5790                           ;vfpfcnvrt@fp stored from wreg
  5791  0056  0140               	movlb	0	; select bank0
  5792  0057  00EC               	movwf	vfpfcnvrt@fp
  5793  0058                     l5618:
  5794                           
  5795                           ;C:\Program Files\Microchip\xc8\v2.32\pic\sources\c99\common\doprnt.c: 692: static int v
      +                          fpfcnvrt(FILE *fp, char *fmt[], va_list ap);C:\Program Files\Microchip\xc8\v2.32\pic\sou
      +                          rces\c99\common\doprnt.c: 693: {;C:\Program Files\Microchip\xc8\v2.32\pic\sources\c99\co
      +                          mmon\doprnt.c: 694:     char c, *cp, ct[3];;C:\Program Files\Microchip\xc8\v2.32\pic\sou
      +                          rces\c99\common\doprnt.c: 695:     int done, i;;C:\Program Files\Microchip\xc8\v2.32\pic
      +                          \sources\c99\common\doprnt.c: 696:     long long ll;;C:\Program Files\Microchip\xc8\v2.3
      +                          2\pic\sources\c99\common\doprnt.c: 697:     unsigned long long llu;
  5796  0058  0857               	movf	vfpfcnvrt@fmt,w
  5797  0059  0086               	movwf	6
  5798  005A  0187               	clrf	7
  5799  005B  3F40               	moviw [0]fsr1
  5800  005C  00D9               	movwf	??_vfpfcnvrt
  5801  005D  3F41               	moviw [1]fsr1
  5802  005E  00DA               	movwf	??_vfpfcnvrt+1
  5803  005F  0859               	movf	??_vfpfcnvrt,w
  5804  0060  0084               	movwf	4
  5805  0061  085A               	movf	??_vfpfcnvrt+1,w
  5806  0062  0085               	movwf	5
  5807  0063  0012               	moviw fsr0++
  5808  0064  3A25               	xorlw	37
  5809  0065  1D03               	btfss	3,2
  5810  0066  2868               	goto	u3951
  5811  0067  2869               	goto	u3950
  5812  0068                     u3951:
  5813  0068  29E1               	goto	l5700
  5814  0069                     u3950:
  5815  0069                     l5620:
  5816                           
  5817                           ;C:\Program Files\Microchip\xc8\v2.32\pic\sources\c99\common\doprnt.c: 703:         ++*f
      +                          mt;
  5818  0069  0857               	movf	vfpfcnvrt@fmt,w
  5819  006A  0086               	movwf	6
  5820  006B  0187               	clrf	7
  5821  006C  3001               	movlw	1
  5822  006D  0781               	addwf	1,f
  5823  006E  3141               	addfsr 1,1
  5824  006F  1803               	skipnc
  5825  0070  0A81               	incf	1,f
  5826  0071                     l5622:
  5827                           
  5828                           ;C:\Program Files\Microchip\xc8\v2.32\pic\sources\c99\common\doprnt.c: 705:         flag
      +                          s = width = 0;
  5829  0071  0141               	movlb	1	; select bank1
  5830  0072  01B2               	clrf	_width^(0+128)
  5831  0073  01B3               	clrf	(_width+1)^(0+128)
  5832  0074  01B6               	clrf	_flags^(0+128)
  5833  0075  01B7               	clrf	(_flags+1)^(0+128)
  5834  0076                     l5624:
  5835                           
  5836                           ;C:\Program Files\Microchip\xc8\v2.32\pic\sources\c99\common\doprnt.c: 706:         prec
      +                           = -1;
  5837  0076  30FF               	movlw	255
  5838  0077  00B4               	movwf	_prec^(0+128)
  5839  0078  30FF               	movlw	255
  5840  0079  00B5               	movwf	(_prec^(0+128)+1)
  5841  007A                     l5626:
  5842                           
  5843                           ;C:\Program Files\Microchip\xc8\v2.32\pic\sources\c99\common\doprnt.c: 710:         done
      +                           = 0;
  5844  007A  0140               	movlb	0	; select bank0
  5845  007B  01E8               	clrf	vfpfcnvrt@done
  5846  007C  01E9               	clrf	vfpfcnvrt@done+1
  5847                           
  5848                           ;C:\Program Files\Microchip\xc8\v2.32\pic\sources\c99\common\doprnt.c: 711:         whil
      +                          e (!done) {
  5849  007D  28BF               	goto	l5644
  5850  007E                     l1683:	
  5851                           ;C:\Program Files\Microchip\xc8\v2.32\pic\sources\c99\common\doprnt.c: 713:             
      +                              case '-' :
  5852                           
  5853                           
  5854                           ;C:\Program Files\Microchip\xc8\v2.32\pic\sources\c99\common\doprnt.c: 714:             
      +                                  flags |= (1 << 0);
  5855  007E  0141               	movlb	1	; select bank1
  5856  007F  1436               	bsf	_flags^(0+128),0
  5857  0080                     l5628:
  5858                           
  5859                           ;C:\Program Files\Microchip\xc8\v2.32\pic\sources\c99\common\doprnt.c: 715:             
      +                                  ++*fmt;
  5860  0080  0140               	movlb	0	; select bank0
  5861  0081  0857               	movf	vfpfcnvrt@fmt,w
  5862  0082  0086               	movwf	6
  5863  0083  0187               	clrf	7
  5864  0084  3001               	movlw	1
  5865  0085  0781               	addwf	1,f
  5866  0086  3141               	addfsr 1,1
  5867  0087  1803               	skipnc
  5868  0088  0A81               	incf	1,f
  5869                           
  5870                           ;C:\Program Files\Microchip\xc8\v2.32\pic\sources\c99\common\doprnt.c: 716:             
      +                                  break;
  5871  0089  28BF               	goto	l5644
  5872  008A                     l1685:	
  5873                           ;C:\Program Files\Microchip\xc8\v2.32\pic\sources\c99\common\doprnt.c: 717:             
      +                              case '0' :
  5874                           
  5875                           
  5876                           ;C:\Program Files\Microchip\xc8\v2.32\pic\sources\c99\common\doprnt.c: 718:             
      +                                  flags |= (1 << 1);
  5877  008A  0141               	movlb	1	; select bank1
  5878  008B  14B6               	bsf	_flags^(0+128),1
  5879  008C  2880               	goto	l5628
  5880  008D                     l1686:	
  5881                           ;C:\Program Files\Microchip\xc8\v2.32\pic\sources\c99\common\doprnt.c: 721:             
      +                              case '+' :
  5882                           
  5883                           
  5884                           ;C:\Program Files\Microchip\xc8\v2.32\pic\sources\c99\common\doprnt.c: 722:             
      +                                  flags |= (1 << 2);
  5885  008D  0141               	movlb	1	; select bank1
  5886  008E  1536               	bsf	_flags^(0+128),2
  5887  008F  2880               	goto	l5628
  5888  0090                     l1687:	
  5889                           ;C:\Program Files\Microchip\xc8\v2.32\pic\sources\c99\common\doprnt.c: 725:             
      +                              case ' ' :
  5890                           
  5891                           
  5892                           ;C:\Program Files\Microchip\xc8\v2.32\pic\sources\c99\common\doprnt.c: 726:             
      +                                  flags |= (1 << 3);
  5893  0090  0141               	movlb	1	; select bank1
  5894  0091  15B6               	bsf	_flags^(0+128),3
  5895  0092  2880               	goto	l5628
  5896  0093                     l1688:	
  5897                           ;C:\Program Files\Microchip\xc8\v2.32\pic\sources\c99\common\doprnt.c: 729:             
      +                              case '#' :
  5898                           
  5899                           
  5900                           ;C:\Program Files\Microchip\xc8\v2.32\pic\sources\c99\common\doprnt.c: 730:             
      +                                  flags |= (1 << 4);
  5901  0093  0141               	movlb	1	; select bank1
  5902  0094  1636               	bsf	_flags^(0+128),4
  5903  0095  2880               	goto	l5628
  5904  0096                     l5638:
  5905                           
  5906                           ;C:\Program Files\Microchip\xc8\v2.32\pic\sources\c99\common\doprnt.c: 734:             
      +                                  done = 1;
  5907  0096  3001               	movlw	1
  5908  0097  00E8               	movwf	vfpfcnvrt@done
  5909  0098  3000               	movlw	0
  5910  0099  00E9               	movwf	vfpfcnvrt@done+1
  5911                           
  5912                           ;C:\Program Files\Microchip\xc8\v2.32\pic\sources\c99\common\doprnt.c: 735:             
      +                                  break;
  5913  009A  28BF               	goto	l5644
  5914  009B                     l5642:
  5915  009B  0857               	movf	vfpfcnvrt@fmt,w
  5916  009C  0086               	movwf	6
  5917  009D  0187               	clrf	7
  5918  009E  3F40               	moviw [0]fsr1
  5919  009F  00D9               	movwf	??_vfpfcnvrt
  5920  00A0  3F41               	moviw [1]fsr1
  5921  00A1  00DA               	movwf	??_vfpfcnvrt+1
  5922  00A2  0859               	movf	??_vfpfcnvrt,w
  5923  00A3  0084               	movwf	4
  5924  00A4  085A               	movf	??_vfpfcnvrt+1,w
  5925  00A5  0085               	movwf	5
  5926  00A6  0800               	movf	0,w	;code access
  5927  00A7  00DB               	movwf	??_vfpfcnvrt+2
  5928  00A8  01DC               	clrf	??_vfpfcnvrt+3
  5929                           
  5930                           ; Switch on 2 bytes has been partitioned into a top level switch of size 1, and 1 sub-sw
      +                          itches
  5931                           ; Switch size 1, requested type "simple"
  5932                           ; Number of cases is 1, Range of values is 0 to 0
  5933                           ; switch strategies available:
  5934                           ; Name         Instructions Cycles
  5935                           ; simple_byte            4     3 (average)
  5936                           ; direct_byte            8     6 (fixed)
  5937                           ; jumptable            260     6 (fixed)
  5938                           ;	Chosen strategy is simple_byte
  5939  00A9  085C               	movf	??_vfpfcnvrt+3,w
  5940  00AA  3A00               	xorlw	0	; case 0
  5941  00AB  1903               	skipnz
  5942  00AC  28AE               	goto	l6296
  5943  00AD  2896               	goto	l5638
  5944  00AE                     l6296:
  5945                           
  5946                           ; Switch size 1, requested type "simple"
  5947                           ; Number of cases is 5, Range of values is 32 to 48
  5948                           ; switch strategies available:
  5949                           ; Name         Instructions Cycles
  5950                           ; simple_byte           16     9 (average)
  5951                           ; direct_byte           43     9 (fixed)
  5952                           ; jumptable            263     9 (fixed)
  5953                           ;	Chosen strategy is simple_byte
  5954  00AE  085B               	movf	??_vfpfcnvrt+2,w
  5955  00AF  3A20               	xorlw	32	; case 32
  5956  00B0  1903               	skipnz
  5957  00B1  2890               	goto	l1687
  5958  00B2  3A03               	xorlw	3	; case 35
  5959  00B3  1903               	skipnz
  5960  00B4  2893               	goto	l1688
  5961  00B5  3A08               	xorlw	8	; case 43
  5962  00B6  1903               	skipnz
  5963  00B7  288D               	goto	l1686
  5964  00B8  3A06               	xorlw	6	; case 45
  5965  00B9  1903               	skipnz
  5966  00BA  287E               	goto	l1683
  5967  00BB  3A1D               	xorlw	29	; case 48
  5968  00BC  1903               	skipnz
  5969  00BD  288A               	goto	l1685
  5970  00BE  2896               	goto	l5638
  5971  00BF                     l5644:
  5972                           
  5973                           ;C:\Program Files\Microchip\xc8\v2.32\pic\sources\c99\common\doprnt.c: 711:         whil
      +                          e (!done) {
  5974  00BF  0868               	movf	vfpfcnvrt@done,w
  5975  00C0  0469               	iorwf	vfpfcnvrt@done+1,w
  5976  00C1  1903               	btfsc	3,2
  5977  00C2  28C4               	goto	u3961
  5978  00C3  28C5               	goto	u3960
  5979  00C4                     u3961:
  5980  00C4  289B               	goto	l5642
  5981  00C5                     u3960:
  5982  00C5                     l1690:
  5983                           
  5984                           ;C:\Program Files\Microchip\xc8\v2.32\pic\sources\c99\common\doprnt.c: 738:         if (
      +                          flags & (1 << 0)) {
  5985  00C5  0141               	movlb	1	; select bank1
  5986  00C6  1C36               	btfss	_flags^(0+128),0
  5987  00C7  28C9               	goto	u3971
  5988  00C8  28CA               	goto	u3970
  5989  00C9                     u3971:
  5990  00C9  28CE               	goto	l5648
  5991  00CA                     u3970:
  5992  00CA                     l5646:
  5993                           
  5994                           ;C:\Program Files\Microchip\xc8\v2.32\pic\sources\c99\common\doprnt.c: 739:             
      +                          flags &= ~(1 << 1);
  5995  00CA  30FD               	movlw	253
  5996  00CB  05B6               	andwf	_flags^(0+128),f
  5997  00CC  30FF               	movlw	255
  5998  00CD  05B7               	andwf	(_flags+1)^(0+128),f
  5999  00CE                     l5648:
  6000                           
  6001                           ;C:\Program Files\Microchip\xc8\v2.32\pic\sources\c99\common\doprnt.c: 745:         if (
      +                          (*fmt)[0] == '*') {
  6002  00CE  0140               	movlb	0	; select bank0
  6003  00CF  0857               	movf	vfpfcnvrt@fmt,w
  6004  00D0  0086               	movwf	6
  6005  00D1  0187               	clrf	7
  6006  00D2  3F40               	moviw [0]fsr1
  6007  00D3  00D9               	movwf	??_vfpfcnvrt
  6008  00D4  3F41               	moviw [1]fsr1
  6009  00D5  00DA               	movwf	??_vfpfcnvrt+1
  6010  00D6  0859               	movf	??_vfpfcnvrt,w
  6011  00D7  0084               	movwf	4
  6012  00D8  085A               	movf	??_vfpfcnvrt+1,w
  6013  00D9  0085               	movwf	5
  6014  00DA  0012               	moviw fsr0++
  6015  00DB  3A2A               	xorlw	42
  6016  00DC  1D03               	btfss	3,2
  6017  00DD  28DF               	goto	u3981
  6018  00DE  28E0               	goto	u3980
  6019  00DF                     u3981:
  6020  00DF  2900               	goto	l5660
  6021  00E0                     u3980:
  6022  00E0                     l5650:
  6023                           
  6024                           ;C:\Program Files\Microchip\xc8\v2.32\pic\sources\c99\common\doprnt.c: 746:             
      +                          ++*fmt;
  6025  00E0  0857               	movf	vfpfcnvrt@fmt,w
  6026  00E1  0086               	movwf	6
  6027  00E2  0187               	clrf	7
  6028  00E3  3001               	movlw	1
  6029  00E4  0781               	addwf	1,f
  6030  00E5  3141               	addfsr 1,1
  6031  00E6  1803               	skipnc
  6032  00E7  0A81               	incf	1,f
  6033  00E8                     l5652:
  6034                           
  6035                           ;C:\Program Files\Microchip\xc8\v2.32\pic\sources\c99\common\doprnt.c: 747:             
      +                          width = (*(int *)__va_arg(*(int **)ap, (int)0));
  6036  00E8  0858               	movf	vfpfcnvrt@ap,w
  6037  00E9  0086               	movwf	6
  6038  00EA  0187               	clrf	7
  6039  00EB  0801               	movf	1,w
  6040  00EC  0084               	movwf	4
  6041  00ED  0185               	clrf	5
  6042  00EE  3002               	movlw	2
  6043  00EF  0781               	addwf	1,f
  6044  00F0  3F00               	moviw [0]fsr0
  6045  00F1  0141               	movlb	1	; select bank1
  6046  00F2  00B2               	movwf	_width^(0+128)
  6047  00F3  3F01               	moviw [1]fsr0
  6048  00F4  00B3               	movwf	(_width+1)^(0+128)
  6049  00F5                     l5654:
  6050                           
  6051                           ;C:\Program Files\Microchip\xc8\v2.32\pic\sources\c99\common\doprnt.c: 748:             
      +                          if (width < 0) {
  6052  00F5  1FB3               	btfss	(_width+1)^(0+128),7
  6053  00F6  28F8               	goto	u3991
  6054  00F7  28F9               	goto	u3990
  6055  00F8                     u3991:
  6056  00F8  2942               	goto	l5670
  6057  00F9                     u3990:
  6058  00F9                     l5656:
  6059                           
  6060                           ;C:\Program Files\Microchip\xc8\v2.32\pic\sources\c99\common\doprnt.c: 749:             
      +                              flags |= (1 << 0);
  6061  00F9  1436               	bsf	_flags^(0+128),0
  6062  00FA                     l5658:
  6063                           
  6064                           ;C:\Program Files\Microchip\xc8\v2.32\pic\sources\c99\common\doprnt.c: 750:             
      +                              width = -width;
  6065  00FA  09B2               	comf	_width^(0+128),f
  6066  00FB  09B3               	comf	(_width+1)^(0+128),f
  6067  00FC  0AB2               	incf	_width^(0+128),f
  6068  00FD  1903               	skipnz
  6069  00FE  0AB3               	incf	(_width+1)^(0+128),f
  6070  00FF  2942               	goto	l5670
  6071  0100                     l5660:
  6072                           
  6073                           ;C:\Program Files\Microchip\xc8\v2.32\pic\sources\c99\common\doprnt.c: 753:             
      +                          width = atoi(*fmt);
  6074  0100  0857               	movf	vfpfcnvrt@fmt,w
  6075  0101  0086               	movwf	6
  6076  0102  0187               	clrf	7
  6077  0103  3F40               	moviw [0]fsr1
  6078  0104  00F7               	movwf	atoi@s
  6079  0105  3F41               	moviw [1]fsr1
  6080  0106  00F8               	movwf	atoi@s+1
  6081  0107  3184  243D  3180   	fcall	_atoi
  6082  010A  0878               	movf	?_atoi+1,w
  6083  010B  0141               	movlb	1	; select bank1
  6084  010C  00B3               	movwf	(_width+1)^(0+128)
  6085  010D  0877               	movf	?_atoi,w
  6086  010E  00B2               	movwf	_width^(0+128)
  6087                           
  6088                           ;C:\Program Files\Microchip\xc8\v2.32\pic\sources\c99\common\doprnt.c: 754:             
      +                          while ((0 ? isdigit((*fmt)[0]) : ((unsigned)((*fmt)[0])-'0') < 10)) {
  6089  010F  2918               	goto	l5664
  6090  0110                     l5662:
  6091                           
  6092                           ;C:\Program Files\Microchip\xc8\v2.32\pic\sources\c99\common\doprnt.c: 755:             
      +                              ++*fmt;
  6093  0110  0857               	movf	vfpfcnvrt@fmt,w
  6094  0111  0086               	movwf	6
  6095  0112  0187               	clrf	7
  6096  0113  3001               	movlw	1
  6097  0114  0781               	addwf	1,f
  6098  0115  3141               	addfsr 1,1
  6099  0116  1803               	skipnc
  6100  0117  0A81               	incf	1,f
  6101  0118                     l5664:
  6102  0118  0140               	movlb	0	; select bank0
  6103  0119  0857               	movf	vfpfcnvrt@fmt,w
  6104  011A  0086               	movwf	6
  6105  011B  0187               	clrf	7
  6106  011C  3F40               	moviw [0]fsr1
  6107  011D  00D9               	movwf	??_vfpfcnvrt
  6108  011E  3F41               	moviw [1]fsr1
  6109  011F  00DA               	movwf	??_vfpfcnvrt+1
  6110  0120  0859               	movf	??_vfpfcnvrt,w
  6111  0121  0084               	movwf	4
  6112  0122  085A               	movf	??_vfpfcnvrt+1,w
  6113  0123  0085               	movwf	5
  6114  0124  0800               	movf	0,w	;code access
  6115  0125  3ED0               	addlw	208
  6116  0126  00DB               	movwf	??_vfpfcnvrt+2
  6117  0127  30FF               	movlw	255
  6118  0128  1803               	skipnc
  6119  0129  3000               	movlw	0
  6120  012A  00DC               	movwf	??_vfpfcnvrt+3
  6121  012B  3000               	movlw	0
  6122  012C  025C               	subwf	??_vfpfcnvrt+3,w
  6123  012D  300A               	movlw	10
  6124  012E  1903               	skipnz
  6125  012F  025B               	subwf	??_vfpfcnvrt+2,w
  6126  0130  1C03               	skipc
  6127  0131  2933               	goto	u4001
  6128  0132  2935               	goto	u4000
  6129  0133                     u4001:
  6130  0133  3001               	movlw	1
  6131  0134  2936               	goto	u4010
  6132  0135                     u4000:
  6133  0135  3000               	movlw	0
  6134  0136                     u4010:
  6135  0136  00DD               	movwf	??_vfpfcnvrt+4
  6136  0137  01DE               	clrf	??_vfpfcnvrt+5
  6137  0138  085D               	movf	??_vfpfcnvrt+4,w
  6138  0139  00EA               	movwf	_vfpfcnvrt$2107
  6139  013A  085E               	movf	??_vfpfcnvrt+5,w
  6140  013B  00EB               	movwf	_vfpfcnvrt$2107+1
  6141  013C                     l5668:
  6142  013C  086A               	movf	_vfpfcnvrt$2107,w
  6143  013D  046B               	iorwf	_vfpfcnvrt$2107+1,w
  6144  013E  1D03               	btfss	3,2
  6145  013F  2941               	goto	u4021
  6146  0140  2942               	goto	u4020
  6147  0141                     u4021:
  6148  0141  2910               	goto	l5662
  6149  0142                     u4020:
  6150  0142                     l5670:
  6151                           
  6152                           ;C:\Program Files\Microchip\xc8\v2.32\pic\sources\c99\common\doprnt.c: 1296:         if 
      +                          ((*fmt[0] == 'x') || (*fmt[0] == 'X')) {
  6153  0142  0140               	movlb	0	; select bank0
  6154  0143  0857               	movf	vfpfcnvrt@fmt,w
  6155  0144  0086               	movwf	6
  6156  0145  0187               	clrf	7
  6157  0146  3F40               	moviw [0]fsr1
  6158  0147  00D9               	movwf	??_vfpfcnvrt
  6159  0148  3F41               	moviw [1]fsr1
  6160  0149  00DA               	movwf	??_vfpfcnvrt+1
  6161  014A  0859               	movf	??_vfpfcnvrt,w
  6162  014B  0084               	movwf	4
  6163  014C  085A               	movf	??_vfpfcnvrt+1,w
  6164  014D  0085               	movwf	5
  6165  014E  0012               	moviw fsr0++
  6166  014F  3A78               	xorlw	120
  6167  0150  1903               	btfsc	3,2
  6168  0151  2953               	goto	u4031
  6169  0152  2954               	goto	u4030
  6170  0153                     u4031:
  6171  0153  2965               	goto	l5674
  6172  0154                     u4030:
  6173  0154                     l5672:
  6174  0154  0857               	movf	vfpfcnvrt@fmt,w
  6175  0155  0086               	movwf	6
  6176  0156  0187               	clrf	7
  6177  0157  3F40               	moviw [0]fsr1
  6178  0158  00D9               	movwf	??_vfpfcnvrt
  6179  0159  3F41               	moviw [1]fsr1
  6180  015A  00DA               	movwf	??_vfpfcnvrt+1
  6181  015B  0859               	movf	??_vfpfcnvrt,w
  6182  015C  0084               	movwf	4
  6183  015D  085A               	movf	??_vfpfcnvrt+1,w
  6184  015E  0085               	movwf	5
  6185  015F  0012               	moviw fsr0++
  6186  0160  3A58               	xorlw	88
  6187  0161  1D03               	btfss	3,2
  6188  0162  2964               	goto	u4041
  6189  0163  2965               	goto	u4040
  6190  0164                     u4041:
  6191  0164  29AC               	goto	l5684
  6192  0165                     u4040:
  6193  0165                     l5674:
  6194                           
  6195                           ;C:\Program Files\Microchip\xc8\v2.32\pic\sources\c99\common\doprnt.c: 1298:            
      +                           c = (*fmt)[0];
  6196  0165  0857               	movf	vfpfcnvrt@fmt,w
  6197  0166  0086               	movwf	6
  6198  0167  0187               	clrf	7
  6199  0168  3F40               	moviw [0]fsr1
  6200  0169  00D9               	movwf	??_vfpfcnvrt
  6201  016A  3F41               	moviw [1]fsr1
  6202  016B  00DA               	movwf	??_vfpfcnvrt+1
  6203  016C  0859               	movf	??_vfpfcnvrt,w
  6204  016D  0084               	movwf	4
  6205  016E  085A               	movf	??_vfpfcnvrt+1,w
  6206  016F  0085               	movwf	5
  6207  0170  0800               	movf	0,w	;code access
  6208  0171  00DB               	movwf	??_vfpfcnvrt+2
  6209  0172  085B               	movf	??_vfpfcnvrt+2,w
  6210  0173  00E7               	movwf	vfpfcnvrt@c
  6211  0174                     l5676:
  6212                           
  6213                           ;C:\Program Files\Microchip\xc8\v2.32\pic\sources\c99\common\doprnt.c: 1299:            
      +                           ++*fmt;
  6214  0174  0857               	movf	vfpfcnvrt@fmt,w
  6215  0175  0086               	movwf	6
  6216  0176  0187               	clrf	7
  6217  0177  3001               	movlw	1
  6218  0178  0781               	addwf	1,f
  6219  0179  3141               	addfsr 1,1
  6220  017A  1803               	skipnc
  6221  017B  0A81               	incf	1,f
  6222  017C                     l5678:
  6223                           
  6224                           ;C:\Program Files\Microchip\xc8\v2.32\pic\sources\c99\common\doprnt.c: 1300:            
      +                           llu = (unsigned long long)(*(unsigned int *)__va_arg(*(unsigned int **)ap, (unsigned in
      +                          t)0));
  6225  017C  0858               	movf	vfpfcnvrt@ap,w
  6226  017D  0086               	movwf	6
  6227  017E  0187               	clrf	7
  6228  017F  0801               	movf	1,w
  6229  0180  0084               	movwf	4
  6230  0181  0185               	clrf	5
  6231  0182  3002               	movlw	2
  6232  0183  0781               	addwf	1,f
  6233  0184  3F00               	moviw [0]fsr0
  6234  0185  00DF               	movwf	vfpfcnvrt@llu
  6235  0186  3F01               	moviw [1]fsr0
  6236  0187  00E0               	movwf	vfpfcnvrt@llu+1
  6237  0188  01E1               	clrf	vfpfcnvrt@llu+2
  6238  0189  01E2               	clrf	vfpfcnvrt@llu+3
  6239  018A  01E3               	clrf	vfpfcnvrt@llu+4
  6240  018B  01E4               	clrf	vfpfcnvrt@llu+5
  6241  018C  01E5               	clrf	vfpfcnvrt@llu+6
  6242  018D  01E6               	clrf	vfpfcnvrt@llu+7
  6243  018E                     l5680:
  6244                           
  6245                           ;C:\Program Files\Microchip\xc8\v2.32\pic\sources\c99\common\doprnt.c: 1302:            
      +                           return xtoa(fp, llu, c);
  6246  018E  085F               	movf	vfpfcnvrt@llu,w
  6247  018F  00B1               	movwf	xtoa@d
  6248  0190  0860               	movf	vfpfcnvrt@llu+1,w
  6249  0191  00B2               	movwf	xtoa@d+1
  6250  0192  0861               	movf	vfpfcnvrt@llu+2,w
  6251  0193  00B3               	movwf	xtoa@d+2
  6252  0194  0862               	movf	vfpfcnvrt@llu+3,w
  6253  0195  00B4               	movwf	xtoa@d+3
  6254  0196  0863               	movf	vfpfcnvrt@llu+4,w
  6255  0197  00B5               	movwf	xtoa@d+4
  6256  0198  0864               	movf	vfpfcnvrt@llu+5,w
  6257  0199  00B6               	movwf	xtoa@d+5
  6258  019A  0865               	movf	vfpfcnvrt@llu+6,w
  6259  019B  00B7               	movwf	xtoa@d+6
  6260  019C  0866               	movf	vfpfcnvrt@llu+7,w
  6261  019D  00B8               	movwf	xtoa@d+7
  6262  019E  0867               	movf	vfpfcnvrt@c,w
  6263  019F  00D9               	movwf	??_vfpfcnvrt
  6264  01A0  0859               	movf	??_vfpfcnvrt,w
  6265  01A1  00B9               	movwf	xtoa@x
  6266  01A2  086C               	movf	vfpfcnvrt@fp,w
  6267  01A3  3182  2205  3180   	fcall	_xtoa
  6268  01A6  0140               	movlb	0	; select bank0
  6269  01A7  0832               	movf	?_xtoa+1,w
  6270  01A8  00D8               	movwf	?_vfpfcnvrt+1
  6271  01A9  0831               	movf	?_xtoa,w
  6272  01AA  00D7               	movwf	?_vfpfcnvrt
  6273  01AB  2A04               	goto	l1705
  6274  01AC                     l5684:
  6275                           
  6276                           ;C:\Program Files\Microchip\xc8\v2.32\pic\sources\c99\common\doprnt.c: 1372:         if 
      +                          ((*fmt)[0] == '%') {
  6277  01AC  0857               	movf	vfpfcnvrt@fmt,w
  6278  01AD  0086               	movwf	6
  6279  01AE  0187               	clrf	7
  6280  01AF  3F40               	moviw [0]fsr1
  6281  01B0  00D9               	movwf	??_vfpfcnvrt
  6282  01B1  3F41               	moviw [1]fsr1
  6283  01B2  00DA               	movwf	??_vfpfcnvrt+1
  6284  01B3  0859               	movf	??_vfpfcnvrt,w
  6285  01B4  0084               	movwf	4
  6286  01B5  085A               	movf	??_vfpfcnvrt+1,w
  6287  01B6  0085               	movwf	5
  6288  01B7  0012               	moviw fsr0++
  6289  01B8  3A25               	xorlw	37
  6290  01B9  1D03               	btfss	3,2
  6291  01BA  29BC               	goto	u4051
  6292  01BB  29BD               	goto	u4050
  6293  01BC                     u4051:
  6294  01BC  29D6               	goto	l5694
  6295  01BD                     u4050:
  6296  01BD                     l5686:
  6297                           
  6298                           ;C:\Program Files\Microchip\xc8\v2.32\pic\sources\c99\common\doprnt.c: 1373:            
      +                           ++*fmt;
  6299  01BD  0857               	movf	vfpfcnvrt@fmt,w
  6300  01BE  0086               	movwf	6
  6301  01BF  0187               	clrf	7
  6302  01C0  3001               	movlw	1
  6303  01C1  0781               	addwf	1,f
  6304  01C2  3141               	addfsr 1,1
  6305  01C3  1803               	skipnc
  6306  01C4  0A81               	incf	1,f
  6307  01C5                     l5688:
  6308                           
  6309                           ;C:\Program Files\Microchip\xc8\v2.32\pic\sources\c99\common\doprnt.c: 1374:            
      +                           fputc((int)'%', fp);
  6310  01C5  3025               	movlw	37
  6311  01C6  00F4               	movwf	fputc@c
  6312  01C7  3000               	movlw	0
  6313  01C8  00F5               	movwf	fputc@c+1
  6314  01C9  086C               	movf	vfpfcnvrt@fp,w
  6315  01CA  00D9               	movwf	??_vfpfcnvrt
  6316  01CB  0859               	movf	??_vfpfcnvrt,w
  6317  01CC  00F6               	movwf	fputc@fp
  6318  01CD  3186  265B  3180   	fcall	_fputc
  6319  01D0                     l5690:
  6320                           
  6321                           ;C:\Program Files\Microchip\xc8\v2.32\pic\sources\c99\common\doprnt.c: 1375:            
      +                           return 1;
  6322  01D0  3001               	movlw	1
  6323  01D1  0140               	movlb	0	; select bank0
  6324  01D2  00D7               	movwf	?_vfpfcnvrt
  6325  01D3  3000               	movlw	0
  6326  01D4  00D8               	movwf	?_vfpfcnvrt+1
  6327  01D5  2A04               	goto	l1705
  6328  01D6                     l5694:
  6329                           
  6330                           ;C:\Program Files\Microchip\xc8\v2.32\pic\sources\c99\common\doprnt.c: 1379:         ++*
      +                          fmt;
  6331  01D6  0857               	movf	vfpfcnvrt@fmt,w
  6332  01D7  0086               	movwf	6
  6333  01D8  0187               	clrf	7
  6334  01D9  3001               	movlw	1
  6335  01DA  0781               	addwf	1,f
  6336  01DB  3141               	addfsr 1,1
  6337  01DC  1803               	skipnc
  6338  01DD  0A81               	incf	1,f
  6339  01DE                     l5696:
  6340                           
  6341                           ;C:\Program Files\Microchip\xc8\v2.32\pic\sources\c99\common\doprnt.c: 1380:         ret
      +                          urn 0;
  6342  01DE  01D7               	clrf	?_vfpfcnvrt
  6343  01DF  01D8               	clrf	?_vfpfcnvrt+1
  6344  01E0  2A04               	goto	l1705
  6345  01E1                     l5700:
  6346                           
  6347                           ;C:\Program Files\Microchip\xc8\v2.32\pic\sources\c99\common\doprnt.c: 1384:     fputc((
      +                          int)(*fmt)[0], fp);
  6348  01E1  0857               	movf	vfpfcnvrt@fmt,w
  6349  01E2  0086               	movwf	6
  6350  01E3  0187               	clrf	7
  6351  01E4  3F40               	moviw [0]fsr1
  6352  01E5  00D9               	movwf	??_vfpfcnvrt
  6353  01E6  3F41               	moviw [1]fsr1
  6354  01E7  00DA               	movwf	??_vfpfcnvrt+1
  6355  01E8  0859               	movf	??_vfpfcnvrt,w
  6356  01E9  0084               	movwf	4
  6357  01EA  085A               	movf	??_vfpfcnvrt+1,w
  6358  01EB  0085               	movwf	5
  6359  01EC  0800               	movf	0,w	;code access
  6360  01ED  00DB               	movwf	??_vfpfcnvrt+2
  6361  01EE  01DC               	clrf	??_vfpfcnvrt+3
  6362  01EF  085B               	movf	??_vfpfcnvrt+2,w
  6363  01F0  00F4               	movwf	fputc@c
  6364  01F1  085C               	movf	??_vfpfcnvrt+3,w
  6365  01F2  00F5               	movwf	fputc@c+1
  6366  01F3  086C               	movf	vfpfcnvrt@fp,w
  6367  01F4  00DD               	movwf	??_vfpfcnvrt+4
  6368  01F5  085D               	movf	??_vfpfcnvrt+4,w
  6369  01F6  00F6               	movwf	fputc@fp
  6370  01F7  3186  265B  3180   	fcall	_fputc
  6371  01FA                     l5702:
  6372                           
  6373                           ;C:\Program Files\Microchip\xc8\v2.32\pic\sources\c99\common\doprnt.c: 1385:     ++*fmt;
  6374  01FA  0140               	movlb	0	; select bank0
  6375  01FB  0857               	movf	vfpfcnvrt@fmt,w
  6376  01FC  0086               	movwf	6
  6377  01FD  0187               	clrf	7
  6378  01FE  3001               	movlw	1
  6379  01FF  0781               	addwf	1,f
  6380  0200  3141               	addfsr 1,1
  6381  0201  1803               	skipnc
  6382  0202  0A81               	incf	1,f
  6383  0203  29D0               	goto	l5690
  6384  0204                     l1705:
  6385  0204  0008               	return
  6386  0205                     __end_of_vfpfcnvrt:
  6387                           
  6388                           	psect	text19
  6389  0205                     __ptext19:	
  6390 ;; *************** function _xtoa *****************
  6391 ;; Defined at:
  6392 ;;		line 645 in file "C:\Program Files\Microchip\xc8\v2.32\pic\sources\c99\common\doprnt.c"
  6393 ;; Parameters:    Size  Location     Type
  6394 ;;  fp              1    wreg     PTR struct _IO_FILE
  6395 ;;		 -> NULL(0), 
  6396 ;;  d               8   17[BANK0 ] unsigned long long 
  6397 ;;  x               1   25[BANK0 ] unsigned char 
  6398 ;; Auto vars:     Size  Location     Type
  6399 ;;  fp              1   38[BANK0 ] PTR struct _IO_FILE
  6400 ;;		 -> NULL(0), 
  6401 ;;  n               8   43[BANK0 ] unsigned long long 
  6402 ;;  c               2   53[BANK0 ] int 
  6403 ;;  i               2   51[BANK0 ] int 
  6404 ;;  w               2   41[BANK0 ] int 
  6405 ;;  p               2   39[BANK0 ] int 
  6406 ;; Return value:  Size  Location     Type
  6407 ;;                  2   17[BANK0 ] int 
  6408 ;; Registers used:
  6409 ;;		wreg, fsr1l, fsr1h, status,2, status,0, pclath, cstack
  6410 ;; Tracked objects:
  6411 ;;		On entry : 0/0
  6412 ;;		On exit  : 0/0
  6413 ;;		Unchanged: 0/0
  6414 ;; Data sizes:     COMMON   BANK0   BANK1   BANK2   BANK3   BANK4   BANK5   BANK6   BANK7   BANK8   BANK9  BANK10  BANK1
      +1  BANK12  BANK13  BANK14  BANK15  BANK16  BANK17  BANK18  BANK19  BANK20  BANK21  BANK22  BANK23  BANK24  BANK25
  6415 ;;      Params:         0       9       0       0       0       0       0       0       0       0       0       0       
      +0       0       0       0       0       0       0       0       0       0       0       0       0       0       0
  6416 ;;      Locals:         0      21       0       0       0       0       0       0       0       0       0       0       
      +0       0       0       0       0       0       0       0       0       0       0       0       0       0       0
  6417 ;;      Temps:          0       8       0       0       0       0       0       0       0       0       0       0       
      +0       0       0       0       0       0       0       0       0       0       0       0       0       0       0
  6418 ;;      Totals:         0      38       0       0       0       0       0       0       0       0       0       0       
      +0       0       0       0       0       0       0       0       0       0       0       0       0       0       0
  6419 ;;Total ram usage:       38 bytes
  6420 ;; Hardware stack levels used: 1
  6421 ;; Hardware stack levels required when called: 9
  6422 ;; This function calls:
  6423 ;;		_isalpha
  6424 ;;		_isupper
  6425 ;;		_pad
  6426 ;;		_toupper
  6427 ;; This function is called by:
  6428 ;;		_vfpfcnvrt
  6429 ;; This function uses a non-reentrant model
  6430 ;;
  6431                           
  6432                           
  6433                           ;psect for function _xtoa
  6434  0205                     _xtoa:
  6435                           
  6436                           ;incstack = 0
  6437                           ; Regs used in _xtoa: [wreg+fsr1l+fsr1h+status,2+status,0+pclath+cstack]
  6438                           ;xtoa@fp stored from wreg
  6439  0205  0140               	movlb	0	; select bank0
  6440  0206  00C6               	movwf	xtoa@fp
  6441  0207                     l5484:
  6442                           
  6443                           ;C:\Program Files\Microchip\xc8\v2.32\pic\sources\c99\common\doprnt.c: 645: static int x
      +                          toa(FILE *fp, unsigned long long d, char x);C:\Program Files\Microchip\xc8\v2.32\pic\sou
      +                          rces\c99\common\doprnt.c: 646: {;C:\Program Files\Microchip\xc8\v2.32\pic\sources\c99\co
      +                          mmon\doprnt.c: 647:     int c, i, p, w;;C:\Program Files\Microchip\xc8\v2.32\pic\sources
      +                          \c99\common\doprnt.c: 648:     unsigned long long n;;C:\Program Files\Microchip\xc8\v2.3
      +                          2\pic\sources\c99\common\doprnt.c: 651:     if (!(prec < 0)) {
  6444  0207  0141               	movlb	1	; select bank1
  6445  0208  1BB5               	btfsc	(_prec+1)^(0+128),7
  6446  0209  2A0B               	goto	u3691
  6447  020A  2A0C               	goto	u3690
  6448  020B                     u3691:
  6449  020B  2A10               	goto	l1649
  6450  020C                     u3690:
  6451  020C                     l5486:
  6452                           
  6453                           ;C:\Program Files\Microchip\xc8\v2.32\pic\sources\c99\common\doprnt.c: 652:         flag
      +                          s &= ~(1 << 1);
  6454  020C  30FD               	movlw	253
  6455  020D  05B6               	andwf	_flags^(0+128),f
  6456  020E  30FF               	movlw	255
  6457  020F  05B7               	andwf	(_flags+1)^(0+128),f
  6458  0210                     l1649:	
  6459                           ;C:\Program Files\Microchip\xc8\v2.32\pic\sources\c99\common\doprnt.c: 653:     }
  6460                           
  6461                           
  6462                           ;C:\Program Files\Microchip\xc8\v2.32\pic\sources\c99\common\doprnt.c: 654:     p = (0 <
      +                           prec) ? prec : 1;
  6463  0210  0835               	movf	(_prec+1)^(0+128),w
  6464  0211  3A80               	xorlw	128
  6465  0212  0140               	movlb	0	; select bank0
  6466  0213  00BA               	movwf	??_xtoa
  6467  0214  3080               	movlw	128
  6468  0215  023A               	subwf	??_xtoa,w
  6469  0216  1D03               	skipz
  6470  0217  2A1B               	goto	u3705
  6471  0218  3001               	movlw	1
  6472  0219  0141               	movlb	1	; select bank1
  6473  021A  0234               	subwf	_prec^(0+128),w
  6474  021B                     u3705:
  6475  021B  1803               	skipnc
  6476  021C  2A1E               	goto	u3701
  6477  021D  2A1F               	goto	u3700
  6478  021E                     u3701:
  6479  021E  2A25               	goto	l5490
  6480  021F                     u3700:
  6481  021F                     l5488:
  6482  021F  3001               	movlw	1
  6483  0220  0140               	movlb	0	; select bank0
  6484  0221  00C7               	movwf	xtoa@p
  6485  0222  3000               	movlw	0
  6486  0223  00C8               	movwf	xtoa@p+1
  6487  0224  2A2D               	goto	l1653
  6488  0225                     l5490:
  6489  0225  0141               	movlb	1	; select bank1
  6490  0226  0835               	movf	(_prec+1)^(0+128),w
  6491  0227  0140               	movlb	0	; select bank0
  6492  0228  00C8               	movwf	xtoa@p+1
  6493  0229  0141               	movlb	1	; select bank1
  6494  022A  0834               	movf	_prec^(0+128),w
  6495  022B  0140               	movlb	0	; select bank0
  6496  022C  00C7               	movwf	xtoa@p
  6497  022D                     l1653:
  6498                           
  6499                           ;C:\Program Files\Microchip\xc8\v2.32\pic\sources\c99\common\doprnt.c: 655:     w = widt
      +                          h;
  6500  022D  0141               	movlb	1	; select bank1
  6501  022E  0833               	movf	(_width+1)^(0+128),w
  6502  022F  0140               	movlb	0	; select bank0
  6503  0230  00CA               	movwf	xtoa@w+1
  6504  0231  0141               	movlb	1	; select bank1
  6505  0232  0832               	movf	_width^(0+128),w
  6506  0233  0140               	movlb	0	; select bank0
  6507  0234  00C9               	movwf	xtoa@w
  6508  0235                     l5492:
  6509                           
  6510                           ;C:\Program Files\Microchip\xc8\v2.32\pic\sources\c99\common\doprnt.c: 656:     if (flag
      +                          s & (1 << 4)) {
  6511  0235  0141               	movlb	1	; select bank1
  6512  0236  1E36               	btfss	_flags^(0+128),4
  6513  0237  2A39               	goto	u3711
  6514  0238  2A3A               	goto	u3710
  6515  0239                     u3711:
  6516  0239  2A3F               	goto	l5496
  6517  023A                     u3710:
  6518  023A                     l5494:
  6519                           
  6520                           ;C:\Program Files\Microchip\xc8\v2.32\pic\sources\c99\common\doprnt.c: 657:         w -=
      +                           2;
  6521  023A  30FE               	movlw	254
  6522  023B  0140               	movlb	0	; select bank0
  6523  023C  07C9               	addwf	xtoa@w,f
  6524  023D  30FF               	movlw	255
  6525  023E  3DCA               	addwfc	xtoa@w+1,f
  6526  023F                     l5496:
  6527                           
  6528                           ;C:\Program Files\Microchip\xc8\v2.32\pic\sources\c99\common\doprnt.c: 661:     n = d;
  6529  023F  0140               	movlb	0	; select bank0
  6530  0240  0831               	movf	xtoa@d,w
  6531  0241  00CB               	movwf	xtoa@n
  6532  0242  0832               	movf	xtoa@d+1,w
  6533  0243  00CC               	movwf	xtoa@n+1
  6534  0244  0833               	movf	xtoa@d+2,w
  6535  0245  00CD               	movwf	xtoa@n+2
  6536  0246  0834               	movf	xtoa@d+3,w
  6537  0247  00CE               	movwf	xtoa@n+3
  6538  0248  0835               	movf	xtoa@d+4,w
  6539  0249  00CF               	movwf	xtoa@n+4
  6540  024A  0836               	movf	xtoa@d+5,w
  6541  024B  00D0               	movwf	xtoa@n+5
  6542  024C  0837               	movf	xtoa@d+6,w
  6543  024D  00D1               	movwf	xtoa@n+6
  6544  024E  0838               	movf	xtoa@d+7,w
  6545  024F  00D2               	movwf	xtoa@n+7
  6546                           
  6547                           ;C:\Program Files\Microchip\xc8\v2.32\pic\sources\c99\common\doprnt.c: 662:     i = size
      +                          of(dbuf) - 1;
  6548  0250  301F               	movlw	31
  6549  0251  00D3               	movwf	xtoa@i
  6550  0252  3000               	movlw	0
  6551  0253  00D4               	movwf	xtoa@i+1
  6552  0254                     l5498:
  6553                           
  6554                           ;C:\Program Files\Microchip\xc8\v2.32\pic\sources\c99\common\doprnt.c: 663:     dbuf[i] 
      +                          = '\0';
  6555  0254  0144               	movlb	4	; select bank4
  6556  0255  01DC               	clrf	(_dbuf^(0+512)+31)
  6557                           
  6558                           ;C:\Program Files\Microchip\xc8\v2.32\pic\sources\c99\common\doprnt.c: 664:     while (!
      +                          (i < 2) && (n || (0 < p) || ((0 < w) && (flags & (1 << 1))))) {
  6559  0256  2B0D               	goto	l5528
  6560  0257                     l5500:
  6561                           
  6562                           ;C:\Program Files\Microchip\xc8\v2.32\pic\sources\c99\common\doprnt.c: 665:         --i;
  6563  0257  30FF               	movlw	255
  6564  0258  0140               	movlb	0	; select bank0
  6565  0259  07D3               	addwf	xtoa@i,f
  6566  025A  30FF               	movlw	255
  6567  025B  3DD4               	addwfc	xtoa@i+1,f
  6568                           
  6569                           ;C:\Program Files\Microchip\xc8\v2.32\pic\sources\c99\common\doprnt.c: 666:         c = 
      +                          n & 0x0f;
  6570  025C  300F               	movlw	15
  6571  025D  054B               	andwf	xtoa@n,w
  6572  025E  00D5               	movwf	xtoa@c
  6573  025F  3000               	movlw	0
  6574  0260  054C               	andwf	xtoa@n+1,w
  6575  0261  00D6               	movwf	xtoa@c+1
  6576                           
  6577                           ;C:\Program Files\Microchip\xc8\v2.32\pic\sources\c99\common\doprnt.c: 667:         c = 
      +                          (c < 10) ? (int)'0' + c : (int)'a' + (c - 10);
  6578  0262  0856               	movf	xtoa@c+1,w
  6579  0263  3A80               	xorlw	128
  6580  0264  00BA               	movwf	??_xtoa
  6581  0265  3080               	movlw	128
  6582  0266  023A               	subwf	??_xtoa,w
  6583  0267  1D03               	skipz
  6584  0268  2A6B               	goto	u3725
  6585  0269  300A               	movlw	10
  6586  026A  0255               	subwf	xtoa@c,w
  6587  026B                     u3725:
  6588  026B  1C03               	skipc
  6589  026C  2A6E               	goto	u3721
  6590  026D  2A6F               	goto	u3720
  6591  026E                     u3721:
  6592  026E  2A77               	goto	l5504
  6593  026F                     u3720:
  6594  026F                     l5502:
  6595  026F  0140               	movlb	0	; select bank0
  6596  0270  0855               	movf	xtoa@c,w
  6597  0271  3E57               	addlw	87
  6598  0272  00D5               	movwf	xtoa@c
  6599  0273  3000               	movlw	0
  6600  0274  3D56               	addwfc	xtoa@c+1,w
  6601  0275  00D6               	movwf	xtoa@c+1
  6602  0276  2A7E               	goto	l5506
  6603  0277                     l5504:
  6604  0277  0140               	movlb	0	; select bank0
  6605  0278  0855               	movf	xtoa@c,w
  6606  0279  3E30               	addlw	48
  6607  027A  00D5               	movwf	xtoa@c
  6608  027B  3000               	movlw	0
  6609  027C  3D56               	addwfc	xtoa@c+1,w
  6610  027D  00D6               	movwf	xtoa@c+1
  6611  027E                     l5506:
  6612  027E  0839               	movf	xtoa@x,w
  6613  027F  3EBF               	addlw	191
  6614  0280  00BA               	movwf	??_xtoa
  6615  0281  30FF               	movlw	255
  6616  0282  1803               	skipnc
  6617  0283  3000               	movlw	0
  6618  0284  00BB               	movwf	??_xtoa+1
  6619  0285  3000               	movlw	0
  6620  0286  023B               	subwf	??_xtoa+1,w
  6621  0287  301A               	movlw	26
  6622  0288  1903               	skipnz
  6623  0289  023A               	subwf	??_xtoa,w
  6624  028A  1C03               	skipc
  6625  028B  2A8D               	goto	u3731
  6626  028C  2A8F               	goto	u3730
  6627  028D                     u3731:
  6628  028D  3001               	movlw	1
  6629  028E  2A90               	goto	u3740
  6630  028F                     u3730:
  6631  028F  3000               	movlw	0
  6632  0290                     u3740:
  6633  0290  00BC               	movwf	??_xtoa+2
  6634  0291  01BD               	clrf	??_xtoa+3
  6635  0292  083C               	movf	??_xtoa+2,w
  6636  0293  00C2               	movwf	_xtoa$2091
  6637  0294  083D               	movf	??_xtoa+3,w
  6638  0295  00C3               	movwf	_xtoa$2091+1
  6639  0296                     l5510:
  6640  0296  0842               	movf	_xtoa$2091,w
  6641  0297  0443               	iorwf	_xtoa$2091+1,w
  6642  0298  1903               	btfsc	3,2
  6643  0299  2A9B               	goto	u3751
  6644  029A  2A9C               	goto	u3750
  6645  029B                     u3751:
  6646  029B  2ACB               	goto	l5520
  6647  029C                     u3750:
  6648  029C                     l5512:
  6649  029C  3020               	movlw	32
  6650  029D  0455               	iorwf	xtoa@c,w
  6651  029E  00BA               	movwf	??_xtoa
  6652  029F  3000               	movlw	0
  6653  02A0  0456               	iorwf	xtoa@c+1,w
  6654  02A1  00BB               	movwf	??_xtoa+1
  6655  02A2  083A               	movf	??_xtoa,w
  6656  02A3  3E9F               	addlw	159
  6657  02A4  00BC               	movwf	??_xtoa+2
  6658  02A5  30FF               	movlw	255
  6659  02A6  3D3B               	addwfc	??_xtoa+1,w
  6660  02A7  00BD               	movwf	??_xtoa+3
  6661  02A8  3000               	movlw	0
  6662  02A9  023D               	subwf	??_xtoa+3,w
  6663  02AA  301A               	movlw	26
  6664  02AB  1903               	skipnz
  6665  02AC  023C               	subwf	??_xtoa+2,w
  6666  02AD  1C03               	skipc
  6667  02AE  2AB0               	goto	u3761
  6668  02AF  2AB2               	goto	u3760
  6669  02B0                     u3761:
  6670  02B0  3001               	movlw	1
  6671  02B1  2AB3               	goto	u3770
  6672  02B2                     u3760:
  6673  02B2  3000               	movlw	0
  6674  02B3                     u3770:
  6675  02B3  00BE               	movwf	??_xtoa+4
  6676  02B4  01BF               	clrf	??_xtoa+5
  6677  02B5  083E               	movf	??_xtoa+4,w
  6678  02B6  00C4               	movwf	_xtoa$2092
  6679  02B7  083F               	movf	??_xtoa+5,w
  6680  02B8  00C5               	movwf	_xtoa$2092+1
  6681  02B9                     l5516:
  6682  02B9  0844               	movf	_xtoa$2092,w
  6683  02BA  0445               	iorwf	_xtoa$2092+1,w
  6684  02BB  1903               	btfsc	3,2
  6685  02BC  2ABE               	goto	u3781
  6686  02BD  2ABF               	goto	u3780
  6687  02BE                     u3781:
  6688  02BE  2ACB               	goto	l5520
  6689  02BF                     u3780:
  6690  02BF                     l5518:
  6691                           
  6692                           ;C:\Program Files\Microchip\xc8\v2.32\pic\sources\c99\common\doprnt.c: 669:             
      +                          c = toupper(c);
  6693  02BF  0856               	movf	xtoa@c+1,w
  6694  02C0  00F8               	movwf	toupper@c+1
  6695  02C1  0855               	movf	xtoa@c,w
  6696  02C2  00F7               	movwf	toupper@c
  6697  02C3  318F  275A  3182   	fcall	_toupper
  6698  02C6  0878               	movf	?_toupper+1,w
  6699  02C7  0140               	movlb	0	; select bank0
  6700  02C8  00D6               	movwf	xtoa@c+1
  6701  02C9  0877               	movf	?_toupper,w
  6702  02CA  00D5               	movwf	xtoa@c
  6703  02CB                     l5520:
  6704                           
  6705                           ;C:\Program Files\Microchip\xc8\v2.32\pic\sources\c99\common\doprnt.c: 671:         dbuf
      +                          [i] = (char)c;
  6706  02CB  0855               	movf	xtoa@c,w
  6707  02CC  00BA               	movwf	??_xtoa
  6708  02CD  0853               	movf	xtoa@i,w
  6709  02CE  3E3D               	addlw	(low (_dbuf| (0+512)))& (0+255)
  6710  02CF  0086               	movwf	6
  6711  02D0  3002               	movlw	2	; select bank4/5
  6712  02D1  0087               	movwf	7
  6713  02D2  083A               	movf	??_xtoa,w
  6714  02D3  0081               	movwf	1
  6715  02D4                     l5522:
  6716                           
  6717                           ;C:\Program Files\Microchip\xc8\v2.32\pic\sources\c99\common\doprnt.c: 672:         --p;
  6718  02D4  30FF               	movlw	255
  6719  02D5  07C7               	addwf	xtoa@p,f
  6720  02D6  30FF               	movlw	255
  6721  02D7  3DC8               	addwfc	xtoa@p+1,f
  6722  02D8                     l5524:
  6723                           
  6724                           ;C:\Program Files\Microchip\xc8\v2.32\pic\sources\c99\common\doprnt.c: 673:         --w;
  6725  02D8  30FF               	movlw	255
  6726  02D9  07C9               	addwf	xtoa@w,f
  6727  02DA  30FF               	movlw	255
  6728  02DB  3DCA               	addwfc	xtoa@w+1,f
  6729  02DC                     l5526:
  6730                           
  6731                           ;C:\Program Files\Microchip\xc8\v2.32\pic\sources\c99\common\doprnt.c: 674:         n = 
      +                          n >> 4;
  6732  02DC  304B               	movlw	low xtoa@n
  6733  02DD  0086               	movwf	6
  6734  02DE  3000               	movlw	high xtoa@n
  6735  02DF  0087               	movwf	7
  6736  02E0  3F40               	moviw [0]fsr1
  6737  02E1  00BA               	movwf	??_xtoa
  6738  02E2  3F41               	moviw [1]fsr1
  6739  02E3  00BB               	movwf	??_xtoa+1
  6740  02E4  3F42               	moviw [2]fsr1
  6741  02E5  00BC               	movwf	??_xtoa+2
  6742  02E6  3F43               	moviw [3]fsr1
  6743  02E7  00BD               	movwf	??_xtoa+3
  6744  02E8  3F44               	moviw [4]fsr1
  6745  02E9  00BE               	movwf	??_xtoa+4
  6746  02EA  3F45               	moviw [5]fsr1
  6747  02EB  00BF               	movwf	??_xtoa+5
  6748  02EC  3F46               	moviw [6]fsr1
  6749  02ED  00C0               	movwf	??_xtoa+6
  6750  02EE  3F47               	moviw [7]fsr1
  6751  02EF  00C1               	movwf	??_xtoa+7
  6752  02F0  3004               	movlw	4
  6753  02F1                     u3795:
  6754  02F1  0140               	movlb	0	; select bank0
  6755  02F2  36C1               	lsrf	??_xtoa+7,f
  6756  02F3  0CC0               	rrf	??_xtoa+6,f
  6757  02F4  0CBF               	rrf	??_xtoa+5,f
  6758  02F5  0CBE               	rrf	??_xtoa+4,f
  6759  02F6  0CBD               	rrf	??_xtoa+3,f
  6760  02F7  0CBC               	rrf	??_xtoa+2,f
  6761  02F8  0CBB               	rrf	??_xtoa+1,f
  6762  02F9  0CBA               	rrf	??_xtoa,f
  6763  02FA                     u3790:
  6764  02FA  0B89               	decfsz	9,f
  6765  02FB  2AF1               	goto	u3795
  6766  02FC  0140               	movlb	0	; select bank0
  6767  02FD  0841               	movf	??_xtoa+7,w
  6768  02FE  00D2               	movwf	xtoa@n+7
  6769  02FF  0840               	movf	??_xtoa+6,w
  6770  0300  00D1               	movwf	xtoa@n+6
  6771  0301  083F               	movf	??_xtoa+5,w
  6772  0302  00D0               	movwf	xtoa@n+5
  6773  0303  083E               	movf	??_xtoa+4,w
  6774  0304  00CF               	movwf	xtoa@n+4
  6775  0305  083D               	movf	??_xtoa+3,w
  6776  0306  00CE               	movwf	xtoa@n+3
  6777  0307  083C               	movf	??_xtoa+2,w
  6778  0308  00CD               	movwf	xtoa@n+2
  6779  0309  083B               	movf	??_xtoa+1,w
  6780  030A  00CC               	movwf	xtoa@n+1
  6781  030B  083A               	movf	??_xtoa,w
  6782  030C  00CB               	movwf	xtoa@n
  6783  030D                     l5528:
  6784                           
  6785                           ;C:\Program Files\Microchip\xc8\v2.32\pic\sources\c99\common\doprnt.c: 664:     while (!
      +                          (i < 2) && (n || (0 < p) || ((0 < w) && (flags & (1 << 1))))) {
  6786  030D  0140               	movlb	0	; select bank0
  6787  030E  0854               	movf	xtoa@i+1,w
  6788  030F  3A80               	xorlw	128
  6789  0310  00BA               	movwf	??_xtoa
  6790  0311  3080               	movlw	128
  6791  0312  023A               	subwf	??_xtoa,w
  6792  0313  1D03               	skipz
  6793  0314  2B17               	goto	u3805
  6794  0315  3002               	movlw	2
  6795  0316  0253               	subwf	xtoa@i,w
  6796  0317                     u3805:
  6797  0317  1C03               	skipc
  6798  0318  2B1A               	goto	u3801
  6799  0319  2B1B               	goto	u3800
  6800  031A                     u3801:
  6801  031A  2B48               	goto	l1674
  6802  031B                     u3800:
  6803  031B                     l5530:
  6804  031B  0140               	movlb	0	; select bank0
  6805  031C  084B               	movf	xtoa@n,w
  6806  031D  044C               	iorwf	xtoa@n+1,w
  6807  031E  044D               	iorwf	xtoa@n+2,w
  6808  031F  044E               	iorwf	xtoa@n+3,w
  6809  0320  044F               	iorwf	xtoa@n+4,w
  6810  0321  0450               	iorwf	xtoa@n+5,w
  6811  0322  0451               	iorwf	xtoa@n+6,w
  6812  0323  0452               	iorwf	xtoa@n+7,w
  6813  0324  1D03               	skipz
  6814  0325  2B27               	goto	u3811
  6815  0326  2B28               	goto	u3810
  6816  0327                     u3811:
  6817  0327  2A57               	goto	l5500
  6818  0328                     u3810:
  6819  0328                     l5532:
  6820  0328  0848               	movf	xtoa@p+1,w
  6821  0329  3A80               	xorlw	128
  6822  032A  00BA               	movwf	??_xtoa
  6823  032B  3080               	movlw	128
  6824  032C  023A               	subwf	??_xtoa,w
  6825  032D  1D03               	skipz
  6826  032E  2B31               	goto	u3825
  6827  032F  3001               	movlw	1
  6828  0330  0247               	subwf	xtoa@p,w
  6829  0331                     u3825:
  6830  0331  1803               	skipnc
  6831  0332  2B34               	goto	u3821
  6832  0333  2B35               	goto	u3820
  6833  0334                     u3821:
  6834  0334  2A57               	goto	l5500
  6835  0335                     u3820:
  6836  0335                     l5534:
  6837  0335  0140               	movlb	0	; select bank0
  6838  0336  084A               	movf	xtoa@w+1,w
  6839  0337  3A80               	xorlw	128
  6840  0338  00BA               	movwf	??_xtoa
  6841  0339  3080               	movlw	128
  6842  033A  023A               	subwf	??_xtoa,w
  6843  033B  1D03               	skipz
  6844  033C  2B3F               	goto	u3835
  6845  033D  3001               	movlw	1
  6846  033E  0249               	subwf	xtoa@w,w
  6847  033F                     u3835:
  6848  033F  1C03               	skipc
  6849  0340  2B42               	goto	u3831
  6850  0341  2B43               	goto	u3830
  6851  0342                     u3831:
  6852  0342  2B48               	goto	l1674
  6853  0343                     u3830:
  6854  0343                     l5536:
  6855  0343  0141               	movlb	1	; select bank1
  6856  0344  18B6               	btfsc	_flags^(0+128),1
  6857  0345  2B47               	goto	u3841
  6858  0346  2B48               	goto	u3840
  6859  0347                     u3841:
  6860  0347  2A57               	goto	l5500
  6861  0348                     u3840:
  6862  0348                     l1674:
  6863                           
  6864                           ;C:\Program Files\Microchip\xc8\v2.32\pic\sources\c99\common\doprnt.c: 678:     if (flag
      +                          s & (1 << 4)) {
  6865  0348  0141               	movlb	1	; select bank1
  6866  0349  1E36               	btfss	_flags^(0+128),4
  6867  034A  2B4C               	goto	u3851
  6868  034B  2B4D               	goto	u3850
  6869  034C                     u3851:
  6870  034C  2B68               	goto	l5544
  6871  034D                     u3850:
  6872  034D                     l5538:
  6873                           
  6874                           ;C:\Program Files\Microchip\xc8\v2.32\pic\sources\c99\common\doprnt.c: 679:         --i;
  6875  034D  30FF               	movlw	255
  6876  034E  0140               	movlb	0	; select bank0
  6877  034F  07D3               	addwf	xtoa@i,f
  6878  0350  30FF               	movlw	255
  6879  0351  3DD4               	addwfc	xtoa@i+1,f
  6880  0352                     l5540:
  6881                           
  6882                           ;C:\Program Files\Microchip\xc8\v2.32\pic\sources\c99\common\doprnt.c: 680:         dbuf
      +                          [i] = x;
  6883  0352  0839               	movf	xtoa@x,w
  6884  0353  00BA               	movwf	??_xtoa
  6885  0354  0853               	movf	xtoa@i,w
  6886  0355  3E3D               	addlw	(low (_dbuf| (0+512)))& (0+255)
  6887  0356  0086               	movwf	6
  6888  0357  3002               	movlw	2	; select bank4/5
  6889  0358  0087               	movwf	7
  6890  0359  083A               	movf	??_xtoa,w
  6891  035A  0081               	movwf	1
  6892  035B                     l5542:
  6893                           
  6894                           ;C:\Program Files\Microchip\xc8\v2.32\pic\sources\c99\common\doprnt.c: 681:         --i;
  6895  035B  30FF               	movlw	255
  6896  035C  07D3               	addwf	xtoa@i,f
  6897  035D  30FF               	movlw	255
  6898  035E  3DD4               	addwfc	xtoa@i+1,f
  6899                           
  6900                           ;C:\Program Files\Microchip\xc8\v2.32\pic\sources\c99\common\doprnt.c: 682:         dbuf
      +                          [i] = '0';
  6901  035F  3030               	movlw	48
  6902  0360  00BA               	movwf	??_xtoa
  6903  0361  0853               	movf	xtoa@i,w
  6904  0362  3E3D               	addlw	(low (_dbuf| (0+512)))& (0+255)
  6905  0363  0086               	movwf	6
  6906  0364  3002               	movlw	2	; select bank4/5
  6907  0365  0087               	movwf	7
  6908  0366  083A               	movf	??_xtoa,w
  6909  0367  0081               	movwf	1
  6910  0368                     l5544:
  6911                           
  6912                           ;C:\Program Files\Microchip\xc8\v2.32\pic\sources\c99\common\doprnt.c: 686:     return p
      +                          ad(fp, &dbuf[i], w);
  6913  0368  0140               	movlb	0	; select bank0
  6914  0369  0853               	movf	xtoa@i,w
  6915  036A  3E3D               	addlw	(low (_dbuf| (0+512)))& (0+255)
  6916  036B  00BA               	movwf	??_xtoa
  6917  036C  083A               	movf	??_xtoa,w
  6918  036D  00A8               	movwf	pad@buf
  6919  036E  084A               	movf	xtoa@w+1,w
  6920  036F  00AA               	movwf	pad@p+1
  6921  0370  0849               	movf	xtoa@w,w
  6922  0371  00A9               	movwf	pad@p
  6923  0372  0846               	movf	xtoa@fp,w
  6924  0373  3184  24EC  3182   	fcall	_pad
  6925  0376  0140               	movlb	0	; select bank0
  6926  0377  0829               	movf	?_pad+1,w
  6927  0378  00B2               	movwf	?_xtoa+1
  6928  0379  0828               	movf	?_pad,w
  6929  037A  00B1               	movwf	?_xtoa
  6930  037B                     l1676:
  6931  037B  0008               	return
  6932  037C                     __end_of_xtoa:
  6933                           
  6934                           	psect	text20
  6935  0F5A                     __ptext20:	
  6936 ;; *************** function _toupper *****************
  6937 ;; Defined at:
  6938 ;;		line 4 in file "C:\Program Files\Microchip\xc8\v2.32\pic\sources\c99\common\toupper.c"
  6939 ;; Parameters:    Size  Location     Type
  6940 ;;  c               2    7[COMMON] int 
  6941 ;; Auto vars:     Size  Location     Type
  6942 ;;		None
  6943 ;; Return value:  Size  Location     Type
  6944 ;;                  2    7[COMMON] int 
  6945 ;; Registers used:
  6946 ;;		wreg, status,2, status,0
  6947 ;; Tracked objects:
  6948 ;;		On entry : 0/0
  6949 ;;		On exit  : 0/0
  6950 ;;		Unchanged: 0/0
  6951 ;; Data sizes:     COMMON   BANK0   BANK1   BANK2   BANK3   BANK4   BANK5   BANK6   BANK7   BANK8   BANK9  BANK10  BANK1
      +1  BANK12  BANK13  BANK14  BANK15  BANK16  BANK17  BANK18  BANK19  BANK20  BANK21  BANK22  BANK23  BANK24  BANK25
  6952 ;;      Params:         2       0       0       0       0       0       0       0       0       0       0       0       
      +0       0       0       0       0       0       0       0       0       0       0       0       0       0       0
  6953 ;;      Locals:         2       0       0       0       0       0       0       0       0       0       0       0       
      +0       0       0       0       0       0       0       0       0       0       0       0       0       0       0
  6954 ;;      Temps:          0       4       0       0       0       0       0       0       0       0       0       0       
      +0       0       0       0       0       0       0       0       0       0       0       0       0       0       0
  6955 ;;      Totals:         4       4       0       0       0       0       0       0       0       0       0       0       
      +0       0       0       0       0       0       0       0       0       0       0       0       0       0       0
  6956 ;;Total ram usage:        8 bytes
  6957 ;; Hardware stack levels used: 1
  6958 ;; Hardware stack levels required when called: 5
  6959 ;; This function calls:
  6960 ;;		_islower
  6961 ;; This function is called by:
  6962 ;;		_xtoa
  6963 ;; This function uses a non-reentrant model
  6964 ;;
  6965                           
  6966                           
  6967                           ;psect for function _toupper
  6968  0F5A                     _toupper:
  6969  0F5A                     l5436:	
  6970                           ;incstack = 0
  6971                           ; Regs used in _toupper: [wreg+status,2+status,0]
  6972                           
  6973  0F5A  0877               	movf	toupper@c,w
  6974  0F5B  3E9F               	addlw	159
  6975  0F5C  0140               	movlb	0	; select bank0
  6976  0F5D  00A0               	movwf	??_toupper
  6977  0F5E  30FF               	movlw	255
  6978  0F5F  3D78               	addwfc	toupper@c+1,w
  6979  0F60  00A1               	movwf	??_toupper+1
  6980  0F61  3000               	movlw	0
  6981  0F62  0221               	subwf	??_toupper+1,w
  6982  0F63  301A               	movlw	26
  6983  0F64  1903               	skipnz
  6984  0F65  0220               	subwf	??_toupper,w
  6985  0F66  1C03               	skipc
  6986  0F67  2F69               	goto	u3621
  6987  0F68  2F6B               	goto	u3620
  6988  0F69                     u3621:
  6989  0F69  3001               	movlw	1
  6990  0F6A  2F6C               	goto	u3630
  6991  0F6B                     u3620:
  6992  0F6B  3000               	movlw	0
  6993  0F6C                     u3630:
  6994  0F6C  00A2               	movwf	??_toupper+2
  6995  0F6D  01A3               	clrf	??_toupper+3
  6996  0F6E  0822               	movf	??_toupper+2,w
  6997  0F6F  00F9               	movwf	_toupper$2205
  6998  0F70  0823               	movf	??_toupper+3,w
  6999  0F71  00FA               	movwf	_toupper$2205+1
  7000  0F72                     l5440:
  7001  0F72  0879               	movf	_toupper$2205,w
  7002  0F73  047A               	iorwf	_toupper$2205+1,w
  7003  0F74  1903               	btfsc	3,2
  7004  0F75  2F77               	goto	u3641
  7005  0F76  2F78               	goto	u3640
  7006  0F77                     u3641:
  7007  0F77  2F7F               	goto	l1808
  7008  0F78                     u3640:
  7009  0F78                     l5442:
  7010  0F78  305F               	movlw	95
  7011  0F79  0577               	andwf	toupper@c,w
  7012  0F7A  00F7               	movwf	?_toupper
  7013  0F7B  3000               	movlw	0
  7014  0F7C  0578               	andwf	toupper@c+1,w
  7015  0F7D  00F8               	movwf	?_toupper+1
  7016  0F7E  2F7F               	goto	l1813
  7017  0F7F                     l1808:
  7018  0F7F                     l1813:
  7019  0F7F  0008               	return
  7020  0F80                     __end_of_toupper:
  7021                           
  7022                           	psect	text21
  7023  0DA4                     __ptext21:	
  7024 ;; *************** function _islower *****************
  7025 ;; Defined at:
  7026 ;;		line 5 in file "C:\Program Files\Microchip\xc8\v2.32\pic\sources\c99\common\islower.c"
  7027 ;; Parameters:    Size  Location     Type
  7028 ;;  c               2    1[COMMON] int 
  7029 ;; Auto vars:     Size  Location     Type
  7030 ;;		None
  7031 ;; Return value:  Size  Location     Type
  7032 ;;                  2    1[COMMON] int 
  7033 ;; Registers used:
  7034 ;;		wreg, status,2, status,0
  7035 ;; Tracked objects:
  7036 ;;		On entry : 0/0
  7037 ;;		On exit  : 0/0
  7038 ;;		Unchanged: 0/0
  7039 ;; Data sizes:     COMMON   BANK0   BANK1   BANK2   BANK3   BANK4   BANK5   BANK6   BANK7   BANK8   BANK9  BANK10  BANK1
      +1  BANK12  BANK13  BANK14  BANK15  BANK16  BANK17  BANK18  BANK19  BANK20  BANK21  BANK22  BANK23  BANK24  BANK25
  7040 ;;      Params:         2       0       0       0       0       0       0       0       0       0       0       0       
      +0       0       0       0       0       0       0       0       0       0       0       0       0       0       0
  7041 ;;      Locals:         0       0       0       0       0       0       0       0       0       0       0       0       
      +0       0       0       0       0       0       0       0       0       0       0       0       0       0       0
  7042 ;;      Temps:          4       0       0       0       0       0       0       0       0       0       0       0       
      +0       0       0       0       0       0       0       0       0       0       0       0       0       0       0
  7043 ;;      Totals:         6       0       0       0       0       0       0       0       0       0       0       0       
      +0       0       0       0       0       0       0       0       0       0       0       0       0       0       0
  7044 ;;Total ram usage:        6 bytes
  7045 ;; Hardware stack levels used: 1
  7046 ;; Hardware stack levels required when called: 4
  7047 ;; This function calls:
  7048 ;;		Nothing
  7049 ;; This function is called by:
  7050 ;;		_toupper
  7051 ;; This function uses a non-reentrant model
  7052 ;;
  7053                           
  7054                           
  7055                           ;psect for function _islower
  7056  0DA4                     _islower:
  7057  0DA4                     l5370:	
  7058                           ;incstack = 0
  7059                           ; Regs used in _islower: [wreg+status,2+status,0]
  7060                           
  7061  0DA4  0871               	movf	islower@c,w
  7062  0DA5  3E9F               	addlw	159
  7063  0DA6  00F3               	movwf	??_islower
  7064  0DA7  30FF               	movlw	255
  7065  0DA8  3D72               	addwfc	islower@c+1,w
  7066  0DA9  00F4               	movwf	??_islower+1
  7067  0DAA  3000               	movlw	0
  7068  0DAB  0274               	subwf	??_islower+1,w
  7069  0DAC  301A               	movlw	26
  7070  0DAD  1903               	skipnz
  7071  0DAE  0273               	subwf	??_islower,w
  7072  0DAF  1C03               	skipc
  7073  0DB0  2DB2               	goto	u3421
  7074  0DB1  2DB4               	goto	u3420
  7075  0DB2                     u3421:
  7076  0DB2  3001               	movlw	1
  7077  0DB3  2DB5               	goto	u3430
  7078  0DB4                     u3420:
  7079  0DB4  3000               	movlw	0
  7080  0DB5                     u3430:
  7081  0DB5  00F5               	movwf	??_islower+2
  7082  0DB6  01F6               	clrf	??_islower+3
  7083  0DB7  0875               	movf	??_islower+2,w
  7084  0DB8  00F1               	movwf	?_islower
  7085  0DB9  0876               	movf	??_islower+3,w
  7086  0DBA  00F2               	movwf	?_islower+1
  7087  0DBB                     l1819:
  7088  0DBB  0008               	return
  7089  0DBC                     __end_of_islower:
  7090                           
  7091                           	psect	text22
  7092  04EC                     __ptext22:	
  7093 ;; *************** function _pad *****************
  7094 ;; Defined at:
  7095 ;;		line 72 in file "C:\Program Files\Microchip\xc8\v2.32\pic\sources\c99\common\doprnt.c"
  7096 ;; Parameters:    Size  Location     Type
  7097 ;;  fp              1    wreg     PTR struct _IO_FILE
  7098 ;;		 -> NULL(0), 
  7099 ;;  buf             1    8[BANK0 ] PTR unsigned char 
  7100 ;;		 -> dbuf(32), 
  7101 ;;  p               2    9[BANK0 ] int 
  7102 ;; Auto vars:     Size  Location     Type
  7103 ;;  fp              1   16[BANK0 ] PTR struct _IO_FILE
  7104 ;;		 -> NULL(0), 
  7105 ;;  w               2   14[BANK0 ] int 
  7106 ;;  i               2   12[BANK0 ] int 
  7107 ;; Return value:  Size  Location     Type
  7108 ;;                  2    8[BANK0 ] int 
  7109 ;; Registers used:
  7110 ;;		wreg, fsr1l, fsr1h, status,2, status,0, pclath, cstack
  7111 ;; Tracked objects:
  7112 ;;		On entry : 0/0
  7113 ;;		On exit  : 0/0
  7114 ;;		Unchanged: 0/0
  7115 ;; Data sizes:     COMMON   BANK0   BANK1   BANK2   BANK3   BANK4   BANK5   BANK6   BANK7   BANK8   BANK9  BANK10  BANK1
      +1  BANK12  BANK13  BANK14  BANK15  BANK16  BANK17  BANK18  BANK19  BANK20  BANK21  BANK22  BANK23  BANK24  BANK25
  7116 ;;      Params:         0       3       0       0       0       0       0       0       0       0       0       0       
      +0       0       0       0       0       0       0       0       0       0       0       0       0       0       0
  7117 ;;      Locals:         0       5       0       0       0       0       0       0       0       0       0       0       
      +0       0       0       0       0       0       0       0       0       0       0       0       0       0       0
  7118 ;;      Temps:          0       1       0       0       0       0       0       0       0       0       0       0       
      +0       0       0       0       0       0       0       0       0       0       0       0       0       0       0
  7119 ;;      Totals:         0       9       0       0       0       0       0       0       0       0       0       0       
      +0       0       0       0       0       0       0       0       0       0       0       0       0       0       0
  7120 ;;Total ram usage:        9 bytes
  7121 ;; Hardware stack levels used: 1
  7122 ;; Hardware stack levels required when called: 8
  7123 ;; This function calls:
  7124 ;;		_fputc
  7125 ;;		_fputs
  7126 ;;		_strlen
  7127 ;; This function is called by:
  7128 ;;		_xtoa
  7129 ;; This function uses a non-reentrant model
  7130 ;;
  7131                           
  7132                           
  7133                           ;psect for function _pad
  7134  04EC                     _pad:
  7135                           
  7136                           ;incstack = 0
  7137                           ; Regs used in _pad: [wreg+fsr1l+fsr1h+status,2+status,0+pclath+cstack]
  7138                           ;pad@fp stored from wreg
  7139  04EC  0140               	movlb	0	; select bank0
  7140  04ED  00B0               	movwf	pad@fp
  7141  04EE                     l5408:
  7142                           
  7143                           ;C:\Program Files\Microchip\xc8\v2.32\pic\sources\c99\common\doprnt.c: 72: static int pa
      +                          d(FILE *fp, char *buf, int p);C:\Program Files\Microchip\xc8\v2.32\pic\sources\c99\commo
      +                          n\doprnt.c: 73: {;C:\Program Files\Microchip\xc8\v2.32\pic\sources\c99\common\doprnt.c: 
      +                          74:     int i, w;;C:\Program Files\Microchip\xc8\v2.32\pic\sources\c99\common\doprnt.c: 
      +                          77:     if (flags & (1 << 0)) {
  7144  04EE  0141               	movlb	1	; select bank1
  7145  04EF  1C36               	btfss	_flags^(0+128),0
  7146  04F0  2CF2               	goto	u3541
  7147  04F1  2CF3               	goto	u3540
  7148  04F2                     u3541:
  7149  04F2  2CFC               	goto	l5412
  7150  04F3                     u3540:
  7151  04F3                     l5410:
  7152                           
  7153                           ;C:\Program Files\Microchip\xc8\v2.32\pic\sources\c99\common\doprnt.c: 78:         fputs
      +                          ((const char *)buf, fp);
  7154  04F3  0140               	movlb	0	; select bank0
  7155  04F4  0830               	movf	pad@fp,w
  7156  04F5  00AB               	movwf	??_pad
  7157  04F6  082B               	movf	??_pad,w
  7158  04F7  00A0               	movwf	fputs@fp
  7159  04F8  0828               	movf	pad@buf,w
  7160  04F9  318F  2780  3184   	fcall	_fputs
  7161  04FC                     l5412:
  7162                           
  7163                           ;C:\Program Files\Microchip\xc8\v2.32\pic\sources\c99\common\doprnt.c: 82:     w = (p < 
      +                          0) ? 0 : p;
  7164  04FC  0140               	movlb	0	; select bank0
  7165  04FD  1BAA               	btfsc	pad@p+1,7
  7166  04FE  2D00               	goto	u3551
  7167  04FF  2D01               	goto	u3550
  7168  0500                     u3551:
  7169  0500  2D06               	goto	l5416
  7170  0501                     u3550:
  7171  0501                     l5414:
  7172  0501  082A               	movf	pad@p+1,w
  7173  0502  00AF               	movwf	pad@w+1
  7174  0503  0829               	movf	pad@p,w
  7175  0504  00AE               	movwf	pad@w
  7176  0505  2D08               	goto	l1641
  7177  0506                     l5416:
  7178  0506  01AE               	clrf	pad@w
  7179  0507  01AF               	clrf	pad@w+1
  7180  0508                     l1641:
  7181                           
  7182                           ;C:\Program Files\Microchip\xc8\v2.32\pic\sources\c99\common\doprnt.c: 83:     i = 0;
  7183  0508  01AC               	clrf	pad@i
  7184  0509  01AD               	clrf	pad@i+1
  7185                           
  7186                           ;C:\Program Files\Microchip\xc8\v2.32\pic\sources\c99\common\doprnt.c: 84:     while (i 
      +                          < w) {
  7187  050A  2D1C               	goto	l5422
  7188  050B                     l5418:
  7189                           
  7190                           ;C:\Program Files\Microchip\xc8\v2.32\pic\sources\c99\common\doprnt.c: 85:         fputc
      +                          (' ', fp);
  7191  050B  3020               	movlw	32
  7192  050C  00F4               	movwf	fputc@c
  7193  050D  3000               	movlw	0
  7194  050E  00F5               	movwf	fputc@c+1
  7195  050F  0140               	movlb	0	; select bank0
  7196  0510  0830               	movf	pad@fp,w
  7197  0511  00AB               	movwf	??_pad
  7198  0512  082B               	movf	??_pad,w
  7199  0513  00F6               	movwf	fputc@fp
  7200  0514  3186  265B  3184   	fcall	_fputc
  7201  0517                     l5420:
  7202                           
  7203                           ;C:\Program Files\Microchip\xc8\v2.32\pic\sources\c99\common\doprnt.c: 86:         ++i;
  7204  0517  3001               	movlw	1
  7205  0518  0140               	movlb	0	; select bank0
  7206  0519  07AC               	addwf	pad@i,f
  7207  051A  3000               	movlw	0
  7208  051B  3DAD               	addwfc	pad@i+1,f
  7209  051C                     l5422:
  7210                           
  7211                           ;C:\Program Files\Microchip\xc8\v2.32\pic\sources\c99\common\doprnt.c: 84:     while (i 
      +                          < w) {
  7212  051C  082D               	movf	pad@i+1,w
  7213  051D  3A80               	xorlw	128
  7214  051E  00AB               	movwf	??_pad
  7215  051F  082F               	movf	pad@w+1,w
  7216  0520  3A80               	xorlw	128
  7217  0521  022B               	subwf	??_pad,w
  7218  0522  1D03               	skipz
  7219  0523  2D26               	goto	u3565
  7220  0524  082E               	movf	pad@w,w
  7221  0525  022C               	subwf	pad@i,w
  7222  0526                     u3565:
  7223  0526  1C03               	skipc
  7224  0527  2D29               	goto	u3561
  7225  0528  2D2A               	goto	u3560
  7226  0529                     u3561:
  7227  0529  2D0B               	goto	l5418
  7228  052A                     u3560:
  7229  052A                     l1644:
  7230                           
  7231                           ;C:\Program Files\Microchip\xc8\v2.32\pic\sources\c99\common\doprnt.c: 90:     if (!(fla
      +                          gs & (1 << 0))) {
  7232  052A  0141               	movlb	1	; select bank1
  7233  052B  1836               	btfsc	_flags^(0+128),0
  7234  052C  2D2E               	goto	u3571
  7235  052D  2D2F               	goto	u3570
  7236  052E                     u3571:
  7237  052E  2D38               	goto	l1645
  7238  052F                     u3570:
  7239  052F                     l5424:
  7240                           
  7241                           ;C:\Program Files\Microchip\xc8\v2.32\pic\sources\c99\common\doprnt.c: 91:         fputs
      +                          ((const char *)buf, fp);
  7242  052F  0140               	movlb	0	; select bank0
  7243  0530  0830               	movf	pad@fp,w
  7244  0531  00AB               	movwf	??_pad
  7245  0532  082B               	movf	??_pad,w
  7246  0533  00A0               	movwf	fputs@fp
  7247  0534  0828               	movf	pad@buf,w
  7248  0535  318F  2780  3184   	fcall	_fputs
  7249  0538                     l1645:	
  7250                           ;C:\Program Files\Microchip\xc8\v2.32\pic\sources\c99\common\doprnt.c: 92:     }
  7251                           
  7252                           
  7253                           ;C:\Program Files\Microchip\xc8\v2.32\pic\sources\c99\common\doprnt.c: 94:     return (i
      +                          nt)(strlen(buf) + (size_t)w);
  7254  0538  0140               	movlb	0	; select bank0
  7255  0539  0828               	movf	pad@buf,w
  7256  053A  318D  25D6  3184   	fcall	_strlen
  7257  053D  0140               	movlb	0	; select bank0
  7258  053E  082E               	movf	pad@w,w
  7259  053F  0771               	addwf	?_strlen,w
  7260  0540  00A8               	movwf	?_pad
  7261  0541  082F               	movf	pad@w+1,w
  7262  0542  3D72               	addwfc	?_strlen+1,w
  7263  0543  00A9               	movwf	?_pad+1
  7264  0544                     l1646:
  7265  0544  0008               	return
  7266  0545                     __end_of_pad:
  7267                           
  7268                           	psect	text23
  7269  0DD6                     __ptext23:	
  7270 ;; *************** function _strlen *****************
  7271 ;; Defined at:
  7272 ;;		line 5 in file "C:\Program Files\Microchip\xc8\v2.32\pic\sources\c99\common\strlen.c"
  7273 ;; Parameters:    Size  Location     Type
  7274 ;;  s               1    wreg     PTR const unsigned char 
  7275 ;;		 -> dbuf(32), 
  7276 ;; Auto vars:     Size  Location     Type
  7277 ;;  s               1    5[COMMON] PTR const unsigned char 
  7278 ;;		 -> dbuf(32), 
  7279 ;;  a               1    4[COMMON] PTR const unsigned char 
  7280 ;;		 -> dbuf(32), 
  7281 ;; Return value:  Size  Location     Type
  7282 ;;                  2    1[COMMON] unsigned int 
  7283 ;; Registers used:
  7284 ;;		wreg, fsr1l, fsr1h, status,2, status,0
  7285 ;; Tracked objects:
  7286 ;;		On entry : 0/0
  7287 ;;		On exit  : 0/0
  7288 ;;		Unchanged: 0/0
  7289 ;; Data sizes:     COMMON   BANK0   BANK1   BANK2   BANK3   BANK4   BANK5   BANK6   BANK7   BANK8   BANK9  BANK10  BANK1
      +1  BANK12  BANK13  BANK14  BANK15  BANK16  BANK17  BANK18  BANK19  BANK20  BANK21  BANK22  BANK23  BANK24  BANK25
  7290 ;;      Params:         2       0       0       0       0       0       0       0       0       0       0       0       
      +0       0       0       0       0       0       0       0       0       0       0       0       0       0       0
  7291 ;;      Locals:         2       0       0       0       0       0       0       0       0       0       0       0       
      +0       0       0       0       0       0       0       0       0       0       0       0       0       0       0
  7292 ;;      Temps:          1       0       0       0       0       0       0       0       0       0       0       0       
      +0       0       0       0       0       0       0       0       0       0       0       0       0       0       0
  7293 ;;      Totals:         5       0       0       0       0       0       0       0       0       0       0       0       
      +0       0       0       0       0       0       0       0       0       0       0       0       0       0       0
  7294 ;;Total ram usage:        5 bytes
  7295 ;; Hardware stack levels used: 1
  7296 ;; Hardware stack levels required when called: 4
  7297 ;; This function calls:
  7298 ;;		Nothing
  7299 ;; This function is called by:
  7300 ;;		_pad
  7301 ;; This function uses a non-reentrant model
  7302 ;;
  7303                           
  7304                           
  7305                           ;psect for function _strlen
  7306  0DD6                     _strlen:
  7307                           
  7308                           ;incstack = 0
  7309                           ; Regs used in _strlen: [wreg+fsr1l+fsr1h+status,2+status,0]
  7310                           ;strlen@s stored from wreg
  7311  0DD6  00F5               	movwf	strlen@s
  7312  0DD7                     l5360:
  7313  0DD7  0875               	movf	strlen@s,w
  7314  0DD8  00F3               	movwf	??_strlen
  7315  0DD9  0873               	movf	??_strlen,w
  7316  0DDA  00F4               	movwf	strlen@a
  7317  0DDB  2DE0               	goto	l5364
  7318  0DDC                     l5362:
  7319  0DDC  3001               	movlw	1
  7320  0DDD  00F3               	movwf	??_strlen
  7321  0DDE  0873               	movf	??_strlen,w
  7322  0DDF  07F5               	addwf	strlen@s,f
  7323  0DE0                     l5364:
  7324  0DE0  0875               	movf	strlen@s,w
  7325  0DE1  0086               	movwf	6
  7326  0DE2  3002               	movlw	2	; select bank4/5
  7327  0DE3  0087               	movwf	7
  7328  0DE4  0801               	movf	1,w
  7329  0DE5  1D03               	btfss	3,2
  7330  0DE6  2DE8               	goto	u3411
  7331  0DE7  2DE9               	goto	u3410
  7332  0DE8                     u3411:
  7333  0DE8  2DDC               	goto	l5362
  7334  0DE9                     u3410:
  7335  0DE9                     l5366:
  7336  0DE9  0874               	movf	strlen@a,w
  7337  0DEA  0275               	subwf	strlen@s,w
  7338  0DEB  00F1               	movwf	?_strlen
  7339  0DEC  01F2               	clrf	?_strlen+1
  7340  0DED  1BF1               	btfsc	?_strlen,7
  7341  0DEE  03F2               	decf	?_strlen+1,f
  7342  0DEF                     l1803:
  7343  0DEF  0008               	return
  7344  0DF0                     __end_of_strlen:
  7345                           
  7346                           	psect	text24
  7347  0F80                     __ptext24:	
  7348 ;; *************** function _fputs *****************
  7349 ;; Defined at:
  7350 ;;		line 8 in file "C:\Program Files\Microchip\xc8\v2.32\pic\sources\c99\common\nf_fputs.c"
  7351 ;; Parameters:    Size  Location     Type
  7352 ;;  s               1    wreg     PTR const unsigned char 
  7353 ;;		 -> dbuf(32), 
  7354 ;;  fp              1    0[BANK0 ] PTR struct _IO_FILE
  7355 ;;		 -> NULL(0), 
  7356 ;; Auto vars:     Size  Location     Type
  7357 ;;  s               1    7[BANK0 ] PTR const unsigned char 
  7358 ;;		 -> dbuf(32), 
  7359 ;;  i               2    5[BANK0 ] int 
  7360 ;;  c               1    4[BANK0 ] unsigned char 
  7361 ;; Return value:  Size  Location     Type
  7362 ;;                  2    0[BANK0 ] int 
  7363 ;; Registers used:
  7364 ;;		wreg, fsr1l, fsr1h, status,2, status,0, pclath, cstack
  7365 ;; Tracked objects:
  7366 ;;		On entry : 0/0
  7367 ;;		On exit  : 0/0
  7368 ;;		Unchanged: 0/0
  7369 ;; Data sizes:     COMMON   BANK0   BANK1   BANK2   BANK3   BANK4   BANK5   BANK6   BANK7   BANK8   BANK9  BANK10  BANK1
      +1  BANK12  BANK13  BANK14  BANK15  BANK16  BANK17  BANK18  BANK19  BANK20  BANK21  BANK22  BANK23  BANK24  BANK25
  7370 ;;      Params:         0       1       0       0       0       0       0       0       0       0       0       0       
      +0       0       0       0       0       0       0       0       0       0       0       0       0       0       0
  7371 ;;      Locals:         0       4       0       0       0       0       0       0       0       0       0       0       
      +0       0       0       0       0       0       0       0       0       0       0       0       0       0       0
  7372 ;;      Temps:          0       3       0       0       0       0       0       0       0       0       0       0       
      +0       0       0       0       0       0       0       0       0       0       0       0       0       0       0
  7373 ;;      Totals:         0       8       0       0       0       0       0       0       0       0       0       0       
      +0       0       0       0       0       0       0       0       0       0       0       0       0       0       0
  7374 ;;Total ram usage:        8 bytes
  7375 ;; Hardware stack levels used: 1
  7376 ;; Hardware stack levels required when called: 7
  7377 ;; This function calls:
  7378 ;;		_fputc
  7379 ;; This function is called by:
  7380 ;;		_pad
  7381 ;; This function uses a non-reentrant model
  7382 ;;
  7383                           
  7384                           
  7385                           ;psect for function _fputs
  7386  0F80                     _fputs:
  7387                           
  7388                           ;incstack = 0
  7389                           ; Regs used in _fputs: [wreg+fsr1l+fsr1h+status,2+status,0+pclath+cstack]
  7390                           ;fputs@s stored from wreg
  7391  0F80  0140               	movlb	0	; select bank0
  7392  0F81  00A7               	movwf	fputs@s
  7393  0F82                     l5352:
  7394  0F82  01A5               	clrf	fputs@i
  7395  0F83  01A6               	clrf	fputs@i+1
  7396  0F84  2F98               	goto	l5358
  7397  0F85                     l5354:
  7398  0F85  0824               	movf	fputs@c,w
  7399  0F86  00A1               	movwf	??_fputs
  7400  0F87  01A2               	clrf	??_fputs+1
  7401  0F88  0821               	movf	??_fputs,w
  7402  0F89  00F4               	movwf	fputc@c
  7403  0F8A  0822               	movf	??_fputs+1,w
  7404  0F8B  00F5               	movwf	fputc@c+1
  7405  0F8C  0820               	movf	fputs@fp,w
  7406  0F8D  00A3               	movwf	??_fputs+2
  7407  0F8E  0823               	movf	??_fputs+2,w
  7408  0F8F  00F6               	movwf	fputc@fp
  7409  0F90  3186  265B  318F   	fcall	_fputc
  7410  0F93                     l5356:
  7411  0F93  3001               	movlw	1
  7412  0F94  0140               	movlb	0	; select bank0
  7413  0F95  07A5               	addwf	fputs@i,f
  7414  0F96  3000               	movlw	0
  7415  0F97  3DA6               	addwfc	fputs@i+1,f
  7416  0F98                     l5358:
  7417  0F98  0825               	movf	fputs@i,w
  7418  0F99  0727               	addwf	fputs@s,w
  7419  0F9A  00A1               	movwf	??_fputs
  7420  0F9B  0821               	movf	??_fputs,w
  7421  0F9C  0086               	movwf	6
  7422  0F9D  3002               	movlw	2	; select bank4/5
  7423  0F9E  0087               	movwf	7
  7424  0F9F  0801               	movf	1,w
  7425  0FA0  00A2               	movwf	??_fputs+1
  7426  0FA1  0822               	movf	??_fputs+1,w
  7427  0FA2  00A4               	movwf	fputs@c
  7428  0FA3  0824               	movf	fputs@c,w
  7429  0FA4  1D03               	btfss	3,2
  7430  0FA5  2FA7               	goto	u3401
  7431  0FA6  2FA8               	goto	u3400
  7432  0FA7                     u3401:
  7433  0FA7  2F85               	goto	l5354
  7434  0FA8                     u3400:
  7435  0FA8                     l1789:
  7436  0FA8  0008               	return
  7437  0FA9                     __end_of_fputs:
  7438                           
  7439                           	psect	text25
  7440  065B                     __ptext25:	
  7441 ;; *************** function _fputc *****************
  7442 ;; Defined at:
  7443 ;;		line 8 in file "C:\Program Files\Microchip\xc8\v2.32\pic\sources\c99\common\nf_fputc.c"
  7444 ;; Parameters:    Size  Location     Type
  7445 ;;  c               2    4[COMMON] int 
  7446 ;;  fp              1    6[COMMON] PTR struct _IO_FILE
  7447 ;;		 -> NULL(0), 
  7448 ;; Auto vars:     Size  Location     Type
  7449 ;;		None
  7450 ;; Return value:  Size  Location     Type
  7451 ;;                  2    4[COMMON] int 
  7452 ;; Registers used:
  7453 ;;		wreg, fsr1l, fsr1h, status,2, status,0, pclath, cstack
  7454 ;; Tracked objects:
  7455 ;;		On entry : 0/0
  7456 ;;		On exit  : 0/0
  7457 ;;		Unchanged: 0/0
  7458 ;; Data sizes:     COMMON   BANK0   BANK1   BANK2   BANK3   BANK4   BANK5   BANK6   BANK7   BANK8   BANK9  BANK10  BANK1
      +1  BANK12  BANK13  BANK14  BANK15  BANK16  BANK17  BANK18  BANK19  BANK20  BANK21  BANK22  BANK23  BANK24  BANK25
  7459 ;;      Params:         3       0       0       0       0       0       0       0       0       0       0       0       
      +0       0       0       0       0       0       0       0       0       0       0       0       0       0       0
  7460 ;;      Locals:         0       0       0       0       0       0       0       0       0       0       0       0       
      +0       0       0       0       0       0       0       0       0       0       0       0       0       0       0
  7461 ;;      Temps:          5       0       0       0       0       0       0       0       0       0       0       0       
      +0       0       0       0       0       0       0       0       0       0       0       0       0       0       0
  7462 ;;      Totals:         8       0       0       0       0       0       0       0       0       0       0       0       
      +0       0       0       0       0       0       0       0       0       0       0       0       0       0       0
  7463 ;;Total ram usage:        8 bytes
  7464 ;; Hardware stack levels used: 1
  7465 ;; Hardware stack levels required when called: 6
  7466 ;; This function calls:
  7467 ;;		_putch
  7468 ;; This function is called by:
  7469 ;;		_pad
  7470 ;;		_vfpfcnvrt
  7471 ;;		_fputs
  7472 ;; This function uses a non-reentrant model
  7473 ;;
  7474                           
  7475                           
  7476                           ;psect for function _fputc
  7477  065B                     _fputc:
  7478  065B                     l5338:	
  7479                           ;incstack = 0
  7480                           ; Regs used in _fputc: [wreg+fsr1l+fsr1h+status,2+status,0+pclath+cstack]
  7481                           
  7482  065B  0876               	movf	fputc@fp,w
  7483  065C  1903               	btfsc	3,2
  7484  065D  2E5F               	goto	u3361
  7485  065E  2E60               	goto	u3360
  7486  065F                     u3361:
  7487  065F  2E65               	goto	l5342
  7488  0660                     u3360:
  7489  0660                     l5340:
  7490  0660  0876               	movf	fputc@fp,w
  7491  0661  1D03               	btfss	3,2
  7492  0662  2E64               	goto	u3371
  7493  0663  2E65               	goto	u3370
  7494  0664                     u3371:
  7495  0664  2E6A               	goto	l5344
  7496  0665                     u3370:
  7497  0665                     l5342:
  7498  0665  0874               	movf	fputc@c,w
  7499  0666  318C  2478  3186   	fcall	_putch
  7500  0669  2E99               	goto	l1781
  7501  066A                     l5344:
  7502  066A  0876               	movf	fputc@fp,w
  7503  066B  3E03               	addlw	3
  7504  066C  0086               	movwf	6
  7505  066D  0187               	clrf	7
  7506  066E  0016               	moviw fsr1++
  7507  066F  0401               	iorwf	1,w
  7508  0670  1903               	btfsc	3,2
  7509  0671  2E73               	goto	u3381
  7510  0672  2E74               	goto	u3380
  7511  0673                     u3381:
  7512  0673  2E91               	goto	l5348
  7513  0674                     u3380:
  7514  0674                     l5346:
  7515  0674  0876               	movf	fputc@fp,w
  7516  0675  3E03               	addlw	3
  7517  0676  0086               	movwf	6
  7518  0677  0187               	clrf	7
  7519  0678  3F40               	moviw [0]fsr1
  7520  0679  00F7               	movwf	??_fputc
  7521  067A  3F41               	moviw [1]fsr1
  7522  067B  00F8               	movwf	??_fputc+1
  7523  067C  0A76               	incf	fputc@fp,w
  7524  067D  0086               	movwf	6
  7525  067E  0187               	clrf	7
  7526  067F  3F40               	moviw [0]fsr1
  7527  0680  00F9               	movwf	??_fputc+2
  7528  0681  3F41               	moviw [1]fsr1
  7529  0682  00FA               	movwf	??_fputc+3
  7530  0683  087A               	movf	??_fputc+3,w
  7531  0684  3A80               	xorlw	128
  7532  0685  00FB               	movwf	??_fputc+4
  7533  0686  0878               	movf	??_fputc+1,w
  7534  0687  3A80               	xorlw	128
  7535  0688  027B               	subwf	??_fputc+4,w
  7536  0689  1D03               	skipz
  7537  068A  2E8D               	goto	u3395
  7538  068B  0877               	movf	??_fputc,w
  7539  068C  0279               	subwf	??_fputc+2,w
  7540  068D                     u3395:
  7541  068D  1803               	skipnc
  7542  068E  2E90               	goto	u3391
  7543  068F  2E91               	goto	u3390
  7544  0690                     u3391:
  7545  0690  2E99               	goto	l1781
  7546  0691                     u3390:
  7547  0691                     l5348:
  7548  0691  0A76               	incf	fputc@fp,w
  7549  0692  0086               	movwf	6
  7550  0693  0187               	clrf	7
  7551  0694  3001               	movlw	1
  7552  0695  0781               	addwf	1,f
  7553  0696  3141               	addfsr 1,1
  7554  0697  1803               	skipnc
  7555  0698  0A81               	incf	1,f
  7556  0699                     l1781:
  7557  0699  0008               	return
  7558  069A                     __end_of_fputc:
  7559                           
  7560                           	psect	text26
  7561  0C78                     __ptext26:	
  7562 ;; *************** function _putch *****************
  7563 ;; Defined at:
  7564 ;;		line 201 in file "mcc_generated_files/eusart1.c"
  7565 ;; Parameters:    Size  Location     Type
  7566 ;;  txData          1    wreg     unsigned char 
  7567 ;; Auto vars:     Size  Location     Type
  7568 ;;  txData          1    3[COMMON] unsigned char 
  7569 ;; Return value:  Size  Location     Type
  7570 ;;                  1    wreg      void 
  7571 ;; Registers used:
  7572 ;;		wreg, fsr1l, fsr1h, status,2, status,0, pclath, cstack
  7573 ;; Tracked objects:
  7574 ;;		On entry : 0/0
  7575 ;;		On exit  : 0/0
  7576 ;;		Unchanged: 0/0
  7577 ;; Data sizes:     COMMON   BANK0   BANK1   BANK2   BANK3   BANK4   BANK5   BANK6   BANK7   BANK8   BANK9  BANK10  BANK1
      +1  BANK12  BANK13  BANK14  BANK15  BANK16  BANK17  BANK18  BANK19  BANK20  BANK21  BANK22  BANK23  BANK24  BANK25
  7578 ;;      Params:         0       0       0       0       0       0       0       0       0       0       0       0       
      +0       0       0       0       0       0       0       0       0       0       0       0       0       0       0
  7579 ;;      Locals:         1       0       0       0       0       0       0       0       0       0       0       0       
      +0       0       0       0       0       0       0       0       0       0       0       0       0       0       0
  7580 ;;      Temps:          0       0       0       0       0       0       0       0       0       0       0       0       
      +0       0       0       0       0       0       0       0       0       0       0       0       0       0       0
  7581 ;;      Totals:         1       0       0       0       0       0       0       0       0       0       0       0       
      +0       0       0       0       0       0       0       0       0       0       0       0       0       0       0
  7582 ;;Total ram usage:        1 bytes
  7583 ;; Hardware stack levels used: 1
  7584 ;; Hardware stack levels required when called: 5
  7585 ;; This function calls:
  7586 ;;		_EUSART1_Write
  7587 ;; This function is called by:
  7588 ;;		_fputc
  7589 ;; This function uses a non-reentrant model
  7590 ;;
  7591                           
  7592                           
  7593                           ;psect for function _putch
  7594  0C78                     _putch:
  7595                           
  7596                           ;incstack = 0
  7597                           ; Regs used in _putch: [wreg+fsr1l+fsr1h+status,2+status,0+pclath+cstack]
  7598                           ;putch@txData stored from wreg
  7599  0C78  00F3               	movwf	putch@txData
  7600  0C79                     l5336:
  7601                           
  7602                           ;mcc_generated_files/eusart1.c: 201: void putch(char txData);mcc_generated_files/eusart1
      +                          .c: 202: {;mcc_generated_files/eusart1.c: 203:     EUSART1_Write(txData);
  7603  0C79  0873               	movf	putch@txData,w
  7604  0C7A  3187  27D5  318C   	fcall	_EUSART1_Write
  7605  0C7D                     l641:
  7606  0C7D  0008               	return
  7607  0C7E                     __end_of_putch:
  7608                           
  7609                           	psect	text27
  7610  07D5                     __ptext27:	
  7611 ;; *************** function _EUSART1_Write *****************
  7612 ;; Defined at:
  7613 ;;		line 173 in file "mcc_generated_files/eusart1.c"
  7614 ;; Parameters:    Size  Location     Type
  7615 ;;  txData          1    wreg     unsigned char 
  7616 ;; Auto vars:     Size  Location     Type
  7617 ;;  txData          1    2[COMMON] unsigned char 
  7618 ;; Return value:  Size  Location     Type
  7619 ;;                  1    wreg      void 
  7620 ;; Registers used:
  7621 ;;		wreg, fsr1l, fsr1h, status,2, status,0
  7622 ;; Tracked objects:
  7623 ;;		On entry : 0/0
  7624 ;;		On exit  : 0/0
  7625 ;;		Unchanged: 0/0
  7626 ;; Data sizes:     COMMON   BANK0   BANK1   BANK2   BANK3   BANK4   BANK5   BANK6   BANK7   BANK8   BANK9  BANK10  BANK1
      +1  BANK12  BANK13  BANK14  BANK15  BANK16  BANK17  BANK18  BANK19  BANK20  BANK21  BANK22  BANK23  BANK24  BANK25
  7627 ;;      Params:         0       0       0       0       0       0       0       0       0       0       0       0       
      +0       0       0       0       0       0       0       0       0       0       0       0       0       0       0
  7628 ;;      Locals:         1       0       0       0       0       0       0       0       0       0       0       0       
      +0       0       0       0       0       0       0       0       0       0       0       0       0       0       0
  7629 ;;      Temps:          1       0       0       0       0       0       0       0       0       0       0       0       
      +0       0       0       0       0       0       0       0       0       0       0       0       0       0       0
  7630 ;;      Totals:         2       0       0       0       0       0       0       0       0       0       0       0       
      +0       0       0       0       0       0       0       0       0       0       0       0       0       0       0
  7631 ;;Total ram usage:        2 bytes
  7632 ;; Hardware stack levels used: 1
  7633 ;; Hardware stack levels required when called: 4
  7634 ;; This function calls:
  7635 ;;		Nothing
  7636 ;; This function is called by:
  7637 ;;		_putch
  7638 ;; This function uses a non-reentrant model
  7639 ;;
  7640                           
  7641                           
  7642                           ;psect for function _EUSART1_Write
  7643  07D5                     _EUSART1_Write:
  7644                           
  7645                           ;incstack = 0
  7646                           ; Regs used in _EUSART1_Write: [wreg+fsr1l+fsr1h+status,2+status,0]
  7647                           ;EUSART1_Write@txData stored from wreg
  7648  07D5  00F2               	movwf	EUSART1_Write@txData
  7649  07D6                     l5318:
  7650  07D6                     l5320:	
  7651                           ;mcc_generated_files/eusart1.c: 173: void EUSART1_Write(uint8_t txData);mcc_generated_fi
      +                          les/eusart1.c: 174: {;mcc_generated_files/eusart1.c: 175:     while(0 == eusart1TxBuffer
      +                          Remaining)
  7652                           
  7653                           
  7654                           ;mcc_generated_files/eusart1.c: 175:     while(0 == eusart1TxBufferRemaining)
  7655  07D6  0141               	movlb	1	; select bank1
  7656  07D7  086E               	movf	_eusart1TxBufferRemaining^(0+128),w	;volatile
  7657  07D8  1903               	btfsc	3,2
  7658  07D9  2FDB               	goto	u3331
  7659  07DA  2FDC               	goto	u3330
  7660  07DB                     u3331:
  7661  07DB  2FD6               	goto	l5320
  7662  07DC                     u3330:
  7663  07DC                     l631:
  7664                           
  7665                           ;mcc_generated_files/eusart1.c: 179:     if(0 == PIE3bits.TX1IE)
  7666  07DC  014E               	movlb	14	; select bank14
  7667  07DD  1A19               	btfsc	25,4	;volatile
  7668  07DE  2FE0               	goto	u3341
  7669  07DF  2FE1               	goto	u3340
  7670  07E0                     u3341:
  7671  07E0  2FE5               	goto	l632
  7672  07E1                     u3340:
  7673  07E1                     l5322:
  7674                           
  7675                           ;mcc_generated_files/eusart1.c: 180:     {;mcc_generated_files/eusart1.c: 181:         T
      +                          X1REG = txData;
  7676  07E1  0872               	movf	EUSART1_Write@txData,w
  7677  07E2  0142               	movlb	2	; select bank2
  7678  07E3  009A               	movwf	26	;volatile
  7679                           
  7680                           ;mcc_generated_files/eusart1.c: 182:     }
  7681  07E4  2FFD               	goto	l5334
  7682  07E5                     l632:	
  7683                           ;mcc_generated_files/eusart1.c: 183:     else
  7684                           
  7685                           
  7686                           ;mcc_generated_files/eusart1.c: 184:     {;mcc_generated_files/eusart1.c: 185:         P
      +                          IE3bits.TX1IE = 0;
  7687  07E5  1219               	bcf	25,4	;volatile
  7688  07E6                     l5324:
  7689                           
  7690                           ;mcc_generated_files/eusart1.c: 186:         eusart1TxBuffer[eusart1TxHead++] = txData;
  7691  07E6  0872               	movf	EUSART1_Write@txData,w
  7692  07E7  00F1               	movwf	??_EUSART1_Write
  7693  07E8  0141               	movlb	1	; select bank1
  7694  07E9  083C               	movf	_eusart1TxHead^(0+128),w
  7695  07EA  3EA0               	addlw	(low (_eusart1TxBuffer| (0+512)))& (0+255)
  7696  07EB  0086               	movwf	6
  7697  07EC  3002               	movlw	2	; select bank5/6
  7698  07ED  0087               	movwf	7
  7699  07EE  0871               	movf	??_EUSART1_Write,w
  7700  07EF  0081               	movwf	1
  7701  07F0                     l5326:
  7702  07F0  3001               	movlw	1
  7703  07F1  00F1               	movwf	??_EUSART1_Write
  7704  07F2  0871               	movf	??_EUSART1_Write,w
  7705  07F3  07BC               	addwf	_eusart1TxHead^(0+128),f	;volatile
  7706  07F4                     l5328:
  7707                           
  7708                           ;mcc_generated_files/eusart1.c: 187:         if(sizeof(eusart1TxBuffer) <= eusart1TxHead
      +                          )
  7709  07F4  3040               	movlw	64
  7710  07F5  023C               	subwf	_eusart1TxHead^(0+128),w	;volatile
  7711  07F6  1C03               	skipc
  7712  07F7  2FF9               	goto	u3351
  7713  07F8  2FFA               	goto	u3350
  7714  07F9                     u3351:
  7715  07F9  2FFB               	goto	l5332
  7716  07FA                     u3350:
  7717  07FA                     l5330:
  7718                           
  7719                           ;mcc_generated_files/eusart1.c: 188:         {;mcc_generated_files/eusart1.c: 189:      
      +                                 eusart1TxHead = 0;
  7720  07FA  01BC               	clrf	_eusart1TxHead^(0+128)	;volatile
  7721  07FB                     l5332:
  7722                           
  7723                           ;mcc_generated_files/eusart1.c: 191:         eusart1TxBufferRemaining--;
  7724  07FB  3001               	movlw	1
  7725  07FC  02EE               	subwf	_eusart1TxBufferRemaining^(0+128),f	;volatile
  7726  07FD                     l5334:
  7727                           
  7728                           ;mcc_generated_files/eusart1.c: 193:     PIE3bits.TX1IE = 1;
  7729  07FD  014E               	movlb	14	; select bank14
  7730  07FE  1619               	bsf	25,4	;volatile
  7731  07FF                     l635:
  7732  07FF  0008               	return
  7733  0800                     __end_of_EUSART1_Write:
  7734                           
  7735                           	psect	text28
  7736  0D8C                     __ptext28:	
  7737 ;; *************** function _isupper *****************
  7738 ;; Defined at:
  7739 ;;		line 5 in file "C:\Program Files\Microchip\xc8\v2.32\pic\sources\c99\common\isupper.c"
  7740 ;; Parameters:    Size  Location     Type
  7741 ;;  c               2    1[COMMON] int 
  7742 ;; Auto vars:     Size  Location     Type
  7743 ;;		None
  7744 ;; Return value:  Size  Location     Type
  7745 ;;                  2    1[COMMON] int 
  7746 ;; Registers used:
  7747 ;;		wreg, status,2, status,0
  7748 ;; Tracked objects:
  7749 ;;		On entry : 0/0
  7750 ;;		On exit  : 0/0
  7751 ;;		Unchanged: 0/0
  7752 ;; Data sizes:     COMMON   BANK0   BANK1   BANK2   BANK3   BANK4   BANK5   BANK6   BANK7   BANK8   BANK9  BANK10  BANK1
      +1  BANK12  BANK13  BANK14  BANK15  BANK16  BANK17  BANK18  BANK19  BANK20  BANK21  BANK22  BANK23  BANK24  BANK25
  7753 ;;      Params:         2       0       0       0       0       0       0       0       0       0       0       0       
      +0       0       0       0       0       0       0       0       0       0       0       0       0       0       0
  7754 ;;      Locals:         0       0       0       0       0       0       0       0       0       0       0       0       
      +0       0       0       0       0       0       0       0       0       0       0       0       0       0       0
  7755 ;;      Temps:          4       0       0       0       0       0       0       0       0       0       0       0       
      +0       0       0       0       0       0       0       0       0       0       0       0       0       0       0
  7756 ;;      Totals:         6       0       0       0       0       0       0       0       0       0       0       0       
      +0       0       0       0       0       0       0       0       0       0       0       0       0       0       0
  7757 ;;Total ram usage:        6 bytes
  7758 ;; Hardware stack levels used: 1
  7759 ;; Hardware stack levels required when called: 4
  7760 ;; This function calls:
  7761 ;;		Nothing
  7762 ;; This function is called by:
  7763 ;;		_xtoa
  7764 ;; This function uses a non-reentrant model
  7765 ;;
  7766                           
  7767                           
  7768                           ;psect for function _isupper
  7769  0D8C                     _isupper:
  7770  0D8C                     l5428:	
  7771                           ;incstack = 0
  7772                           ; Regs used in _isupper: [wreg+status,2+status,0]
  7773                           
  7774  0D8C  0871               	movf	isupper@c,w
  7775  0D8D  3EBF               	addlw	191
  7776  0D8E  00F3               	movwf	??_isupper
  7777  0D8F  30FF               	movlw	255
  7778  0D90  3D72               	addwfc	isupper@c+1,w
  7779  0D91  00F4               	movwf	??_isupper+1
  7780  0D92  3000               	movlw	0
  7781  0D93  0274               	subwf	??_isupper+1,w
  7782  0D94  301A               	movlw	26
  7783  0D95  1903               	skipnz
  7784  0D96  0273               	subwf	??_isupper,w
  7785  0D97  1C03               	skipc
  7786  0D98  2D9A               	goto	u3581
  7787  0D99  2D9C               	goto	u3580
  7788  0D9A                     u3581:
  7789  0D9A  3001               	movlw	1
  7790  0D9B  2D9D               	goto	u3590
  7791  0D9C                     u3580:
  7792  0D9C  3000               	movlw	0
  7793  0D9D                     u3590:
  7794  0D9D  00F5               	movwf	??_isupper+2
  7795  0D9E  01F6               	clrf	??_isupper+3
  7796  0D9F  0875               	movf	??_isupper+2,w
  7797  0DA0  00F1               	movwf	?_isupper
  7798  0DA1  0876               	movf	??_isupper+3,w
  7799  0DA2  00F2               	movwf	?_isupper+1
  7800  0DA3                     l1766:
  7801  0DA3  0008               	return
  7802  0DA4                     __end_of_isupper:
  7803                           
  7804                           	psect	text29
  7805  0E28                     __ptext29:	
  7806 ;; *************** function _isalpha *****************
  7807 ;; Defined at:
  7808 ;;		line 5 in file "C:\Program Files\Microchip\xc8\v2.32\pic\sources\c99\common\isalpha.c"
  7809 ;; Parameters:    Size  Location     Type
  7810 ;;  c               2    1[COMMON] int 
  7811 ;; Auto vars:     Size  Location     Type
  7812 ;;		None
  7813 ;; Return value:  Size  Location     Type
  7814 ;;                  2    1[COMMON] int 
  7815 ;; Registers used:
  7816 ;;		wreg, status,2, status,0
  7817 ;; Tracked objects:
  7818 ;;		On entry : 0/0
  7819 ;;		On exit  : 0/0
  7820 ;;		Unchanged: 0/0
  7821 ;; Data sizes:     COMMON   BANK0   BANK1   BANK2   BANK3   BANK4   BANK5   BANK6   BANK7   BANK8   BANK9  BANK10  BANK1
      +1  BANK12  BANK13  BANK14  BANK15  BANK16  BANK17  BANK18  BANK19  BANK20  BANK21  BANK22  BANK23  BANK24  BANK25
  7822 ;;      Params:         2       0       0       0       0       0       0       0       0       0       0       0       
      +0       0       0       0       0       0       0       0       0       0       0       0       0       0       0
  7823 ;;      Locals:         0       0       0       0       0       0       0       0       0       0       0       0       
      +0       0       0       0       0       0       0       0       0       0       0       0       0       0       0
  7824 ;;      Temps:          6       0       0       0       0       0       0       0       0       0       0       0       
      +0       0       0       0       0       0       0       0       0       0       0       0       0       0       0
  7825 ;;      Totals:         8       0       0       0       0       0       0       0       0       0       0       0       
      +0       0       0       0       0       0       0       0       0       0       0       0       0       0       0
  7826 ;;Total ram usage:        8 bytes
  7827 ;; Hardware stack levels used: 1
  7828 ;; Hardware stack levels required when called: 4
  7829 ;; This function calls:
  7830 ;;		Nothing
  7831 ;; This function is called by:
  7832 ;;		_xtoa
  7833 ;; This function uses a non-reentrant model
  7834 ;;
  7835                           
  7836                           
  7837                           ;psect for function _isalpha
  7838  0E28                     _isalpha:
  7839  0E28                     l5432:	
  7840                           ;incstack = 0
  7841                           ; Regs used in _isalpha: [wreg+status,2+status,0]
  7842                           
  7843  0E28  3020               	movlw	32
  7844  0E29  0471               	iorwf	isalpha@c,w
  7845  0E2A  00F3               	movwf	??_isalpha
  7846  0E2B  3000               	movlw	0
  7847  0E2C  0472               	iorwf	isalpha@c+1,w
  7848  0E2D  00F4               	movwf	??_isalpha+1
  7849  0E2E  0873               	movf	??_isalpha,w
  7850  0E2F  3E9F               	addlw	159
  7851  0E30  00F5               	movwf	??_isalpha+2
  7852  0E31  30FF               	movlw	255
  7853  0E32  3D74               	addwfc	??_isalpha+1,w
  7854  0E33  00F6               	movwf	??_isalpha+3
  7855  0E34  3000               	movlw	0
  7856  0E35  0276               	subwf	??_isalpha+3,w
  7857  0E36  301A               	movlw	26
  7858  0E37  1903               	skipnz
  7859  0E38  0275               	subwf	??_isalpha+2,w
  7860  0E39  1C03               	skipc
  7861  0E3A  2E3C               	goto	u3601
  7862  0E3B  2E3E               	goto	u3600
  7863  0E3C                     u3601:
  7864  0E3C  3001               	movlw	1
  7865  0E3D  2E3F               	goto	u3610
  7866  0E3E                     u3600:
  7867  0E3E  3000               	movlw	0
  7868  0E3F                     u3610:
  7869  0E3F  00F7               	movwf	??_isalpha+4
  7870  0E40  01F8               	clrf	??_isalpha+5
  7871  0E41  0877               	movf	??_isalpha+4,w
  7872  0E42  00F1               	movwf	?_isalpha
  7873  0E43  0878               	movf	??_isalpha+5,w
  7874  0E44  00F2               	movwf	?_isalpha+1
  7875  0E45                     l1746:
  7876  0E45  0008               	return
  7877  0E46                     __end_of_isalpha:
  7878                           
  7879                           	psect	text30
  7880  043D                     __ptext30:	
  7881 ;; *************** function _atoi *****************
  7882 ;; Defined at:
  7883 ;;		line 4 in file "C:\Program Files\Microchip\xc8\v2.32\pic\sources\c99\common\atoi.c"
  7884 ;; Parameters:    Size  Location     Type
  7885 ;;  s               2    7[COMMON] PTR const unsigned char 
  7886 ;;		 -> STR_5(30), STR_4(2), STR_3(13), STR_2(22), 
  7887 ;;		 -> STR_1(26), 
  7888 ;; Auto vars:     Size  Location     Type
  7889 ;;  n               2   11[BANK0 ] int 
  7890 ;;  neg             2    4[BANK0 ] int 
  7891 ;; Return value:  Size  Location     Type
  7892 ;;                  2    7[COMMON] int 
  7893 ;; Registers used:
  7894 ;;		wreg, fsr0l, fsr0h, status,2, status,0, pclath, cstack
  7895 ;; Tracked objects:
  7896 ;;		On entry : 0/0
  7897 ;;		On exit  : 0/0
  7898 ;;		Unchanged: 0/0
  7899 ;; Data sizes:     COMMON   BANK0   BANK1   BANK2   BANK3   BANK4   BANK5   BANK6   BANK7   BANK8   BANK9  BANK10  BANK1
      +1  BANK12  BANK13  BANK14  BANK15  BANK16  BANK17  BANK18  BANK19  BANK20  BANK21  BANK22  BANK23  BANK24  BANK25
  7900 ;;      Params:         2       0       0       0       0       0       0       0       0       0       0       0       
      +0       0       0       0       0       0       0       0       0       0       0       0       0       0       0
  7901 ;;      Locals:         0       9       0       0       0       0       0       0       0       0       0       0       
      +0       0       0       0       0       0       0       0       0       0       0       0       0       0       0
  7902 ;;      Temps:          0       4       0       0       0       0       0       0       0       0       0       0       
      +0       0       0       0       0       0       0       0       0       0       0       0       0       0       0
  7903 ;;      Totals:         2      13       0       0       0       0       0       0       0       0       0       0       
      +0       0       0       0       0       0       0       0       0       0       0       0       0       0       0
  7904 ;;Total ram usage:       15 bytes
  7905 ;; Hardware stack levels used: 1
  7906 ;; Hardware stack levels required when called: 5
  7907 ;; This function calls:
  7908 ;;		___wmul
  7909 ;;		_isdigit
  7910 ;;		_isspace
  7911 ;; This function is called by:
  7912 ;;		_vfpfcnvrt
  7913 ;; This function uses a non-reentrant model
  7914 ;;
  7915                           
  7916                           
  7917                           ;psect for function _atoi
  7918  043D                     _atoi:
  7919  043D                     l5548:	
  7920                           ;incstack = 0
  7921                           ; Regs used in _atoi: [wreg-fsr0h+status,2+status,0+pclath+cstack]
  7922                           
  7923  043D  0140               	movlb	0	; select bank0
  7924  043E  01AB               	clrf	atoi@n
  7925  043F  01AC               	clrf	atoi@n+1
  7926  0440  01A4               	clrf	atoi@neg
  7927  0441  01A5               	clrf	atoi@neg+1
  7928  0442  2C47               	goto	l5552
  7929  0443                     l5550:
  7930  0443  3001               	movlw	1
  7931  0444  07F7               	addwf	atoi@s,f
  7932  0445  3000               	movlw	0
  7933  0446  3DF8               	addwfc	atoi@s+1,f
  7934  0447                     l5552:
  7935  0447  01AA               	clrf	_atoi$2126
  7936  0448  0AAA               	incf	_atoi$2126,f
  7937  0449                     l5554:
  7938  0449  0877               	movf	atoi@s,w
  7939  044A  0084               	movwf	4
  7940  044B  0878               	movf	atoi@s+1,w
  7941  044C  0085               	movwf	5
  7942  044D  0012               	moviw fsr0++
  7943  044E  3A20               	xorlw	32
  7944  044F  1903               	btfsc	3,2
  7945  0450  2C52               	goto	u3861
  7946  0451  2C53               	goto	u3860
  7947  0452                     u3861:
  7948  0452  2C68               	goto	l5560
  7949  0453                     u3860:
  7950  0453                     l5556:
  7951  0453  0877               	movf	atoi@s,w
  7952  0454  0084               	movwf	4
  7953  0455  0878               	movf	atoi@s+1,w
  7954  0456  0085               	movwf	5
  7955  0457  0800               	movf	0,w	;code access
  7956  0458  3EF7               	addlw	247
  7957  0459  00A0               	movwf	??_atoi
  7958  045A  30FF               	movlw	255
  7959  045B  1803               	skipnc
  7960  045C  3000               	movlw	0
  7961  045D  00A1               	movwf	??_atoi+1
  7962  045E  3000               	movlw	0
  7963  045F  0221               	subwf	??_atoi+1,w
  7964  0460  3005               	movlw	5
  7965  0461  1903               	skipnz
  7966  0462  0220               	subwf	??_atoi,w
  7967  0463  1C03               	skipc
  7968  0464  2C66               	goto	u3871
  7969  0465  2C67               	goto	u3870
  7970  0466                     u3871:
  7971  0466  2C68               	goto	l5560
  7972  0467                     u3870:
  7973  0467                     l5558:
  7974  0467  01AA               	clrf	_atoi$2126
  7975  0468                     l5560:
  7976  0468  082A               	movf	_atoi$2126,w
  7977  0469  00A0               	movwf	??_atoi
  7978  046A  01A1               	clrf	??_atoi+1
  7979  046B  0820               	movf	??_atoi,w
  7980  046C  00A6               	movwf	_atoi$2125
  7981  046D  0821               	movf	??_atoi+1,w
  7982  046E  00A7               	movwf	_atoi$2125+1
  7983  046F                     l5564:
  7984  046F  0826               	movf	_atoi$2125,w
  7985  0470  0427               	iorwf	_atoi$2125+1,w
  7986  0471  1D03               	btfss	3,2
  7987  0472  2C74               	goto	u3881
  7988  0473  2C75               	goto	u3880
  7989  0474                     u3881:
  7990  0474  2C43               	goto	l5550
  7991  0475                     u3880:
  7992  0475  2C7F               	goto	l5568
  7993  0476                     l5566:
  7994  0476  3001               	movlw	1
  7995  0477  00A4               	movwf	atoi@neg
  7996  0478  3000               	movlw	0
  7997  0479  00A5               	movwf	atoi@neg+1
  7998  047A                     l1730:
  7999  047A  3001               	movlw	1
  8000  047B  07F7               	addwf	atoi@s,f
  8001  047C  3000               	movlw	0
  8002  047D  3DF8               	addwfc	atoi@s+1,f
  8003  047E  2CB3               	goto	l5574
  8004  047F                     l5568:
  8005  047F  0877               	movf	atoi@s,w
  8006  0480  0084               	movwf	4
  8007  0481  0878               	movf	atoi@s+1,w
  8008  0482  0085               	movwf	5
  8009  0483  0800               	movf	0,w	;code access
  8010  0484  00A0               	movwf	??_atoi
  8011  0485  01A1               	clrf	??_atoi+1
  8012                           
  8013                           ; Switch on 2 bytes has been partitioned into a top level switch of size 1, and 1 sub-sw
      +                          itches
  8014                           ; Switch size 1, requested type "simple"
  8015                           ; Number of cases is 1, Range of values is 0 to 0
  8016                           ; switch strategies available:
  8017                           ; Name         Instructions Cycles
  8018                           ; simple_byte            4     3 (average)
  8019                           ; direct_byte            8     6 (fixed)
  8020                           ; jumptable            260     6 (fixed)
  8021                           ;	Chosen strategy is simple_byte
  8022  0486  0821               	movf	??_atoi+1,w
  8023  0487  3A00               	xorlw	0	; case 0
  8024  0488  1903               	skipnz
  8025  0489  2C8B               	goto	l6298
  8026  048A  2CB3               	goto	l5574
  8027  048B                     l6298:
  8028                           
  8029                           ; Switch size 1, requested type "simple"
  8030                           ; Number of cases is 2, Range of values is 43 to 45
  8031                           ; switch strategies available:
  8032                           ; Name         Instructions Cycles
  8033                           ; simple_byte            7     4 (average)
  8034                           ; direct_byte           15     9 (fixed)
  8035                           ; jumptable            263     9 (fixed)
  8036                           ;	Chosen strategy is simple_byte
  8037  048B  0820               	movf	??_atoi,w
  8038  048C  3A2B               	xorlw	43	; case 43
  8039  048D  1903               	skipnz
  8040  048E  2C7A               	goto	l1730
  8041  048F  3A06               	xorlw	6	; case 45
  8042  0490  1903               	skipnz
  8043  0491  2C76               	goto	l5566
  8044  0492  2CB3               	goto	l5574
  8045  0493                     l5570:
  8046  0493  0877               	movf	atoi@s,w
  8047  0494  0084               	movwf	4
  8048  0495  0878               	movf	atoi@s+1,w
  8049  0496  0085               	movwf	5
  8050  0497  0800               	movf	0,w	;code access
  8051  0498  00A0               	movwf	??_atoi
  8052  0499  082C               	movf	atoi@n+1,w
  8053  049A  00F2               	movwf	___wmul@multiplier+1
  8054  049B  082B               	movf	atoi@n,w
  8055  049C  00F1               	movwf	___wmul@multiplier
  8056  049D  300A               	movlw	10
  8057  049E  00F3               	movwf	___wmul@multiplicand
  8058  049F  3000               	movlw	0
  8059  04A0  00F4               	movwf	___wmul@multiplicand+1
  8060  04A1  318E  2646  3184   	fcall	___wmul
  8061  04A4  0872               	movf	?___wmul+1,w
  8062  04A5  0140               	movlb	0	; select bank0
  8063  04A6  00A2               	movwf	??_atoi+2
  8064  04A7  0820               	movf	??_atoi,w
  8065  04A8  0271               	subwf	?___wmul,w
  8066  04A9  00A1               	movwf	??_atoi+1
  8067  04AA  1C03               	skipc
  8068  04AB  03A2               	decf	??_atoi+2,f
  8069  04AC  0821               	movf	??_atoi+1,w
  8070  04AD  3E30               	addlw	48
  8071  04AE  00AB               	movwf	atoi@n
  8072  04AF  3000               	movlw	0
  8073  04B0  3D22               	addwfc	??_atoi+2,w
  8074  04B1  00AC               	movwf	atoi@n+1
  8075  04B2  2C7A               	goto	l1730
  8076  04B3                     l5574:
  8077  04B3  0877               	movf	atoi@s,w
  8078  04B4  0084               	movwf	4
  8079  04B5  0878               	movf	atoi@s+1,w
  8080  04B6  0085               	movwf	5
  8081  04B7  0800               	movf	0,w	;code access
  8082  04B8  3ED0               	addlw	208
  8083  04B9  00A0               	movwf	??_atoi
  8084  04BA  30FF               	movlw	255
  8085  04BB  1803               	skipnc
  8086  04BC  3000               	movlw	0
  8087  04BD  00A1               	movwf	??_atoi+1
  8088  04BE  3000               	movlw	0
  8089  04BF  0221               	subwf	??_atoi+1,w
  8090  04C0  300A               	movlw	10
  8091  04C1  1903               	skipnz
  8092  04C2  0220               	subwf	??_atoi,w
  8093  04C3  1C03               	skipc
  8094  04C4  2CC6               	goto	u3891
  8095  04C5  2CC8               	goto	u3890
  8096  04C6                     u3891:
  8097  04C6  3001               	movlw	1
  8098  04C7  2CC9               	goto	u3900
  8099  04C8                     u3890:
  8100  04C8  3000               	movlw	0
  8101  04C9                     u3900:
  8102  04C9  00A2               	movwf	??_atoi+2
  8103  04CA  01A3               	clrf	??_atoi+3
  8104  04CB  0822               	movf	??_atoi+2,w
  8105  04CC  00A8               	movwf	_atoi$2127
  8106  04CD  0823               	movf	??_atoi+3,w
  8107  04CE  00A9               	movwf	_atoi$2127+1
  8108  04CF                     l5578:
  8109  04CF  0828               	movf	_atoi$2127,w
  8110  04D0  0429               	iorwf	_atoi$2127+1,w
  8111  04D1  1D03               	btfss	3,2
  8112  04D2  2CD4               	goto	u3911
  8113  04D3  2CD5               	goto	u3910
  8114  04D4                     u3911:
  8115  04D4  2C93               	goto	l5570
  8116  04D5                     u3910:
  8117  04D5                     l5580:
  8118  04D5  0824               	movf	atoi@neg,w
  8119  04D6  0425               	iorwf	atoi@neg+1,w
  8120  04D7  1D03               	btfss	3,2
  8121  04D8  2CDA               	goto	u3921
  8122  04D9  2CDB               	goto	u3920
  8123  04DA                     u3921:
  8124  04DA  2CE7               	goto	l5584
  8125  04DB                     u3920:
  8126  04DB                     l5582:
  8127  04DB  092B               	comf	atoi@n,w
  8128  04DC  00A0               	movwf	??_atoi
  8129  04DD  092C               	comf	atoi@n+1,w
  8130  04DE  00A1               	movwf	??_atoi+1
  8131  04DF  0AA0               	incf	??_atoi,f
  8132  04E0  1903               	skipnz
  8133  04E1  0AA1               	incf	??_atoi+1,f
  8134  04E2  0820               	movf	??_atoi,w
  8135  04E3  00F7               	movwf	?_atoi
  8136  04E4  0821               	movf	??_atoi+1,w
  8137  04E5  00F8               	movwf	?_atoi+1
  8138  04E6  2CEB               	goto	l1743
  8139  04E7                     l5584:
  8140  04E7  082C               	movf	atoi@n+1,w
  8141  04E8  00F8               	movwf	?_atoi+1
  8142  04E9  082B               	movf	atoi@n,w
  8143  04EA  00F7               	movwf	?_atoi
  8144  04EB                     l1743:
  8145  04EB  0008               	return
  8146  04EC                     __end_of_atoi:
  8147                           
  8148                           	psect	text31
  8149  0E65                     __ptext31:	
  8150 ;; *************** function _isspace *****************
  8151 ;; Defined at:
  8152 ;;		line 5 in file "C:\Program Files\Microchip\xc8\v2.32\pic\sources\c99\common\isspace.c"
  8153 ;; Parameters:    Size  Location     Type
  8154 ;;  c               2    1[COMMON] int 
  8155 ;; Auto vars:     Size  Location     Type
  8156 ;;		None
  8157 ;; Return value:  Size  Location     Type
  8158 ;;                  2    1[COMMON] int 
  8159 ;; Registers used:
  8160 ;;		wreg, status,2, status,0
  8161 ;; Tracked objects:
  8162 ;;		On entry : 0/0
  8163 ;;		On exit  : 0/0
  8164 ;;		Unchanged: 0/0
  8165 ;; Data sizes:     COMMON   BANK0   BANK1   BANK2   BANK3   BANK4   BANK5   BANK6   BANK7   BANK8   BANK9  BANK10  BANK1
      +1  BANK12  BANK13  BANK14  BANK15  BANK16  BANK17  BANK18  BANK19  BANK20  BANK21  BANK22  BANK23  BANK24  BANK25
  8166 ;;      Params:         2       0       0       0       0       0       0       0       0       0       0       0       
      +0       0       0       0       0       0       0       0       0       0       0       0       0       0       0
  8167 ;;      Locals:         1       0       0       0       0       0       0       0       0       0       0       0       
      +0       0       0       0       0       0       0       0       0       0       0       0       0       0       0
  8168 ;;      Temps:          2       0       0       0       0       0       0       0       0       0       0       0       
      +0       0       0       0       0       0       0       0       0       0       0       0       0       0       0
  8169 ;;      Totals:         5       0       0       0       0       0       0       0       0       0       0       0       
      +0       0       0       0       0       0       0       0       0       0       0       0       0       0       0
  8170 ;;Total ram usage:        5 bytes
  8171 ;; Hardware stack levels used: 1
  8172 ;; Hardware stack levels required when called: 4
  8173 ;; This function calls:
  8174 ;;		Nothing
  8175 ;; This function is called by:
  8176 ;;		_atoi
  8177 ;; This function uses a non-reentrant model
  8178 ;;
  8179                           
  8180                           
  8181                           ;psect for function _isspace
  8182  0E65                     _isspace:
  8183  0E65                     l5450:	
  8184                           ;incstack = 0
  8185                           ; Regs used in _isspace: [wreg+status,2+status,0]
  8186                           
  8187  0E65  01F5               	clrf	_isspace$2152
  8188  0E66  0AF5               	incf	_isspace$2152,f
  8189  0E67                     l5452:
  8190  0E67  3020               	movlw	32
  8191  0E68  0671               	xorwf	isspace@c,w
  8192  0E69  0472               	iorwf	isspace@c+1,w
  8193  0E6A  1903               	btfsc	3,2
  8194  0E6B  2E6D               	goto	u3671
  8195  0E6C  2E6E               	goto	u3670
  8196  0E6D                     u3671:
  8197  0E6D  2E7E               	goto	l5458
  8198  0E6E                     u3670:
  8199  0E6E                     l5454:
  8200  0E6E  0871               	movf	isspace@c,w
  8201  0E6F  3EF7               	addlw	247
  8202  0E70  00F3               	movwf	??_isspace
  8203  0E71  30FF               	movlw	255
  8204  0E72  3D72               	addwfc	isspace@c+1,w
  8205  0E73  00F4               	movwf	??_isspace+1
  8206  0E74  3000               	movlw	0
  8207  0E75  0274               	subwf	??_isspace+1,w
  8208  0E76  3005               	movlw	5
  8209  0E77  1903               	skipnz
  8210  0E78  0273               	subwf	??_isspace,w
  8211  0E79  1C03               	skipc
  8212  0E7A  2E7C               	goto	u3681
  8213  0E7B  2E7D               	goto	u3680
  8214  0E7C                     u3681:
  8215  0E7C  2E7E               	goto	l5458
  8216  0E7D                     u3680:
  8217  0E7D                     l5456:
  8218  0E7D  01F5               	clrf	_isspace$2152
  8219  0E7E                     l5458:
  8220  0E7E  0875               	movf	_isspace$2152,w
  8221  0E7F  00F3               	movwf	??_isspace
  8222  0E80  01F4               	clrf	??_isspace+1
  8223  0E81  0873               	movf	??_isspace,w
  8224  0E82  00F1               	movwf	?_isspace
  8225  0E83  0874               	movf	??_isspace+1,w
  8226  0E84  00F2               	movwf	?_isspace+1
  8227  0E85                     l1760:
  8228  0E85  0008               	return
  8229  0E86                     __end_of_isspace:
  8230                           
  8231                           	psect	text32
  8232  0D74                     __ptext32:	
  8233 ;; *************** function _isdigit *****************
  8234 ;; Defined at:
  8235 ;;		line 5 in file "C:\Program Files\Microchip\xc8\v2.32\pic\sources\c99\common\isdigit.c"
  8236 ;; Parameters:    Size  Location     Type
  8237 ;;  c               2    1[COMMON] int 
  8238 ;; Auto vars:     Size  Location     Type
  8239 ;;		None
  8240 ;; Return value:  Size  Location     Type
  8241 ;;                  2    1[COMMON] int 
  8242 ;; Registers used:
  8243 ;;		wreg, status,2, status,0
  8244 ;; Tracked objects:
  8245 ;;		On entry : 0/0
  8246 ;;		On exit  : 0/0
  8247 ;;		Unchanged: 0/0
  8248 ;; Data sizes:     COMMON   BANK0   BANK1   BANK2   BANK3   BANK4   BANK5   BANK6   BANK7   BANK8   BANK9  BANK10  BANK1
      +1  BANK12  BANK13  BANK14  BANK15  BANK16  BANK17  BANK18  BANK19  BANK20  BANK21  BANK22  BANK23  BANK24  BANK25
  8249 ;;      Params:         2       0       0       0       0       0       0       0       0       0       0       0       
      +0       0       0       0       0       0       0       0       0       0       0       0       0       0       0
  8250 ;;      Locals:         0       0       0       0       0       0       0       0       0       0       0       0       
      +0       0       0       0       0       0       0       0       0       0       0       0       0       0       0
  8251 ;;      Temps:          4       0       0       0       0       0       0       0       0       0       0       0       
      +0       0       0       0       0       0       0       0       0       0       0       0       0       0       0
  8252 ;;      Totals:         6       0       0       0       0       0       0       0       0       0       0       0       
      +0       0       0       0       0       0       0       0       0       0       0       0       0       0       0
  8253 ;;Total ram usage:        6 bytes
  8254 ;; Hardware stack levels used: 1
  8255 ;; Hardware stack levels required when called: 4
  8256 ;; This function calls:
  8257 ;;		Nothing
  8258 ;; This function is called by:
  8259 ;;		_vfpfcnvrt
  8260 ;;		_atoi
  8261 ;; This function uses a non-reentrant model
  8262 ;;
  8263                           
  8264                           
  8265                           ;psect for function _isdigit
  8266  0D74                     _isdigit:
  8267  0D74                     l5446:	
  8268                           ;incstack = 0
  8269                           ; Regs used in _isdigit: [wreg+status,2+status,0]
  8270                           
  8271  0D74  0871               	movf	isdigit@c,w
  8272  0D75  3ED0               	addlw	208
  8273  0D76  00F3               	movwf	??_isdigit
  8274  0D77  30FF               	movlw	255
  8275  0D78  3D72               	addwfc	isdigit@c+1,w
  8276  0D79  00F4               	movwf	??_isdigit+1
  8277  0D7A  3000               	movlw	0
  8278  0D7B  0274               	subwf	??_isdigit+1,w
  8279  0D7C  300A               	movlw	10
  8280  0D7D  1903               	skipnz
  8281  0D7E  0273               	subwf	??_isdigit,w
  8282  0D7F  1C03               	skipc
  8283  0D80  2D82               	goto	u3651
  8284  0D81  2D84               	goto	u3650
  8285  0D82                     u3651:
  8286  0D82  3001               	movlw	1
  8287  0D83  2D85               	goto	u3660
  8288  0D84                     u3650:
  8289  0D84  3000               	movlw	0
  8290  0D85                     u3660:
  8291  0D85  00F5               	movwf	??_isdigit+2
  8292  0D86  01F6               	clrf	??_isdigit+3
  8293  0D87  0875               	movf	??_isdigit+2,w
  8294  0D88  00F1               	movwf	?_isdigit
  8295  0D89  0876               	movf	??_isdigit+3,w
  8296  0D8A  00F2               	movwf	?_isdigit+1
  8297  0D8B                     l1752:
  8298  0D8B  0008               	return
  8299  0D8C                     __end_of_isdigit:
  8300                           
  8301                           	psect	text33
  8302  0E46                     __ptext33:	
  8303 ;; *************** function ___wmul *****************
  8304 ;; Defined at:
  8305 ;;		line 15 in file "C:\Program Files\Microchip\xc8\v2.32\pic\sources\c99\common\Umul16.c"
  8306 ;; Parameters:    Size  Location     Type
  8307 ;;  multiplier      2    1[COMMON] unsigned int 
  8308 ;;  multiplicand    2    3[COMMON] unsigned int 
  8309 ;; Auto vars:     Size  Location     Type
  8310 ;;  product         2    5[COMMON] unsigned int 
  8311 ;; Return value:  Size  Location     Type
  8312 ;;                  2    1[COMMON] unsigned int 
  8313 ;; Registers used:
  8314 ;;		wreg, status,2, status,0
  8315 ;; Tracked objects:
  8316 ;;		On entry : 0/0
  8317 ;;		On exit  : 0/0
  8318 ;;		Unchanged: 0/0
  8319 ;; Data sizes:     COMMON   BANK0   BANK1   BANK2   BANK3   BANK4   BANK5   BANK6   BANK7   BANK8   BANK9  BANK10  BANK1
      +1  BANK12  BANK13  BANK14  BANK15  BANK16  BANK17  BANK18  BANK19  BANK20  BANK21  BANK22  BANK23  BANK24  BANK25
  8320 ;;      Params:         4       0       0       0       0       0       0       0       0       0       0       0       
      +0       0       0       0       0       0       0       0       0       0       0       0       0       0       0
  8321 ;;      Locals:         2       0       0       0       0       0       0       0       0       0       0       0       
      +0       0       0       0       0       0       0       0       0       0       0       0       0       0       0
  8322 ;;      Temps:          0       0       0       0       0       0       0       0       0       0       0       0       
      +0       0       0       0       0       0       0       0       0       0       0       0       0       0       0
  8323 ;;      Totals:         6       0       0       0       0       0       0       0       0       0       0       0       
      +0       0       0       0       0       0       0       0       0       0       0       0       0       0       0
  8324 ;;Total ram usage:        6 bytes
  8325 ;; Hardware stack levels used: 1
  8326 ;; Hardware stack levels required when called: 4
  8327 ;; This function calls:
  8328 ;;		Nothing
  8329 ;; This function is called by:
  8330 ;;		_atoi
  8331 ;; This function uses a non-reentrant model
  8332 ;;
  8333                           
  8334                           
  8335                           ;psect for function ___wmul
  8336  0E46                     ___wmul:
  8337  0E46                     l5394:	
  8338                           ;incstack = 0
  8339                           ; Regs used in ___wmul: [wreg+status,2+status,0]
  8340                           
  8341  0E46  01F5               	clrf	___wmul@product
  8342  0E47  01F6               	clrf	___wmul@product+1
  8343  0E48                     l5396:
  8344  0E48  1C71               	btfss	___wmul@multiplier,0
  8345  0E49  2E4B               	goto	u3501
  8346  0E4A  2E4C               	goto	u3500
  8347  0E4B                     u3501:
  8348  0E4B  2E50               	goto	l1137
  8349  0E4C                     u3500:
  8350  0E4C                     l5398:
  8351  0E4C  0873               	movf	___wmul@multiplicand,w
  8352  0E4D  07F5               	addwf	___wmul@product,f
  8353  0E4E  0874               	movf	___wmul@multiplicand+1,w
  8354  0E4F  3DF6               	addwfc	___wmul@product+1,f
  8355  0E50                     l1137:
  8356  0E50  3001               	movlw	1
  8357  0E51                     u3515:
  8358  0E51  35F3               	lslf	___wmul@multiplicand,f
  8359  0E52  0DF4               	rlf	___wmul@multiplicand+1,f
  8360  0E53  0B89               	decfsz	9,f
  8361  0E54  2E51               	goto	u3515
  8362  0E55                     l5400:
  8363  0E55  3001               	movlw	1
  8364  0E56                     u3525:
  8365  0E56  36F2               	lsrf	___wmul@multiplier+1,f
  8366  0E57  0CF1               	rrf	___wmul@multiplier,f
  8367  0E58  0B89               	decfsz	9,f
  8368  0E59  2E56               	goto	u3525
  8369  0E5A                     l5402:
  8370  0E5A  0871               	movf	___wmul@multiplier,w
  8371  0E5B  0472               	iorwf	___wmul@multiplier+1,w
  8372  0E5C  1D03               	btfss	3,2
  8373  0E5D  2E5F               	goto	u3531
  8374  0E5E  2E60               	goto	u3530
  8375  0E5F                     u3531:
  8376  0E5F  2E48               	goto	l5396
  8377  0E60                     u3530:
  8378  0E60                     l5404:
  8379  0E60  0876               	movf	___wmul@product+1,w
  8380  0E61  00F2               	movwf	?___wmul+1
  8381  0E62  0875               	movf	___wmul@product,w
  8382  0E63  00F1               	movwf	?___wmul
  8383  0E64                     l1139:
  8384  0E64  0008               	return
  8385  0E65                     __end_of___wmul:
  8386                           
  8387                           	psect	text34
  8388  0CB0                     __ptext34:	
  8389 ;; *************** function _EUSART1_is_rx_ready *****************
  8390 ;; Defined at:
  8391 ;;		line 137 in file "mcc_generated_files/eusart1.c"
  8392 ;; Parameters:    Size  Location     Type
  8393 ;;		None
  8394 ;; Auto vars:     Size  Location     Type
  8395 ;;		None
  8396 ;; Return value:  Size  Location     Type
  8397 ;;                  1    wreg      _Bool 
  8398 ;; Registers used:
  8399 ;;		wreg, status,2, status,0
  8400 ;; Tracked objects:
  8401 ;;		On entry : 0/0
  8402 ;;		On exit  : 0/0
  8403 ;;		Unchanged: 0/0
  8404 ;; Data sizes:     COMMON   BANK0   BANK1   BANK2   BANK3   BANK4   BANK5   BANK6   BANK7   BANK8   BANK9  BANK10  BANK1
      +1  BANK12  BANK13  BANK14  BANK15  BANK16  BANK17  BANK18  BANK19  BANK20  BANK21  BANK22  BANK23  BANK24  BANK25
  8405 ;;      Params:         0       0       0       0       0       0       0       0       0       0       0       0       
      +0       0       0       0       0       0       0       0       0       0       0       0       0       0       0
  8406 ;;      Locals:         0       0       0       0       0       0       0       0       0       0       0       0       
      +0       0       0       0       0       0       0       0       0       0       0       0       0       0       0
  8407 ;;      Temps:          0       0       0       0       0       0       0       0       0       0       0       0       
      +0       0       0       0       0       0       0       0       0       0       0       0       0       0       0
  8408 ;;      Totals:         0       0       0       0       0       0       0       0       0       0       0       0       
      +0       0       0       0       0       0       0       0       0       0       0       0       0       0       0
  8409 ;;Total ram usage:        0 bytes
  8410 ;; Hardware stack levels used: 1
  8411 ;; Hardware stack levels required when called: 4
  8412 ;; This function calls:
  8413 ;;		Nothing
  8414 ;; This function is called by:
  8415 ;;		_main
  8416 ;; This function uses a non-reentrant model
  8417 ;;
  8418                           
  8419                           
  8420                           ;psect for function _EUSART1_is_rx_ready
  8421  0CB0                     _EUSART1_is_rx_ready:
  8422  0CB0                     l5922:	
  8423                           ;incstack = 0
  8424                           ; Regs used in _EUSART1_is_rx_ready: [wreg+status,2+status,0]
  8425                           
  8426                           
  8427                           ;mcc_generated_files/eusart1.c: 139:     return (eusart1RxCount ? 1 : 0);
  8428  0CB0  0141               	movlb	1	; select bank1
  8429  0CB1  0839               	movf	_eusart1RxCount^(0+128),w	;volatile
  8430  0CB2  1D03               	btfss	3,2
  8431  0CB3  2CB5               	goto	u4201
  8432  0CB4  2CB7               	goto	u4200
  8433  0CB5                     u4201:
  8434  0CB5  3001               	movlw	1
  8435  0CB6  2CB8               	goto	u4210
  8436  0CB7                     u4200:
  8437  0CB7  3000               	movlw	0
  8438  0CB8                     u4210:
  8439  0CB8                     l613:
  8440  0CB8  0008               	return
  8441  0CB9                     __end_of_EUSART1_is_rx_ready:
  8442                           
  8443                           	psect	text35
  8444  0FA9                     __ptext35:	
  8445 ;; *************** function _EUSART1_Read *****************
  8446 ;; Defined at:
  8447 ;;		line 151 in file "mcc_generated_files/eusart1.c"
  8448 ;; Parameters:    Size  Location     Type
  8449 ;;		None
  8450 ;; Auto vars:     Size  Location     Type
  8451 ;;  readValue       1    2[COMMON] unsigned char 
  8452 ;; Return value:  Size  Location     Type
  8453 ;;                  1    wreg      unsigned char 
  8454 ;; Registers used:
  8455 ;;		wreg, fsr1l, fsr1h, status,2, status,0
  8456 ;; Tracked objects:
  8457 ;;		On entry : 0/0
  8458 ;;		On exit  : 0/0
  8459 ;;		Unchanged: 0/0
  8460 ;; Data sizes:     COMMON   BANK0   BANK1   BANK2   BANK3   BANK4   BANK5   BANK6   BANK7   BANK8   BANK9  BANK10  BANK1
      +1  BANK12  BANK13  BANK14  BANK15  BANK16  BANK17  BANK18  BANK19  BANK20  BANK21  BANK22  BANK23  BANK24  BANK25
  8461 ;;      Params:         0       0       0       0       0       0       0       0       0       0       0       0       
      +0       0       0       0       0       0       0       0       0       0       0       0       0       0       0
  8462 ;;      Locals:         1       0       0       0       0       0       0       0       0       0       0       0       
      +0       0       0       0       0       0       0       0       0       0       0       0       0       0       0
  8463 ;;      Temps:          1       0       0       0       0       0       0       0       0       0       0       0       
      +0       0       0       0       0       0       0       0       0       0       0       0       0       0       0
  8464 ;;      Totals:         2       0       0       0       0       0       0       0       0       0       0       0       
      +0       0       0       0       0       0       0       0       0       0       0       0       0       0       0
  8465 ;;Total ram usage:        2 bytes
  8466 ;; Hardware stack levels used: 1
  8467 ;; Hardware stack levels required when called: 4
  8468 ;; This function calls:
  8469 ;;		Nothing
  8470 ;; This function is called by:
  8471 ;;		_main
  8472 ;;		_getch
  8473 ;; This function uses a non-reentrant model
  8474 ;;
  8475                           
  8476                           
  8477                           ;psect for function _EUSART1_Read
  8478  0FA9                     _EUSART1_Read:
  8479  0FA9                     l5926:	
  8480                           ;incstack = 0
  8481                           ; Regs used in _EUSART1_Read: [wreg+fsr1l+fsr1h+status,2+status,0]
  8482                           
  8483  0FA9                     l5928:	
  8484                           ;mcc_generated_files/eusart1.c: 155:     while(0 == eusart1RxCount)
  8485                           
  8486                           
  8487                           ;mcc_generated_files/eusart1.c: 155:     while(0 == eusart1RxCount)
  8488  0FA9  0141               	movlb	1	; select bank1
  8489  0FAA  0839               	movf	_eusart1RxCount^(0+128),w	;volatile
  8490  0FAB  1903               	btfsc	3,2
  8491  0FAC  2FAE               	goto	u4221
  8492  0FAD  2FAF               	goto	u4220
  8493  0FAE                     u4221:
  8494  0FAE  2FA9               	goto	l5928
  8495  0FAF                     u4220:
  8496  0FAF                     l5930:
  8497                           
  8498                           ;mcc_generated_files/eusart1.c: 159:     eusart1RxLastError = eusart1RxStatusBuffer[eusa
      +                          rt1RxTail];
  8499  0FAF  083A               	movf	_eusart1RxTail^(0+128),w	;volatile
  8500  0FB0  3EA0               	addlw	(low (_eusart1RxStatusBuffer| 0))& (0+255)
  8501  0FB1  0086               	movwf	6
  8502  0FB2  0187               	clrf	7
  8503  0FB3  0801               	movf	1,w
  8504  0FB4  00F1               	movwf	??_EUSART1_Read
  8505  0FB5  0871               	movf	??_EUSART1_Read,w
  8506  0FB6  00B8               	movwf	_eusart1RxLastError^(0+128)	;volatile
  8507                           
  8508                           ;mcc_generated_files/eusart1.c: 161:     readValue = eusart1RxBuffer[eusart1RxTail++];
  8509  0FB7  083A               	movf	_eusart1RxTail^(0+128),w
  8510  0FB8  3EA8               	addlw	(low (_eusart1RxBuffer| 0))& (0+255)
  8511  0FB9  0086               	movwf	6
  8512  0FBA  0187               	clrf	7
  8513  0FBB  0801               	movf	1,w
  8514  0FBC  00F1               	movwf	??_EUSART1_Read
  8515  0FBD  0871               	movf	??_EUSART1_Read,w
  8516  0FBE  00F2               	movwf	EUSART1_Read@readValue
  8517  0FBF                     l5932:
  8518  0FBF  3001               	movlw	1
  8519  0FC0  00F1               	movwf	??_EUSART1_Read
  8520  0FC1  0871               	movf	??_EUSART1_Read,w
  8521  0FC2  07BA               	addwf	_eusart1RxTail^(0+128),f	;volatile
  8522  0FC3                     l5934:
  8523                           
  8524                           ;mcc_generated_files/eusart1.c: 162:     if(sizeof(eusart1RxBuffer) <= eusart1RxTail)
  8525  0FC3  3008               	movlw	8
  8526  0FC4  023A               	subwf	_eusart1RxTail^(0+128),w	;volatile
  8527  0FC5  1C03               	skipc
  8528  0FC6  2FC8               	goto	u4231
  8529  0FC7  2FC9               	goto	u4230
  8530  0FC8                     u4231:
  8531  0FC8  2FCA               	goto	l5938
  8532  0FC9                     u4230:
  8533  0FC9                     l5936:
  8534                           
  8535                           ;mcc_generated_files/eusart1.c: 163:     {;mcc_generated_files/eusart1.c: 164:         e
      +                          usart1RxTail = 0;
  8536  0FC9  01BA               	clrf	_eusart1RxTail^(0+128)	;volatile
  8537  0FCA                     l5938:
  8538                           
  8539                           ;mcc_generated_files/eusart1.c: 166:     PIE3bits.RC1IE = 0;
  8540  0FCA  014E               	movlb	14	; select bank14
  8541  0FCB  1299               	bcf	25,5	;volatile
  8542  0FCC                     l5940:
  8543                           
  8544                           ;mcc_generated_files/eusart1.c: 167:     eusart1RxCount--;
  8545  0FCC  3001               	movlw	1
  8546  0FCD  0141               	movlb	1	; select bank1
  8547  0FCE  02B9               	subwf	_eusart1RxCount^(0+128),f	;volatile
  8548  0FCF                     l5942:
  8549                           
  8550                           ;mcc_generated_files/eusart1.c: 168:     PIE3bits.RC1IE = 1;
  8551  0FCF  014E               	movlb	14	; select bank14
  8552  0FD0  1699               	bsf	25,5	;volatile
  8553  0FD1                     l5944:
  8554                           
  8555                           ;mcc_generated_files/eusart1.c: 170:     return readValue;
  8556  0FD1  0872               	movf	EUSART1_Read@readValue,w
  8557  0FD2                     l626:
  8558  0FD2  0008               	return
  8559  0FD3                     __end_of_EUSART1_Read:
  8560                           
  8561                           	psect	text36
  8562  0FD3                     __ptext36:	
  8563 ;; *************** function _EE_WritePage *****************
  8564 ;; Defined at:
  8565 ;;		line 37 in file "main.c"
  8566 ;; Parameters:    Size  Location     Type
  8567 ;;  addr            2    4[BANK0 ] unsigned short 
  8568 ;;  pdata           1    6[BANK0 ] PTR const unsigned char 
  8569 ;;		 -> main@datain(64), 
  8570 ;; Auto vars:     Size  Location     Type
  8571 ;;  frame          66    7[BANK0 ] unsigned char [66]
  8572 ;; Return value:  Size  Location     Type
  8573 ;;                  1    wreg      void 
  8574 ;; Registers used:
  8575 ;;		wreg, fsr1l, fsr1h, status,2, status,0, pclath, cstack
  8576 ;; Tracked objects:
  8577 ;;		On entry : 0/0
  8578 ;;		On exit  : 0/0
  8579 ;;		Unchanged: 0/0
  8580 ;; Data sizes:     COMMON   BANK0   BANK1   BANK2   BANK3   BANK4   BANK5   BANK6   BANK7   BANK8   BANK9  BANK10  BANK1
      +1  BANK12  BANK13  BANK14  BANK15  BANK16  BANK17  BANK18  BANK19  BANK20  BANK21  BANK22  BANK23  BANK24  BANK25
  8581 ;;      Params:         0       3       0       0       0       0       0       0       0       0       0       0       
      +0       0       0       0       0       0       0       0       0       0       0       0       0       0       0
  8582 ;;      Locals:         0      66       0       0       0       0       0       0       0       0       0       0       
      +0       0       0       0       0       0       0       0       0       0       0       0       0       0       0
  8583 ;;      Temps:          1       0       0       0       0       0       0       0       0       0       0       0       
      +0       0       0       0       0       0       0       0       0       0       0       0       0       0       0
  8584 ;;      Totals:         1      69       0       0       0       0       0       0       0       0       0       0       
      +0       0       0       0       0       0       0       0       0       0       0       0       0       0       0
  8585 ;;Total ram usage:       70 bytes
  8586 ;; Hardware stack levels used: 1
  8587 ;; Hardware stack levels required when called: 8
  8588 ;; This function calls:
  8589 ;;		_SW_I2C_WriteNBytes
  8590 ;;		_memcpy
  8591 ;; This function is called by:
  8592 ;;		_main
  8593 ;; This function uses a non-reentrant model
  8594 ;;
  8595                           
  8596                           
  8597                           ;psect for function _EE_WritePage
  8598  0FD3                     _EE_WritePage:
  8599  0FD3                     l6072:	
  8600                           ;incstack = 0
  8601                           ; Regs used in _EE_WritePage: [wreg+fsr1l+fsr1h+status,2+status,0+pclath+cstack]
  8602                           
  8603                           
  8604                           ;main.c: 37: void EE_WritePage(uint16_t addr, const uint8_t *pdata);main.c: 38: {;main.c
      +                          : 39:     uint8_t frame[66];;main.c: 41:     frame[0] = (uint8_t) (addr >> 8);
  8605  0FD3  0140               	movlb	0	; select bank0
  8606  0FD4  0825               	movf	EE_WritePage@addr+1,w
  8607  0FD5  00FB               	movwf	??_EE_WritePage
  8608  0FD6  087B               	movf	??_EE_WritePage,w
  8609  0FD7  00A7               	movwf	EE_WritePage@frame
  8610  0FD8                     l6074:
  8611                           
  8612                           ;main.c: 42:     frame[1] = (uint8_t) addr;
  8613  0FD8  0824               	movf	EE_WritePage@addr,w
  8614  0FD9  00FB               	movwf	??_EE_WritePage
  8615  0FDA  087B               	movf	??_EE_WritePage,w
  8616  0FDB  00A8               	movwf	EE_WritePage@frame+1
  8617  0FDC                     l6076:
  8618                           
  8619                           ;main.c: 43:     memcpy((void*) &frame[2], pdata, 64);
  8620  0FDC  0826               	movf	EE_WritePage@pdata,w
  8621  0FDD  00FB               	movwf	??_EE_WritePage
  8622  0FDE  087B               	movf	??_EE_WritePage,w
  8623  0FDF  00F1               	movwf	memcpy@s1
  8624  0FE0  3040               	movlw	64
  8625  0FE1  00F2               	movwf	memcpy@n
  8626  0FE2  3000               	movlw	0
  8627  0FE3  00F3               	movwf	memcpy@n+1
  8628  0FE4  3029               	movlw	(low ((EE_WritePage@frame| 0+2)))& (0+255)
  8629  0FE5  3187  2779  318F   	fcall	_memcpy
  8630  0FE8                     l6078:
  8631  0FE8  0140               	movlb	0	; select bank0
  8632  0FE9  1019               	bcf	25,0	;volatile
  8633  0FEA                     l6080:
  8634                           
  8635                           ;main.c: 45:     SW_I2C_WriteNBytes(0b01010000, &frame[0], 66);
  8636  0FEA  3027               	movlw	(low (EE_WritePage@frame| 0))& (0+255)
  8637  0FEB  00FB               	movwf	??_EE_WritePage
  8638  0FEC  087B               	movf	??_EE_WritePage,w
  8639  0FED  00F8               	movwf	SW_I2C_WriteNBytes@data
  8640  0FEE  3042               	movlw	66
  8641  0FEF  00F9               	movwf	SW_I2C_WriteNBytes@len
  8642  0FF0  3000               	movlw	0
  8643  0FF1  00FA               	movwf	SW_I2C_WriteNBytes@len+1
  8644  0FF2  3050               	movlw	80
  8645  0FF3  3187  27A7  318F   	fcall	_SW_I2C_WriteNBytes
  8646  0FF6                     l6082:
  8647                           
  8648                           ;main.c: 46:     _delay((unsigned long)((5)*(32000000/4000.0)));
  8649  0FF6  3034               	movlw	52
  8650  0FF7  00FB               	movwf	??_EE_WritePage
  8651  0FF8  30F2               	movlw	242
  8652  0FF9                     u4437:
  8653  0FF9  0B89               	decfsz	9,f
  8654  0FFA  2FF9               	goto	u4437
  8655  0FFB  0BFB               	decfsz	??_EE_WritePage,f
  8656  0FFC  2FF9               	goto	u4437
  8657  0FFD                     l6084:
  8658  0FFD  0140               	movlb	0	; select bank0
  8659  0FFE  1419               	bsf	25,0	;volatile
  8660  0FFF                     l1036:
  8661  0FFF  0008               	return
  8662  1000                     __end_of_EE_WritePage:
  8663                           
  8664                           	psect	text37
  8665  0779                     __ptext37:	
  8666 ;; *************** function _memcpy *****************
  8667 ;; Defined at:
  8668 ;;		line 4 in file "C:\Program Files\Microchip\xc8\v2.32\pic\sources\c99\common\memcpy.c"
  8669 ;; Parameters:    Size  Location     Type
  8670 ;;  d1              1    wreg     PTR void 
  8671 ;;		 -> EE_WritePage@frame(66), 
  8672 ;;  s1              1    1[COMMON] PTR const void 
  8673 ;;		 -> main@datain(64), 
  8674 ;;  n               2    2[COMMON] unsigned int 
  8675 ;; Auto vars:     Size  Location     Type
  8676 ;;  d1              1    6[COMMON] PTR void 
  8677 ;;		 -> EE_WritePage@frame(66), 
  8678 ;;  s               1    8[COMMON] PTR const unsigned char 
  8679 ;;		 -> main@datain(64), 
  8680 ;;  d               1    7[COMMON] PTR unsigned char 
  8681 ;;		 -> EE_WritePage@frame(66), 
  8682 ;;  tmp             1    5[COMMON] unsigned char 
  8683 ;; Return value:  Size  Location     Type
  8684 ;;                  1    wreg      PTR void 
  8685 ;; Registers used:
  8686 ;;		wreg, fsr1l, fsr1h, status,2, status,0
  8687 ;; Tracked objects:
  8688 ;;		On entry : 0/0
  8689 ;;		On exit  : 0/0
  8690 ;;		Unchanged: 0/0
  8691 ;; Data sizes:     COMMON   BANK0   BANK1   BANK2   BANK3   BANK4   BANK5   BANK6   BANK7   BANK8   BANK9  BANK10  BANK1
      +1  BANK12  BANK13  BANK14  BANK15  BANK16  BANK17  BANK18  BANK19  BANK20  BANK21  BANK22  BANK23  BANK24  BANK25
  8692 ;;      Params:         3       0       0       0       0       0       0       0       0       0       0       0       
      +0       0       0       0       0       0       0       0       0       0       0       0       0       0       0
  8693 ;;      Locals:         4       0       0       0       0       0       0       0       0       0       0       0       
      +0       0       0       0       0       0       0       0       0       0       0       0       0       0       0
  8694 ;;      Temps:          1       0       0       0       0       0       0       0       0       0       0       0       
      +0       0       0       0       0       0       0       0       0       0       0       0       0       0       0
  8695 ;;      Totals:         8       0       0       0       0       0       0       0       0       0       0       0       
      +0       0       0       0       0       0       0       0       0       0       0       0       0       0       0
  8696 ;;Total ram usage:        8 bytes
  8697 ;; Hardware stack levels used: 1
  8698 ;; Hardware stack levels required when called: 4
  8699 ;; This function calls:
  8700 ;;		Nothing
  8701 ;; This function is called by:
  8702 ;;		_EE_WritePage
  8703 ;; This function uses a non-reentrant model
  8704 ;;
  8705                           
  8706                           
  8707                           ;psect for function _memcpy
  8708  0779                     _memcpy:
  8709                           
  8710                           ;incstack = 0
  8711                           ; Regs used in _memcpy: [wreg+fsr1l+fsr1h+status,2+status,0]
  8712                           ;memcpy@d1 stored from wreg
  8713  0779  00F6               	movwf	memcpy@d1
  8714  077A                     l5902:
  8715  077A  0871               	movf	memcpy@s1,w
  8716  077B  00F4               	movwf	??_memcpy
  8717  077C  0874               	movf	??_memcpy,w
  8718  077D  00F8               	movwf	memcpy@s
  8719  077E  0876               	movf	memcpy@d1,w
  8720  077F  00F4               	movwf	??_memcpy
  8721  0780  0874               	movf	??_memcpy,w
  8722  0781  00F7               	movwf	memcpy@d
  8723  0782  2F9A               	goto	l1596
  8724  0783                     l5904:
  8725  0783  0878               	movf	memcpy@s,w
  8726  0784  0086               	movwf	6
  8727  0785  3001               	movlw	1	; select bank2/3
  8728  0786  0087               	movwf	7
  8729  0787  0801               	movf	1,w
  8730  0788  00F4               	movwf	??_memcpy
  8731  0789  0874               	movf	??_memcpy,w
  8732  078A  00F5               	movwf	memcpy@tmp
  8733  078B                     l5906:
  8734  078B  3001               	movlw	1
  8735  078C  00F4               	movwf	??_memcpy
  8736  078D  0874               	movf	??_memcpy,w
  8737  078E  07F8               	addwf	memcpy@s,f
  8738  078F                     l5908:
  8739  078F  0875               	movf	memcpy@tmp,w
  8740  0790  00F4               	movwf	??_memcpy
  8741  0791  0877               	movf	memcpy@d,w
  8742  0792  0086               	movwf	6
  8743  0793  0187               	clrf	7
  8744  0794  0874               	movf	??_memcpy,w
  8745  0795  0081               	movwf	1
  8746  0796  3001               	movlw	1
  8747  0797  00F4               	movwf	??_memcpy
  8748  0798  0874               	movf	??_memcpy,w
  8749  0799  07F7               	addwf	memcpy@d,f
  8750  079A                     l1596:
  8751  079A  3001               	movlw	1
  8752  079B  02F2               	subwf	memcpy@n,f
  8753  079C  3000               	movlw	0
  8754  079D  3BF3               	subwfb	memcpy@n+1,f
  8755  079E  0A72               	incf	memcpy@n,w
  8756  079F  1D03               	skipz
  8757  07A0  2FA5               	goto	u4181
  8758  07A1  0A73               	incf	memcpy@n+1,w
  8759  07A2  1D03               	btfss	3,2
  8760  07A3  2FA5               	goto	u4181
  8761  07A4  2FA6               	goto	u4180
  8762  07A5                     u4181:
  8763  07A5  2F83               	goto	l5904
  8764  07A6                     u4180:
  8765  07A6                     l1599:
  8766  07A6  0008               	return
  8767  07A7                     __end_of_memcpy:
  8768                           
  8769                           	psect	text38
  8770  0F11                     __ptext38:	
  8771 ;; *************** function _EE_Write *****************
  8772 ;; Defined at:
  8773 ;;		line 12 in file "main.c"
  8774 ;; Parameters:    Size  Location     Type
  8775 ;;  addr            2    4[BANK0 ] unsigned short 
  8776 ;;  data            1    6[BANK0 ] unsigned char 
  8777 ;; Auto vars:     Size  Location     Type
  8778 ;;  frame           3    7[BANK0 ] unsigned char [3]
  8779 ;; Return value:  Size  Location     Type
  8780 ;;                  1    wreg      void 
  8781 ;; Registers used:
  8782 ;;		wreg, fsr1l, fsr1h, status,2, status,0, pclath, cstack
  8783 ;; Tracked objects:
  8784 ;;		On entry : 0/0
  8785 ;;		On exit  : 0/0
  8786 ;;		Unchanged: 0/0
  8787 ;; Data sizes:     COMMON   BANK0   BANK1   BANK2   BANK3   BANK4   BANK5   BANK6   BANK7   BANK8   BANK9  BANK10  BANK1
      +1  BANK12  BANK13  BANK14  BANK15  BANK16  BANK17  BANK18  BANK19  BANK20  BANK21  BANK22  BANK23  BANK24  BANK25
  8788 ;;      Params:         0       3       0       0       0       0       0       0       0       0       0       0       
      +0       0       0       0       0       0       0       0       0       0       0       0       0       0       0
  8789 ;;      Locals:         0       3       0       0       0       0       0       0       0       0       0       0       
      +0       0       0       0       0       0       0       0       0       0       0       0       0       0       0
  8790 ;;      Temps:          1       0       0       0       0       0       0       0       0       0       0       0       
      +0       0       0       0       0       0       0       0       0       0       0       0       0       0       0
  8791 ;;      Totals:         1       6       0       0       0       0       0       0       0       0       0       0       
      +0       0       0       0       0       0       0       0       0       0       0       0       0       0       0
  8792 ;;Total ram usage:        7 bytes
  8793 ;; Hardware stack levels used: 1
  8794 ;; Hardware stack levels required when called: 8
  8795 ;; This function calls:
  8796 ;;		_SW_I2C_WriteNBytes
  8797 ;; This function is called by:
  8798 ;;		_main
  8799 ;; This function uses a non-reentrant model
  8800 ;;
  8801                           
  8802                           
  8803                           ;psect for function _EE_Write
  8804  0F11                     _EE_Write:
  8805  0F11                     l6058:	
  8806                           ;incstack = 0
  8807                           ; Regs used in _EE_Write: [wreg+fsr1l+fsr1h+status,2+status,0+pclath+cstack]
  8808                           
  8809                           
  8810                           ;main.c: 12: void EE_Write(uint16_t addr, uint8_t data);main.c: 13: {;main.c: 14:     ui
      +                          nt8_t frame[3];;main.c: 16:     frame[0] = (uint8_t) (addr >> 8);
  8811  0F11  0140               	movlb	0	; select bank0
  8812  0F12  0825               	movf	EE_Write@addr+1,w
  8813  0F13  00FB               	movwf	??_EE_Write
  8814  0F14  087B               	movf	??_EE_Write,w
  8815  0F15  00A7               	movwf	EE_Write@frame
  8816  0F16                     l6060:
  8817                           
  8818                           ;main.c: 17:     frame[1] = (uint8_t) addr;
  8819  0F16  0824               	movf	EE_Write@addr,w
  8820  0F17  00FB               	movwf	??_EE_Write
  8821  0F18  087B               	movf	??_EE_Write,w
  8822  0F19  00A8               	movwf	EE_Write@frame+1
  8823  0F1A                     l6062:
  8824                           
  8825                           ;main.c: 18:     frame[2] = data;
  8826  0F1A  0826               	movf	EE_Write@data,w
  8827  0F1B  00FB               	movwf	??_EE_Write
  8828  0F1C  087B               	movf	??_EE_Write,w
  8829  0F1D  00A9               	movwf	EE_Write@frame+2
  8830  0F1E                     l6064:
  8831  0F1E  1019               	bcf	25,0	;volatile
  8832  0F1F                     l6066:
  8833                           
  8834                           ;main.c: 20:     SW_I2C_WriteNBytes(0b01010000, &frame[0], 3);
  8835  0F1F  3027               	movlw	(low (EE_Write@frame| 0))& (0+255)
  8836  0F20  00FB               	movwf	??_EE_Write
  8837  0F21  087B               	movf	??_EE_Write,w
  8838  0F22  00F8               	movwf	SW_I2C_WriteNBytes@data
  8839  0F23  3003               	movlw	3
  8840  0F24  00F9               	movwf	SW_I2C_WriteNBytes@len
  8841  0F25  3000               	movlw	0
  8842  0F26  00FA               	movwf	SW_I2C_WriteNBytes@len+1
  8843  0F27  3050               	movlw	80
  8844  0F28  3187  27A7  318F   	fcall	_SW_I2C_WriteNBytes
  8845  0F2B                     l6068:
  8846                           
  8847                           ;main.c: 21:     _delay((unsigned long)((5)*(32000000/4000.0)));
  8848  0F2B  3034               	movlw	52
  8849  0F2C  00FB               	movwf	??_EE_Write
  8850  0F2D  30F2               	movlw	242
  8851  0F2E                     u4447:
  8852  0F2E  0B89               	decfsz	9,f
  8853  0F2F  2F2E               	goto	u4447
  8854  0F30  0BFB               	decfsz	??_EE_Write,f
  8855  0F31  2F2E               	goto	u4447
  8856  0F32                     l6070:
  8857  0F32  0140               	movlb	0	; select bank0
  8858  0F33  1419               	bsf	25,0	;volatile
  8859  0F34                     l1026:
  8860  0F34  0008               	return
  8861  0F35                     __end_of_EE_Write:
  8862                           
  8863                           	psect	text39
  8864  0EEE                     __ptext39:	
  8865 ;; *************** function _EE_ReadPage *****************
  8866 ;; Defined at:
  8867 ;;		line 50 in file "main.c"
  8868 ;; Parameters:    Size  Location     Type
  8869 ;;  addr            2    8[BANK0 ] unsigned short 
  8870 ;;  pData           1   10[BANK0 ] PTR unsigned char 
  8871 ;;		 -> main@dataout(64), 
  8872 ;; Auto vars:     Size  Location     Type
  8873 ;;  frame           2   12[BANK0 ] unsigned char [2]
  8874 ;; Return value:  Size  Location     Type
  8875 ;;                  1    wreg      void 
  8876 ;; Registers used:
  8877 ;;		wreg, fsr1l, fsr1h, status,2, status,0, pclath, cstack
  8878 ;; Tracked objects:
  8879 ;;		On entry : 0/0
  8880 ;;		On exit  : 0/0
  8881 ;;		Unchanged: 0/0
  8882 ;; Data sizes:     COMMON   BANK0   BANK1   BANK2   BANK3   BANK4   BANK5   BANK6   BANK7   BANK8   BANK9  BANK10  BANK1
      +1  BANK12  BANK13  BANK14  BANK15  BANK16  BANK17  BANK18  BANK19  BANK20  BANK21  BANK22  BANK23  BANK24  BANK25
  8883 ;;      Params:         0       3       0       0       0       0       0       0       0       0       0       0       
      +0       0       0       0       0       0       0       0       0       0       0       0       0       0       0
  8884 ;;      Locals:         0       2       0       0       0       0       0       0       0       0       0       0       
      +0       0       0       0       0       0       0       0       0       0       0       0       0       0       0
  8885 ;;      Temps:          0       1       0       0       0       0       0       0       0       0       0       0       
      +0       0       0       0       0       0       0       0       0       0       0       0       0       0       0
  8886 ;;      Totals:         0       6       0       0       0       0       0       0       0       0       0       0       
      +0       0       0       0       0       0       0       0       0       0       0       0       0       0       0
  8887 ;;Total ram usage:        6 bytes
  8888 ;; Hardware stack levels used: 1
  8889 ;; Hardware stack levels required when called: 9
  8890 ;; This function calls:
  8891 ;;		_SW_I2C_ReadNBytes
  8892 ;;		_SW_I2C_WriteNBytes
  8893 ;; This function is called by:
  8894 ;;		_main
  8895 ;; This function uses a non-reentrant model
  8896 ;;
  8897                           
  8898                           
  8899                           ;psect for function _EE_ReadPage
  8900  0EEE                     _EE_ReadPage:
  8901  0EEE                     l6086:	
  8902                           ;incstack = 0
  8903                           ; Regs used in _EE_ReadPage: [wreg+fsr1l+fsr1h+status,2+status,0+pclath+cstack]
  8904                           
  8905                           
  8906                           ;main.c: 50: void EE_ReadPage(uint16_t addr, uint8_t *pData);main.c: 51: {;main.c: 52:  
      +                             uint8_t frame[2];;main.c: 54:     frame[0] = (uint8_t) (addr >> 8);
  8907  0EEE  0140               	movlb	0	; select bank0
  8908  0EEF  0829               	movf	EE_ReadPage@addr+1,w
  8909  0EF0  00AB               	movwf	??_EE_ReadPage
  8910  0EF1  082B               	movf	??_EE_ReadPage,w
  8911  0EF2  00AC               	movwf	EE_ReadPage@frame
  8912  0EF3                     l6088:
  8913                           
  8914                           ;main.c: 55:     frame[1] = (uint8_t) addr;
  8915  0EF3  0828               	movf	EE_ReadPage@addr,w
  8916  0EF4  00AB               	movwf	??_EE_ReadPage
  8917  0EF5  082B               	movf	??_EE_ReadPage,w
  8918  0EF6  00AD               	movwf	EE_ReadPage@frame+1
  8919  0EF7                     l6090:
  8920                           
  8921                           ;main.c: 57:     SW_I2C_WriteNBytes(0b01010000, &frame[0], 2);
  8922  0EF7  302C               	movlw	(low (EE_ReadPage@frame| 0))& (0+255)
  8923  0EF8  00AB               	movwf	??_EE_ReadPage
  8924  0EF9  082B               	movf	??_EE_ReadPage,w
  8925  0EFA  00F8               	movwf	SW_I2C_WriteNBytes@data
  8926  0EFB  3002               	movlw	2
  8927  0EFC  00F9               	movwf	SW_I2C_WriteNBytes@len
  8928  0EFD  3000               	movlw	0
  8929  0EFE  00FA               	movwf	SW_I2C_WriteNBytes@len+1
  8930  0EFF  3050               	movlw	80
  8931  0F00  3187  27A7  318E   	fcall	_SW_I2C_WriteNBytes
  8932  0F03                     l6092:
  8933                           
  8934                           ;main.c: 58:     SW_I2C_ReadNBytes(0b01010000, pData, 64);
  8935  0F03  0140               	movlb	0	; select bank0
  8936  0F04  082A               	movf	EE_ReadPage@pData,w
  8937  0F05  00A0               	movwf	SW_I2C_ReadNBytes@data
  8938  0F06  3001               	movlw	1
  8939  0F07  00A1               	movwf	SW_I2C_ReadNBytes@data+1
  8940  0F08  3040               	movlw	64
  8941  0F09  00A2               	movwf	SW_I2C_ReadNBytes@len
  8942  0F0A  3000               	movlw	0
  8943  0F0B  00A3               	movwf	SW_I2C_ReadNBytes@len+1
  8944  0F0C  3050               	movlw	80
  8945  0F0D  3185  2596  318E   	fcall	_SW_I2C_ReadNBytes
  8946  0F10                     l1039:
  8947  0F10  0008               	return
  8948  0F11                     __end_of_EE_ReadPage:
  8949                           
  8950                           	psect	text40
  8951  07A7                     __ptext40:	
  8952 ;; *************** function _SW_I2C_WriteNBytes *****************
  8953 ;; Defined at:
  8954 ;;		line 433 in file "mcc_generated_files/SW_I2C_Master.c"
  8955 ;; Parameters:    Size  Location     Type
  8956 ;;  address         1    wreg     unsigned char 
  8957 ;;  data            1    8[COMMON] PTR unsigned char 
  8958 ;;		 -> EE_ReadPage@frame(2), EE_WritePage@frame(66), EE_Read@frame(3), EE_Write@frame(3), 
  8959 ;;  len             2    9[COMMON] unsigned int 
  8960 ;; Auto vars:     Size  Location     Type
  8961 ;;  address         1    2[BANK0 ] unsigned char 
  8962 ;;  i               1    3[BANK0 ] unsigned char 
  8963 ;; Return value:  Size  Location     Type
  8964 ;;                  1    wreg      void 
  8965 ;; Registers used:
  8966 ;;		wreg, fsr1l, fsr1h, status,2, status,0, pclath, cstack
  8967 ;; Tracked objects:
  8968 ;;		On entry : 0/0
  8969 ;;		On exit  : 0/0
  8970 ;;		Unchanged: 0/0
  8971 ;; Data sizes:     COMMON   BANK0   BANK1   BANK2   BANK3   BANK4   BANK5   BANK6   BANK7   BANK8   BANK9  BANK10  BANK1
      +1  BANK12  BANK13  BANK14  BANK15  BANK16  BANK17  BANK18  BANK19  BANK20  BANK21  BANK22  BANK23  BANK24  BANK25
  8972 ;;      Params:         3       0       0       0       0       0       0       0       0       0       0       0       
      +0       0       0       0       0       0       0       0       0       0       0       0       0       0       0
  8973 ;;      Locals:         0       2       0       0       0       0       0       0       0       0       0       0       
      +0       0       0       0       0       0       0       0       0       0       0       0       0       0       0
  8974 ;;      Temps:          0       2       0       0       0       0       0       0       0       0       0       0       
      +0       0       0       0       0       0       0       0       0       0       0       0       0       0       0
  8975 ;;      Totals:         3       4       0       0       0       0       0       0       0       0       0       0       
      +0       0       0       0       0       0       0       0       0       0       0       0       0       0       0
  8976 ;;Total ram usage:        7 bytes
  8977 ;; Hardware stack levels used: 1
  8978 ;; Hardware stack levels required when called: 7
  8979 ;; This function calls:
  8980 ;;		_SW_I2C_Start
  8981 ;;		_SW_I2C_Stop
  8982 ;;		_SW_I2C_Write
  8983 ;; This function is called by:
  8984 ;;		_EE_Write
  8985 ;;		_EE_WritePage
  8986 ;;		_EE_ReadPage
  8987 ;;		_EE_Read
  8988 ;; This function uses a non-reentrant model
  8989 ;;
  8990                           
  8991                           
  8992                           ;psect for function _SW_I2C_WriteNBytes
  8993  07A7                     _SW_I2C_WriteNBytes:
  8994                           
  8995                           ;incstack = 0
  8996                           ; Regs used in _SW_I2C_WriteNBytes: [wreg+fsr1l+fsr1h+status,2+status,0+pclath+cstack]
  8997                           ;SW_I2C_WriteNBytes@address stored from wreg
  8998  07A7  0140               	movlb	0	; select bank0
  8999  07A8  00A2               	movwf	SW_I2C_WriteNBytes@address
  9000  07A9                     l5888:
  9001                           
  9002                           ;mcc_generated_files/SW_I2C_Master.c: 433: void SW_I2C_WriteNBytes(uint8_t address, uint
      +                          8_t *data, size_t len);mcc_generated_files/SW_I2C_Master.c: 434: {;mcc_generated_files/S
      +                          W_I2C_Master.c: 435:     uint8_t i;;mcc_generated_files/SW_I2C_Master.c: 437:     SW_I2C
      +                          _Start();
  9003  07A9  318D  2504  3187   	fcall	_SW_I2C_Start
  9004                           
  9005                           ;mcc_generated_files/SW_I2C_Master.c: 438:     SW_I2C_Write((uint8_t) (address<<1));
  9006  07AC  0140               	movlb	0	; select bank0
  9007  07AD  3522               	lslf	SW_I2C_WriteNBytes@address,w
  9008  07AE  318E  2686  3187   	fcall	_SW_I2C_Write
  9009  07B1                     l5890:
  9010                           
  9011                           ;mcc_generated_files/SW_I2C_Master.c: 440:     for(i=0; i<len; i++)
  9012  07B1  0140               	movlb	0	; select bank0
  9013  07B2  01A3               	clrf	SW_I2C_WriteNBytes@i
  9014  07B3  2FC4               	goto	l5898
  9015  07B4                     l5892:
  9016                           
  9017                           ;mcc_generated_files/SW_I2C_Master.c: 441:     {;mcc_generated_files/SW_I2C_Master.c: 44
      +                          2:         SW_I2C_Write(*data);
  9018  07B4  0878               	movf	SW_I2C_WriteNBytes@data,w
  9019  07B5  0086               	movwf	6
  9020  07B6  0187               	clrf	7
  9021  07B7  0801               	movf	1,w
  9022  07B8  318E  2686  3187   	fcall	_SW_I2C_Write
  9023  07BB                     l5894:
  9024                           
  9025                           ;mcc_generated_files/SW_I2C_Master.c: 443:         data++;
  9026  07BB  3001               	movlw	1
  9027  07BC  0140               	movlb	0	; select bank0
  9028  07BD  00A0               	movwf	??_SW_I2C_WriteNBytes
  9029  07BE  0820               	movf	??_SW_I2C_WriteNBytes,w
  9030  07BF  07F8               	addwf	SW_I2C_WriteNBytes@data,f
  9031  07C0                     l5896:
  9032                           
  9033                           ;mcc_generated_files/SW_I2C_Master.c: 444:     }
  9034  07C0  3001               	movlw	1
  9035  07C1  00A0               	movwf	??_SW_I2C_WriteNBytes
  9036  07C2  0820               	movf	??_SW_I2C_WriteNBytes,w
  9037  07C3  07A3               	addwf	SW_I2C_WriteNBytes@i,f
  9038  07C4                     l5898:
  9039  07C4  0823               	movf	SW_I2C_WriteNBytes@i,w
  9040  07C5  00A0               	movwf	??_SW_I2C_WriteNBytes
  9041  07C6  01A1               	clrf	??_SW_I2C_WriteNBytes+1
  9042  07C7  087A               	movf	SW_I2C_WriteNBytes@len+1,w
  9043  07C8  0221               	subwf	??_SW_I2C_WriteNBytes+1,w
  9044  07C9  1D03               	skipz
  9045  07CA  2FCD               	goto	u4175
  9046  07CB  0879               	movf	SW_I2C_WriteNBytes@len,w
  9047  07CC  0220               	subwf	??_SW_I2C_WriteNBytes,w
  9048  07CD                     u4175:
  9049  07CD  1C03               	skipc
  9050  07CE  2FD0               	goto	u4171
  9051  07CF  2FD1               	goto	u4170
  9052  07D0                     u4171:
  9053  07D0  2FB4               	goto	l5892
  9054  07D1                     u4170:
  9055  07D1                     l5900:
  9056                           
  9057                           ;mcc_generated_files/SW_I2C_Master.c: 446:     SW_I2C_Stop();
  9058  07D1  318E  260B  3187   	fcall	_SW_I2C_Stop
  9059  07D4                     l978:
  9060  07D4  0008               	return
  9061  07D5                     __end_of_SW_I2C_WriteNBytes:
  9062                           
  9063                           	psect	text41
  9064  0596                     __ptext41:	
  9065 ;; *************** function _SW_I2C_ReadNBytes *****************
  9066 ;; Defined at:
  9067 ;;		line 416 in file "mcc_generated_files/SW_I2C_Master.c"
  9068 ;; Parameters:    Size  Location     Type
  9069 ;;  address         1    wreg     unsigned char 
  9070 ;;  data            2    0[BANK0 ] PTR unsigned char 
  9071 ;;		 -> main@dataout(64), EE_Read@frame(3), 
  9072 ;;  len             2    2[BANK0 ] unsigned int 
  9073 ;; Auto vars:     Size  Location     Type
  9074 ;;  address         1   10[COMMON] unsigned char 
  9075 ;;  i               1   11[COMMON] unsigned char 
  9076 ;; Return value:  Size  Location     Type
  9077 ;;                  1    wreg      void 
  9078 ;; Registers used:
  9079 ;;		wreg, fsr1l, fsr1h, status,2, status,0, pclath, cstack
  9080 ;; Tracked objects:
  9081 ;;		On entry : 0/0
  9082 ;;		On exit  : 0/0
  9083 ;;		Unchanged: 0/0
  9084 ;; Data sizes:     COMMON   BANK0   BANK1   BANK2   BANK3   BANK4   BANK5   BANK6   BANK7   BANK8   BANK9  BANK10  BANK1
      +1  BANK12  BANK13  BANK14  BANK15  BANK16  BANK17  BANK18  BANK19  BANK20  BANK21  BANK22  BANK23  BANK24  BANK25
  9085 ;;      Params:         0       4       0       0       0       0       0       0       0       0       0       0       
      +0       0       0       0       0       0       0       0       0       0       0       0       0       0       0
  9086 ;;      Locals:         2       0       0       0       0       0       0       0       0       0       0       0       
      +0       0       0       0       0       0       0       0       0       0       0       0       0       0       0
  9087 ;;      Temps:          0       4       0       0       0       0       0       0       0       0       0       0       
      +0       0       0       0       0       0       0       0       0       0       0       0       0       0       0
  9088 ;;      Totals:         2       8       0       0       0       0       0       0       0       0       0       0       
      +0       0       0       0       0       0       0       0       0       0       0       0       0       0       0
  9089 ;;Total ram usage:       10 bytes
  9090 ;; Hardware stack levels used: 1
  9091 ;; Hardware stack levels required when called: 8
  9092 ;; This function calls:
  9093 ;;		_SW_I2C_Read
  9094 ;;		_SW_I2C_Start
  9095 ;;		_SW_I2C_Stop
  9096 ;;		_SW_I2C_Write
  9097 ;; This function is called by:
  9098 ;;		_EE_ReadPage
  9099 ;;		_EE_Read
  9100 ;; This function uses a non-reentrant model
  9101 ;;
  9102                           
  9103                           
  9104                           ;psect for function _SW_I2C_ReadNBytes
  9105  0596                     _SW_I2C_ReadNBytes:
  9106                           
  9107                           ;incstack = 0
  9108                           ; Regs used in _SW_I2C_ReadNBytes: [wreg+fsr1l+fsr1h+status,2+status,0+pclath+cstack]
  9109                           ;SW_I2C_ReadNBytes@address stored from wreg
  9110  0596  00FA               	movwf	SW_I2C_ReadNBytes@address
  9111  0597                     l5872:
  9112                           
  9113                           ;mcc_generated_files/SW_I2C_Master.c: 416: void SW_I2C_ReadNBytes(uint8_t address, uint8
      +                          _t *data, size_t len);mcc_generated_files/SW_I2C_Master.c: 417: {;mcc_generated_files/SW
      +                          _I2C_Master.c: 418:     uint8_t i;;mcc_generated_files/SW_I2C_Master.c: 420:     SW_I2C_
      +                          Start();
  9114  0597  318D  2504  3185   	fcall	_SW_I2C_Start
  9115                           
  9116                           ;mcc_generated_files/SW_I2C_Master.c: 421:     SW_I2C_Write((uint8_t) (address<<1)|1);
  9117  059A  1403               	setc
  9118  059B  0D7A               	rlf	SW_I2C_ReadNBytes@address,w
  9119  059C  318E  2686  3185   	fcall	_SW_I2C_Write
  9120  059F                     l5874:
  9121                           
  9122                           ;mcc_generated_files/SW_I2C_Master.c: 423:     for(i=0; i<(len-1); i++)
  9123  059F  01FB               	clrf	SW_I2C_ReadNBytes@i
  9124  05A0  2DB5               	goto	l5882
  9125  05A1                     l5876:
  9126                           
  9127                           ;mcc_generated_files/SW_I2C_Master.c: 424:     {;mcc_generated_files/SW_I2C_Master.c: 42
      +                          5:         *data=SW_I2C_Read(1);
  9128  05A1  3001               	movlw	1
  9129  05A2  318C  24CC  3185   	fcall	_SW_I2C_Read
  9130  05A5  0140               	movlb	0	; select bank0
  9131  05A6  00A4               	movwf	??_SW_I2C_ReadNBytes
  9132  05A7  0820               	movf	SW_I2C_ReadNBytes@data,w
  9133  05A8  0086               	movwf	6
  9134  05A9  0821               	movf	SW_I2C_ReadNBytes@data+1,w
  9135  05AA  0087               	movwf	7
  9136  05AB  0824               	movf	??_SW_I2C_ReadNBytes,w
  9137  05AC  0081               	movwf	1
  9138  05AD                     l5878:
  9139                           
  9140                           ;mcc_generated_files/SW_I2C_Master.c: 426:         data++;
  9141  05AD  3001               	movlw	1
  9142  05AE  07A0               	addwf	SW_I2C_ReadNBytes@data,f
  9143  05AF  3000               	movlw	0
  9144  05B0  3DA1               	addwfc	SW_I2C_ReadNBytes@data+1,f
  9145  05B1                     l5880:
  9146                           
  9147                           ;mcc_generated_files/SW_I2C_Master.c: 427:     }
  9148  05B1  3001               	movlw	1
  9149  05B2  00A4               	movwf	??_SW_I2C_ReadNBytes
  9150  05B3  0824               	movf	??_SW_I2C_ReadNBytes,w
  9151  05B4  07FB               	addwf	SW_I2C_ReadNBytes@i,f
  9152  05B5                     l5882:
  9153  05B5  0140               	movlb	0	; select bank0
  9154  05B6  0822               	movf	SW_I2C_ReadNBytes@len,w
  9155  05B7  3EFF               	addlw	255
  9156  05B8  00A4               	movwf	??_SW_I2C_ReadNBytes
  9157  05B9  30FF               	movlw	255
  9158  05BA  3D23               	addwfc	SW_I2C_ReadNBytes@len+1,w
  9159  05BB  00A5               	movwf	??_SW_I2C_ReadNBytes+1
  9160  05BC  087B               	movf	SW_I2C_ReadNBytes@i,w
  9161  05BD  00A6               	movwf	??_SW_I2C_ReadNBytes+2
  9162  05BE  01A7               	clrf	??_SW_I2C_ReadNBytes+3
  9163  05BF  0825               	movf	??_SW_I2C_ReadNBytes+1,w
  9164  05C0  0227               	subwf	??_SW_I2C_ReadNBytes+3,w
  9165  05C1  1D03               	skipz
  9166  05C2  2DC5               	goto	u4165
  9167  05C3  0824               	movf	??_SW_I2C_ReadNBytes,w
  9168  05C4  0226               	subwf	??_SW_I2C_ReadNBytes+2,w
  9169  05C5                     u4165:
  9170  05C5  1C03               	skipc
  9171  05C6  2DC8               	goto	u4161
  9172  05C7  2DC9               	goto	u4160
  9173  05C8                     u4161:
  9174  05C8  2DA1               	goto	l5876
  9175  05C9                     u4160:
  9176  05C9                     l5884:
  9177                           
  9178                           ;mcc_generated_files/SW_I2C_Master.c: 429:     *data=SW_I2C_Read(0);
  9179  05C9  3000               	movlw	0
  9180  05CA  318C  24CC  3185   	fcall	_SW_I2C_Read
  9181  05CD  0140               	movlb	0	; select bank0
  9182  05CE  00A4               	movwf	??_SW_I2C_ReadNBytes
  9183  05CF  0820               	movf	SW_I2C_ReadNBytes@data,w
  9184  05D0  0086               	movwf	6
  9185  05D1  0821               	movf	SW_I2C_ReadNBytes@data+1,w
  9186  05D2  0087               	movwf	7
  9187  05D3  0824               	movf	??_SW_I2C_ReadNBytes,w
  9188  05D4  0081               	movwf	1
  9189  05D5                     l5886:
  9190                           
  9191                           ;mcc_generated_files/SW_I2C_Master.c: 430:     SW_I2C_Stop();
  9192  05D5  318E  260B  3185   	fcall	_SW_I2C_Stop
  9193  05D8                     l972:
  9194  05D8  0008               	return
  9195  05D9                     __end_of_SW_I2C_ReadNBytes:
  9196                           
  9197                           	psect	text42
  9198  0E86                     __ptext42:	
  9199 ;; *************** function _SW_I2C_Write *****************
  9200 ;; Defined at:
  9201 ;;		line 292 in file "mcc_generated_files/SW_I2C_Master.c"
  9202 ;; Parameters:    Size  Location     Type
  9203 ;;  data_out        1    wreg     unsigned char 
  9204 ;; Auto vars:     Size  Location     Type
  9205 ;;  data_out        1    6[COMMON] unsigned char 
  9206 ;;  i               1    7[COMMON] unsigned char 
  9207 ;; Return value:  Size  Location     Type
  9208 ;;                  1    wreg      _Bool 
  9209 ;; Registers used:
  9210 ;;		wreg, status,2, status,0, pclath, cstack
  9211 ;; Tracked objects:
  9212 ;;		On entry : 0/0
  9213 ;;		On exit  : 0/0
  9214 ;;		Unchanged: 0/0
  9215 ;; Data sizes:     COMMON   BANK0   BANK1   BANK2   BANK3   BANK4   BANK5   BANK6   BANK7   BANK8   BANK9  BANK10  BANK1
      +1  BANK12  BANK13  BANK14  BANK15  BANK16  BANK17  BANK18  BANK19  BANK20  BANK21  BANK22  BANK23  BANK24  BANK25
  9216 ;;      Params:         0       0       0       0       0       0       0       0       0       0       0       0       
      +0       0       0       0       0       0       0       0       0       0       0       0       0       0       0
  9217 ;;      Locals:         2       0       0       0       0       0       0       0       0       0       0       0       
      +0       0       0       0       0       0       0       0       0       0       0       0       0       0       0
  9218 ;;      Temps:          1       0       0       0       0       0       0       0       0       0       0       0       
      +0       0       0       0       0       0       0       0       0       0       0       0       0       0       0
  9219 ;;      Totals:         3       0       0       0       0       0       0       0       0       0       0       0       
      +0       0       0       0       0       0       0       0       0       0       0       0       0       0       0
  9220 ;;Total ram usage:        3 bytes
  9221 ;; Hardware stack levels used: 1
  9222 ;; Hardware stack levels required when called: 6
  9223 ;; This function calls:
  9224 ;;		_SW_I2C_ReadBit
  9225 ;;		_SW_I2C_WriteBit
  9226 ;; This function is called by:
  9227 ;;		_SW_I2C_ReadNBytes
  9228 ;;		_SW_I2C_WriteNBytes
  9229 ;;		_SW_I2C_Tasks
  9230 ;; This function uses a non-reentrant model
  9231 ;;
  9232                           
  9233                           
  9234                           ;psect for function _SW_I2C_Write
  9235  0E86                     _SW_I2C_Write:
  9236                           
  9237                           ;incstack = 0
  9238                           ; Regs used in _SW_I2C_Write: [wreg+status,2+status,0+pclath+cstack]
  9239                           ;SW_I2C_Write@data_out stored from wreg
  9240  0E86  00F6               	movwf	SW_I2C_Write@data_out
  9241  0E87                     l5746:
  9242                           
  9243                           ;mcc_generated_files/SW_I2C_Master.c: 292: static _Bool SW_I2C_Write(uint8_t data_out);m
      +                          cc_generated_files/SW_I2C_Master.c: 293: {;mcc_generated_files/SW_I2C_Master.c: 294:    
      +                           uint8_t i;;mcc_generated_files/SW_I2C_Master.c: 296:     for(i=0; i<8; i++)
  9244  0E87  01F7               	clrf	SW_I2C_Write@i
  9245  0E88                     l5752:
  9246                           
  9247                           ;mcc_generated_files/SW_I2C_Master.c: 297:     {;mcc_generated_files/SW_I2C_Master.c: 29
      +                          8:         SW_I2C_WriteBit((_Bool) (data_out&0x80));
  9248  0E88  1BF6               	btfsc	SW_I2C_Write@data_out,7
  9249  0E89  2E8B               	goto	u4061
  9250  0E8A  2E8D               	goto	u4060
  9251  0E8B                     u4061:
  9252  0E8B  3001               	movlw	1
  9253  0E8C  2E8E               	goto	u4070
  9254  0E8D                     u4060:
  9255  0E8D  3000               	movlw	0
  9256  0E8E                     u4070:
  9257  0E8E  318D  252F  318E   	fcall	_SW_I2C_WriteBit
  9258  0E91                     l5754:
  9259                           
  9260                           ;mcc_generated_files/SW_I2C_Master.c: 299:         data_out<<=1;
  9261  0E91  1003               	clrc
  9262  0E92  0DF6               	rlf	SW_I2C_Write@data_out,f
  9263  0E93                     l5756:
  9264                           
  9265                           ;mcc_generated_files/SW_I2C_Master.c: 300:     }
  9266  0E93  3001               	movlw	1
  9267  0E94  00F5               	movwf	??_SW_I2C_Write
  9268  0E95  0875               	movf	??_SW_I2C_Write,w
  9269  0E96  07F7               	addwf	SW_I2C_Write@i,f
  9270  0E97                     l5758:
  9271  0E97  3008               	movlw	8
  9272  0E98  0277               	subwf	SW_I2C_Write@i,w
  9273  0E99  1C03               	skipc
  9274  0E9A  2E9C               	goto	u4081
  9275  0E9B  2E9D               	goto	u4080
  9276  0E9C                     u4081:
  9277  0E9C  2E88               	goto	l5752
  9278  0E9D                     u4080:
  9279  0E9D                     l5760:
  9280                           
  9281                           ;mcc_generated_files/SW_I2C_Master.c: 302:     return (SW_I2C_ReadBit()==0?1:0);
  9282  0E9D  318D  255C  318E   	fcall	_SW_I2C_ReadBit
  9283  0EA0  3A00               	xorlw	0
  9284  0EA1  1903               	skipnz
  9285  0EA2  2EA4               	goto	u4091
  9286  0EA3  2EA6               	goto	u4090
  9287  0EA4                     u4091:
  9288  0EA4  3001               	movlw	1
  9289  0EA5  2EA7               	goto	u4100
  9290  0EA6                     u4090:
  9291  0EA6  3000               	movlw	0
  9292  0EA7                     u4100:
  9293  0EA7                     l939:
  9294  0EA7  0008               	return
  9295  0EA8                     __end_of_SW_I2C_Write:
  9296                           
  9297                           	psect	text43
  9298  0E0B                     __ptext43:	
  9299 ;; *************** function _SW_I2C_Stop *****************
  9300 ;; Defined at:
  9301 ;;		line 242 in file "mcc_generated_files/SW_I2C_Master.c"
  9302 ;; Parameters:    Size  Location     Type
  9303 ;;		None
  9304 ;; Auto vars:     Size  Location     Type
  9305 ;;		None
  9306 ;; Return value:  Size  Location     Type
  9307 ;;                  1    wreg      void 
  9308 ;; Registers used:
  9309 ;;		wreg, status,2, status,0, pclath, cstack
  9310 ;; Tracked objects:
  9311 ;;		On entry : 0/0
  9312 ;;		On exit  : 0/0
  9313 ;;		Unchanged: 0/0
  9314 ;; Data sizes:     COMMON   BANK0   BANK1   BANK2   BANK3   BANK4   BANK5   BANK6   BANK7   BANK8   BANK9  BANK10  BANK1
      +1  BANK12  BANK13  BANK14  BANK15  BANK16  BANK17  BANK18  BANK19  BANK20  BANK21  BANK22  BANK23  BANK24  BANK25
  9315 ;;      Params:         0       0       0       0       0       0       0       0       0       0       0       0       
      +0       0       0       0       0       0       0       0       0       0       0       0       0       0       0
  9316 ;;      Locals:         0       0       0       0       0       0       0       0       0       0       0       0       
      +0       0       0       0       0       0       0       0       0       0       0       0       0       0       0
  9317 ;;      Temps:          0       0       0       0       0       0       0       0       0       0       0       0       
      +0       0       0       0       0       0       0       0       0       0       0       0       0       0       0
  9318 ;;      Totals:         0       0       0       0       0       0       0       0       0       0       0       0       
      +0       0       0       0       0       0       0       0       0       0       0       0       0       0       0
  9319 ;;Total ram usage:        0 bytes
  9320 ;; Hardware stack levels used: 1
  9321 ;; Hardware stack levels required when called: 5
  9322 ;; This function calls:
  9323 ;;		_SW_I2C_SCL_Pulse
  9324 ;;		_SW_I2C_SDA_Pulse
  9325 ;; This function is called by:
  9326 ;;		_SW_I2C_ReadNBytes
  9327 ;;		_SW_I2C_WriteNBytes
  9328 ;;		_SW_I2C_Tasks
  9329 ;; This function uses a non-reentrant model
  9330 ;;
  9331                           
  9332                           
  9333                           ;psect for function _SW_I2C_Stop
  9334  0E0B                     _SW_I2C_Stop:
  9335  0E0B                     l5728:	
  9336                           ;incstack = 0
  9337                           ; Regs used in _SW_I2C_Stop: [wreg+status,2+status,0+pclath+cstack]
  9338                           
  9339                           
  9340                           ;mcc_generated_files/SW_I2C_Master.c: 249:     SW_I2C_SCL_Pulse(0);
  9341  0E0B  3000               	movlw	0
  9342  0E0C  318E  26CB  318E   	fcall	_SW_I2C_SCL_Pulse
  9343  0E0F                     l5730:
  9344                           
  9345                           ;mcc_generated_files/SW_I2C_Master.c: 250:     _delay((unsigned long)((16)*(32000000/400
      +                          0000.0)));
  9346  0E0F  302A               	movlw	42
  9347  0E10                     u4457:
  9348  0E10  0B89               	decfsz	9,f
  9349  0E11  2E10               	goto	u4457
  9350  0E12  3200               	nop2
  9351  0E13                     l5732:
  9352                           
  9353                           ;mcc_generated_files/SW_I2C_Master.c: 252:     SW_I2C_SDA_Pulse(0);
  9354  0E13  3000               	movlw	0
  9355  0E14  318F  2735  318E   	fcall	_SW_I2C_SDA_Pulse
  9356  0E17                     l5734:
  9357                           
  9358                           ;mcc_generated_files/SW_I2C_Master.c: 253:     SW_I2C_SCL_Pulse(1);
  9359  0E17  3001               	movlw	1
  9360  0E18  318E  26CB  318E   	fcall	_SW_I2C_SCL_Pulse
  9361  0E1B                     l5736:
  9362                           
  9363                           ;mcc_generated_files/SW_I2C_Master.c: 255:     _delay((unsigned long)((16)*(32000000/400
      +                          0000.0)));
  9364  0E1B  302A               	movlw	42
  9365  0E1C                     u4467:
  9366  0E1C  0B89               	decfsz	9,f
  9367  0E1D  2E1C               	goto	u4467
  9368  0E1E  3200               	nop2
  9369                           
  9370                           ;mcc_generated_files/SW_I2C_Master.c: 256:     SW_I2C_SDA_Pulse(1);
  9371  0E1F  3001               	movlw	1
  9372  0E20  318F  2735  318E   	fcall	_SW_I2C_SDA_Pulse
  9373  0E23                     l5738:
  9374                           
  9375                           ;mcc_generated_files/SW_I2C_Master.c: 258:     _delay((unsigned long)((16)*(32000000/400
      +                          0000.0)));
  9376  0E23  302A               	movlw	42
  9377  0E24                     u4477:
  9378  0E24  0B89               	decfsz	9,f
  9379  0E25  2E24               	goto	u4477
  9380  0E26  3200               	nop2
  9381  0E27                     l921:
  9382  0E27  0008               	return
  9383  0E28                     __end_of_SW_I2C_Stop:
  9384                           
  9385                           	psect	text44
  9386  0D04                     __ptext44:	
  9387 ;; *************** function _SW_I2C_Start *****************
  9388 ;; Defined at:
  9389 ;;		line 229 in file "mcc_generated_files/SW_I2C_Master.c"
  9390 ;; Parameters:    Size  Location     Type
  9391 ;;		None
  9392 ;; Auto vars:     Size  Location     Type
  9393 ;;		None
  9394 ;; Return value:  Size  Location     Type
  9395 ;;                  1    wreg      void 
  9396 ;; Registers used:
  9397 ;;		wreg, status,2, status,0, pclath, cstack
  9398 ;; Tracked objects:
  9399 ;;		On entry : 0/0
  9400 ;;		On exit  : 0/0
  9401 ;;		Unchanged: 0/0
  9402 ;; Data sizes:     COMMON   BANK0   BANK1   BANK2   BANK3   BANK4   BANK5   BANK6   BANK7   BANK8   BANK9  BANK10  BANK1
      +1  BANK12  BANK13  BANK14  BANK15  BANK16  BANK17  BANK18  BANK19  BANK20  BANK21  BANK22  BANK23  BANK24  BANK25
  9403 ;;      Params:         0       0       0       0       0       0       0       0       0       0       0       0       
      +0       0       0       0       0       0       0       0       0       0       0       0       0       0       0
  9404 ;;      Locals:         0       0       0       0       0       0       0       0       0       0       0       0       
      +0       0       0       0       0       0       0       0       0       0       0       0       0       0       0
  9405 ;;      Temps:          0       0       0       0       0       0       0       0       0       0       0       0       
      +0       0       0       0       0       0       0       0       0       0       0       0       0       0       0
  9406 ;;      Totals:         0       0       0       0       0       0       0       0       0       0       0       0       
      +0       0       0       0       0       0       0       0       0       0       0       0       0       0       0
  9407 ;;Total ram usage:        0 bytes
  9408 ;; Hardware stack levels used: 1
  9409 ;; Hardware stack levels required when called: 5
  9410 ;; This function calls:
  9411 ;;		_SW_I2C_SCL_Pulse
  9412 ;;		_SW_I2C_SDA_Pulse
  9413 ;; This function is called by:
  9414 ;;		_SW_I2C_ReadNBytes
  9415 ;;		_SW_I2C_WriteNBytes
  9416 ;;		_SW_I2C_Tasks
  9417 ;; This function uses a non-reentrant model
  9418 ;;
  9419                           
  9420                           
  9421                           ;psect for function _SW_I2C_Start
  9422  0D04                     _SW_I2C_Start:
  9423  0D04                     l5722:	
  9424                           ;incstack = 0
  9425                           ; Regs used in _SW_I2C_Start: [wreg+status,2+status,0+pclath+cstack]
  9426                           
  9427                           
  9428                           ;mcc_generated_files/SW_I2C_Master.c: 235:     SW_I2C_SCL_Pulse(1);
  9429  0D04  3001               	movlw	1
  9430  0D05  318E  26CB  318D   	fcall	_SW_I2C_SCL_Pulse
  9431                           
  9432                           ;mcc_generated_files/SW_I2C_Master.c: 236:     SW_I2C_SDA_Pulse(1);
  9433  0D08  3001               	movlw	1
  9434  0D09  318F  2735  318D   	fcall	_SW_I2C_SDA_Pulse
  9435  0D0C                     l5724:
  9436                           
  9437                           ;mcc_generated_files/SW_I2C_Master.c: 237:     _delay((unsigned long)((16)*(32000000/400
      +                          0000.0)));
  9438  0D0C  302A               	movlw	42
  9439  0D0D                     u4487:
  9440  0D0D  0B89               	decfsz	9,f
  9441  0D0E  2D0D               	goto	u4487
  9442  0D0F  3200               	nop2
  9443  0D10                     l5726:
  9444                           
  9445                           ;mcc_generated_files/SW_I2C_Master.c: 238:     SW_I2C_SDA_Pulse(0);
  9446  0D10  3000               	movlw	0
  9447  0D11  318F  2735  318D   	fcall	_SW_I2C_SDA_Pulse
  9448                           
  9449                           ;mcc_generated_files/SW_I2C_Master.c: 239:     _delay((unsigned long)((16)*(32000000/400
      +                          0000.0)));
  9450  0D14  302A               	movlw	42
  9451  0D15                     u4497:
  9452  0D15  0B89               	decfsz	9,f
  9453  0D16  2D15               	goto	u4497
  9454  0D17  3200               	nop2
  9455  0D18                     l918:
  9456  0D18  0008               	return
  9457  0D19                     __end_of_SW_I2C_Start:
  9458                           
  9459                           	psect	text45
  9460  0CCC                     __ptext45:	
  9461 ;; *************** function _SW_I2C_Read *****************
  9462 ;; Defined at:
  9463 ;;		line 283 in file "mcc_generated_files/SW_I2C_Master.c"
  9464 ;; Parameters:    Size  Location     Type
  9465 ;;  ack             1    wreg     _Bool 
  9466 ;; Auto vars:     Size  Location     Type
  9467 ;;  ack             1    8[COMMON] _Bool 
  9468 ;;  data_in         1    9[COMMON] unsigned char 
  9469 ;; Return value:  Size  Location     Type
  9470 ;;                  1    wreg      unsigned char 
  9471 ;; Registers used:
  9472 ;;		wreg, status,2, status,0, pclath, cstack
  9473 ;; Tracked objects:
  9474 ;;		On entry : 0/0
  9475 ;;		On exit  : 0/0
  9476 ;;		Unchanged: 0/0
  9477 ;; Data sizes:     COMMON   BANK0   BANK1   BANK2   BANK3   BANK4   BANK5   BANK6   BANK7   BANK8   BANK9  BANK10  BANK1
      +1  BANK12  BANK13  BANK14  BANK15  BANK16  BANK17  BANK18  BANK19  BANK20  BANK21  BANK22  BANK23  BANK24  BANK25
  9478 ;;      Params:         0       0       0       0       0       0       0       0       0       0       0       0       
      +0       0       0       0       0       0       0       0       0       0       0       0       0       0       0
  9479 ;;      Locals:         2       0       0       0       0       0       0       0       0       0       0       0       
      +0       0       0       0       0       0       0       0       0       0       0       0       0       0       0
  9480 ;;      Temps:          1       0       0       0       0       0       0       0       0       0       0       0       
      +0       0       0       0       0       0       0       0       0       0       0       0       0       0       0
  9481 ;;      Totals:         3       0       0       0       0       0       0       0       0       0       0       0       
      +0       0       0       0       0       0       0       0       0       0       0       0       0       0       0
  9482 ;;Total ram usage:        3 bytes
  9483 ;; Hardware stack levels used: 1
  9484 ;; Hardware stack levels required when called: 7
  9485 ;; This function calls:
  9486 ;;		_SW_I2C_ReadByte
  9487 ;;		_SW_I2C_SendAck
  9488 ;; This function is called by:
  9489 ;;		_SW_I2C_ReadNBytes
  9490 ;; This function uses a non-reentrant model
  9491 ;;
  9492                           
  9493                           
  9494                           ;psect for function _SW_I2C_Read
  9495  0CCC                     _SW_I2C_Read:
  9496                           
  9497                           ;incstack = 0
  9498                           ; Regs used in _SW_I2C_Read: [wreg+status,2+status,0+pclath+cstack]
  9499                           ;SW_I2C_Read@ack stored from wreg
  9500  0CCC  00F8               	movwf	SW_I2C_Read@ack
  9501  0CCD                     l5740:
  9502                           
  9503                           ;mcc_generated_files/SW_I2C_Master.c: 283: static uint8_t SW_I2C_Read(_Bool ack);mcc_gen
      +                          erated_files/SW_I2C_Master.c: 284: {;mcc_generated_files/SW_I2C_Master.c: 285:     uint8
      +                          _t data_in=SW_I2C_ReadByte();
  9504  0CCD  318D  2519  318C   	fcall	_SW_I2C_ReadByte
  9505  0CD0  00F7               	movwf	??_SW_I2C_Read
  9506  0CD1  0877               	movf	??_SW_I2C_Read,w
  9507  0CD2  00F9               	movwf	SW_I2C_Read@data_in
  9508                           
  9509                           ;mcc_generated_files/SW_I2C_Master.c: 287:     SW_I2C_SendAck(ack);
  9510  0CD3  0878               	movf	SW_I2C_Read@ack,w
  9511  0CD4  318C  24F4  318C   	fcall	_SW_I2C_SendAck
  9512  0CD7                     l5742:
  9513                           
  9514                           ;mcc_generated_files/SW_I2C_Master.c: 289:     return data_in;
  9515  0CD7  0879               	movf	SW_I2C_Read@data_in,w
  9516  0CD8                     l934:
  9517  0CD8  0008               	return
  9518  0CD9                     __end_of_SW_I2C_Read:
  9519                           
  9520                           	psect	text46
  9521  0CF4                     __ptext46:	
  9522 ;; *************** function _SW_I2C_SendAck *****************
  9523 ;; Defined at:
  9524 ;;		line 275 in file "mcc_generated_files/SW_I2C_Master.c"
  9525 ;; Parameters:    Size  Location     Type
  9526 ;;  ack             1    wreg     _Bool 
  9527 ;; Auto vars:     Size  Location     Type
  9528 ;;  ack             1    5[COMMON] _Bool 
  9529 ;; Return value:  Size  Location     Type
  9530 ;;                  1    wreg      void 
  9531 ;; Registers used:
  9532 ;;		wreg, status,2, status,0, pclath, cstack
  9533 ;; Tracked objects:
  9534 ;;		On entry : 0/0
  9535 ;;		On exit  : 0/0
  9536 ;;		Unchanged: 0/0
  9537 ;; Data sizes:     COMMON   BANK0   BANK1   BANK2   BANK3   BANK4   BANK5   BANK6   BANK7   BANK8   BANK9  BANK10  BANK1
      +1  BANK12  BANK13  BANK14  BANK15  BANK16  BANK17  BANK18  BANK19  BANK20  BANK21  BANK22  BANK23  BANK24  BANK25
  9538 ;;      Params:         0       0       0       0       0       0       0       0       0       0       0       0       
      +0       0       0       0       0       0       0       0       0       0       0       0       0       0       0
  9539 ;;      Locals:         1       0       0       0       0       0       0       0       0       0       0       0       
      +0       0       0       0       0       0       0       0       0       0       0       0       0       0       0
  9540 ;;      Temps:          0       0       0       0       0       0       0       0       0       0       0       0       
      +0       0       0       0       0       0       0       0       0       0       0       0       0       0       0
  9541 ;;      Totals:         1       0       0       0       0       0       0       0       0       0       0       0       
      +0       0       0       0       0       0       0       0       0       0       0       0       0       0       0
  9542 ;;Total ram usage:        1 bytes
  9543 ;; Hardware stack levels used: 1
  9544 ;; Hardware stack levels required when called: 6
  9545 ;; This function calls:
  9546 ;;		_SW_I2C_WriteBit
  9547 ;; This function is called by:
  9548 ;;		_SW_I2C_Read
  9549 ;;		_SW_I2C_Tasks
  9550 ;; This function uses a non-reentrant model
  9551 ;;
  9552                           
  9553                           
  9554                           ;psect for function _SW_I2C_SendAck
  9555  0CF4                     _SW_I2C_SendAck:
  9556                           
  9557                           ;incstack = 0
  9558                           ; Regs used in _SW_I2C_SendAck: [wreg+status,2+status,0+pclath+cstack]
  9559                           ;SW_I2C_SendAck@ack stored from wreg
  9560  0CF4  00F5               	movwf	SW_I2C_SendAck@ack
  9561  0CF5                     l5612:
  9562                           
  9563                           ;mcc_generated_files/SW_I2C_Master.c: 275: static void SW_I2C_SendAck(_Bool ack);mcc_gen
      +                          erated_files/SW_I2C_Master.c: 276: {;mcc_generated_files/SW_I2C_Master.c: 277:     if(ac
      +                          k)
  9564  0CF5  0875               	movf	SW_I2C_SendAck@ack,w
  9565  0CF6  1903               	btfsc	3,2
  9566  0CF7  2CF9               	goto	u3941
  9567  0CF8  2CFA               	goto	u3940
  9568  0CF9                     u3941:
  9569  0CF9  2CFF               	goto	l5616
  9570  0CFA                     u3940:
  9571  0CFA                     l5614:
  9572                           
  9573                           ;mcc_generated_files/SW_I2C_Master.c: 278:         SW_I2C_WriteBit(0);
  9574  0CFA  3000               	movlw	0
  9575  0CFB  318D  252F  318C   	fcall	_SW_I2C_WriteBit
  9576  0CFE  2D03               	goto	l931
  9577  0CFF                     l5616:
  9578                           
  9579                           ;mcc_generated_files/SW_I2C_Master.c: 280:         SW_I2C_WriteBit(1);
  9580  0CFF  3001               	movlw	1
  9581  0D00  318D  252F  318C   	fcall	_SW_I2C_WriteBit
  9582  0D03                     l931:
  9583  0D03  0008               	return
  9584  0D04                     __end_of_SW_I2C_SendAck:
  9585                           
  9586                           	psect	text47
  9587  0D2F                     __ptext47:	
  9588 ;; *************** function _SW_I2C_WriteBit *****************
  9589 ;; Defined at:
  9590 ;;		line 205 in file "mcc_generated_files/SW_I2C_Master.c"
  9591 ;; Parameters:    Size  Location     Type
  9592 ;;  x               1    wreg     _Bool 
  9593 ;; Auto vars:     Size  Location     Type
  9594 ;;  x               1    4[COMMON] _Bool 
  9595 ;; Return value:  Size  Location     Type
  9596 ;;                  1    wreg      void 
  9597 ;; Registers used:
  9598 ;;		wreg, status,2, status,0, pclath, cstack
  9599 ;; Tracked objects:
  9600 ;;		On entry : 0/0
  9601 ;;		On exit  : 0/0
  9602 ;;		Unchanged: 0/0
  9603 ;; Data sizes:     COMMON   BANK0   BANK1   BANK2   BANK3   BANK4   BANK5   BANK6   BANK7   BANK8   BANK9  BANK10  BANK1
      +1  BANK12  BANK13  BANK14  BANK15  BANK16  BANK17  BANK18  BANK19  BANK20  BANK21  BANK22  BANK23  BANK24  BANK25
  9604 ;;      Params:         0       0       0       0       0       0       0       0       0       0       0       0       
      +0       0       0       0       0       0       0       0       0       0       0       0       0       0       0
  9605 ;;      Locals:         1       0       0       0       0       0       0       0       0       0       0       0       
      +0       0       0       0       0       0       0       0       0       0       0       0       0       0       0
  9606 ;;      Temps:          0       0       0       0       0       0       0       0       0       0       0       0       
      +0       0       0       0       0       0       0       0       0       0       0       0       0       0       0
  9607 ;;      Totals:         1       0       0       0       0       0       0       0       0       0       0       0       
      +0       0       0       0       0       0       0       0       0       0       0       0       0       0       0
  9608 ;;Total ram usage:        1 bytes
  9609 ;; Hardware stack levels used: 1
  9610 ;; Hardware stack levels required when called: 5
  9611 ;; This function calls:
  9612 ;;		_SW_I2C_SCL_Pulse
  9613 ;;		_SW_I2C_SDA_Pulse
  9614 ;; This function is called by:
  9615 ;;		_SW_I2C_SendAck
  9616 ;;		_SW_I2C_Write
  9617 ;; This function uses a non-reentrant model
  9618 ;;
  9619                           
  9620                           
  9621                           ;psect for function _SW_I2C_WriteBit
  9622  0D2F                     _SW_I2C_WriteBit:
  9623                           
  9624                           ;incstack = 0
  9625                           ; Regs used in _SW_I2C_WriteBit: [wreg+status,2+status,0+pclath+cstack]
  9626                           ;SW_I2C_WriteBit@x stored from wreg
  9627  0D2F  00F4               	movwf	SW_I2C_WriteBit@x
  9628  0D30                     l5462:
  9629                           
  9630                           ;mcc_generated_files/SW_I2C_Master.c: 205: static void SW_I2C_WriteBit(_Bool x);mcc_gene
      +                          rated_files/SW_I2C_Master.c: 206: {;mcc_generated_files/SW_I2C_Master.c: 208:     SW_I2C
      +                          _SCL_Pulse(0);
  9631  0D30  3000               	movlw	0
  9632  0D31  318E  26CB  318D   	fcall	_SW_I2C_SCL_Pulse
  9633  0D34                     l5464:
  9634                           
  9635                           ;mcc_generated_files/SW_I2C_Master.c: 209:     _delay((unsigned long)((16)*(32000000/400
      +                          0000.0)));
  9636  0D34  302A               	movlw	42
  9637  0D35                     u4507:
  9638  0D35  0B89               	decfsz	9,f
  9639  0D36  2D35               	goto	u4507
  9640  0D37  3200               	nop2
  9641  0D38                     l5466:
  9642                           
  9643                           ;mcc_generated_files/SW_I2C_Master.c: 210:     SW_I2C_SDA_Pulse(x);
  9644  0D38  0874               	movf	SW_I2C_WriteBit@x,w
  9645  0D39  318F  2735  318D   	fcall	_SW_I2C_SDA_Pulse
  9646  0D3C                     l5468:
  9647                           
  9648                           ;mcc_generated_files/SW_I2C_Master.c: 211:     SW_I2C_SCL_Pulse(1);
  9649  0D3C  3001               	movlw	1
  9650  0D3D  318E  26CB  318D   	fcall	_SW_I2C_SCL_Pulse
  9651  0D40                     l5470:
  9652                           
  9653                           ;mcc_generated_files/SW_I2C_Master.c: 212:     _delay((unsigned long)((16)*(32000000/400
      +                          0000.0)));
  9654  0D40  302A               	movlw	42
  9655  0D41                     u4517:
  9656  0D41  0B89               	decfsz	9,f
  9657  0D42  2D41               	goto	u4517
  9658  0D43  3200               	nop2
  9659  0D44                     l910:
  9660  0D44  0008               	return
  9661  0D45                     __end_of_SW_I2C_WriteBit:
  9662                           
  9663                           	psect	text48
  9664  0F35                     __ptext48:	
  9665 ;; *************** function _SW_I2C_SDA_Pulse *****************
  9666 ;; Defined at:
  9667 ;;		line 179 in file "mcc_generated_files/SW_I2C_Master.c"
  9668 ;; Parameters:    Size  Location     Type
  9669 ;;  x               1    wreg     _Bool 
  9670 ;; Auto vars:     Size  Location     Type
  9671 ;;  x               1    3[COMMON] _Bool 
  9672 ;;  Count           1    2[COMMON] unsigned char 
  9673 ;; Return value:  Size  Location     Type
  9674 ;;                  1    wreg      void 
  9675 ;; Registers used:
  9676 ;;		wreg, status,2, status,0
  9677 ;; Tracked objects:
  9678 ;;		On entry : 0/0
  9679 ;;		On exit  : 0/0
  9680 ;;		Unchanged: 0/0
  9681 ;; Data sizes:     COMMON   BANK0   BANK1   BANK2   BANK3   BANK4   BANK5   BANK6   BANK7   BANK8   BANK9  BANK10  BANK1
      +1  BANK12  BANK13  BANK14  BANK15  BANK16  BANK17  BANK18  BANK19  BANK20  BANK21  BANK22  BANK23  BANK24  BANK25
  9682 ;;      Params:         0       0       0       0       0       0       0       0       0       0       0       0       
      +0       0       0       0       0       0       0       0       0       0       0       0       0       0       0
  9683 ;;      Locals:         2       0       0       0       0       0       0       0       0       0       0       0       
      +0       0       0       0       0       0       0       0       0       0       0       0       0       0       0
  9684 ;;      Temps:          1       0       0       0       0       0       0       0       0       0       0       0       
      +0       0       0       0       0       0       0       0       0       0       0       0       0       0       0
  9685 ;;      Totals:         3       0       0       0       0       0       0       0       0       0       0       0       
      +0       0       0       0       0       0       0       0       0       0       0       0       0       0       0
  9686 ;;Total ram usage:        3 bytes
  9687 ;; Hardware stack levels used: 1
  9688 ;; Hardware stack levels required when called: 4
  9689 ;; This function calls:
  9690 ;;		Nothing
  9691 ;; This function is called by:
  9692 ;;		_SW_I2C_WriteBit
  9693 ;;		_SW_I2C_Start
  9694 ;;		_SW_I2C_Stop
  9695 ;; This function uses a non-reentrant model
  9696 ;;
  9697                           
  9698                           
  9699                           ;psect for function _SW_I2C_SDA_Pulse
  9700  0F35                     _SW_I2C_SDA_Pulse:
  9701                           
  9702                           ;incstack = 0
  9703                           ; Regs used in _SW_I2C_SDA_Pulse: [wreg+status,2+status,0]
  9704                           ;SW_I2C_SDA_Pulse@x stored from wreg
  9705  0F35  00F3               	movwf	SW_I2C_SDA_Pulse@x
  9706  0F36                     l5384:
  9707                           
  9708                           ;mcc_generated_files/SW_I2C_Master.c: 179: static void SW_I2C_SDA_Pulse(_Bool x);mcc_gen
      +                          erated_files/SW_I2C_Master.c: 180: {;mcc_generated_files/SW_I2C_Master.c: 181:     if(x)
  9709  0F36  0873               	movf	SW_I2C_SDA_Pulse@x,w
  9710  0F37  1903               	btfsc	3,2
  9711  0F38  2F3A               	goto	u3471
  9712  0F39  2F3B               	goto	u3470
  9713  0F3A                     u3471:
  9714  0F3A  2F3F               	goto	l899
  9715  0F3B                     u3470:
  9716  0F3B                     l894:	
  9717                           ;mcc_generated_files/SW_I2C_Master.c: 182:     {;mcc_generated_files/SW_I2C_Master.c: 18
      +                          3:         do { TRISCbits.TRISC6 = 1; } while(0);
  9718                           
  9719  0F3B  0140               	movlb	0	; select bank0
  9720  0F3C  1714               	bsf	20,6	;volatile
  9721  0F3D                     l896:	
  9722                           ;mcc_generated_files/SW_I2C_Master.c: 184:         do { LATCbits.LATC6 = 1; } while(0);
  9723                           
  9724  0F3D  171A               	bsf	26,6	;volatile
  9725  0F3E  2F42               	goto	l5386
  9726  0F3F                     l899:	
  9727                           ;mcc_generated_files/SW_I2C_Master.c: 187:     {;mcc_generated_files/SW_I2C_Master.c: 18
      +                          8:         do { LATCbits.LATC6 = 0; } while(0);
  9728                           
  9729  0F3F  0140               	movlb	0	; select bank0
  9730  0F40  131A               	bcf	26,6	;volatile
  9731  0F41                     l901:	
  9732                           ;mcc_generated_files/SW_I2C_Master.c: 189:         do { TRISCbits.TRISC6 = 0; } while(0)
      +                          ;
  9733                           
  9734  0F41  1314               	bcf	20,6	;volatile
  9735  0F42                     l5386:
  9736                           
  9737                           ;mcc_generated_files/SW_I2C_Master.c: 192:     uint8_t Count=0;
  9738  0F42  01F2               	clrf	SW_I2C_SDA_Pulse@Count
  9739                           
  9740                           ;mcc_generated_files/SW_I2C_Master.c: 194:     while(PORTCbits.RC6!=x)
  9741  0F43  2F50               	goto	l5392
  9742  0F44                     l5388:
  9743                           
  9744                           ;mcc_generated_files/SW_I2C_Master.c: 195:     {;mcc_generated_files/SW_I2C_Master.c: 19
      +                          6:         if(++Count==0)
  9745  0F44  3001               	movlw	1
  9746  0F45  00F1               	movwf	??_SW_I2C_SDA_Pulse
  9747  0F46  0871               	movf	??_SW_I2C_SDA_Pulse,w
  9748  0F47  07F2               	addwf	SW_I2C_SDA_Pulse@Count,f
  9749  0F48  1D03               	btfss	3,2
  9750  0F49  2F4B               	goto	u3481
  9751  0F4A  2F4C               	goto	u3480
  9752  0F4B                     u3481:
  9753  0F4B  2F50               	goto	l5392
  9754  0F4C                     u3480:
  9755  0F4C                     l5390:
  9756                           
  9757                           ;mcc_generated_files/SW_I2C_Master.c: 197:         {;mcc_generated_files/SW_I2C_Master.c
      +                          : 199:             Sw_I2c_Cxt.State=(-1);
  9758  0F4C  0141               	movlb	1	; select bank1
  9759  0F4D  01E9               	clrf	(_Sw_I2c_Cxt^(0+128)+8)
  9760  0F4E  03E9               	decf	(_Sw_I2c_Cxt^(0+128)+8),f
  9761                           
  9762                           ;mcc_generated_files/SW_I2C_Master.c: 200:             return;
  9763  0F4F  2F59               	goto	l906
  9764  0F50                     l5392:
  9765                           
  9766                           ;mcc_generated_files/SW_I2C_Master.c: 194:     while(PORTCbits.RC6!=x)
  9767  0F50  0E0E               	swapf	14,w	;volatile
  9768  0F51  0C89               	rrf	9,f
  9769  0F52  0C89               	rrf	9,f
  9770  0F53  3901               	andlw	1
  9771  0F54  0673               	xorwf	SW_I2C_SDA_Pulse@x,w
  9772  0F55  1D03               	skipz
  9773  0F56  2F58               	goto	u3491
  9774  0F57  2F59               	goto	u3490
  9775  0F58                     u3491:
  9776  0F58  2F44               	goto	l5388
  9777  0F59                     u3490:
  9778  0F59                     l906:
  9779  0F59  0008               	return
  9780  0F5A                     __end_of_SW_I2C_SDA_Pulse:
  9781                           
  9782                           	psect	text49
  9783  0D19                     __ptext49:	
  9784 ;; *************** function _SW_I2C_ReadByte *****************
  9785 ;; Defined at:
  9786 ;;		line 261 in file "mcc_generated_files/SW_I2C_Master.c"
  9787 ;; Parameters:    Size  Location     Type
  9788 ;;		None
  9789 ;; Auto vars:     Size  Location     Type
  9790 ;;  i               1    6[COMMON] unsigned char 
  9791 ;;  data_in         1    5[COMMON] unsigned char 
  9792 ;; Return value:  Size  Location     Type
  9793 ;;                  1    wreg      unsigned char 
  9794 ;; Registers used:
  9795 ;;		wreg, status,2, status,0, pclath, cstack
  9796 ;; Tracked objects:
  9797 ;;		On entry : 0/0
  9798 ;;		On exit  : 0/0
  9799 ;;		Unchanged: 0/0
  9800 ;; Data sizes:     COMMON   BANK0   BANK1   BANK2   BANK3   BANK4   BANK5   BANK6   BANK7   BANK8   BANK9  BANK10  BANK1
      +1  BANK12  BANK13  BANK14  BANK15  BANK16  BANK17  BANK18  BANK19  BANK20  BANK21  BANK22  BANK23  BANK24  BANK25
  9801 ;;      Params:         0       0       0       0       0       0       0       0       0       0       0       0       
      +0       0       0       0       0       0       0       0       0       0       0       0       0       0       0
  9802 ;;      Locals:         2       0       0       0       0       0       0       0       0       0       0       0       
      +0       0       0       0       0       0       0       0       0       0       0       0       0       0       0
  9803 ;;      Temps:          1       0       0       0       0       0       0       0       0       0       0       0       
      +0       0       0       0       0       0       0       0       0       0       0       0       0       0       0
  9804 ;;      Totals:         3       0       0       0       0       0       0       0       0       0       0       0       
      +0       0       0       0       0       0       0       0       0       0       0       0       0       0       0
  9805 ;;Total ram usage:        3 bytes
  9806 ;; Hardware stack levels used: 1
  9807 ;; Hardware stack levels required when called: 6
  9808 ;; This function calls:
  9809 ;;		_SW_I2C_ReadBit
  9810 ;; This function is called by:
  9811 ;;		_SW_I2C_Read
  9812 ;;		_SW_I2C_Tasks
  9813 ;; This function uses a non-reentrant model
  9814 ;;
  9815                           
  9816                           
  9817                           ;psect for function _SW_I2C_ReadByte
  9818  0D19                     _SW_I2C_ReadByte:
  9819  0D19                     l5594:	
  9820                           ;incstack = 0
  9821                           ; Regs used in _SW_I2C_ReadByte: [wreg+status,2+status,0+pclath+cstack]
  9822                           
  9823                           
  9824                           ;mcc_generated_files/SW_I2C_Master.c: 263:     uint8_t i;;mcc_generated_files/SW_I2C_Mas
      +                          ter.c: 264:     uint8_t data_in=0x00;
  9825  0D19  01F5               	clrf	SW_I2C_ReadByte@data_in
  9826                           
  9827                           ;mcc_generated_files/SW_I2C_Master.c: 266:     for(i=0; i<8; i++)
  9828  0D1A  01F6               	clrf	SW_I2C_ReadByte@i
  9829  0D1B                     l5600:
  9830                           
  9831                           ;mcc_generated_files/SW_I2C_Master.c: 267:     {;mcc_generated_files/SW_I2C_Master.c: 26
      +                          8:         data_in<<=1;
  9832  0D1B  1003               	clrc
  9833  0D1C  0DF5               	rlf	SW_I2C_ReadByte@data_in,f
  9834  0D1D                     l5602:
  9835                           
  9836                           ;mcc_generated_files/SW_I2C_Master.c: 269:         data_in|=SW_I2C_ReadBit();
  9837  0D1D  318D  255C  318D   	fcall	_SW_I2C_ReadBit
  9838  0D20  00F4               	movwf	??_SW_I2C_ReadByte
  9839  0D21  0874               	movf	??_SW_I2C_ReadByte,w
  9840  0D22  04F5               	iorwf	SW_I2C_ReadByte@data_in,f
  9841  0D23                     l5604:
  9842                           
  9843                           ;mcc_generated_files/SW_I2C_Master.c: 270:     }
  9844  0D23  3001               	movlw	1
  9845  0D24  00F4               	movwf	??_SW_I2C_ReadByte
  9846  0D25  0874               	movf	??_SW_I2C_ReadByte,w
  9847  0D26  07F6               	addwf	SW_I2C_ReadByte@i,f
  9848  0D27                     l5606:
  9849  0D27  3008               	movlw	8
  9850  0D28  0276               	subwf	SW_I2C_ReadByte@i,w
  9851  0D29  1C03               	skipc
  9852  0D2A  2D2C               	goto	u3931
  9853  0D2B  2D2D               	goto	u3930
  9854  0D2C                     u3931:
  9855  0D2C  2D1B               	goto	l5600
  9856  0D2D                     u3930:
  9857  0D2D                     l5608:
  9858                           
  9859                           ;mcc_generated_files/SW_I2C_Master.c: 272:     return data_in;
  9860  0D2D  0875               	movf	SW_I2C_ReadByte@data_in,w
  9861  0D2E                     l926:
  9862  0D2E  0008               	return
  9863  0D2F                     __end_of_SW_I2C_ReadByte:
  9864                           
  9865                           	psect	text50
  9866  0D5C                     __ptext50:	
  9867 ;; *************** function _SW_I2C_ReadBit *****************
  9868 ;; Defined at:
  9869 ;;		line 215 in file "mcc_generated_files/SW_I2C_Master.c"
  9870 ;; Parameters:    Size  Location     Type
  9871 ;;		None
  9872 ;; Auto vars:     Size  Location     Type
  9873 ;;		None
  9874 ;; Return value:  Size  Location     Type
  9875 ;;                  1    wreg      _Bool 
  9876 ;; Registers used:
  9877 ;;		wreg, status,2, status,0, pclath, cstack
  9878 ;; Tracked objects:
  9879 ;;		On entry : 0/0
  9880 ;;		On exit  : 0/0
  9881 ;;		Unchanged: 0/0
  9882 ;; Data sizes:     COMMON   BANK0   BANK1   BANK2   BANK3   BANK4   BANK5   BANK6   BANK7   BANK8   BANK9  BANK10  BANK1
      +1  BANK12  BANK13  BANK14  BANK15  BANK16  BANK17  BANK18  BANK19  BANK20  BANK21  BANK22  BANK23  BANK24  BANK25
  9883 ;;      Params:         0       0       0       0       0       0       0       0       0       0       0       0       
      +0       0       0       0       0       0       0       0       0       0       0       0       0       0       0
  9884 ;;      Locals:         0       0       0       0       0       0       0       0       0       0       0       0       
      +0       0       0       0       0       0       0       0       0       0       0       0       0       0       0
  9885 ;;      Temps:          0       0       0       0       0       0       0       0       0       0       0       0       
      +0       0       0       0       0       0       0       0       0       0       0       0       0       0       0
  9886 ;;      Totals:         0       0       0       0       0       0       0       0       0       0       0       0       
      +0       0       0       0       0       0       0       0       0       0       0       0       0       0       0
  9887 ;;Total ram usage:        0 bytes
  9888 ;; Hardware stack levels used: 1
  9889 ;; Hardware stack levels required when called: 5
  9890 ;; This function calls:
  9891 ;;		_SW_I2C_SCL_Pulse
  9892 ;; This function is called by:
  9893 ;;		_SW_I2C_ReadByte
  9894 ;;		_SW_I2C_Write
  9895 ;; This function uses a non-reentrant model
  9896 ;;
  9897                           
  9898                           
  9899                           ;psect for function _SW_I2C_ReadBit
  9900  0D5C                     _SW_I2C_ReadBit:
  9901  0D5C                     l5472:	
  9902                           ;incstack = 0
  9903                           ; Regs used in _SW_I2C_ReadBit: [wreg+status,2+status,0+pclath+cstack]
  9904                           
  9905                           
  9906                           ;mcc_generated_files/SW_I2C_Master.c: 219:     SW_I2C_SCL_Pulse(0);
  9907  0D5C  3000               	movlw	0
  9908  0D5D  318E  26CB  318D   	fcall	_SW_I2C_SCL_Pulse
  9909  0D60                     l5474:
  9910  0D60  0140               	movlb	0	; select bank0
  9911  0D61  1714               	bsf	20,6	;volatile
  9912  0D62                     l5476:
  9913                           
  9914                           ;mcc_generated_files/SW_I2C_Master.c: 221:     _delay((unsigned long)((16)*(32000000/400
      +                          0000.0)));
  9915  0D62  302A               	movlw	42
  9916  0D63                     u4527:
  9917  0D63  0B89               	decfsz	9,f
  9918  0D64  2D63               	goto	u4527
  9919  0D65  3200               	nop2
  9920  0D66                     l5478:
  9921                           
  9922                           ;mcc_generated_files/SW_I2C_Master.c: 222:     SW_I2C_SCL_Pulse(1);
  9923  0D66  3001               	movlw	1
  9924  0D67  318E  26CB  318D   	fcall	_SW_I2C_SCL_Pulse
  9925                           
  9926                           ;mcc_generated_files/SW_I2C_Master.c: 223:     _delay((unsigned long)((16)*(32000000/400
      +                          0000.0)));
  9927  0D6A  302A               	movlw	42
  9928  0D6B                     u4537:
  9929  0D6B  0B89               	decfsz	9,f
  9930  0D6C  2D6B               	goto	u4537
  9931  0D6D  3200               	nop2
  9932  0D6E                     l5480:
  9933                           
  9934                           ;mcc_generated_files/SW_I2C_Master.c: 226:     return PORTCbits.RC6;
  9935  0D6E  0140               	movlb	0	; select bank0
  9936  0D6F  0E0E               	swapf	14,w	;volatile
  9937  0D70  0C89               	rrf	9,f
  9938  0D71  0C89               	rrf	9,f
  9939  0D72  3901               	andlw	1
  9940  0D73                     l915:
  9941  0D73  0008               	return
  9942  0D74                     __end_of_SW_I2C_ReadBit:
  9943                           
  9944                           	psect	text51
  9945  0ECB                     __ptext51:	
  9946 ;; *************** function _SW_I2C_SCL_Pulse *****************
  9947 ;; Defined at:
  9948 ;;		line 153 in file "mcc_generated_files/SW_I2C_Master.c"
  9949 ;; Parameters:    Size  Location     Type
  9950 ;;  x               1    wreg     _Bool 
  9951 ;; Auto vars:     Size  Location     Type
  9952 ;;  x               1    3[COMMON] _Bool 
  9953 ;;  Count           1    2[COMMON] unsigned char 
  9954 ;; Return value:  Size  Location     Type
  9955 ;;                  1    wreg      void 
  9956 ;; Registers used:
  9957 ;;		wreg, status,2, status,0
  9958 ;; Tracked objects:
  9959 ;;		On entry : 0/0
  9960 ;;		On exit  : 0/0
  9961 ;;		Unchanged: 0/0
  9962 ;; Data sizes:     COMMON   BANK0   BANK1   BANK2   BANK3   BANK4   BANK5   BANK6   BANK7   BANK8   BANK9  BANK10  BANK1
      +1  BANK12  BANK13  BANK14  BANK15  BANK16  BANK17  BANK18  BANK19  BANK20  BANK21  BANK22  BANK23  BANK24  BANK25
  9963 ;;      Params:         0       0       0       0       0       0       0       0       0       0       0       0       
      +0       0       0       0       0       0       0       0       0       0       0       0       0       0       0
  9964 ;;      Locals:         2       0       0       0       0       0       0       0       0       0       0       0       
      +0       0       0       0       0       0       0       0       0       0       0       0       0       0       0
  9965 ;;      Temps:          1       0       0       0       0       0       0       0       0       0       0       0       
      +0       0       0       0       0       0       0       0       0       0       0       0       0       0       0
  9966 ;;      Totals:         3       0       0       0       0       0       0       0       0       0       0       0       
      +0       0       0       0       0       0       0       0       0       0       0       0       0       0       0
  9967 ;;Total ram usage:        3 bytes
  9968 ;; Hardware stack levels used: 1
  9969 ;; Hardware stack levels required when called: 4
  9970 ;; This function calls:
  9971 ;;		Nothing
  9972 ;; This function is called by:
  9973 ;;		_SW_I2C_WriteBit
  9974 ;;		_SW_I2C_ReadBit
  9975 ;;		_SW_I2C_Start
  9976 ;;		_SW_I2C_Stop
  9977 ;; This function uses a non-reentrant model
  9978 ;;
  9979                           
  9980                           
  9981                           ;psect for function _SW_I2C_SCL_Pulse
  9982  0ECB                     _SW_I2C_SCL_Pulse:
  9983                           
  9984                           ;incstack = 0
  9985                           ; Regs used in _SW_I2C_SCL_Pulse: [wreg+status,2+status,0]
  9986                           ;SW_I2C_SCL_Pulse@x stored from wreg
  9987  0ECB  00F3               	movwf	SW_I2C_SCL_Pulse@x
  9988  0ECC                     l5374:
  9989                           
  9990                           ;mcc_generated_files/SW_I2C_Master.c: 153: static void SW_I2C_SCL_Pulse(_Bool x);mcc_gen
      +                          erated_files/SW_I2C_Master.c: 154: {;mcc_generated_files/SW_I2C_Master.c: 155:     if(x)
  9991  0ECC  0873               	movf	SW_I2C_SCL_Pulse@x,w
  9992  0ECD  1903               	btfsc	3,2
  9993  0ECE  2ED0               	goto	u3441
  9994  0ECF  2ED1               	goto	u3440
  9995  0ED0                     u3441:
  9996  0ED0  2ED5               	goto	l882
  9997  0ED1                     u3440:
  9998  0ED1                     l877:	
  9999                           ;mcc_generated_files/SW_I2C_Master.c: 156:     {;mcc_generated_files/SW_I2C_Master.c: 15
      +                          7:         do { TRISCbits.TRISC4 = 1; } while(0);
 10000                           
 10001  0ED1  0140               	movlb	0	; select bank0
 10002  0ED2  1614               	bsf	20,4	;volatile
 10003  0ED3                     l879:	
 10004                           ;mcc_generated_files/SW_I2C_Master.c: 158:         do { LATCbits.LATC4 = 1; } while(0);
 10005                           
 10006  0ED3  161A               	bsf	26,4	;volatile
 10007  0ED4  2ED8               	goto	l5376
 10008  0ED5                     l882:	
 10009                           ;mcc_generated_files/SW_I2C_Master.c: 161:     {;mcc_generated_files/SW_I2C_Master.c: 16
      +                          2:         do { LATCbits.LATC4 = 0; } while(0);
 10010                           
 10011  0ED5  0140               	movlb	0	; select bank0
 10012  0ED6  121A               	bcf	26,4	;volatile
 10013  0ED7                     l884:	
 10014                           ;mcc_generated_files/SW_I2C_Master.c: 163:         do { TRISCbits.TRISC4 = 0; } while(0)
      +                          ;
 10015                           
 10016  0ED7  1214               	bcf	20,4	;volatile
 10017  0ED8                     l5376:
 10018                           
 10019                           ;mcc_generated_files/SW_I2C_Master.c: 166:     uint8_t Count=0;
 10020  0ED8  01F2               	clrf	SW_I2C_SCL_Pulse@Count
 10021                           
 10022                           ;mcc_generated_files/SW_I2C_Master.c: 168:     while(PORTCbits.RC4!=x)
 10023  0ED9  2EE6               	goto	l5382
 10024  0EDA                     l5378:
 10025                           
 10026                           ;mcc_generated_files/SW_I2C_Master.c: 169:     {;mcc_generated_files/SW_I2C_Master.c: 17
      +                          0:         if(++Count==0)
 10027  0EDA  3001               	movlw	1
 10028  0EDB  00F1               	movwf	??_SW_I2C_SCL_Pulse
 10029  0EDC  0871               	movf	??_SW_I2C_SCL_Pulse,w
 10030  0EDD  07F2               	addwf	SW_I2C_SCL_Pulse@Count,f
 10031  0EDE  1D03               	btfss	3,2
 10032  0EDF  2EE1               	goto	u3451
 10033  0EE0  2EE2               	goto	u3450
 10034  0EE1                     u3451:
 10035  0EE1  2EE6               	goto	l5382
 10036  0EE2                     u3450:
 10037  0EE2                     l5380:
 10038                           
 10039                           ;mcc_generated_files/SW_I2C_Master.c: 171:         {;mcc_generated_files/SW_I2C_Master.c
      +                          : 173:             Sw_I2c_Cxt.State=(-1);
 10040  0EE2  0141               	movlb	1	; select bank1
 10041  0EE3  01E9               	clrf	(_Sw_I2c_Cxt^(0+128)+8)
 10042  0EE4  03E9               	decf	(_Sw_I2c_Cxt^(0+128)+8),f
 10043                           
 10044                           ;mcc_generated_files/SW_I2C_Master.c: 174:             return;
 10045  0EE5  2EED               	goto	l889
 10046  0EE6                     l5382:
 10047                           
 10048                           ;mcc_generated_files/SW_I2C_Master.c: 168:     while(PORTCbits.RC4!=x)
 10049  0EE6  0E0E               	swapf	14,w	;volatile
 10050  0EE7  3901               	andlw	1
 10051  0EE8  0673               	xorwf	SW_I2C_SCL_Pulse@x,w
 10052  0EE9  1D03               	skipz
 10053  0EEA  2EEC               	goto	u3461
 10054  0EEB  2EED               	goto	u3460
 10055  0EEC                     u3461:
 10056  0EEC  2EDA               	goto	l5378
 10057  0EED                     u3460:
 10058  0EED                     l889:
 10059  0EED  0008               	return
 10060  0EEE                     __end_of_SW_I2C_SCL_Pulse:
 10061                           
 10062                           	psect	intentry
 10063  0004                     __pintentry:	
 10064 ;; *************** function _INTERRUPT_InterruptManager *****************
 10065 ;; Defined at:
 10066 ;;		line 52 in file "mcc_generated_files/interrupt_manager.c"
 10067 ;; Parameters:    Size  Location     Type
 10068 ;;		None
 10069 ;; Auto vars:     Size  Location     Type
 10070 ;;		None
 10071 ;; Return value:  Size  Location     Type
 10072 ;;                  1    wreg      void 
 10073 ;; Registers used:
 10074 ;;		wreg, fsr1l, fsr1h, status,2, status,0, pclath, cstack
 10075 ;; Tracked objects:
 10076 ;;		On entry : 0/0
 10077 ;;		On exit  : 0/0
 10078 ;;		Unchanged: 0/0
 10079 ;; Data sizes:     COMMON   BANK0   BANK1   BANK2   BANK3   BANK4   BANK5   BANK6   BANK7   BANK8   BANK9  BANK10  BANK1
      +1  BANK12  BANK13  BANK14  BANK15  BANK16  BANK17  BANK18  BANK19  BANK20  BANK21  BANK22  BANK23  BANK24  BANK25
 10080 ;;      Params:         0       0       0       0       0       0       0       0       0       0       0       0       
      +0       0       0       0       0       0       0       0       0       0       0       0       0       0       0
 10081 ;;      Locals:         0       0       0       0       0       0       0       0       0       0       0       0       
      +0       0       0       0       0       0       0       0       0       0       0       0       0       0       0
 10082 ;;      Temps:          0       0       0       0       0       0       0       0       0       0       0       0       
      +0       0       0       0       0       0       0       0       0       0       0       0       0       0       0
 10083 ;;      Totals:         0       0       0       0       0       0       0       0       0       0       0       0       
      +0       0       0       0       0       0       0       0       0       0       0       0       0       0       0
 10084 ;;Total ram usage:        0 bytes
 10085 ;; Hardware stack levels used: 1
 10086 ;; Hardware stack levels required when called: 3
 10087 ;; This function calls:
 10088 ;;		Absolute function
 10089 ;;		_EUSART1_Receive_ISR
 10090 ;;		_EUSART1_Transmit_ISR
 10091 ;; This function is called by:
 10092 ;;		Interrupt level 1
 10093 ;; This function uses a non-reentrant model
 10094 ;;
 10095                           
 10096  0004                     _INTERRUPT_InterruptManager:
 10097                           
 10098                           ;incstack = 0
 10099  0004  147E               	bsf	int$flags,0	;set compiler interrupt flag (level 1)
 10100                           
 10101                           ; Regs used in _INTERRUPT_InterruptManager: [wreg+fsr1l+fsr1h+status,2+status,0+pclath+c
      +                          stack]
 10102  0005  3180               	pagesel	$
 10103  0006                     i1l5122:
 10104                           
 10105                           ;mcc_generated_files/interrupt_manager.c: 55:     if(INTCONbits.PEIE == 1)
 10106  0006  1F0B               	btfss	11,6	;volatile
 10107  0007  2809               	goto	u321_21
 10108  0008  280A               	goto	u321_20
 10109  0009                     u321_21:
 10110  0009  2829               	goto	i1l703
 10111  000A                     u321_20:
 10112  000A                     i1l5124:
 10113                           
 10114                           ;mcc_generated_files/interrupt_manager.c: 56:     {;mcc_generated_files/interrupt_manage
      +                          r.c: 57:         if(PIE3bits.TX1IE == 1 && PIR3bits.TX1IF == 1)
 10115  000A  014E               	movlb	14	; select bank14
 10116  000B  1E19               	btfss	25,4	;volatile
 10117  000C  280E               	goto	u322_21
 10118  000D  280F               	goto	u322_20
 10119  000E                     u322_21:
 10120  000E  281A               	goto	i1l698
 10121  000F                     u322_20:
 10122  000F                     i1l5126:
 10123  000F  1E0F               	btfss	15,4	;volatile
 10124  0010  2812               	goto	u323_21
 10125  0011  2813               	goto	u323_20
 10126  0012                     u323_21:
 10127  0012  281A               	goto	i1l698
 10128  0013                     u323_20:
 10129  0013                     i1l5128:
 10130                           
 10131                           ;mcc_generated_files/interrupt_manager.c: 58:         {;mcc_generated_files/interrupt_ma
      +                          nager.c: 59:             EUSART1_TxDefaultInterruptHandler();
 10132  0013  0141               	movlb	1	; select bank1
 10133  0014  086D               	movf	(_EUSART1_TxDefaultInterruptHandler+1)^(0+128),w
 10134  0015  008A               	movwf	10
 10135  0016  086C               	movf	_EUSART1_TxDefaultInterruptHandler^(0+128),w
 10136  0017  000A               	callw
 10137  0018  3180               	pagesel	$
 10138                           
 10139                           ;mcc_generated_files/interrupt_manager.c: 60:         }
 10140  0019  2829               	goto	i1l703
 10141  001A                     i1l698:	
 10142                           ;mcc_generated_files/interrupt_manager.c: 61:         else if(PIE3bits.RC1IE == 1 && PIR
      +                          3bits.RC1IF == 1)
 10143                           
 10144  001A  1E99               	btfss	25,5	;volatile
 10145  001B  281D               	goto	u324_21
 10146  001C  281E               	goto	u324_20
 10147  001D                     u324_21:
 10148  001D  2829               	goto	i1l699
 10149  001E                     u324_20:
 10150  001E                     i1l5130:
 10151  001E  1E8F               	btfss	15,5	;volatile
 10152  001F  2821               	goto	u325_21
 10153  0020  2822               	goto	u325_20
 10154  0021                     u325_21:
 10155  0021  2829               	goto	i1l699
 10156  0022                     u325_20:
 10157  0022                     i1l5132:
 10158                           
 10159                           ;mcc_generated_files/interrupt_manager.c: 62:         {;mcc_generated_files/interrupt_ma
      +                          nager.c: 63:             EUSART1_RxDefaultInterruptHandler();
 10160  0022  0141               	movlb	1	; select bank1
 10161  0023  086B               	movf	(_EUSART1_RxDefaultInterruptHandler+1)^(0+128),w
 10162  0024  008A               	movwf	10
 10163  0025  086A               	movf	_EUSART1_RxDefaultInterruptHandler^(0+128),w
 10164  0026  000A               	callw
 10165  0027  3180               	pagesel	$
 10166                           
 10167                           ;mcc_generated_files/interrupt_manager.c: 64:         }
 10168  0028  2829               	goto	i1l703
 10169  0029                     i1l699:
 10170  0029                     i1l703:	
 10171                           ;mcc_generated_files/interrupt_manager.c: 69:     }
 10172                           
 10173  0029  107E               	bcf	int$flags,0	;clear compiler interrupt flag (level 1)
 10174  002A  0009               	retfie
 10175  002B                     __end_of_INTERRUPT_InterruptManager:
 10176                           
 10177                           	psect	text53
 10178  0EA8                     __ptext53:	
 10179 ;; *************** function _EUSART1_Transmit_ISR *****************
 10180 ;; Defined at:
 10181 ;;		line 206 in file "mcc_generated_files/eusart1.c"
 10182 ;; Parameters:    Size  Location     Type
 10183 ;;		None
 10184 ;; Auto vars:     Size  Location     Type
 10185 ;;		None
 10186 ;; Return value:  Size  Location     Type
 10187 ;;                  1    wreg      void 
 10188 ;; Registers used:
 10189 ;;		wreg, fsr1l, fsr1h, status,2, status,0
 10190 ;; Tracked objects:
 10191 ;;		On entry : 0/0
 10192 ;;		On exit  : 0/0
 10193 ;;		Unchanged: 0/0
 10194 ;; Data sizes:     COMMON   BANK0   BANK1   BANK2   BANK3   BANK4   BANK5   BANK6   BANK7   BANK8   BANK9  BANK10  BANK1
      +1  BANK12  BANK13  BANK14  BANK15  BANK16  BANK17  BANK18  BANK19  BANK20  BANK21  BANK22  BANK23  BANK24  BANK25
 10195 ;;      Params:         0       0       0       0       0       0       0       0       0       0       0       0       
      +0       0       0       0       0       0       0       0       0       0       0       0       0       0       0
 10196 ;;      Locals:         0       0       0       0       0       0       0       0       0       0       0       0       
      +0       0       0       0       0       0       0       0       0       0       0       0       0       0       0
 10197 ;;      Temps:          1       0       0       0       0       0       0       0       0       0       0       0       
      +0       0       0       0       0       0       0       0       0       0       0       0       0       0       0
 10198 ;;      Totals:         1       0       0       0       0       0       0       0       0       0       0       0       
      +0       0       0       0       0       0       0       0       0       0       0       0       0       0       0
 10199 ;;Total ram usage:        1 bytes
 10200 ;; Hardware stack levels used: 1
 10201 ;; This function calls:
 10202 ;;		Nothing
 10203 ;; This function is called by:
 10204 ;;		_EUSART1_Initialize
 10205 ;;		_INTERRUPT_InterruptManager
 10206 ;; This function uses a non-reentrant model
 10207 ;;
 10208                           
 10209                           
 10210                           ;psect for function _EUSART1_Transmit_ISR
 10211  0EA8                     _EUSART1_Transmit_ISR:
 10212  0EA8                     i1l4354:	
 10213                           ;incstack = 0
 10214                           ; Regs used in _EUSART1_Transmit_ISR: [wreg+fsr1l+fsr1h+status,2+status,0]
 10215                           
 10216                           
 10217                           ;mcc_generated_files/eusart1.c: 210:     if(sizeof(eusart1TxBuffer) > eusart1TxBufferRem
      +                          aining)
 10218  0EA8  3040               	movlw	64
 10219  0EA9  0141               	movlb	1	; select bank1
 10220  0EAA  026E               	subwf	_eusart1TxBufferRemaining^(0+128),w	;volatile
 10221  0EAB  1803               	skipnc
 10222  0EAC  2EAE               	goto	u263_21
 10223  0EAD  2EAF               	goto	u263_20
 10224  0EAE                     u263_21:
 10225  0EAE  2EC8               	goto	i1l644
 10226  0EAF                     u263_20:
 10227  0EAF                     i1l4356:
 10228                           
 10229                           ;mcc_generated_files/eusart1.c: 211:     {;mcc_generated_files/eusart1.c: 212:         T
      +                          X1REG = eusart1TxBuffer[eusart1TxTail++];
 10230  0EAF  083B               	movf	_eusart1TxTail^(0+128),w
 10231  0EB0  3EA0               	addlw	(low (_eusart1TxBuffer| (0+512)))& (0+255)
 10232  0EB1  0086               	movwf	6
 10233  0EB2  3002               	movlw	2	; select bank5/6
 10234  0EB3  0087               	movwf	7
 10235  0EB4  0801               	movf	1,w
 10236  0EB5  0142               	movlb	2	; select bank2
 10237  0EB6  009A               	movwf	26	;volatile
 10238  0EB7                     i1l4358:
 10239  0EB7  3001               	movlw	1
 10240  0EB8  00F0               	movwf	??_EUSART1_Transmit_ISR
 10241  0EB9  0870               	movf	??_EUSART1_Transmit_ISR,w
 10242  0EBA  0141               	movlb	1	; select bank1
 10243  0EBB  07BB               	addwf	_eusart1TxTail^(0+128),f	;volatile
 10244  0EBC                     i1l4360:
 10245                           
 10246                           ;mcc_generated_files/eusart1.c: 213:         if(sizeof(eusart1TxBuffer) <= eusart1TxTail
      +                          )
 10247  0EBC  3040               	movlw	64
 10248  0EBD  023B               	subwf	_eusart1TxTail^(0+128),w	;volatile
 10249  0EBE  1C03               	skipc
 10250  0EBF  2EC1               	goto	u264_21
 10251  0EC0  2EC2               	goto	u264_20
 10252  0EC1                     u264_21:
 10253  0EC1  2EC3               	goto	i1l4364
 10254  0EC2                     u264_20:
 10255  0EC2                     i1l4362:
 10256                           
 10257                           ;mcc_generated_files/eusart1.c: 214:         {;mcc_generated_files/eusart1.c: 215:      
      +                                 eusart1TxTail = 0;
 10258  0EC2  01BB               	clrf	_eusart1TxTail^(0+128)	;volatile
 10259  0EC3                     i1l4364:
 10260                           
 10261                           ;mcc_generated_files/eusart1.c: 217:         eusart1TxBufferRemaining++;
 10262  0EC3  3001               	movlw	1
 10263  0EC4  00F0               	movwf	??_EUSART1_Transmit_ISR
 10264  0EC5  0870               	movf	??_EUSART1_Transmit_ISR,w
 10265  0EC6  07EE               	addwf	_eusart1TxBufferRemaining^(0+128),f	;volatile
 10266                           
 10267                           ;mcc_generated_files/eusart1.c: 218:     }
 10268  0EC7  2ECA               	goto	i1l647
 10269  0EC8                     i1l644:	
 10270                           ;mcc_generated_files/eusart1.c: 219:     else
 10271                           
 10272                           
 10273                           ;mcc_generated_files/eusart1.c: 220:     {;mcc_generated_files/eusart1.c: 221:         P
      +                          IE3bits.TX1IE = 0;
 10274  0EC8  014E               	movlb	14	; select bank14
 10275  0EC9  1219               	bcf	25,4	;volatile
 10276  0ECA                     i1l647:
 10277  0ECA  0008               	return
 10278  0ECB                     __end_of_EUSART1_Transmit_ISR:
 10279                           
 10280                           	psect	text54
 10281  06D6                     __ptext54:	
 10282 ;; *************** function _EUSART1_Receive_ISR *****************
 10283 ;; Defined at:
 10284 ;;		line 225 in file "mcc_generated_files/eusart1.c"
 10285 ;; Parameters:    Size  Location     Type
 10286 ;;		None
 10287 ;; Auto vars:     Size  Location     Type
 10288 ;;		None
 10289 ;; Return value:  Size  Location     Type
 10290 ;;                  1    wreg      void 
 10291 ;; Registers used:
 10292 ;;		wreg, fsr1l, fsr1h, status,2, status,0, pclath, cstack
 10293 ;; Tracked objects:
 10294 ;;		On entry : 0/0
 10295 ;;		On exit  : 0/0
 10296 ;;		Unchanged: 0/0
 10297 ;; Data sizes:     COMMON   BANK0   BANK1   BANK2   BANK3   BANK4   BANK5   BANK6   BANK7   BANK8   BANK9  BANK10  BANK1
      +1  BANK12  BANK13  BANK14  BANK15  BANK16  BANK17  BANK18  BANK19  BANK20  BANK21  BANK22  BANK23  BANK24  BANK25
 10298 ;;      Params:         0       0       0       0       0       0       0       0       0       0       0       0       
      +0       0       0       0       0       0       0       0       0       0       0       0       0       0       0
 10299 ;;      Locals:         0       0       0       0       0       0       0       0       0       0       0       0       
      +0       0       0       0       0       0       0       0       0       0       0       0       0       0       0
 10300 ;;      Temps:          0       0       0       0       0       0       0       0       0       0       0       0       
      +0       0       0       0       0       0       0       0       0       0       0       0       0       0       0
 10301 ;;      Totals:         0       0       0       0       0       0       0       0       0       0       0       0       
      +0       0       0       0       0       0       0       0       0       0       0       0       0       0       0
 10302 ;;Total ram usage:        0 bytes
 10303 ;; Hardware stack levels used: 1
 10304 ;; Hardware stack levels required when called: 2
 10305 ;; This function calls:
 10306 ;;		Absolute function
 10307 ;;		_EUSART1_DefaultErrorHandler
 10308 ;;		_EUSART1_DefaultFramingErrorHandler
 10309 ;;		_EUSART1_DefaultOverrunErrorHandler
 10310 ;;		_EUSART1_RxDataHandler
 10311 ;; This function is called by:
 10312 ;;		_EUSART1_Initialize
 10313 ;;		_INTERRUPT_InterruptManager
 10314 ;; This function uses a non-reentrant model
 10315 ;;
 10316                           
 10317                           
 10318                           ;psect for function _EUSART1_Receive_ISR
 10319  06D6                     _EUSART1_Receive_ISR:
 10320  06D6                     i1l4366:	
 10321                           ;incstack = 0
 10322                           ; Regs used in _EUSART1_Receive_ISR: [wreg+fsr1l+fsr1h+status,2+status,0+pclath+cstack]
 10323                           
 10324                           
 10325                           ;mcc_generated_files/eusart1.c: 228:     eusart1RxStatusBuffer[eusart1RxHead].status = 0
      +                          ;
 10326  06D6  087C               	movf	_eusart1RxHead,w	;volatile
 10327  06D7  3EA0               	addlw	(low (_eusart1RxStatusBuffer| 0))& (0+255)
 10328  06D8  0086               	movwf	6
 10329  06D9  0187               	clrf	7
 10330  06DA  0181               	clrf	1
 10331  06DB                     i1l4368:
 10332                           
 10333                           ;mcc_generated_files/eusart1.c: 230:     if(RC1STAbits.FERR){
 10334  06DB  0142               	movlb	2	; select bank2
 10335  06DC  1D1D               	btfss	29,2	;volatile
 10336  06DD  2EDF               	goto	u265_21
 10337  06DE  2EE0               	goto	u265_20
 10338  06DF                     u265_21:
 10339  06DF  2EEA               	goto	i1l4374
 10340  06E0                     u265_20:
 10341  06E0                     i1l4370:
 10342                           
 10343                           ;mcc_generated_files/eusart1.c: 231:         eusart1RxStatusBuffer[eusart1RxHead].ferr =
      +                           1;
 10344  06E0  087C               	movf	_eusart1RxHead,w	;volatile
 10345  06E1  3EA0               	addlw	(low (_eusart1RxStatusBuffer| 0))& (0+255)
 10346  06E2  0086               	movwf	6
 10347  06E3  0187               	clrf	7
 10348  06E4  1481               	bsf	1,1
 10349  06E5                     i1l4372:
 10350                           
 10351                           ;mcc_generated_files/eusart1.c: 232:         EUSART1_FramingErrorHandler();
 10352  06E5  0867               	movf	(_EUSART1_FramingErrorHandler+1)^(0+256),w
 10353  06E6  008A               	movwf	10
 10354  06E7  0866               	movf	_EUSART1_FramingErrorHandler^(0+256),w
 10355  06E8  000A               	callw
 10356  06E9  3186               	pagesel	$
 10357  06EA                     i1l4374:
 10358                           
 10359                           ;mcc_generated_files/eusart1.c: 235:     if(RC1STAbits.OERR){
 10360  06EA  0142               	movlb	2	; select bank2
 10361  06EB  1C9D               	btfss	29,1	;volatile
 10362  06EC  2EEE               	goto	u266_21
 10363  06ED  2EEF               	goto	u266_20
 10364  06EE                     u266_21:
 10365  06EE  2EF9               	goto	i1l4380
 10366  06EF                     u266_20:
 10367  06EF                     i1l4376:
 10368                           
 10369                           ;mcc_generated_files/eusart1.c: 236:         eusart1RxStatusBuffer[eusart1RxHead].oerr =
      +                           1;
 10370  06EF  087C               	movf	_eusart1RxHead,w	;volatile
 10371  06F0  3EA0               	addlw	(low (_eusart1RxStatusBuffer| 0))& (0+255)
 10372  06F1  0086               	movwf	6
 10373  06F2  0187               	clrf	7
 10374  06F3  1501               	bsf	1,2
 10375  06F4                     i1l4378:
 10376                           
 10377                           ;mcc_generated_files/eusart1.c: 237:         EUSART1_OverrunErrorHandler();
 10378  06F4  0865               	movf	(_EUSART1_OverrunErrorHandler+1)^(0+256),w
 10379  06F5  008A               	movwf	10
 10380  06F6  0864               	movf	_EUSART1_OverrunErrorHandler^(0+256),w
 10381  06F7  000A               	callw
 10382  06F8  3186               	pagesel	$
 10383  06F9                     i1l4380:
 10384                           
 10385                           ;mcc_generated_files/eusart1.c: 240:     if(eusart1RxStatusBuffer[eusart1RxHead].status)
      +                          {
 10386  06F9  087C               	movf	_eusart1RxHead,w	;volatile
 10387  06FA  3EA0               	addlw	(low (_eusart1RxStatusBuffer| 0))& (0+255)
 10388  06FB  0086               	movwf	6
 10389  06FC  0187               	clrf	7
 10390  06FD  0801               	movf	1,w
 10391  06FE  1903               	btfsc	3,2
 10392  06FF  2F01               	goto	u267_21
 10393  0700  2F02               	goto	u267_20
 10394  0701                     u267_21:
 10395  0701  2F09               	goto	i1l4384
 10396  0702                     u267_20:
 10397  0702                     i1l4382:
 10398                           
 10399                           ;mcc_generated_files/eusart1.c: 241:         EUSART1_ErrorHandler();
 10400  0702  0142               	movlb	2	; select bank2
 10401  0703  0863               	movf	(_EUSART1_ErrorHandler+1)^(0+256),w
 10402  0704  008A               	movwf	10
 10403  0705  0862               	movf	_EUSART1_ErrorHandler^(0+256),w
 10404  0706  000A               	callw
 10405  0707  3186               	pagesel	$
 10406                           
 10407                           ;mcc_generated_files/eusart1.c: 242:     } else {
 10408  0708  2F0C               	goto	i1l654
 10409  0709                     i1l4384:
 10410                           
 10411                           ;mcc_generated_files/eusart1.c: 243:         EUSART1_RxDataHandler();
 10412  0709  318D  25BC  3186   	fcall	_EUSART1_RxDataHandler
 10413  070C                     i1l654:
 10414  070C  0008               	return
 10415  070D                     __end_of_EUSART1_Receive_ISR:
 10416                           
 10417                           	psect	text55
 10418  0C74                     __ptext55:	
 10419 ;; *************** function _EUSART1_DefaultOverrunErrorHandler *****************
 10420 ;; Defined at:
 10421 ;;		line 261 in file "mcc_generated_files/eusart1.c"
 10422 ;; Parameters:    Size  Location     Type
 10423 ;;		None
 10424 ;; Auto vars:     Size  Location     Type
 10425 ;;		None
 10426 ;; Return value:  Size  Location     Type
 10427 ;;                  1    wreg      void 
 10428 ;; Registers used:
 10429 ;;		None
 10430 ;; Tracked objects:
 10431 ;;		On entry : 0/0
 10432 ;;		On exit  : 0/0
 10433 ;;		Unchanged: 0/0
 10434 ;; Data sizes:     COMMON   BANK0   BANK1   BANK2   BANK3   BANK4   BANK5   BANK6   BANK7   BANK8   BANK9  BANK10  BANK1
      +1  BANK12  BANK13  BANK14  BANK15  BANK16  BANK17  BANK18  BANK19  BANK20  BANK21  BANK22  BANK23  BANK24  BANK25
 10435 ;;      Params:         0       0       0       0       0       0       0       0       0       0       0       0       
      +0       0       0       0       0       0       0       0       0       0       0       0       0       0       0
 10436 ;;      Locals:         0       0       0       0       0       0       0       0       0       0       0       0       
      +0       0       0       0       0       0       0       0       0       0       0       0       0       0       0
 10437 ;;      Temps:          0       0       0       0       0       0       0       0       0       0       0       0       
      +0       0       0       0       0       0       0       0       0       0       0       0       0       0       0
 10438 ;;      Totals:         0       0       0       0       0       0       0       0       0       0       0       0       
      +0       0       0       0       0       0       0       0       0       0       0       0       0       0       0
 10439 ;;Total ram usage:        0 bytes
 10440 ;; Hardware stack levels used: 1
 10441 ;; This function calls:
 10442 ;;		Nothing
 10443 ;; This function is called by:
 10444 ;;		_EUSART1_Initialize
 10445 ;;		_EUSART1_Receive_ISR
 10446 ;; This function uses a non-reentrant model
 10447 ;;
 10448                           
 10449                           
 10450                           ;psect for function _EUSART1_DefaultOverrunErrorHandler
 10451  0C74                     _EUSART1_DefaultOverrunErrorHandler:
 10452  0C74                     i1l4106:	
 10453                           ;incstack = 0
 10454                           ; Regs used in _EUSART1_DefaultOverrunErrorHandler: []
 10455                           
 10456                           
 10457                           ;mcc_generated_files/eusart1.c: 264:     RC1STAbits.CREN = 0;
 10458  0C74  0142               	movlb	2	; select bank2
 10459  0C75  121D               	bcf	29,4	;volatile
 10460                           
 10461                           ;mcc_generated_files/eusart1.c: 265:     RC1STAbits.CREN = 1;
 10462  0C76  161D               	bsf	29,4	;volatile
 10463  0C77                     i1l664:
 10464  0C77  0008               	return
 10465  0C78                     __end_of_EUSART1_DefaultOverrunErrorHandler:
 10466                           
 10467                           	psect	text56
 10468  0003                     __ptext56:	
 10469 ;; *************** function _EUSART1_DefaultFramingErrorHandler *****************
 10470 ;; Defined at:
 10471 ;;		line 259 in file "mcc_generated_files/eusart1.c"
 10472 ;; Parameters:    Size  Location     Type
 10473 ;;		None
 10474 ;; Auto vars:     Size  Location     Type
 10475 ;;		None
 10476 ;; Return value:  Size  Location     Type
 10477 ;;                  1    wreg      void 
 10478 ;; Registers used:
 10479 ;;		None
 10480 ;; Tracked objects:
 10481 ;;		On entry : 0/0
 10482 ;;		On exit  : 0/0
 10483 ;;		Unchanged: 0/0
 10484 ;; Data sizes:     COMMON   BANK0   BANK1   BANK2   BANK3   BANK4   BANK5   BANK6   BANK7   BANK8   BANK9  BANK10  BANK1
      +1  BANK12  BANK13  BANK14  BANK15  BANK16  BANK17  BANK18  BANK19  BANK20  BANK21  BANK22  BANK23  BANK24  BANK25
 10485 ;;      Params:         0       0       0       0       0       0       0       0       0       0       0       0       
      +0       0       0       0       0       0       0       0       0       0       0       0       0       0       0
 10486 ;;      Locals:         0       0       0       0       0       0       0       0       0       0       0       0       
      +0       0       0       0       0       0       0       0       0       0       0       0       0       0       0
 10487 ;;      Temps:          0       0       0       0       0       0       0       0       0       0       0       0       
      +0       0       0       0       0       0       0       0       0       0       0       0       0       0       0
 10488 ;;      Totals:         0       0       0       0       0       0       0       0       0       0       0       0       
      +0       0       0       0       0       0       0       0       0       0       0       0       0       0       0
 10489 ;;Total ram usage:        0 bytes
 10490 ;; Hardware stack levels used: 1
 10491 ;; This function calls:
 10492 ;;		Nothing
 10493 ;; This function is called by:
 10494 ;;		_EUSART1_Initialize
 10495 ;;		_EUSART1_Receive_ISR
 10496 ;; This function uses a non-reentrant model
 10497 ;;
 10498                           
 10499                           
 10500                           ;psect for function _EUSART1_DefaultFramingErrorHandler
 10501  0003                     _EUSART1_DefaultFramingErrorHandler:
 10502  0003                     i1l661:	
 10503                           ;incstack = 0
 10504                           ; Regs used in _EUSART1_DefaultFramingErrorHandler: []
 10505                           
 10506  0003  0008               	return
 10507  0004                     __end_of_EUSART1_DefaultFramingErrorHandler:
 10508                           
 10509                           	psect	text57
 10510  0C70                     __ptext57:	
 10511 ;; *************** function _EUSART1_DefaultErrorHandler *****************
 10512 ;; Defined at:
 10513 ;;		line 269 in file "mcc_generated_files/eusart1.c"
 10514 ;; Parameters:    Size  Location     Type
 10515 ;;		None
 10516 ;; Auto vars:     Size  Location     Type
 10517 ;;		None
 10518 ;; Return value:  Size  Location     Type
 10519 ;;                  1    wreg      void 
 10520 ;; Registers used:
 10521 ;;		wreg, fsr1l, fsr1h, status,2, status,0, pclath, cstack
 10522 ;; Tracked objects:
 10523 ;;		On entry : 0/0
 10524 ;;		On exit  : 0/0
 10525 ;;		Unchanged: 0/0
 10526 ;; Data sizes:     COMMON   BANK0   BANK1   BANK2   BANK3   BANK4   BANK5   BANK6   BANK7   BANK8   BANK9  BANK10  BANK1
      +1  BANK12  BANK13  BANK14  BANK15  BANK16  BANK17  BANK18  BANK19  BANK20  BANK21  BANK22  BANK23  BANK24  BANK25
 10527 ;;      Params:         0       0       0       0       0       0       0       0       0       0       0       0       
      +0       0       0       0       0       0       0       0       0       0       0       0       0       0       0
 10528 ;;      Locals:         0       0       0       0       0       0       0       0       0       0       0       0       
      +0       0       0       0       0       0       0       0       0       0       0       0       0       0       0
 10529 ;;      Temps:          0       0       0       0       0       0       0       0       0       0       0       0       
      +0       0       0       0       0       0       0       0       0       0       0       0       0       0       0
 10530 ;;      Totals:         0       0       0       0       0       0       0       0       0       0       0       0       
      +0       0       0       0       0       0       0       0       0       0       0       0       0       0       0
 10531 ;;Total ram usage:        0 bytes
 10532 ;; Hardware stack levels used: 1
 10533 ;; Hardware stack levels required when called: 1
 10534 ;; This function calls:
 10535 ;;		_EUSART1_RxDataHandler
 10536 ;; This function is called by:
 10537 ;;		_EUSART1_Initialize
 10538 ;;		_EUSART1_Receive_ISR
 10539 ;; This function uses a non-reentrant model
 10540 ;;
 10541                           
 10542                           
 10543                           ;psect for function _EUSART1_DefaultErrorHandler
 10544  0C70                     _EUSART1_DefaultErrorHandler:
 10545  0C70                     i1l4108:	
 10546                           ;incstack = 0
 10547                           ; Regs used in _EUSART1_DefaultErrorHandler: [wreg+fsr1l+fsr1h+status,2+status,0+pclath+
      +                          cstack]
 10548                           
 10549                           
 10550                           ;mcc_generated_files/eusart1.c: 270:     EUSART1_RxDataHandler();
 10551  0C70  318D  25BC  318C   	fcall	_EUSART1_RxDataHandler
 10552  0C73                     i1l667:
 10553  0C73  0008               	return
 10554  0C74                     __end_of_EUSART1_DefaultErrorHandler:
 10555                           
 10556                           	psect	text58
 10557  0DBC                     __ptext58:	
 10558 ;; *************** function _EUSART1_RxDataHandler *****************
 10559 ;; Defined at:
 10560 ;;		line 249 in file "mcc_generated_files/eusart1.c"
 10561 ;; Parameters:    Size  Location     Type
 10562 ;;		None
 10563 ;; Auto vars:     Size  Location     Type
 10564 ;;		None
 10565 ;; Return value:  Size  Location     Type
 10566 ;;                  1    wreg      void 
 10567 ;; Registers used:
 10568 ;;		wreg, fsr1l, fsr1h, status,2, status,0
 10569 ;; Tracked objects:
 10570 ;;		On entry : 0/0
 10571 ;;		On exit  : 0/0
 10572 ;;		Unchanged: 0/0
 10573 ;; Data sizes:     COMMON   BANK0   BANK1   BANK2   BANK3   BANK4   BANK5   BANK6   BANK7   BANK8   BANK9  BANK10  BANK1
      +1  BANK12  BANK13  BANK14  BANK15  BANK16  BANK17  BANK18  BANK19  BANK20  BANK21  BANK22  BANK23  BANK24  BANK25
 10574 ;;      Params:         0       0       0       0       0       0       0       0       0       0       0       0       
      +0       0       0       0       0       0       0       0       0       0       0       0       0       0       0
 10575 ;;      Locals:         0       0       0       0       0       0       0       0       0       0       0       0       
      +0       0       0       0       0       0       0       0       0       0       0       0       0       0       0
 10576 ;;      Temps:          1       0       0       0       0       0       0       0       0       0       0       0       
      +0       0       0       0       0       0       0       0       0       0       0       0       0       0       0
 10577 ;;      Totals:         1       0       0       0       0       0       0       0       0       0       0       0       
      +0       0       0       0       0       0       0       0       0       0       0       0       0       0       0
 10578 ;;Total ram usage:        1 bytes
 10579 ;; Hardware stack levels used: 1
 10580 ;; This function calls:
 10581 ;;		Nothing
 10582 ;; This function is called by:
 10583 ;;		_EUSART1_Receive_ISR
 10584 ;;		_EUSART1_DefaultErrorHandler
 10585 ;; This function uses a non-reentrant model
 10586 ;;
 10587                           
 10588                           
 10589                           ;psect for function _EUSART1_RxDataHandler
 10590  0DBC                     _EUSART1_RxDataHandler:
 10591  0DBC                     i1l3988:	
 10592                           ;incstack = 0
 10593                           ; Regs used in _EUSART1_RxDataHandler: [wreg+fsr1l+fsr1h+status,2+status,0]
 10594                           
 10595                           
 10596                           ;mcc_generated_files/eusart1.c: 251:     eusart1RxBuffer[eusart1RxHead++] = RC1REG;
 10597  0DBC  0142               	movlb	2	; select bank2
 10598  0DBD  0819               	movf	25,w	;volatile
 10599  0DBE  00F0               	movwf	??_EUSART1_RxDataHandler
 10600  0DBF  087C               	movf	_eusart1RxHead,w
 10601  0DC0  3EA8               	addlw	(low (_eusart1RxBuffer| 0))& (0+255)
 10602  0DC1  0086               	movwf	6
 10603  0DC2  0187               	clrf	7
 10604  0DC3  0870               	movf	??_EUSART1_RxDataHandler,w
 10605  0DC4  0081               	movwf	1
 10606  0DC5                     i1l3990:
 10607  0DC5  3001               	movlw	1
 10608  0DC6  00F0               	movwf	??_EUSART1_RxDataHandler
 10609  0DC7  0870               	movf	??_EUSART1_RxDataHandler,w
 10610  0DC8  07FC               	addwf	_eusart1RxHead,f	;volatile
 10611  0DC9                     i1l3992:
 10612                           
 10613                           ;mcc_generated_files/eusart1.c: 252:     if(sizeof(eusart1RxBuffer) <= eusart1RxHead)
 10614  0DC9  3008               	movlw	8
 10615  0DCA  027C               	subwf	_eusart1RxHead,w	;volatile
 10616  0DCB  1C03               	skipc
 10617  0DCC  2DCE               	goto	u241_21
 10618  0DCD  2DCF               	goto	u241_20
 10619  0DCE                     u241_21:
 10620  0DCE  2DD0               	goto	i1l3996
 10621  0DCF                     u241_20:
 10622  0DCF                     i1l3994:
 10623                           
 10624                           ;mcc_generated_files/eusart1.c: 253:     {;mcc_generated_files/eusart1.c: 254:         e
      +                          usart1RxHead = 0;
 10625  0DCF  01FC               	clrf	_eusart1RxHead	;volatile
 10626  0DD0                     i1l3996:
 10627                           
 10628                           ;mcc_generated_files/eusart1.c: 256:     eusart1RxCount++;
 10629  0DD0  3001               	movlw	1
 10630  0DD1  00F0               	movwf	??_EUSART1_RxDataHandler
 10631  0DD2  0870               	movf	??_EUSART1_RxDataHandler,w
 10632  0DD3  0141               	movlb	1	; select bank1
 10633  0DD4  07B9               	addwf	_eusart1RxCount^(0+128),f	;volatile
 10634  0DD5                     i1l658:
 10635  0DD5  0008               	return
 10636  0DD6                     __end_of_EUSART1_RxDataHandler:
 10637  007E                     btemp	set	126	;btemp
 10638  007E                     int$flags	set	126
 10639  007E                     wtemp0	set	126
 10640                           
 10641                           	psect	config
 10642                           
 10643                           ;Config register CONFIG1 @ 0x8007
 10644                           ;	External Oscillator mode selection bits
 10645                           ;	FEXTOSC = OFF, Oscillator not enabled
 10646                           ;	Power-up default value for COSC bits
 10647                           ;	RSTOSC = HFINT1, HFINTOSC (1MHz)
 10648                           ;	Clock Out Enable bit
 10649                           ;	CLKOUTEN = OFF, CLKOUT function is disabled; i/o or oscillator function on OSC2
 10650                           ;	Clock Switch Enable bit
 10651                           ;	CSWEN = ON, Writing to NOSC and NDIV is allowed
 10652                           ;	Fail-Safe Clock Monitor Enable bit
 10653                           ;	FCMEN = ON, FSCM timer enabled
 10654  8007                     	org	32775
 10655  8007  3FEC               	dw	16364
 10656                           
 10657                           ;Config register CONFIG2 @ 0x8008
 10658                           ;	Master Clear Enable bit
 10659                           ;	MCLRE = ON, MCLR pin is Master Clear function
 10660                           ;	Power-up Timer Enable bit
 10661                           ;	PWRTE = OFF, PWRT disabled
 10662                           ;	Low-Power BOR enable bit
 10663                           ;	LPBOREN = OFF, ULPBOR disabled
 10664                           ;	Brown-out reset enable bits
 10665                           ;	BOREN = ON, Brown-out Reset Enabled, SBOREN bit is ignored
 10666                           ;	Brown-out Reset Voltage Selection
 10667                           ;	BORV = LO, Brown-out Reset Voltage (VBOR) set to 1.9V on LF, and 2.45V on F Devices
 10668                           ;	Zero-cross detect disable
 10669                           ;	ZCD = OFF, Zero-cross detect circuit is disabled at POR.
 10670                           ;	Peripheral Pin Select one-way control
 10671                           ;	PPS1WAY = ON, The PPSLOCK bit can be cleared and set only once in software
 10672                           ;	Stack Overflow/Underflow Reset Enable bit
 10673                           ;	STVREN = ON, Stack Overflow or Underflow will cause a reset
 10674  8008                     	org	32776
 10675  8008  3FFF               	dw	16383
 10676                           
 10677                           ;Config register CONFIG3 @ 0x8009
 10678                           ;	WDT Period Select bits
 10679                           ;	WDTCPS = WDTCPS_31, Divider ratio 1:65536; software control of WDTPS
 10680                           ;	WDT operating mode
 10681                           ;	WDTE = OFF, WDT Disabled, SWDTEN is ignored
 10682                           ;	WDT Window Select bits
 10683                           ;	WDTCWS = WDTCWS_7, window always open (100%); software control; keyed access not requi
      +                          red
 10684                           ;	WDT input clock selector
 10685                           ;	WDTCCS = SC, Software Control
 10686  8009                     	org	32777
 10687  8009  3F9F               	dw	16287
 10688                           
 10689                           ;Config register CONFIG4 @ 0x800A
 10690                           ;	Boot Block Size Selection bits
 10691                           ;	BBSIZE = BB512, 512 words boot block size
 10692                           ;	Boot Block Enable bit
 10693                           ;	BBEN = OFF, Boot Block disabled
 10694                           ;	SAF Enable bit
 10695                           ;	SAFEN = OFF, SAF disabled
 10696                           ;	Application Block Write Protection bit
 10697                           ;	WRTAPP = OFF, Application Block not write protected
 10698                           ;	Boot Block Write Protection bit
 10699                           ;	WRTB = OFF, Boot Block not write protected
 10700                           ;	Configuration Register Write Protection bit
 10701                           ;	WRTC = OFF, Configuration Register not write protected
 10702                           ;	Storage Area Flash Write Protection bit
 10703                           ;	WRTSAF = OFF, SAF not write protected
 10704                           ;	Low Voltage Programming Enable bit
 10705                           ;	LVP = ON, Low Voltage programming enabled. MCLR/Vpp pin function is MCLR.
 10706  800A                     	org	32778
 10707  800A  3FFF               	dw	16383
 10708                           
 10709                           ;Config register CONFIG5 @ 0x800B
 10710                           ;	UserNVM Program memory code protection bit
 10711                           ;	CP = OFF, UserNVM code protection disabled
 10712  800B                     	org	32779
 10713  800B  3FFF               	dw	16383

Data Sizes:
    Strings     93
    Constant    32
    Data        9
    BSS         159
    Persistent  43
    Stack       0

Auto Spaces:
    Space          Size  Autos    Used
    COMMON           14     12      13
    BANK0            80     80      80
    BANK1            80     32      79
    BANK2            80     66      72
    BANK3            80     64      64
    BANK4            80      0      61
    BANK5            80      0      64
    BANK6            80      0       0
    BANK7            80      0       0
    BANK8            80      0       0
    BANK9            80      0       0
    BANK10           80      0       0
    BANK11           80      0       0
    BANK12           80      0       0
    BANK13           80      0       0
    BANK14           80      0       0
    BANK15           80      0       0
    BANK16           80      0       0
    BANK17           80      0       0
    BANK18           80      0       0
    BANK19           80      0       0
    BANK20           80      0       0
    BANK21           80      0       0
    BANK22           80      0       0
    BANK23           80      0       0
    BANK24           80      0       0
    BANK25           32      0       0

Pointer List with Targets:

    i2c_write1ByteRegister@data.data	PTR unsigned char  size(1) Largest target is 0

    i2c_read1ByteRegister@d2.data	PTR unsigned char  size(1) Largest target is 0

    i2c_read2ByteRegister@result.data	PTR unsigned char  size(1) Largest target is 0

    i2c_write2ByteRegister@data.data	PTR unsigned char  size(1) Largest target is 0

    I2C1_Read1ByteRegister@returnValue.data	PTR unsigned char  size(1) Largest target is 0

    I2C1_Read2ByteRegister@returnValue.data	PTR unsigned char  size(1) Largest target is 0

    I2C1_Write1ByteRegister@data.data	PTR unsigned char  size(1) Largest target is 0

    I2C1_Write2ByteRegister@data.data	PTR unsigned char  size(1) Largest target is 0

    I2C1_DO_TX$2540$0	PTR void  size(1) Largest target is 4
		 -> I2C1_ReadDataBlock@bufferBlock(COMMON[3]), I2C1_Write2ByteRegister@data(COMMON[2]), I2C1_Write1ByteRegister@data(COMMON[1]), I2C1_Read2ByteRegister@returnValue(COMMON[2]), 
		 -> I2C1_Read1ByteRegister@returnValue(COMMON[1]), i2c_readDataBlock@d(COMMON[3]), i2c_write2ByteRegister@data(COMMON[2]), i2c_read2ByteRegister@result(COMMON[2]), 
		 -> i2c_read1ByteRegister@d2(COMMON[1]), i2c_write1ByteRegister@data(COMMON[1]), NULL(NULL[0]), 

    cb$0	PTR void  size(1) Largest target is 4
		 -> I2C1_ReadDataBlock@bufferBlock(COMMON[3]), I2C1_Write2ByteRegister@data(COMMON[2]), I2C1_Write1ByteRegister@data(COMMON[1]), I2C1_Read2ByteRegister@returnValue(COMMON[2]), 
		 -> I2C1_Read1ByteRegister@returnValue(COMMON[1]), i2c_readDataBlock@d(COMMON[3]), i2c_write2ByteRegister@data(COMMON[2]), i2c_read2ByteRegister@result(COMMON[2]), 
		 -> i2c_read1ByteRegister@d2(COMMON[1]), i2c_write1ByteRegister@data(COMMON[1]), NULL(NULL[0]), 

    Absolute function$0	PTR void  size(1) Largest target is 4
		 -> I2C1_ReadDataBlock@bufferBlock(COMMON[3]), I2C1_Write2ByteRegister@data(COMMON[2]), I2C1_Write1ByteRegister@data(COMMON[1]), I2C1_Read2ByteRegister@returnValue(COMMON[2]), 
		 -> I2C1_Read1ByteRegister@returnValue(COMMON[1]), i2c_readDataBlock@d(COMMON[3]), i2c_write2ByteRegister@data(COMMON[2]), i2c_read2ByteRegister@result(COMMON[2]), 
		 -> i2c_read1ByteRegister@d2(COMMON[1]), i2c_write1ByteRegister@data(COMMON[1]), NULL(NULL[0]), 

    cb$0	PTR void  size(1) Largest target is 4
		 -> I2C1_ReadDataBlock@bufferBlock(COMMON[3]), I2C1_Write2ByteRegister@data(COMMON[2]), I2C1_Write1ByteRegister@data(COMMON[1]), I2C1_Read2ByteRegister@returnValue(COMMON[2]), 
		 -> I2C1_Read1ByteRegister@returnValue(COMMON[1]), i2c_readDataBlock@d(COMMON[3]), i2c_write2ByteRegister@data(COMMON[2]), i2c_read2ByteRegister@result(COMMON[2]), 
		 -> i2c_read1ByteRegister@d2(COMMON[1]), i2c_write1ByteRegister@data(COMMON[1]), NULL(NULL[0]), 

    S325$0$0	PTR void  size(1) Largest target is 4
		 -> I2C1_ReadDataBlock@bufferBlock(COMMON[3]), I2C1_Write2ByteRegister@data(COMMON[2]), I2C1_Write1ByteRegister@data(COMMON[1]), I2C1_Read2ByteRegister@returnValue(COMMON[2]), 
		 -> I2C1_Read1ByteRegister@returnValue(COMMON[1]), i2c_readDataBlock@d(COMMON[3]), i2c_write2ByteRegister@data(COMMON[2]), i2c_read2ByteRegister@result(COMMON[2]), 
		 -> i2c_read1ByteRegister@d2(COMMON[1]), i2c_write1ByteRegister@data(COMMON[1]), NULL(NULL[0]), 

    strlen@s	PTR const unsigned char  size(1) Largest target is 32
		 -> dbuf(BANK4[32]), 

    strlen@a	PTR const unsigned char  size(1) Largest target is 32
		 -> dbuf(BANK4[32]), 

    fputs@s	PTR const unsigned char  size(1) Largest target is 32
		 -> dbuf(BANK4[32]), 

    fputs@fp	PTR struct _IO_FILE size(1) Largest target is 0
		 -> NULL(NULL[0]), 

    S2007_IO_FILE$buffer	PTR unsigned char  size(1) Largest target is 0

    fputc@fp.buffer	PTR unsigned char  size(1) Largest target is 0

    fputc@fp	PTR struct _IO_FILE size(1) Largest target is 0
		 -> NULL(NULL[0]), 

    atoi@s	PTR const unsigned char  size(2) Largest target is 30
		 -> STR_5(CODE[30]), STR_4(CODE[2]), STR_3(CODE[13]), STR_2(CODE[22]), 
		 -> STR_1(CODE[26]), 

    vfprintf@ap	PTR PTR void  size(1) Largest target is 1
		 -> printf@ap(BANK1[1]), 

    vfprintf@fp	PTR struct _IO_FILE size(1) Largest target is 0
		 -> NULL(NULL[0]), 

    vfprintf@fmt	PTR const unsigned char  size(2) Largest target is 30
		 -> STR_5(CODE[30]), STR_4(CODE[2]), STR_3(CODE[13]), STR_2(CODE[22]), 
		 -> STR_1(CODE[26]), 

    vfprintf@cfmt	PTR unsigned char  size(2) Largest target is 30
		 -> STR_5(CODE[30]), STR_4(CODE[2]), STR_3(CODE[13]), STR_2(CODE[22]), 
		 -> STR_1(CODE[26]), 

    vfpfcnvrt@fp	PTR struct _IO_FILE size(1) Largest target is 0
		 -> NULL(NULL[0]), 

    vfpfcnvrt@ap	PTR PTR void  size(1) Largest target is 1
		 -> printf@ap(BANK1[1]), 

    vfpfcnvrt@fmt	PTR PTR unsigned char  size(1) Largest target is 2
		 -> vfprintf@cfmt(BANK1[2]), 

    xtoa@fp	PTR struct _IO_FILE size(1) Largest target is 0
		 -> NULL(NULL[0]), 

    pad@fp	PTR struct _IO_FILE size(1) Largest target is 0
		 -> NULL(NULL[0]), 

    pad@buf	PTR unsigned char  size(1) Largest target is 32
		 -> dbuf(BANK4[32]), 

    printf@fmt	PTR const unsigned char  size(2) Largest target is 30
		 -> STR_5(CODE[30]), STR_4(CODE[2]), STR_3(CODE[13]), STR_2(CODE[22]), 
		 -> STR_1(CODE[26]), 

    printf@ap	PTR void [1] size(1) Largest target is 2
		 -> ?_printf(BANK1[2]), 

    memcpy@d1	PTR void  size(1) Largest target is 66
		 -> EE_WritePage@frame(BANK0[66]), 

    memcpy@d	PTR unsigned char  size(1) Largest target is 66
		 -> EE_WritePage@frame(BANK0[66]), 

    memcpy@s1	PTR const void  size(1) Largest target is 64
		 -> main@datain(BANK3[64]), 

    memcpy@s	PTR const unsigned char  size(1) Largest target is 64
		 -> main@datain(BANK3[64]), 

    MemoryTest@pdata2	PTR const unsigned char  size(1) Largest target is 64
		 -> main@dataout(BANK2[64]), 

    MemoryTest@pdata1	PTR const unsigned char  size(1) Largest target is 64
		 -> main@datain(BANK3[64]), 

    RandomArray@pD	PTR unsigned char  size(1) Largest target is 64
		 -> main@datain(BANK3[64]), 

    EE_ReadPage@pData	PTR unsigned char  size(1) Largest target is 64
		 -> main@dataout(BANK2[64]), 

    sp__memcpy	PTR void  size(1) Largest target is 66
		 -> EE_WritePage@frame(BANK0[66]), 

    EE_WritePage@pdata	PTR const unsigned char  size(1) Largest target is 64
		 -> main@datain(BANK3[64]), 

    SW_I2C_WriteNBytes@data	PTR unsigned char  size(1) Largest target is 66
		 -> EE_ReadPage@frame(BANK0[2]), EE_WritePage@frame(BANK0[66]), EE_Read@frame(COMMON[3]), EE_Write@frame(BANK0[3]), 

    SW_I2C_ReadNBytes@data	PTR unsigned char  size(2) Largest target is 64
		 -> main@dataout(BANK2[64]), EE_Read@frame(COMMON[3]), 

    Sw_I2c_Cxt.Buf.pD	PTR unsigned char  size(1) Largest target is 0
		 -> NULL(NULL[0]), 

    Sw_I2c_Cxt.Rx.pD	PTR unsigned char  size(1) Largest target is 0
		 -> NULL(NULL[0]), 

    S1364$pD	PTR unsigned char  size(1) Largest target is 0
		 -> NULL(NULL[0]), 

    Sw_I2c_Cxt.Tx.pD	PTR unsigned char  size(1) Largest target is 0
		 -> NULL(NULL[0]), 

    EUSART1_SetRxInterruptHandler@interruptHandler	PTR FTN()void  size(2) Largest target is 1
		 -> EUSART1_Receive_ISR(), 

    EUSART1_RxDefaultInterruptHandler	PTR FTN()void  size(2) Largest target is 1
		 -> EUSART1_Receive_ISR(), Absolute function(), 

    EUSART1_SetTxInterruptHandler@interruptHandler	PTR FTN()void  size(2) Largest target is 1
		 -> EUSART1_Transmit_ISR(), 

    EUSART1_TxDefaultInterruptHandler	PTR FTN()void  size(2) Largest target is 1
		 -> EUSART1_Transmit_ISR(), Absolute function(), 

    EUSART1_SetErrorHandler@interruptHandler	PTR FTN()void  size(2) Largest target is 1
		 -> EUSART1_DefaultErrorHandler(), 

    EUSART1_SetOverrunErrorHandler@interruptHandler	PTR FTN()void  size(2) Largest target is 1
		 -> EUSART1_DefaultOverrunErrorHandler(), 

    EUSART1_SetFramingErrorHandler@interruptHandler	PTR FTN()void  size(2) Largest target is 1
		 -> EUSART1_DefaultFramingErrorHandler(), 

    EUSART1_ErrorHandler	PTR FTN()void  size(2) Largest target is 1
		 -> EUSART1_DefaultErrorHandler(), Absolute function(), 

    EUSART1_OverrunErrorHandler	PTR FTN()void  size(2) Largest target is 1
		 -> EUSART1_DefaultOverrunErrorHandler(), Absolute function(), 

    EUSART1_FramingErrorHandler	PTR FTN()void  size(2) Largest target is 1
		 -> EUSART1_DefaultFramingErrorHandler(), Absolute function(), 

    S325$data_ptr	PTR unsigned char  size(1) Largest target is 4
		 -> I2C1_ReadDataBlock@reg(COMMON[1]), I2C1_ReadDataBlock@bufferBlock(COMMON[3]), I2C1_Write2ByteRegister@reg(COMMON[1]), I2C1_Write2ByteRegister@data(COMMON[2]), 
		 -> I2C1_Write1ByteRegister@reg(COMMON[1]), I2C1_Write1ByteRegister@data(COMMON[1]), I2C1_Read2ByteRegister@reg(COMMON[1]), I2C1_Read2ByteRegister@returnValue(COMMON[2]), 
		 -> I2C1_Read1ByteRegister@reg(COMMON[1]), I2C1_Read1ByteRegister@returnValue(COMMON[1]), i2c_readDataBlock@reg(COMMON[1]), i2c_readDataBlock@d(COMMON[3]), 
		 -> i2c_write2ByteRegister@reg(COMMON[1]), i2c_write2ByteRegister@data(COMMON[2]), i2c_read2ByteRegister@reg(COMMON[1]), i2c_read2ByteRegister@result(COMMON[2]), 
		 -> i2c_read1ByteRegister@reg(COMMON[1]), i2c_read1ByteRegister@d2(COMMON[1]), i2c_write1ByteRegister@reg(COMMON[1]), i2c_write1ByteRegister@data(COMMON[1]), 
		 -> NULL(NULL[0]), 

    I2C1_Status.data_ptr	PTR unsigned char  size(1) Largest target is 4
		 -> I2C1_ReadDataBlock@reg(COMMON[1]), I2C1_ReadDataBlock@bufferBlock(COMMON[3]), I2C1_Write2ByteRegister@reg(COMMON[1]), I2C1_Write2ByteRegister@data(COMMON[2]), 
		 -> I2C1_Write1ByteRegister@reg(COMMON[1]), I2C1_Write1ByteRegister@data(COMMON[1]), I2C1_Read2ByteRegister@reg(COMMON[1]), I2C1_Read2ByteRegister@returnValue(COMMON[2]), 
		 -> I2C1_Read1ByteRegister@reg(COMMON[1]), I2C1_Read1ByteRegister@returnValue(COMMON[1]), i2c_readDataBlock@reg(COMMON[1]), i2c_readDataBlock@d(COMMON[3]), 
		 -> i2c_write2ByteRegister@reg(COMMON[1]), i2c_write2ByteRegister@data(COMMON[2]), i2c_read2ByteRegister@reg(COMMON[1]), i2c_read2ByteRegister@result(COMMON[2]), 
		 -> i2c_read1ByteRegister@reg(COMMON[1]), i2c_read1ByteRegister@d2(COMMON[1]), i2c_write1ByteRegister@reg(COMMON[1]), i2c_write1ByteRegister@data(COMMON[1]), 
		 -> NULL(NULL[0]), 

    S325$callbackPayload	PTR void [6] size(1) Largest target is 4
		 -> I2C1_ReadDataBlock@bufferBlock(COMMON[3]), I2C1_Write2ByteRegister@data(COMMON[2]), I2C1_Write1ByteRegister@data(COMMON[1]), I2C1_Read2ByteRegister@returnValue(COMMON[2]), 
		 -> I2C1_Read1ByteRegister@returnValue(COMMON[1]), i2c_readDataBlock@d(COMMON[3]), i2c_write2ByteRegister@data(COMMON[2]), i2c_read2ByteRegister@result(COMMON[2]), 
		 -> i2c_read1ByteRegister@d2(COMMON[1]), i2c_write1ByteRegister@data(COMMON[1]), NULL(NULL[0]), 

    I2C1_Status.callbackPayload	PTR void [6] size(1) Largest target is 4
		 -> I2C1_ReadDataBlock@bufferBlock(COMMON[3]), I2C1_Write2ByteRegister@data(COMMON[2]), I2C1_Write1ByteRegister@data(COMMON[1]), I2C1_Read2ByteRegister@returnValue(COMMON[2]), 
		 -> I2C1_Read1ByteRegister@returnValue(COMMON[1]), i2c_readDataBlock@d(COMMON[3]), i2c_write2ByteRegister@data(COMMON[2]), i2c_read2ByteRegister@result(COMMON[2]), 
		 -> i2c_read1ByteRegister@d2(COMMON[1]), i2c_write1ByteRegister@data(COMMON[1]), NULL(NULL[0]), 

    S325$callbackTable	PTR FTN(PTR void ,)enum E360[6] size(2) Largest target is 1
		 -> I2C1_CallbackReturnReset(), I2C1_CallbackReturnStop(), Absolute function(), rdBlkRegCompleteHandler@i2c1_master_example$F177(), 
		 -> wr2RegCompleteHandler@i2c1_master_example$F166(), wr1RegCompleteHandler@i2c1_master_example$F160(), rd2RegCompleteHandler@i2c1_master_example$F154(), rd1RegCompleteHandler@i2c1_master_example$F143(), 
		 -> rdBlkRegCompleteHandler(), wr2RegCompleteHandler(), rd2RegCompleteHandler(), rd1RegCompleteHandler(), 
		 -> wr1RegCompleteHandler(), 

    I2C1_Status.callbackTable	PTR FTN(PTR void ,)enum E360[6] size(2) Largest target is 1
		 -> I2C1_CallbackReturnReset(), I2C1_CallbackReturnStop(), Absolute function(), rdBlkRegCompleteHandler@i2c1_master_example$F177(), 
		 -> wr2RegCompleteHandler@i2c1_master_example$F166(), wr1RegCompleteHandler@i2c1_master_example$F160(), rd2RegCompleteHandler@i2c1_master_example$F154(), rd1RegCompleteHandler@i2c1_master_example$F143(), 
		 -> rdBlkRegCompleteHandler(), wr2RegCompleteHandler(), rd2RegCompleteHandler(), rd1RegCompleteHandler(), 
		 -> wr1RegCompleteHandler(), 

    i2c1_fsmStateTable	const PTR FTN()enum E8119[16] size(2) Largest target is 1
		 -> I2C1_DO_ADDRESS_NACK(), I2C1_DO_RESET(), I2C1_DO_RX_NACK_RESTART(), I2C1_DO_RX_NACK_STOP(), 
		 -> I2C1_DO_RX_ACK(), I2C1_DO_SEND_STOP(), I2C1_DO_SEND_RESTART(), I2C1_DO_SEND_RESTART_WRITE(), 
		 -> I2C1_DO_SEND_RESTART_READ(), I2C1_DO_TX_EMPTY(), I2C1_DO_RCEN(), I2C1_DO_RX(), 
		 -> I2C1_DO_TX(), I2C1_DO_SEND_ADR_WRITE(), I2C1_DO_SEND_ADR_READ(), I2C1_DO_IDLE(), 

    rdBlkRegCompleteHandler@i2c1_master_example$F177@ptr.data	PTR unsigned char  size(1) Largest target is 0

    bufferBlock.data	PTR unsigned char  size(1) Largest target is 0

    d.data	PTR unsigned char  size(1) Largest target is 0

    S74$data	PTR unsigned char  size(1) Largest target is 0

    rdBlkRegCompleteHandler@p.data	PTR unsigned char  size(1) Largest target is 0


Critical Paths under _main in COMMON

    _main->_EE_Write
    _main->_EE_WritePage
    _SYSTEM_Initialize->_EUSART1_Initialize
    _EUSART1_Initialize->_EUSART1_SetErrorHandler
    _EUSART1_Initialize->_EUSART1_SetFramingErrorHandler
    _EUSART1_Initialize->_EUSART1_SetOverrunErrorHandler
    _EUSART1_Initialize->_EUSART1_SetRxInterruptHandler
    _EUSART1_Initialize->_EUSART1_SetTxInterruptHandler
    _rand->___lmul
    _vfpfcnvrt->_fputc
    _toupper->_islower
    _pad->_fputc
    _fputs->_fputc
    _fputc->_putch
    _putch->_EUSART1_Write
    _atoi->___wmul
    _atoi->_isdigit
    _EE_WritePage->_SW_I2C_WriteNBytes
    _EE_Write->_SW_I2C_WriteNBytes
    _EE_ReadPage->_SW_I2C_ReadNBytes
    _SW_I2C_WriteNBytes->_SW_I2C_Write
    _SW_I2C_ReadNBytes->_SW_I2C_Read
    _SW_I2C_Write->_SW_I2C_WriteBit
    _SW_I2C_Stop->_SW_I2C_SCL_Pulse
    _SW_I2C_Stop->_SW_I2C_SDA_Pulse
    _SW_I2C_Start->_SW_I2C_SCL_Pulse
    _SW_I2C_Start->_SW_I2C_SDA_Pulse
    _SW_I2C_Read->_SW_I2C_ReadByte
    _SW_I2C_SendAck->_SW_I2C_WriteBit
    _SW_I2C_WriteBit->_SW_I2C_SCL_Pulse
    _SW_I2C_WriteBit->_SW_I2C_SDA_Pulse
    _SW_I2C_ReadBit->_SW_I2C_SCL_Pulse

Critical Paths under _INTERRUPT_InterruptManager in COMMON

    _INTERRUPT_InterruptManager->_EUSART1_Transmit_ISR
    _EUSART1_Receive_ISR->_EUSART1_RxDataHandler
    _EUSART1_DefaultErrorHandler->_EUSART1_RxDataHandler

Critical Paths under _main in BANK0

    _RandomArray->_rand
    _rand->___lmul
    _printf->_vfprintf
    _vfprintf->_vfpfcnvrt
    _vfpfcnvrt->_xtoa
    _xtoa->_pad
    _pad->_fputs
    _EE_WritePage->_SW_I2C_WriteNBytes
    _EE_Write->_SW_I2C_WriteNBytes
    _EE_ReadPage->_SW_I2C_ReadNBytes

Critical Paths under _INTERRUPT_InterruptManager in BANK0

    None.

Critical Paths under _main in BANK1

    _main->_MemoryTest
    _MemoryTest->_printf
    _printf->_vfprintf

Critical Paths under _INTERRUPT_InterruptManager in BANK1

    None.

Critical Paths under _main in BANK2

    None.

Critical Paths under _INTERRUPT_InterruptManager in BANK2

    None.

Critical Paths under _main in BANK3

    None.

Critical Paths under _INTERRUPT_InterruptManager in BANK3

    None.

Critical Paths under _main in BANK4

    None.

Critical Paths under _INTERRUPT_InterruptManager in BANK4

    None.

Critical Paths under _main in BANK5

    None.

Critical Paths under _INTERRUPT_InterruptManager in BANK5

    None.

Critical Paths under _main in BANK6

    None.

Critical Paths under _INTERRUPT_InterruptManager in BANK6

    None.

Critical Paths under _main in BANK7

    None.

Critical Paths under _INTERRUPT_InterruptManager in BANK7

    None.

Critical Paths under _main in BANK8

    None.

Critical Paths under _INTERRUPT_InterruptManager in BANK8

    None.

Critical Paths under _main in BANK9

    None.

Critical Paths under _INTERRUPT_InterruptManager in BANK9

    None.

Critical Paths under _main in BANK10

    None.

Critical Paths under _INTERRUPT_InterruptManager in BANK10

    None.

Critical Paths under _main in BANK11

    None.

Critical Paths under _INTERRUPT_InterruptManager in BANK11

    None.

Critical Paths under _main in BANK12

    None.

Critical Paths under _INTERRUPT_InterruptManager in BANK12

    None.

Critical Paths under _main in BANK13

    None.

Critical Paths under _INTERRUPT_InterruptManager in BANK13

    None.

Critical Paths under _main in BANK14

    None.

Critical Paths under _INTERRUPT_InterruptManager in BANK14

    None.

Critical Paths under _main in BANK15

    None.

Critical Paths under _INTERRUPT_InterruptManager in BANK15

    None.

Critical Paths under _main in BANK16

    None.

Critical Paths under _INTERRUPT_InterruptManager in BANK16

    None.

Critical Paths under _main in BANK17

    None.

Critical Paths under _INTERRUPT_InterruptManager in BANK17

    None.

Critical Paths under _main in BANK18

    None.

Critical Paths under _INTERRUPT_InterruptManager in BANK18

    None.

Critical Paths under _main in BANK19

    None.

Critical Paths under _INTERRUPT_InterruptManager in BANK19

    None.

Critical Paths under _main in BANK20

    None.

Critical Paths under _INTERRUPT_InterruptManager in BANK20

    None.

Critical Paths under _main in BANK21

    None.

Critical Paths under _INTERRUPT_InterruptManager in BANK21

    None.

Critical Paths under _main in BANK22

    None.

Critical Paths under _INTERRUPT_InterruptManager in BANK22

    None.

Critical Paths under _main in BANK23

    None.

Critical Paths under _INTERRUPT_InterruptManager in BANK23

    None.

Critical Paths under _main in BANK24

    None.

Critical Paths under _INTERRUPT_InterruptManager in BANK24

    None.

Critical Paths under _main in BANK25

    None.

Critical Paths under _INTERRUPT_InterruptManager in BANK25

    None.

Call Graph Tables:

 ---------------------------------------------------------------------------------
 (Depth) Function   	        Calls       Base Space   Used Autos Params    Refs
 ---------------------------------------------------------------------------------
 (0) _main                                               135   135      0   33128
                                             28 BANK1      4     4      0
                                              0 BANK2     66    66      0
                                              0 BANK3     64    64      0
                        _EE_ReadPage
                           _EE_Write
                       _EE_WritePage
                       _EUSART1_Read
                _EUSART1_is_rx_ready
                         _MemoryTest
                        _RandomArray
                        _SW_I2C_Init
                  _SYSTEM_Initialize
                             _printf
 ---------------------------------------------------------------------------------
 (1) _SYSTEM_Initialize                                    0     0      0     605
                 _EUSART1_Initialize
              _OSCILLATOR_Initialize
             _PIN_MANAGER_Initialize
                     _PMD_Initialize
 ---------------------------------------------------------------------------------
 (2) _PMD_Initialize                                       0     0      0       0
 ---------------------------------------------------------------------------------
 (2) _PIN_MANAGER_Initialize                               0     0      0       0
 ---------------------------------------------------------------------------------
 (2) _OSCILLATOR_Initialize                                0     0      0       0
 ---------------------------------------------------------------------------------
 (2) _EUSART1_Initialize                                   1     1      0     605
                                              3 COMMON     1     1      0
            _EUSART1_SetErrorHandler
     _EUSART1_SetFramingErrorHandler
     _EUSART1_SetOverrunErrorHandler
      _EUSART1_SetRxInterruptHandler
      _EUSART1_SetTxInterruptHandler
 ---------------------------------------------------------------------------------
 (3) _EUSART1_SetTxInterruptHandler                        2     0      2     121
                                              1 COMMON     2     0      2
 ---------------------------------------------------------------------------------
 (3) _EUSART1_SetRxInterruptHandler                        2     0      2     121
                                              1 COMMON     2     0      2
 ---------------------------------------------------------------------------------
 (3) _EUSART1_SetOverrunErrorHandler                       2     0      2     121
                                              1 COMMON     2     0      2
 ---------------------------------------------------------------------------------
 (3) _EUSART1_SetFramingErrorHandler                       2     0      2     121
                                              1 COMMON     2     0      2
 ---------------------------------------------------------------------------------
 (3) _EUSART1_SetErrorHandler                              2     0      2     121
                                              1 COMMON     2     0      2
 ---------------------------------------------------------------------------------
 (1) _SW_I2C_Init                                          0     0      0       0
 ---------------------------------------------------------------------------------
 (1) _RandomArray                                          3     2      1     510
                                              9 COMMON     2     2      0
                                             10 BANK0      1     0      1
                               _rand
 ---------------------------------------------------------------------------------
 (2) _rand                                                 6     4      2     316
                                              4 BANK0      6     4      2
                             ___lmul
 ---------------------------------------------------------------------------------
 (3) ___lmul                                              12     4      8     316
                                              1 COMMON     8     0      8
                                              0 BANK0      4     4      0
 ---------------------------------------------------------------------------------
 (1) _MemoryTest                                          13     8      5   11997
                                             15 BANK1     13     8      5
                             _printf
 ---------------------------------------------------------------------------------
 (1) _printf                                              12     4      8   11222
                                              5 BANK1     10     2      8
                           _vfprintf
 ---------------------------------------------------------------------------------
 (2) _vfprintf                                             8     5      3   10685
                                             77 BANK0      3     0      3
                                              0 BANK1      5     5      0
                          _vfpfcnvrt
 ---------------------------------------------------------------------------------
 (3) _vfpfcnvrt                                           43    41      2   10187
                                             55 BANK0     22    20      2
                               _atoi
                              _fputc
                            _isdigit
                               _xtoa
 ---------------------------------------------------------------------------------
 (4) _xtoa                                                38    29      9    5215
                                             17 BANK0     38    29      9
                            _isalpha
                            _isupper
                                _pad
                            _toupper
 ---------------------------------------------------------------------------------
 (5) _toupper                                              8     6      2     512
                                              7 COMMON     4     2      2
                                              0 BANK0      4     4      0
                            _islower
 ---------------------------------------------------------------------------------
 (6) _islower                                              6     4      2     191
                                              1 COMMON     6     4      2
 ---------------------------------------------------------------------------------
 (5) _pad                                                  9     6      3    3220
                                              8 BANK0      9     6      3
                              _fputc
                              _fputs
                             _strlen
 ---------------------------------------------------------------------------------
 (6) _strlen                                               5     3      2     166
                                              1 COMMON     5     3      2
 ---------------------------------------------------------------------------------
 (6) _fputs                                                8     7      1    1429
                                              0 BANK0      8     7      1
                              _fputc
 ---------------------------------------------------------------------------------
 (7) _fputc                                                8     5      3    1037
                                              4 COMMON     8     5      3
                              _putch
 ---------------------------------------------------------------------------------
 (8) _putch                                                1     1      0      93
                                              3 COMMON     1     1      0
                      _EUSART1_Write
 ---------------------------------------------------------------------------------
 (9) _EUSART1_Write                                        2     2      0      62
                                              1 COMMON     2     2      0
 ---------------------------------------------------------------------------------
 (5) _isupper                                              6     4      2     191
                                              1 COMMON     6     4      2
 ---------------------------------------------------------------------------------
 (5) _isalpha                                              8     6      2     191
                                              1 COMMON     8     6      2
 ---------------------------------------------------------------------------------
 (4) _atoi                                                15    13      2    2409
                                              7 COMMON     2     0      2
                                              0 BANK0     13    13      0
                             ___wmul
                            _isdigit
                            _isspace
 ---------------------------------------------------------------------------------
 (5) _isspace                                              5     3      2     259
                                              1 COMMON     5     3      2
 ---------------------------------------------------------------------------------
 (4) _isdigit                                              6     4      2     281
                                              1 COMMON     6     4      2
 ---------------------------------------------------------------------------------
 (5) ___wmul                                               6     2      4    1306
                                              1 COMMON     6     2      4
 ---------------------------------------------------------------------------------
 (1) _EUSART1_is_rx_ready                                  0     0      0       0
 ---------------------------------------------------------------------------------
 (1) _EUSART1_Read                                         2     2      0      37
                                              1 COMMON     2     2      0
 ---------------------------------------------------------------------------------
 (1) _EE_WritePage                                        70    67      3    2466
                                             11 COMMON     1     1      0
                                              4 BANK0     69    66      3
                 _SW_I2C_WriteNBytes
                             _memcpy
 ---------------------------------------------------------------------------------
 (2) _memcpy                                               8     5      3     424
                                              1 COMMON     8     5      3
 ---------------------------------------------------------------------------------
 (1) _EE_Write                                             7     4      3    2042
                                             11 COMMON     1     1      0
                                              4 BANK0      6     3      3
                 _SW_I2C_WriteNBytes
 ---------------------------------------------------------------------------------
 (1) _EE_ReadPage                                          6     3      3    3857
                                              8 BANK0      6     3      3
                  _SW_I2C_ReadNBytes
                 _SW_I2C_WriteNBytes
 ---------------------------------------------------------------------------------
 (2) _SW_I2C_WriteNBytes                                   7     4      3    1658
                                              8 COMMON     3     0      3
                                              0 BANK0      4     4      0
                       _SW_I2C_Start
                        _SW_I2C_Stop
                       _SW_I2C_Write
 ---------------------------------------------------------------------------------
 (2) _SW_I2C_ReadNBytes                                   10     6      4    1852
                                             10 COMMON     2     2      0
                                              0 BANK0      8     4      4
                        _SW_I2C_Read
                       _SW_I2C_Start
                        _SW_I2C_Stop
                       _SW_I2C_Write
 ---------------------------------------------------------------------------------
 (3) _SW_I2C_Write                                         3     3      0     421
                                              5 COMMON     3     3      0
                     _SW_I2C_ReadBit
                    _SW_I2C_WriteBit
 ---------------------------------------------------------------------------------
 (3) _SW_I2C_Stop                                          0     0      0     192
                   _SW_I2C_SCL_Pulse
                   _SW_I2C_SDA_Pulse
 ---------------------------------------------------------------------------------
 (3) _SW_I2C_Start                                         0     0      0     192
                   _SW_I2C_SCL_Pulse
                   _SW_I2C_SDA_Pulse
 ---------------------------------------------------------------------------------
 (3) _SW_I2C_Read                                          3     3      0     523
                                              7 COMMON     3     3      0
                    _SW_I2C_ReadByte
                     _SW_I2C_SendAck
 ---------------------------------------------------------------------------------
 (4) _SW_I2C_SendAck                                       1     1      0     254
                                              5 COMMON     1     1      0
                    _SW_I2C_WriteBit
 ---------------------------------------------------------------------------------
 (4) _SW_I2C_WriteBit                                      1     1      0     223
                                              4 COMMON     1     1      0
                   _SW_I2C_SCL_Pulse
                   _SW_I2C_SDA_Pulse
 ---------------------------------------------------------------------------------
 (5) _SW_I2C_SDA_Pulse                                     3     3      0      96
                                              1 COMMON     3     3      0
 ---------------------------------------------------------------------------------
 (4) _SW_I2C_ReadByte                                      3     3      0     204
                                              4 COMMON     3     3      0
                     _SW_I2C_ReadBit
 ---------------------------------------------------------------------------------
 (4) _SW_I2C_ReadBit                                       0     0      0      96
                   _SW_I2C_SCL_Pulse
 ---------------------------------------------------------------------------------
 (5) _SW_I2C_SCL_Pulse                                     3     3      0      96
                                              1 COMMON     3     3      0
 ---------------------------------------------------------------------------------
 Estimated maximum stack depth 9
 ---------------------------------------------------------------------------------
 (Depth) Function   	        Calls       Base Space   Used Autos Params    Refs
 ---------------------------------------------------------------------------------
 (11) _INTERRUPT_InterruptManager                          0     0      0       0
                   Absolute function *
                _EUSART1_Receive_ISR *
               _EUSART1_Transmit_ISR *
 ---------------------------------------------------------------------------------
 (12) _EUSART1_Transmit_ISR                                1     1      0       0
                                              0 COMMON     1     1      0
 ---------------------------------------------------------------------------------
 (12) _EUSART1_Receive_ISR                                 0     0      0       0
                   Absolute function *
        _EUSART1_DefaultErrorHandler *
 _EUSART1_DefaultFramingErrorHandler *
 _EUSART1_DefaultOverrunErrorHandler *
              _EUSART1_RxDataHandler
 ---------------------------------------------------------------------------------
 (13) _EUSART1_DefaultOverrunErrorHandler                  0     0      0       0
 ---------------------------------------------------------------------------------
 (13) _EUSART1_DefaultFramingErrorHandler                  0     0      0       0
 ---------------------------------------------------------------------------------
 (13) _EUSART1_DefaultErrorHandler                         0     0      0       0
              _EUSART1_RxDataHandler
 ---------------------------------------------------------------------------------
 (13) _EUSART1_RxDataHandler                               1     1      0       0
                                              0 COMMON     1     1      0
 ---------------------------------------------------------------------------------
 (13) Absolute function(Fake)                              1     0      1       0
 ---------------------------------------------------------------------------------
 Estimated maximum stack depth 13
 ---------------------------------------------------------------------------------

 Call Graph Graphs:

 _main (ROOT)
   _EE_ReadPage
     _SW_I2C_ReadNBytes
       _SW_I2C_Read
         _SW_I2C_ReadByte
           _SW_I2C_ReadBit
             _SW_I2C_SCL_Pulse
         _SW_I2C_SendAck
           _SW_I2C_WriteBit
             _SW_I2C_SCL_Pulse
             _SW_I2C_SDA_Pulse
       _SW_I2C_Start
         _SW_I2C_SCL_Pulse
         _SW_I2C_SDA_Pulse
       _SW_I2C_Stop
         _SW_I2C_SCL_Pulse
         _SW_I2C_SDA_Pulse
       _SW_I2C_Write
         _SW_I2C_ReadBit
         _SW_I2C_WriteBit
     _SW_I2C_WriteNBytes
       _SW_I2C_Start
       _SW_I2C_Stop
       _SW_I2C_Write
   _EE_Write
     _SW_I2C_WriteNBytes
   _EE_WritePage
     _SW_I2C_WriteNBytes
     _memcpy
   _EUSART1_Read
   _EUSART1_is_rx_ready
   _MemoryTest
     _printf
       _vfprintf
         _vfpfcnvrt
           _atoi
             ___wmul
             _isdigit
             _isspace
           _fputc
             _putch
               _EUSART1_Write
           _isdigit
           _xtoa
             _isalpha
             _isupper
             _pad
               _fputc
               _fputs
                 _fputc
               _strlen
             _toupper
               _islower
   _RandomArray
     _rand
       ___lmul
   _SW_I2C_Init
   _SYSTEM_Initialize
     _EUSART1_Initialize
       _EUSART1_SetErrorHandler
       _EUSART1_SetFramingErrorHandler
       _EUSART1_SetOverrunErrorHandler
       _EUSART1_SetRxInterruptHandler
       _EUSART1_SetTxInterruptHandler
     _OSCILLATOR_Initialize
     _PIN_MANAGER_Initialize
     _PMD_Initialize
   _printf

 _INTERRUPT_InterruptManager (ROOT)
   Absolute function(Fake) *
   _EUSART1_Receive_ISR *
     Absolute function(Fake) *
     _EUSART1_DefaultErrorHandler *
       _EUSART1_RxDataHandler
     _EUSART1_DefaultFramingErrorHandler *
     _EUSART1_DefaultOverrunErrorHandler *
     _EUSART1_RxDataHandler *
   _EUSART1_Transmit_ISR *

 Address spaces:
Name               Size   Autos  Total    Cost      Usage
BIGRAM             7F0      0       0       0        0.0%
NULL                 0      0       0       0        0.0%
CODE                 0      0       0       0        0.0%
BITCOMMON            E      0       0       1        0.0%
BITSFR0              0      0       0       1        0.0%
SFR0                 0      0       0       1        0.0%
COMMON               E      C       D       2       92.9%
BITSFR1              0      0       0       2        0.0%
SFR1                 0      0       0       2        0.0%
BITSFR2              0      0       0       3        0.0%
SFR2                 0      0       0       3        0.0%
STACK                0      0       0       3        0.0%
BITBANK0            50      0       0       4        0.0%
BITSFR3              0      0       0       4        0.0%
SFR3                 0      0       0       4        0.0%
BANK0               50     50      50       5      100.0%
BITSFR4              0      0       0       5        0.0%
SFR4                 0      0       0       5        0.0%
BITBANK1            50      0       0       6        0.0%
BITSFR5              0      0       0       6        0.0%
SFR5                 0      0       0       6        0.0%
BANK1               50     20      4F       7       98.8%
BITSFR6              0      0       0       7        0.0%
SFR6                 0      0       0       7        0.0%
BITSFR7              0      0       0       8        0.0%
SFR7                 0      0       0       8        0.0%
ABS                  0      0     1B1       8        0.0%
BITBANK2            50      0       0       9        0.0%
BITSFR8              0      0       0       9        0.0%
SFR8                 0      0       0       9        0.0%
BANK2               50     42      48      10       90.0%
BITSFR9              0      0       0      10        0.0%
SFR9                 0      0       0      10        0.0%
BITBANK3            50      0       0      11        0.0%
BITSFR10             0      0       0      11        0.0%
SFR10                0      0       0      11        0.0%
BANK3               50     40      40      12       80.0%
BITSFR11             0      0       0      12        0.0%
SFR11                0      0       0      12        0.0%
BITBANK4            50      0       0      13        0.0%
BITSFR12             0      0       0      13        0.0%
SFR12                0      0       0      13        0.0%
BANK4               50      0      3D      14       76.2%
BITSFR13             0      0       0      14        0.0%
SFR13                0      0       0      14        0.0%
BITBANK5            50      0       0      15        0.0%
BITSFR14             0      0       0      15        0.0%
SFR14                0      0       0      15        0.0%
BANK5               50      0      40      16       80.0%
BITSFR15             0      0       0      16        0.0%
SFR15                0      0       0      16        0.0%
BITBANK6            50      0       0      17        0.0%
BITSFR16             0      0       0      17        0.0%
SFR16                0      0       0      17        0.0%
BANK6               50      0       0      18        0.0%
BITSFR17             0      0       0      18        0.0%
SFR17                0      0       0      18        0.0%
BITBANK7            50      0       0      19        0.0%
BITSFR18             0      0       0      19        0.0%
SFR18                0      0       0      19        0.0%
BANK7               50      0       0      20        0.0%
BITSFR19             0      0       0      20        0.0%
SFR19                0      0       0      20        0.0%
BITBANK8            50      0       0      21        0.0%
BITSFR20             0      0       0      21        0.0%
SFR20                0      0       0      21        0.0%
BANK8               50      0       0      22        0.0%
BITSFR21             0      0       0      22        0.0%
SFR21                0      0       0      22        0.0%
BITBANK9            50      0       0      23        0.0%
BITSFR22             0      0       0      23        0.0%
SFR22                0      0       0      23        0.0%
BANK9               50      0       0      24        0.0%
BITSFR23             0      0       0      24        0.0%
SFR23                0      0       0      24        0.0%
BITBANK10           50      0       0      25        0.0%
BITSFR24             0      0       0      25        0.0%
SFR24                0      0       0      25        0.0%
BANK10              50      0       0      26        0.0%
BITSFR25             0      0       0      26        0.0%
SFR25                0      0       0      26        0.0%
BITBANK11           50      0       0      27        0.0%
BITSFR26             0      0       0      27        0.0%
SFR26                0      0       0      27        0.0%
BANK11              50      0       0      28        0.0%
BITSFR27             0      0       0      28        0.0%
SFR27                0      0       0      28        0.0%
BITBANK12           50      0       0      29        0.0%
BITSFR28             0      0       0      29        0.0%
SFR28                0      0       0      29        0.0%
BANK12              50      0       0      30        0.0%
BITSFR29             0      0       0      30        0.0%
SFR29                0      0       0      30        0.0%
BITBANK13           50      0       0      31        0.0%
BITSFR30             0      0       0      31        0.0%
SFR30                0      0       0      31        0.0%
BANK13              50      0       0      32        0.0%
BITSFR31             0      0       0      32        0.0%
SFR31                0      0       0      32        0.0%
BITBANK14           50      0       0      33        0.0%
BITSFR32             0      0       0      33        0.0%
SFR32                0      0       0      33        0.0%
BANK14              50      0       0      34        0.0%
BITSFR33             0      0       0      34        0.0%
SFR33                0      0       0      34        0.0%
BITBANK15           50      0       0      35        0.0%
BITSFR34             0      0       0      35        0.0%
SFR34                0      0       0      35        0.0%
BANK15              50      0       0      36        0.0%
BITSFR35             0      0       0      36        0.0%
SFR35                0      0       0      36        0.0%
BITBANK16           50      0       0      37        0.0%
BITSFR36             0      0       0      37        0.0%
SFR36                0      0       0      37        0.0%
BANK16              50      0       0      38        0.0%
BITSFR37             0      0       0      38        0.0%
SFR37                0      0       0      38        0.0%
BITBANK17           50      0       0      39        0.0%
BITSFR38             0      0       0      39        0.0%
SFR38                0      0       0      39        0.0%
BANK17              50      0       0      40        0.0%
BITSFR39             0      0       0      40        0.0%
SFR39                0      0       0      40        0.0%
BITBANK18           50      0       0      41        0.0%
BITSFR40             0      0       0      41        0.0%
SFR40                0      0       0      41        0.0%
BANK18              50      0       0      42        0.0%
BITSFR41             0      0       0      42        0.0%
SFR41                0      0       0      42        0.0%
BITBANK19           50      0       0      43        0.0%
BITSFR42             0      0       0      43        0.0%
SFR42                0      0       0      43        0.0%
BANK19              50      0       0      44        0.0%
BITSFR43             0      0       0      44        0.0%
SFR43                0      0       0      44        0.0%
BITBANK20           50      0       0      45        0.0%
BITSFR44             0      0       0      45        0.0%
SFR44                0      0       0      45        0.0%
BANK20              50      0       0      46        0.0%
BITSFR45             0      0       0      46        0.0%
SFR45                0      0       0      46        0.0%
BITBANK21           50      0       0      47        0.0%
BITSFR46             0      0       0      47        0.0%
SFR46                0      0       0      47        0.0%
BANK21              50      0       0      48        0.0%
BITSFR47             0      0       0      48        0.0%
SFR47                0      0       0      48        0.0%
BITBANK22           50      0       0      49        0.0%
BITSFR48             0      0       0      49        0.0%
SFR48                0      0       0      49        0.0%
BANK22              50      0       0      50        0.0%
BITSFR49             0      0       0      50        0.0%
SFR49                0      0       0      50        0.0%
BITBANK23           50      0       0      51        0.0%
BITSFR50             0      0       0      51        0.0%
SFR50                0      0       0      51        0.0%
BANK23              50      0       0      52        0.0%
BITSFR51             0      0       0      52        0.0%
SFR51                0      0       0      52        0.0%
BITBANK24           50      0       0      53        0.0%
BITSFR52             0      0       0      53        0.0%
SFR52                0      0       0      53        0.0%
BANK24              50      0       0      54        0.0%
BITSFR53             0      0       0      54        0.0%
SFR53                0      0       0      54        0.0%
BITBANK25           20      0       0      55        0.0%
BITSFR54             0      0       0      55        0.0%
SFR54                0      0       0      55        0.0%
BANK25              20      0       0      56        0.0%
BITSFR55             0      0       0      56        0.0%
SFR55                0      0       0      56        0.0%
BITSFR56             0      0       0      57        0.0%
SFR56                0      0       0      57        0.0%
DATA                 0      0     1B1      57        0.0%
BITSFR57             0      0       0      58        0.0%
SFR57                0      0       0      58        0.0%
BITSFR58             0      0       0      59        0.0%
SFR58                0      0       0      59        0.0%
BITSFR59             0      0       0      60        0.0%
SFR59                0      0       0      60        0.0%
BITSFR60             0      0       0      61        0.0%
SFR60                0      0       0      61        0.0%
BITSFR61             0      0       0      62        0.0%
SFR61                0      0       0      62        0.0%
BITSFR62             0      0       0      63        0.0%
SFR62                0      0       0      63        0.0%
BITSFR63             0      0       0      64        0.0%
SFR63                0      0       0      64        0.0%


Microchip Technology PIC Macro Assembler V2.32 build 20210201212658 
Symbol Table                                                                                   Fri Aug 13 20:12:57 2021

                        _eusart1TxBufferRemaining 00EE                               ___wmul@multiplicand 0073  
                                    ?_EE_ReadPage 0028                                               l613 0CB8  
                                             l631 07DC                                               l607 065A  
                                             l632 07E5                                               l641 0C7D  
                                             l626 0FD2                                               l635 07FF  
                                             l901 0F41                                               l821 0CCB  
                                             l910 0D44                                               l670 0C89  
                                             l824 0CAF                                               l921 0E27  
                                             l673 0C8F                                               l906 0F59  
                                             l682 0C95                                               l818 0CE5  
                                             l915 0D73                                               l931 0D03  
                                             l851 0CF3                                               l676 0C83  
                                             l780 061A                                               l926 0D2E  
                                             l934 0CD8                                               l918 0D18  
                                             l679 0C9B                                               l882 0ED5  
                                             l939 0EA7                                               l884 0ED7  
                                             l972 05D8                                               l877 0ED1  
                                             l894 0F3B                                               l879 0ED3  
                                             l896 0F3D                                               l889 0EED  
                                             l978 07D4                                               l899 0F3F  
                       SW_I2C_WriteNBytes@address 0022                                               _pad 04EC  
                         __size_of_PMD_Initialize 0008                                               wreg 0009  
                            _I2C1_DO_RX_NACK_STOP 0000                                       main@dataout 0120  
                                            l1026 0F34                                              l1036 0FFF  
                                            l1052 0595                                              l1045 0E0A  
                                            l1039 0F10                                              l1151 0742  
                                            l1137 0E50                                              l1058 042D  
                                            l1139 0E64                                              l1606 0D5B  
                                            l1712 0778                                              l1641 0508  
                                            l1705 0204                                              l1730 047A  
                                            l1803 0DEF                                              l1644 052A  
                                            l1645 0538                                              l1813 0F7F  
                                            l1653 022D                                              l1646 0544  
                                            l1743 04EB                                              l1752 0D8B  
                                            l1760 0E85                                              l1808 0F7F  
                                            l1649 0210                                              l1746 0E45  
                                            l1674 0348                                              l1690 00C5  
                                            l1819 0DBB                                              l1683 007E  
                                            l1596 079A                                              l1676 037B  
                                            l6100 0E02                                              l1781 0699  
                                            l1685 008A                                              l1766 0DA3  
                                            l1686 008D                                              l6110 055E  
                                            l6102 0E04                                              l1599 07A6  
                                            l1687 0090                                              l5400 0E55  
                                            l5320 07D6                                              l1688 0093  
                                            l6112 055F                                              l6104 0545  
                                            l6200 0422                                              l5402 0E5A  
                                            l5330 07FA                                              l5322 07E1  
                                            l5410 04F3                                              l6114 0589  
                                            l6106 0548                                              l6202 042A  
                                            l6060 0F16                                              l5404 0E60  
                                            l5332 07FB                                              l5324 07E6  
                                            l5340 0660                                              l5420 0517  
                                            l5412 04FC                                              l5500 0257  
                                            l6108 054A                                              l6116 058E  
                                            l1789 0FA8                                              l1797 06D5  
                                            l6070 0F32                                              l6062 0F1A  
                                            l5326 07F0                                              l5334 07FD  
                                            l5318 07D6                                              l5342 0665  
                                            l5422 051C                                              l5414 0501  
                                            l5510 0296                                              l5502 026F  
                                            l6118 0594                                              l6206 042D  
                                            ?_pad 0028                                              l5600 0D1B  
                                            l6064 0F1E                                              l6080 0FEA  
                                            l6072 0FD3                                              l5432 0E28  
                                            l5328 07F4                                              l5336 0C79  
                                            l5344 066A                                              l5352 0F82  
                                            l5360 0DD7                                              l5424 052F  
                                            l5416 0506                                              l5408 04EE  
                                            l5440 0F72                                              l5512 029C  
                                            l5520 02CB                                              l5504 0277  
                                            l6160 037C                                              l5602 0D1D  
                                            l6090 0EF7                                              l6066 0F1F  
                                            l6058 0F11                                              l6082 0FF6  
                                            l6074 0FD8                                              l5450 0E65  
                                            l5346 0674                                              l5338 065B  
                                            l5354 0F85                                              l5362 0DDC  
                                            l5418 050B                                              l5370 0DA4  
                                            l5442 0F78                                              l5530 031B  
                                            l5522 02D4                                              l5506 027E  
                                            l6170 0386                                              l6162 037E  
                                            l5380 0EE2                                              l5604 0D23  
                                            l5612 0CF5                                              l6092 0F03  
                                            l6068 0F2B                                              l6084 0FFD  
                                            l6076 0FDC                                              l5452 0E67  
                                            l5428 0D8C                                              l5348 0691  
                                            l5356 0F93                                              l5364 0DE0  
                                            l5436 0F5A                                              l5540 0352  
                                            l5532 0328                                              l5524 02D8  
                                            l5516 02B9                                              l5620 0069  
                                            l5700 01E1                                              l6172 038E  
                                            l6164 0381                                              l5382 0EE6  
                                            l5374 0ECC                                              l5606 0D27  
                                            l5390 0F4C                                              l5470 0D40  
                                            l5462 0D30                                              l5614 0CFA  
                                            l6086 0EEE                                              l6078 0FE8  
                                            l5446 0D74                                              l5454 0E6E  
                                            l5550 0443                                              l5358 0F98  
                                            l5366 0DE9                                              l5542 035B  
                                            l5534 0335                                              l5526 02DC  
                                            l5518 02BF                                              l5702 01FA  
                                            l5622 0071                                              l6094 0DF1  
                                            l6190 03FF                                              l6174 039B  
                                            l6166 0384                                              l5376 0ED8  
                                            l5480 0D6E                                              l5472 0D5C  
                                            l5608 0D2D                                              l5392 0F50  
                                            l5384 0F36                                              l5464 0D34  
                                            l5616 0CFF                                              l6088 0EF3  
                                            l5456 0E7D                                              l5560 0468  
                                            l5552 0447                                              l5544 0368  
                                            l5536 0343                                              l5528 030D  
                                            l5624 0076                                              l6096 0DF2  
                                            l5720 0C7E                                              l5712 0C90  
                                            l5800 0632                                              l6192 0404  
                                            l6184 03AF                                              l6176 03A5  
                                            l6168 0385                                              l5378 0EDA  
                                            l5474 0D60                                              l5386 0F42  
                                            l5466 0D38                                              l5722 0D04  
                                            l5730 0E0F                                              l5394 0E46  
                                            l5458 0E7E                                              l5570 0493  
                                            l5554 0449                                              l5538 034D  
                                            l5490 0225                                              l5650 00E0  
                                            l5642 009B                                              l5626 007A  
                                            l5618 0058                                              l6098 0DFE  
                                            l5714 0C96                                              l5810 0646  
                                            l5802 0634                                              l6194 040D  
                                            l6186 03DB                                              l6178 03AC  
                                            l5476 0D62                                              l5388 0F44  
                                            l5468 0D3C                                              l5740 0CCD  
                                            l5724 0D0C                                              l5732 0E13  
                                            l5900 07D1                                              l5396 0E48  
                                            l5580 04D5                                              l5564 046F  
                                            l5556 0453                                              l5548 043D  
                                            l5492 0235                                              l5484 0207  
                                            l5652 00E8                                              l5660 0100  
                                            l5628 0080                                              l5644 00BF  
                                            l5716 0C84                                              l5820 0658  
                                            l5812 064D                                              l5804 0636  
                                            l6196 0412                                              l6188 03F7  
                                            l5478 0D66                                              l5742 0CD7  
                                            l5726 0D10                                              l5734 0E17  
                                            l5902 077A                                              l5398 0E4C  
                                            l5582 04DB                                              l5574 04B3  
                                            l5566 0476                                              l5558 0467  
                                            l5494 023A                                              l5486 020C  
                                            l5662 0110                                              l5670 0142  
                                            l5654 00F5                                              l5646 00CA  
                                            l5638 0096                                              l5910 069A  
                                            l5718 0C8A                                              l5814 064F  
                                            l5806 0638                                              l5830 05E3  
                                            l5822 05D9                                              l6294 0436  
                                            l6198 041A                                              l5736 0E1B  
                                            l5728 0E0B                                              l5760 0E9D  
                                            l5752 0E88                                              l5904 0783  
                                            l5584 04E7                                              l5568 047F  
                                            l5496 023F                                              l5488 021F  
                                            l5680 018E                                              l5672 0154  
                                            l5664 0118                                              l5656 00F9  
                                            l5648 00CE                                              l6296 00AE  
                                            l5912 06BB                                              l5816 0650  
                                            l5808 063F                                              l5840 05EE  
                                            l5832 05E5                                              l5824 05DD  
                                            l5594 0D19                                              l5738 0E23  
                                            l5754 0E91                                              l5746 0E87  
                                            l5906 078B                                              l5930 0FAF  
                                            l5922 0CB0                                              l5578 04CF  
                                            l6298 048B                                              l5498 0254  
                                            l5690 01D0                                              l5674 0165  
                                            l5658 00FA                                              l5770 0723  
                                            l5818 0651                                              l5850 05FC  
                                            l5842 05F0                                              l5834 05E7  
                                            l5826 05DF                                              l5756 0E93  
                                            l5908 078F                                              l5940 0FCC  
                                            l5932 0FBF                                              l5676 0174  
                                            l5684 01AC                                              l5668 013C  
                                            l5780 074D                                              l5916 0D45  
                                            l5772 072A                                              l5764 070D  
                                            l5852 05FD                                              l5844 05F2  
                                            l5836 05E9                                              l5828 05E1  
                                            l5860 0CA8                                              l5758 0E97  
                                            l5942 0FCF                                              l5934 0FC3  
                                            l5926 0FA9                                              l5686 01BD  
                                            l5694 01D6                                              l5678 017C  
                                            l5782 0750                                              l5918 0D4A  
                                            l5774 0739                                              l5766 0716  
                                            l5790 061B                                              l5870 0CCA  
                                            l5862 0CC2                                              l5854 05FE  
                                            l5846 05F4                                              l5838 05EB  
                                            l5950 0CDC                                              l5880 05B1  
                                            l5872 0597                                              l5944 0FD1  
                                            l5936 0FC9                                              l5928 0FA9  
                                            l5696 01DE                                              l5688 01C5  
                                            l5784 0768                                              l5768 071A  
                                            l5960 0CEA                                              l5792 061D  
                                            l5864 0CC5                                              l5856 05FF  
                                            l5848 05FA                                              l5952 0CDF  
                                            l5882 05B5                                              l5874 059F  
                                            l5890 07B1                                              l5938 0FCA  
                                            l5786 0771                                              l5778 0745  
                                            l5970 0CF2                                              l5962 0CEC  
                                            l5794 0624                                              l5866 0CC6  
                                            l5858 0600                                              l5954 0CE2  
                                            l5884 05C9                                              l5876 05A1  
                                            l5892 07B4                                              l5964 0CED  
                                            l5956 0CE6                                              l5796 062D  
                                            l5868 0CC9                                              l5948 0CD9  
                                            l5886 05D5                                              l5878 05AD  
                                            l5894 07BB                                              l5966 0CEF  
                                            l5958 0CE9                                              l5798 0630  
                                            l5896 07C0                                              l5888 07A9  
                                            l5968 0CF0                                              l5898 07C4  
                                            STR_1 103E                                              STR_2 1058  
                                            STR_3 106E                                              STR_4 107B  
                                            STR_5 1020                                              _LATA 0018  
                                            _LATB 0019                                              _LATC 001A  
                                            u4000 0135                                              _LATD 001B  
                                            u4001 0133                                              _LATE 001C  
                                            u4010 0136                                              u4100 0EA7  
                                            u4020 0142                                              u4021 0141  
                                            u4030 0154                                              u4110 071A  
                                            u4031 0153                                              u4111 0719  
                                            u4200 0CB7                                              u3400 0FA8  
                                            u4040 0165                                              u4201 0CB5  
                                            u3401 0FA7                                              u4041 0164  
                                            u4210 0CB8                                              u3330 07DC  
                                            u3410 0DE9                                              u4050 01BD  
                                            u3331 07DB                                              u3411 0DE8  
                                            u4051 01BC                                              u4060 0E8D  
                                            u4220 0FAF                                              u3500 0E4C  
                                            u3340 07E1                                              u3420 0DB4  
                                            u4140 0739                                              u4061 0E8B  
                                            u4221 0FAE                                              u3501 0E4B  
                                            u3341 07E0                                              u3421 0DB2  
                                            u4141 0738                                              u4125 0724  
                                            u4070 0E8E                                              u4230 0FC9  
                                            u3350 07FA                                              u3430 0DB5  
                                            u4150 0771                                              u4231 0FC8  
                                            u3351 07F9                                              u4151 0770  
                                            u4135 072B                                              u3440 0ED1  
                                            u4080 0E9D                                              u4160 05C9  
                                            u3600 0E3E                                              u3360 0660  
                                            u4400 0422                                              u3441 0ED0  
                                            u4081 0E9C                                              u4161 05C8  
                                            u3601 0E3C                                              u3361 065F  
                                            u4401 0421                                              u3450 0EE2  
                                            u4090 0EA6                                              u4170 07D1  
                                            u3530 0E60                                              u3610 0E3F  
                                            u3370 0665                                              u4330 0E0A  
                                            u4410 042A                                              u3451 0EE1  
                                            u4091 0EA4                                              u4171 07D0  
                                            u3531 0E5F                                              u3515 0E51  
                                            u3371 0664                                              u4331 0E09  
                                            u4411 0429                                              u3460 0EED  
                                            u4180 07A6                                              u3380 0674  
                                            u3540 04F3                                              u3620 0F6B  
                                            u3700 021F                                              u4340 055E  
                                            u3461 0EEC                                              u4165 05C5  
                                            u4181 07A5                                              u3525 0E56  
                                            u3381 0673                                              u3541 04F2  
                                            u3621 0F69                                              u3701 021E  
                                            u4341 055D                                              u3470 0F3B  
                                            u3390 0691                                              u3550 0501  
                                            u3630 0F6C                                              u3710 023A  
                                            u4350 0594                                              u4190 06CF  
                                            u3471 0F3A                                              u4175 07CD  
                                            u3391 0690                                              u3551 0500  
                                            u3711 0239                                              u4351 0593  
                                            u3480 0F4C                                              u3560 052A  
                                            u3640 0F78                                              u3800 031B  
                                            u3720 026F                                              u3481 0F4B  
                                            u3561 0529                                              u3641 0F77  
                                            u3801 031A                                              u3721 026E  
                                            u3705 021B                                              u3490 0F59  
                                            u3650 0D84                                              u3570 052F  
                                            u3810 0328                                              u3730 028F  
                                            u3491 0F58                                              u4507 0D35  
                                            u3651 0D82                                              u3395 068D  
                                            u3571 052E                                              u3811 0327  
                                            u3731 028D                                              u4195 06CB  
                                            u4427 039F                                              u3660 0D85  
                                            u3900 04C9                                              u3580 0D9C  
                                            u3820 0335                                              u3740 0290  
                                            u4380 03F7                                              _PMD0 0796  
                                            u4517 0D41                                              u4437 0FF9  
                                            u3581 0D9A                                              u3565 0526  
                                            u3821 0334                                              u3805 0317  
                                            u3725 026B                                              u4381 03F6  
                                            _PMD1 0797                                              u3670 0E6E  
                                            u3910 04D5                                              u3590 0D9D  
                                            u3830 0343                                              u3750 029C  
                                            u4390 040D                                              _PMD2 0798  
                                            u4527 0D63                                              u4447 0F2E  
                                            u3671 0E6D                                              u3911 04D4  
                                            u3831 0342                                              u3751 029B  
                                            u4391 040C                                              _PMD3 0799  
                                            u3680 0E7D                                              u3920 04DB  
                                            u3840 0348                                              u3760 02B2  
                                            _PMD4 079A                                              u4537 0D6B  
                                            u4457 0E10                                              u3681 0E7C  
                                            u3921 04DA                                              u3841 0347  
                                            u3825 0331                                              u3761 02B0  
                                            _PMD5 079B                                              u3930 0D2D  
                                            u3850 034D                                              u3770 02B3  
                                            u3690 020C                                              u3931 0D2C  
                                            u4467 0E1C                                              u3851 034C  
                                            u3835 033F                                              u3691 020B  
                                            u3940 0CFA                                              u3860 0453  
                                            u3780 02BF                                              u3941 0CF9  
                                            u4477 0E24                                              u3861 0452  
                                            u3781 02BE                                              u3870 0467  
                                            u3790 02FA                                              u3950 0069  
                                            u4487 0D0D                                              u3871 0466  
                                            u3951 0068                                              u3880 0475  
                                            u3960 00C5                                              u4497 0D15  
                                            u3881 0474                                              u3961 00C4  
                                            u3890 04C8                                              u3970 00CA  
                                            u3891 04C6                                              u3795 02F1  
                                            u3971 00C9                                              u3980 00E0  
                                            u3981 00DF                                              u3990 00F9  
                                            u3991 00F8                                              _WPUA 1F39  
                                            _WPUB 1F44                                              _WPUC 1F4F  
                                            _WPUD 1F5A                                              _WPUE 1F65  
                                   _EUSART1_Write 07D5                                 ?_SW_I2C_SDA_Pulse 0070  
                                     _SW_I2C_Init 0CE6                                       _SW_I2C_Read 0CCC  
                                            _dbuf 023D                                              _atoi 043D  
                                            _main 037C                                       _SW_I2C_Stop 0E0B  
                                            _rand 069A                                              _seed 00BD  
                                   ?_EUSART1_Read 0070                                              _prec 00B4  
                                            _nout 00B0                                              pad@i 002C  
                                            pad@p 0029                                              fsr0h 0005  
                                            fsr1h 0007                                              indf0 0000  
                                            fsr0l 0004                                              indf1 0001  
                                            fsr1l 0006                                              pad@w 002E  
                                            btemp 007E                                              _xtoa 0205  
                           __size_of_SW_I2C_Start 0015                             __size_of_SW_I2C_Write 0022  
                              ??_SW_I2C_SDA_Pulse 0071                                              start 002B  
                               ?_SW_I2C_SCL_Pulse 0070                                ??_SW_I2C_SCL_Pulse 0071  
                                ?_SW_I2C_ReadByte 0070                                             ??_pad 002B  
                  __size_of_OSCILLATOR_Initialize 000A                             SW_I2C_SDA_Pulse@Count 0072  
                   __end_of_OSCILLATOR_Initialize 0CCC                                  __end_of_EE_Write 0F35  
                           _eusart1RxStatusBuffer 00A0                                             ?_atoi 0077  
                                           ?_main 0070                                             ?_rand 0024  
                                           ?_xtoa 0031                                             i1l703 0029  
                                           i1l644 0EC8                                             i1l661 0003  
                                           i1l654 070C                                             i1l647 0ECA  
                                           i1l664 0C77                                             i1l658 0DD5  
                                           i1l667 0C73                                             i1l698 001A  
                                           i1l699 0029                        __end_of_i2c1_fsmStateTable 1020  
                                           _OSCEN 0891                                      vfpfcnvrt@fmt 0057  
                                    vfpfcnvrt@llu 005F                                             _TRISA 0012  
                                           _TRISB 0013                                             _TRISC 0014  
                                           _TRISD 0015                                             _TRISE 0016  
                             ___lmul@multiplicand 0075                              _EUSART1_Transmit_ISR 0EA8  
                                   ?_EE_WritePage 0024                                             _flags 00B6  
                                    _SW_I2C_Start 0D04                                             _fputc 065B  
                                 __end_of_isalpha 0E46                                             _fputs 0F80  
                                 __end_of_isdigit 0D8C                                      _SW_I2C_Write 0E86  
                                ?_SW_I2C_WriteBit 0070                                             atoi@n 002B  
                                           pad@fp 0030                                             atoi@s 0077  
                                           _width 00B2                                             _putch 0C78  
                                 __end_of_islower 0DBC                                   __end_of_isspace 0E86  
                                  ?_EUSART1_Write 0070                                   __end_of_isupper 0DA4  
                                           pclath 000A                              SW_I2C_ReadNBytes@len 0022  
                                  ??_EUSART1_Read 0071                                             status 0003  
                                           wtemp0 007E                                             xtoa@c 0055  
                                           xtoa@d 0031                                             xtoa@i 0053  
                                           xtoa@n 004B                                             xtoa@p 0047  
                                           xtoa@w 0049                                             xtoa@x 0039  
                                   ??_RandomArray 0079                                   __end_of_toupper 0F80  
      __end_of_EUSART1_DefaultFramingErrorHandler 0004       __size_of_EUSART1_DefaultFramingErrorHandler 0001  
            ??_EUSART1_DefaultFramingErrorHandler 0070               ?_EUSART1_DefaultFramingErrorHandler 0070  
              _EUSART1_DefaultFramingErrorHandler 0003                                      _toupper$2205 0079  
                                 __initialization 002D                                      __end_of_atoi 04EC  
                      __end_of_EUSART1_Initialize 065B                                      __end_of_main 043D  
                                 EE_ReadPage@addr 0028                                      __end_of_rand 06D6  
                                    __end_of_xtoa 037C                       ?_INTERRUPT_InterruptManager 0070  
                                          ??_atoi 0020                                        _MemoryTest 0545  
                                          ??_main 00DD                                            ??_rand 0026  
                                          ??_xtoa 003A                             ?_EUSART1_Transmit_ISR 0070  
                                  ??_EE_WritePage 007B                                        _Sw_I2c_Cxt 00E1  
                                          ?_fputc 0074                                            ?_fputs 0020  
                                          _ANSELA 1F38                                            ?_putch 0070  
                                          _ANSELB 1F43                                            _ANSELC 1F4E  
                                          _ANSELD 1F59                                            _ANSELE 1F64  
                                     MemoryTest@i 00DC                                            _RC1REG 0119  
                                          _RC1STA 011D                                            _RC2PPS 1F22  
                                          _ODCONA 1F3A                                            _ODCONB 1F45  
                                          _ODCONC 1F50                                            _ODCOND 1F5B  
                                          _ODCONE 1F66                      __size_of_EUSART1_is_rx_ready 0009  
                                          i1l4106 0C74                                            i1l4108 0C70  
                                          i1l5130 001E                                            i1l5122 0006  
                                          i1l5132 0022                                            i1l5124 000A  
                                          i1l5126 000F                                            i1l4360 0EBC  
                                          i1l5128 0013                                            i1l4370 06E0  
                                          i1l4362 0EC2                                            i1l4354 0EA8  
                                          i1l4380 06F9                                            i1l4372 06E5  
                                          i1l4364 0EC3                                            i1l4356 0EAF  
                                          i1l4382 0702                                            i1l4374 06EA  
                                          i1l4366 06D6                                            i1l4358 0EB7  
                                          i1l4384 0709                                            i1l4376 06EF  
                                          i1l4368 06DB                                            i1l4378 06F4  
                                          i1l3990 0DC5                                            i1l3992 0DC9  
                                          i1l3994 0DCF                                            i1l3996 0DD0  
                                          i1l3988 0DBC                                            _INLVLA 1F3C  
                                          _INLVLB 1F47                                            _INLVLC 1F52  
                                          _INLVLD 1F5D                                            _INLVLE 1F68  
                                          u241_20 0DCF                                            u321_20 000A  
                                          u241_21 0DCE                                            u321_21 0009  
                                          u322_20 000F                                            u322_21 000E  
                                          u323_20 0013                                            u323_21 0012  
                                          u324_20 001E                                            u324_21 001D  
                                          u325_20 0022                                            u325_21 0021  
                                          u263_20 0EAF                                            u263_21 0EAE  
                                          u264_20 0EC2                                            u264_21 0EC1  
                                          u265_20 06E0                                            u265_21 06DF  
                                          u266_20 06EF                                            u266_21 06EE  
                                          u267_20 0702                                            u267_21 0701  
                                          _OSCFRQ 0893                                     vfpfcnvrt@done 0068  
                                          _TX1REG 011A                                            _TX1STA 011E  
                                _I2C1_DO_TX_EMPTY 0000                                      vfprintf@cfmt 00C4  
                                          ___lmul 070D                                            ___wmul 0E46  
                             __end_of_RandomArray 0E0B                          ?_EUSART1_SetErrorHandler 0071  
                                          _memcpy 0779                           __size_of_SW_I2C_ReadBit 0018  
                         __size_of_SW_I2C_SendAck 0010                                            _printf 0D45  
                                          pad@buf 0028                  ??_EUSART1_SetOverrunErrorHandler 0073  
                 ?_EUSART1_SetOverrunErrorHandler 0071                                            _strlen 0DD6  
                           _I2C1_DO_SEND_ADR_READ 0000                                            fputc@c 0074  
                                  _PMD_Initialize 0CA8                                            fputs@c 0024  
                                          fputs@i 0025                                            fputs@s 0027  
                                       ??_isalpha 0073                                         ??_isdigit 0073  
                            __size_of_EE_ReadPage 0023                                         ??_islower 0073  
                                       ??_isspace 0073                             SW_I2C_ReadNBytes@data 0020  
                     __size_of_SW_I2C_WriteNBytes 002E                                         ??_isupper 0073  
                                __end_of_vfprintf 0779                                   ??_EUSART1_Write 0071  
                                          xtoa@fp 0046                                   _eusart1RxBuffer 00A8  
                                       ??_toupper 0020                           _I2C1_DO_RX_NACK_RESTART 0000  
                                 _eusart1TxBuffer 02A0                                 _SYSTEM_Initialize 0CD9  
                         __end_of__initialization 0052                                ?_SYSTEM_Initialize 0070  
                                       ?_EE_Write 0024                    __size_of_EUSART1_RxDataHandler 001A  
                   __end_of_EUSART1_RxDataHandler 0DD6                           _rdBlkRegCompleteHandler 0000  
                                  __pcstackCOMMON 0070                                      __pidataBANK1 0CB9  
                             ??_SYSTEM_Initialize 0074                                      EE_Write@addr 0024  
                                EE_ReadPage@pData 002A                                      EE_Write@data 0026  
                                   __end_of_fputc 069A                                     __end_of_fputs 0FA9  
                                   __end_of_putch 0C7E                                  EE_ReadPage@frame 002C  
                          __end_of_PMD_Initialize 0CB0                                 _SW_I2C_ReadNBytes 0596  
                                     ?_MemoryTest 00D0                              __end_of_EUSART1_Read 0FD3  
                          ??_EUSART1_Transmit_ISR 0070                                ?_SW_I2C_ReadNBytes 0020  
                     __end_of_EUSART1_Receive_ISR 070D                                           ??_fputc 0077  
                       __end_of_SYSTEM_Initialize 0CE6                                           ??_fputs 0021  
                             ??_SW_I2C_ReadNBytes 0024                                           ??_putch 0073  
                                   _eusart1RxHead 007C                                     _eusart1TxHead 00BC  
                                   _eusart1RxTail 00BA                                        __pbssBANK1 00A0  
                                      __pbssBANK4 0220                                        __pbssBANK5 02A0  
                                   _eusart1TxTail 00BB                 _EUSART1_TxDefaultInterruptHandler 00EC  
                 ??_EUSART1_SetRxInterruptHandler 0073                                      ?_SW_I2C_Init 0070  
                                    ?_SW_I2C_Read 0070                                      ?_SW_I2C_Stop 0070  
                                      ??_EE_Write 007B                                       _RandomArray 0DF0  
                           _rd1RegCompleteHandler 0000                                 _I2C1_DO_SEND_STOP 0000  
                           _wr1RegCompleteHandler 0000                   __end_of_EUSART1_SetErrorHandler 0C84  
                                      __pmaintext 037C                              __end_of_EE_WritePage 1000  
                                         ?___lmul 0071                                           ?___wmul 0071  
                                      __pintentry 0004                         __end_of_SW_I2C_ReadNBytes 05D9  
                            SW_I2C_Write@data_out 0076                                           ?_memcpy 0071  
                       __size_of_SW_I2C_SDA_Pulse 0025                                    ___lmul@product 0020  
                                         ?_printf 00C6                                   ?_PMD_Initialize 0070  
                                         ?_strlen 0071            __end_of_EUSART1_SetFramingErrorHandler 0C8A  
         __size_of_EUSART1_SetFramingErrorHandler 0006                    _EUSART1_SetFramingErrorHandler 0C84  
                       __size_of_SW_I2C_SCL_Pulse 0023                                    SW_I2C_Read@ack 0078  
                    ?_EUSART1_DefaultErrorHandler 0070                                           _SP1BRGH 011C  
                                         _SP1BRGL 011B                                           _OSCCON1 088D  
                                         _OSCCON3 088F                                __size_of_vfpfcnvrt 01AF  
                                         _OSCSTAT 0890                                           _OSCTUNE 0892  
                                         _SSP1ADD 018D                                           _SLRCONA 1F3B  
                                         _SLRCONB 1F46                                           _SLRCONC 1F51  
                                         _SLRCOND 1F5C                                           _SLRCONE 1F67  
                                         _SSP1BUF 018C                                _i2c1_fsmStateTable 1000  
  _rd1RegCompleteHandler@i2c1_master_example$F143 0000    _wr1RegCompleteHandler@i2c1_master_example$F160 0000  
  _rd2RegCompleteHandler@i2c1_master_example$F154 0000    _wr2RegCompleteHandler@i2c1_master_example$F166 0000  
_rdBlkRegCompleteHandler@i2c1_master_example$F177 0000                               __size_of_MemoryTest 0051  
                                 __size_of___lmul 0036                                   __size_of___wmul 001F  
                                       ?_vfprintf 006D                                    _SW_I2C_ReadBit 0D5C  
                             _EUSART1_is_rx_ready 0CB0                                    _SW_I2C_SendAck 0CF4  
                                 __size_of_memcpy 002E                                           __ptext1 0CD9  
                                         __ptext2 0CA8                                           __ptext3 05D9  
                                         __ptext4 0CC2                                           __ptext5 061B  
                                         __ptext6 0C96                                           __ptext7 0C90  
                                         __ptext8 0C8A                                           __ptext9 0C84  
                                  MemoryTest@addr 00D0                                   __size_of_printf 0017  
                                 __size_of_strlen 001A                                    MemoryTest@rslt 00DB  
                           _OSCILLATOR_Initialize 0CC2                                      __size_of_pad 0059  
                                         _isalpha 0E28                                           _isdigit 0D74  
                        __size_of_SW_I2C_ReadByte 0016                            SW_I2C_WriteNBytes@data 0078  
                              _EUSART1_Initialize 061B                                           _islower 0DA4  
                        ??_PIN_MANAGER_Initialize 0071                                           _isspace 0E65  
                                         _isupper 0D8C                     ??_EUSART1_DefaultErrorHandler 0071  
                                         atoi@neg 0024                        __size_of_SYSTEM_Initialize 000D  
                                         clrloop0 0C9D                                           _toupper 0F5A  
                            end_of_initialization 0052                              ?_EUSART1_is_rx_ready 0070  
                             ?_EUSART1_Initialize 0070                                           memcpy@d 0077  
                                         memcpy@n 0072                                           memcpy@s 0078  
                                SW_I2C_ReadByte@i 0076                                           fputc@fp 0076  
                                         init_ram 0CA2                       _EUSART1_OverrunErrorHandler 0164  
                                         fputs@fp 0020                                           initloop 0CA3  
                          _I2C1_DO_SEND_ADR_WRITE 0000                          __size_of_SW_I2C_WriteBit 0016  
           __end_of_EUSART1_SetRxInterruptHandler 0C96            __size_of_EUSART1_SetRxInterruptHandler 0006  
                   _EUSART1_SetRxInterruptHandler 0C90                                       _I2C1_Status 0220  
                               __end_of_vfpfcnvrt 0205                            __end_of_SW_I2C_ReadBit 0D74  
                           __size_of_EUSART1_Read 002A                            __end_of_SW_I2C_SendAck 0D04  
                      __size_of_SW_I2C_ReadNBytes 0043                                        ??_vfprintf 00C1  
                            ??_EUSART1_Initialize 0073                        _I2C1_DO_SEND_RESTART_WRITE 0000  
                                         strlen@a 0074                                           strlen@s 0075  
                                EE_WritePage@addr 0024                                         _PORTCbits 000E  
                                       _TRISCbits 0014                                        main@DoNext 00E0  
                               SW_I2C_SDA_Pulse@x 0073                  __size_of_EUSART1_SetErrorHandler 0006  
                             EUSART1_Write@txData 0072                             ??_EUSART1_is_rx_ready 0071  
                                      main@datain 01A0                                      _EUSART1_Read 0FA9  
                           __size_of_EE_WritePage 002D                              __size_of_SW_I2C_Init 000E  
                            __size_of_SW_I2C_Read 000D                              __size_of_SW_I2C_Stop 001D  
            __size_of_EUSART1_DefaultErrorHandler 0004                                 __size_of_EE_Write 0024  
                                 ?_SW_I2C_ReadBit 0070                                   ?_SW_I2C_SendAck 0070  
                               SW_I2C_SCL_Pulse@x 0073                                    __end_of___lmul 0743  
                                     vfpfcnvrt@ap 0058                                       vfpfcnvrt@fp 006C  
                                  __end_of___wmul 0E65                                  _SW_I2C_SDA_Pulse 0F35  
                                  _I2C1_DO_RX_ACK 0000                                     ??_EE_ReadPage 002B  
                                    ??_MemoryTest 00D5                                    __end_of_memcpy 07A7  
                          ?_OSCILLATOR_Initialize 0070                                     EE_Write@frame 0027  
                                _SW_I2C_SCL_Pulse 0ECB                        __end_of_SW_I2C_WriteNBytes 07D5  
                                  __end_of_printf 0D5C                                    __end_of_strlen 0DF0  
                             start_initialization 002D                   __size_of_PIN_MANAGER_Initialize 0042  
                                     __end_of_pad 0545                                      _EE_WritePage 0FD3  
   EUSART1_SetRxInterruptHandler@interruptHandler 0071     EUSART1_SetTxInterruptHandler@interruptHandler 0071  
                                     putch@txData 0073                             __end_of_EUSART1_Write 0800  
                               ??_SW_I2C_ReadByte 0074                                  SW_I2C_WriteBit@x 0074  
                                    ?_RandomArray 002A                                __end_of_MemoryTest 0596  
                                     vfprintf@fmt 006D                                  ??_PMD_Initialize 0071  
                                        ??___lmul 0079                                          ??___wmul 0075  
                           _EUSART1_RxDataHandler 0DBC                    ?_EUSART1_SetRxInterruptHandler 0071  
                                     __pdataBANK1 00E1                                 ??_SW_I2C_WriteBit 0074  
                                        ??_memcpy 0074                                          ??_printf 00CE  
                                        ??_strlen 0073                                    _eusart1RxCount 00B9  
                                     __pbssCOMMON 007C                              _I2C1_DO_SEND_RESTART 0000  
               _EUSART1_RxDefaultInterruptHandler 00EA                                         ___latbits 0003  
                   __size_of_EUSART1_Transmit_ISR 0023                                     __pcstackBANK0 0020  
                                   __pcstackBANK1 00C1                                     __pcstackBANK2 0120  
                                   __pcstackBANK3 01A0                               __end_of_EE_ReadPage 0F11  
                                   ?_SW_I2C_Start 0070                                     ?_SW_I2C_Write 0070  
                 ??_EUSART1_SetTxInterruptHandler 0073                  ??_EUSART1_SetFramingErrorHandler 0073  
                 ?_EUSART1_SetFramingErrorHandler 0071                      __size_of_EUSART1_Receive_ISR 0037  
                                       _atoi$2125 0026                                         _atoi$2126 002A  
                                       _atoi$2127 0028                                         __pnvBANK1 00EA  
                                       __pnvBANK2 0162                             _rd2RegCompleteHandler 0000  
                          _PIN_MANAGER_Initialize 05D9                             _wr2RegCompleteHandler 0000  
                             SW_I2C_WriteNBytes@i 0023                      ??_INTERRUPT_InterruptManager 0071  
                                MemoryTest@pdata1 00D2                                  MemoryTest@pdata2 00D3  
                               __size_of_vfprintf 0036                                          _BAUD1CON 011F  
                           SW_I2C_SCL_Pulse@Count 0072        __end_of_EUSART1_DefaultOverrunErrorHandler 0C78  
     __size_of_EUSART1_DefaultOverrunErrorHandler 0004              ??_EUSART1_DefaultOverrunErrorHandler 0070  
             ?_EUSART1_DefaultOverrunErrorHandler 0070                _EUSART1_DefaultOverrunErrorHandler 0C74  
                                        ?_isalpha 0071                                          ?_isdigit 0071  
                            _EUSART1_ErrorHandler 0162                                          ?_islower 0071  
                                        ?_isspace 0071                                     SW_I2C_Write@i 0077  
                                        ?_isupper 0071                                    ??_SW_I2C_Start 0074  
                         _EUSART1_SetErrorHandler 0C7E                                    ??_SW_I2C_Write 0075  
                                  __size_of_fputc 003F                                    __size_of_fputs 0029  
                                        ?_toupper 0077                                     MemoryTest@len 00D4  
                                  __size_of_putch 0006                             SW_I2C_WriteNBytes@len 0079  
                                  ___wmul@product 0075           EUSART1_SetErrorHandler@interruptHandler 0071  
                                        _LATBbits 0019                                          _LATCbits 001A  
                                      _I2C1_DO_RX 0000                                        _I2C1_DO_TX 0000  
                                  RandomArray@len 002A                                          _EE_Write 0F11  
                                       clear_ram0 0C9C                                          _PIE3bits 0719  
             __size_of_INTERRUPT_InterruptManager 0027                                          _PIR3bits 070F  
                                        _RX1DTPPS 1ECB                            ?_EUSART1_RxDataHandler 0070  
                       _I2C1_DO_SEND_RESTART_READ 0000                                          _SSP1CON1 0190  
                                        _SSP1CON2 0191                                          _SSP1STAT 018F  
                                       _vfpfcnvrt 0056                                         _xtoa$2091 0042  
                                       _xtoa$2092 0044                                       _EE_ReadPage 0EEE  
                               ___wmul@multiplier 0071                                      _isspace$2152 0075  
                                   _I2C1_DO_RESET 0000                                SW_I2C_Read@data_in 0079  
                                      vfpfcnvrt@c 0067                                 ___lmul@multiplier 0071  
                              SW_I2C_ReadNBytes@i 007B                          __end_of_SW_I2C_SDA_Pulse 0F5A  
                           EUSART1_Read@readValue 0072                                  ??_SW_I2C_ReadBit 0074  
                        __end_of_SW_I2C_SCL_Pulse 0EEE                                  ??_SW_I2C_SendAck 0075  
           __end_of_EUSART1_SetTxInterruptHandler 0C9C            __size_of_EUSART1_SetTxInterruptHandler 0006  
                   _EUSART1_SetTxInterruptHandler 0C96                              __size_of_RandomArray 001B  
                                       memcpy@tmp 0075                                        vfprintf@ap 006F  
                                      vfprintf@fp 00C3                            SW_I2C_ReadByte@data_in 0075  
                         ??_OSCILLATOR_Initialize 0071                       __size_of_EUSART1_Initialize 0040  
                                      ?_vfpfcnvrt 0057                                   _SW_I2C_ReadByte 0D19  
                       ??_EUSART1_SetErrorHandler 0073               __end_of_EUSART1_DefaultErrorHandler 0C74  
                     _EUSART1_DefaultErrorHandler 0C70                       __end_of_EUSART1_is_rx_ready 0CB9  
                                __size_of_isalpha 001E                                  __size_of_isdigit 0018  
                                __size_of_islower 0018                                  __size_of_isspace 0021  
                                        __ptext10 0C7E                                          __ptext11 0CE6  
                                        __ptext20 0F5A                                          __ptext12 0DF0  
                                        __ptext21 0DA4                                          __ptext13 069A  
                                        __ptext30 043D                                          __ptext22 04EC  
                                        __ptext14 070D                                          __ptext31 0E65  
                                        __ptext23 0DD6                                          __ptext15 0545  
                                        __ptext40 07A7                                          __ptext32 0D74  
                                        __ptext24 0F80                                          __ptext16 0D45  
                                        __ptext41 0596                                          __ptext33 0E46  
                                        __ptext25 065B                                          __ptext17 0743  
                                        __ptext50 0D5C                                          __ptext42 0E86  
                                        __ptext34 0CB0                                          __ptext26 0C78  
                                        __ptext18 0056                                          __ptext51 0ECB  
                                        __ptext43 0E0B                                          __ptext35 0FA9  
                                        __ptext27 07D5                                          __ptext19 0205  
                                        __ptext44 0D04                                          __ptext36 0FD3  
                                        __ptext28 0D8C                                          __ptext53 0EA8  
                                        __ptext45 0CCC                                          __ptext37 0779  
                                        __ptext29 0E28                                          __ptext54 06D6  
                                        __ptext46 0CF4                                          __ptext38 0F11  
                                        __ptext55 0C74                                          __ptext47 0D2F  
                                        __ptext39 0EEE                                          __ptext56 0003  
                                        __ptext48 0F35                                          __ptext57 0C70  
                                        __ptext49 0D19                                          __ptext58 0DBC  
                                __size_of_isupper 0018                                      _SSP1CON1bits 0190  
                                    _SSP1CON2bits 0191                          SW_I2C_ReadNBytes@address 007A  
                                __size_of_toupper 0026                                _SW_I2C_WriteNBytes 07A7  
                                   ??_SW_I2C_Init 0071                                     ??_SW_I2C_Read 0077  
                                   ??_SW_I2C_Stop 0074                          _I2C1_CallbackReturnReset 0000  
                                   __size_of_atoi 00AF                                     __size_of_main 00C1  
                                   __size_of_rand 003C                                     __size_of_xtoa 0177  
                                 _SW_I2C_WriteBit 0D2F                                     RandomArray@pD 007A  
                             ?_SW_I2C_WriteNBytes 0078                                        _RC1STAbits 011D  
  EUSART1_SetOverrunErrorHandler@interruptHandler 0071                              __end_of_SW_I2C_Start 0D19  
                            __end_of_SW_I2C_Write 0EA8                                          int$flags 007E  
                                      _ODCONCbits 1F50                                          _vfprintf 0743  
              __end_of_INTERRUPT_InterruptManager 002B                        _INTERRUPT_InterruptManager 0004  
                                        main@addr 0160                                         printf@fmt 00C6  
                                    _SSP1STATbits 018F                       _EUSART1_FramingErrorHandler 0166  
                                    _I2C1_DO_IDLE 0000                               _EUSART1_Receive_ISR 06D6  
                                    _I2C1_DO_RCEN 0000                                    _vfpfcnvrt$2107 006A  
                                      _INTCONbits 000B                              ??_SW_I2C_WriteNBytes 0020  
                                        memcpy@d1 0076                                          memcpy@s1 0071  
                                        isalpha@c 0071                                          isdigit@c 0071  
                                        intlevel1 0000                              ?_EUSART1_Receive_ISR 0070  
                                        islower@c 0071                                          isspace@c 0071  
                         ?_PIN_MANAGER_Initialize 0070            __end_of_EUSART1_SetOverrunErrorHandler 0C90  
         __size_of_EUSART1_SetOverrunErrorHandler 0006                    _EUSART1_SetOverrunErrorHandler 0C8A  
                                        isupper@c 0071                           _I2C1_CallbackReturnStop 0000  
                    __end_of_EUSART1_Transmit_ISR 0ECB                              _I2C1_DO_ADDRESS_NACK 0000  
                             __end_of_SW_I2C_Init 0CF4                               __end_of_SW_I2C_Read 0CD9  
                             __end_of_SW_I2C_Stop 0E28                                          printf@ap 00CF  
                         __end_of_SW_I2C_ReadByte 0D2F    EUSART1_SetFramingErrorHandler@interruptHandler 0071  
                  ?_EUSART1_SetTxInterruptHandler 0071                                       ??_vfpfcnvrt 0059  
                          __size_of_EUSART1_Write 002B                                _eusart1RxLastError 00B8  
                                   __pstringtext1 1000                                     __pstringtext2 1020  
                                   __pstringtext3 103E                                     __pstringtext4 1058  
                                   __pstringtext5 106E                                     __pstringtext6 107B  
                                   __pstringtext7 0000                                 SW_I2C_SendAck@ack 0075  
                                        toupper@c 0077                                 EE_WritePage@frame 0027  
                               EE_WritePage@pdata 0026                                        _TX1STAbits 011E  
                         __end_of_SW_I2C_WriteBit 0D45                             ??_EUSART1_Receive_ISR 0071  
                  __end_of_PIN_MANAGER_Initialize 061B                           ??_EUSART1_RxDataHandler 0070  
